(dp1
S'output'
p2
S"<type 'exceptions.TypeError'> _unlock() takes exactly 2 arguments (1 given)"
p3
sS'layer'
p4
S'/Users/mdipierro/Dropbox/web2py/applications/inplace/controllers/default.py'
p5
sS'code'
p6
S'# -*- coding: utf-8 -*-\n# developed by Massimo Di Pierro, BSD License\n\nresponse.title=\'Inplace Web Page Editor\'\nresponse.subtitle=\'experimental!\'\n\n@auth.requires_login()\ndef index():\n    form=SQLFORM.factory(Field(\'url\',requires=IS_URL(),default=\'http://web2py.com\'))\n    if form.process().accepted:\n        redirect(URL(\'edit\',vars=dict(url=form.vars.url)))\n    clones = db(db.clone).select()\n    return locals()\n\n@auth.requires_login()\ndef edit():\n    session._unlock()                    \n    import urllib,re\n    print request.args(0)\n    if request.args(0)==\'post\':\n        return request.vars.value or \'\'\n    elif request.args(0)==\'store\':\n        session.new_html = session.html.split(\'<body\')[0]+\'<body>\'+request.vars.html+\'</body></html>\'\n        return \'ok\'\n    \n    url = request.vars.url\n    try:\n        html = urllib.urlopen(url).read()\n    except IOError:\n        session.flash = \'web page does not exist!\'\n        redirect(URL(\'index\'))\n    session.url = url\n    session.new_html = session.html = html\n    html = re.sub(\'\\s+[\\n]\',\'\\n\',html)\n    html = re.sub(\'>[ \\t]+<\',\'> <\',html)\n    html = re.sub(\'(src|SRC)\\s*=\\s*"/(?!/)\',\'src="\'+\'/\'.join(url.split(\'/\')[:3])+\'/\',html)\n    html = re.sub(\'(src|SRC)\\s*=\\s*"(?!(/|http))\',\'src="\'+\'/\'.join(url.split(\'/\'))+\'/\',html)\n    html = re.sub(\'(href|HREF)\\s*=\\s*"/(?!/)\',\'href="\'+\'/\'.join(url.split(\'/\')[:3])+\'/\',html)\n    html = re.sub(\'(href|HREF)\\s*=\\s*"(?!(/|http))\',\'href="\'+\'/\'.join(url.split(\'/\'))+\'/\',html)\n    html = re.sub(\'url\\(/(?!/)\',\'url(\'+\'/\'.join(url.split(\'/\')[:3])+\'/\',html)\n    html = re.sub(\'url\\((?!(/|http))\',\'url(\'+\'/\'.join(url.split(\'/\'))+\'/\',html)\n    inject = \'<script src="%s" language="javascript"></script>\' % URL(\'static\',\'js/inject.js\')\n    html = html.replace(\'</head>\',inject+\'</head>\')\n    return html\n\n@auth.requires_login()\ndef clone():\n    id = db.clone.insert(url=session.url,html=session.new_html)\n    redirect(URL(\'page\',args=id))\n\ndef page():\n    if request.args(0)==\'clone\': redirect(URL(\'index\'))\n    return db.clone(request.args(0)).html\n\ndef user():\n    return dict(form=auth())\n\nresponse._vars=response._caller(edit)\n'
p7
sS'snapshot'
p8
(dp9
S'exception'
p10
(dp11
S'__hash__'
p12
S"<method-wrapper '__hash__' of exceptions.TypeError object at 0x1f86dc8>"
p13
sS'__setattr__'
p14
S"<method-wrapper '__setattr__' of exceptions.TypeError object at 0x1f86dc8>"
p15
sS'__reduce_ex__'
p16
S'<built-in method __reduce_ex__ of exceptions.TypeError object at 0x1f86dc8>'
p17
sS'__getslice__'
p18
S"<method-wrapper '__getslice__' of exceptions.TypeError object at 0x1f86dc8>"
p19
sS'__getitem__'
p20
S"<method-wrapper '__getitem__' of exceptions.TypeError object at 0x1f86dc8>"
p21
sS'__setstate__'
p22
S'<built-in method __setstate__ of exceptions.TypeError object at 0x1f86dc8>'
p23
sS'__reduce__'
p24
S'<built-in method __reduce__ of exceptions.TypeError object at 0x1f86dc8>'
p25
sS'__str__'
p26
S"<method-wrapper '__str__' of exceptions.TypeError object at 0x1f86dc8>"
p27
sS'args'
p28
S"('_unlock() takes exactly 2 arguments (1 given)',)"
p29
sS'__getattribute__'
p30
S"<method-wrapper '__getattribute__' of exceptions.TypeError object at 0x1f86dc8>"
p31
sS'__class__'
p32
S"<type 'exceptions.TypeError'>"
p33
sS'__delattr__'
p34
S"<method-wrapper '__delattr__' of exceptions.TypeError object at 0x1f86dc8>"
p35
sS'__repr__'
p36
S"<method-wrapper '__repr__' of exceptions.TypeError object at 0x1f86dc8>"
p37
sS'__dict__'
p38
S'{}'
p39
sS'__doc__'
p40
S"'Inappropriate argument type.'"
p41
sS'__init__'
p42
S"<method-wrapper '__init__' of exceptions.TypeError object at 0x1f86dc8>"
p43
sS'__new__'
p44
S'<built-in method __new__ of type object at 0xdb6c0>'
p45
ssS'evalue'
p46
S'_unlock() takes exactly 2 arguments (1 given)'
p47
sS'request'
p48
ccopy_reg
_reconstructor
p49
(cgluon.html
BEAUTIFY
p50
c__builtin__
object
p51
NtRp52
(dp53
S'attributes'
p54
(dp55
sS'components'
p56
(lp57
g49
(cgluon.html
TABLE
p58
g51
NtRp59
(dp60
g54
(dp61
S'level'
p62
I5
ssS'parent'
p63
Nsg56
(lp64
g49
(cgluon.html
TR
p65
g51
NtRp66
(dp67
g54
(dp68
sg63
g59
sg56
(lp69
g49
(cgluon.html
TD
p70
g51
NtRp71
(dp72
g54
(dp73
S'_style'
p74
S'font-weight:bold;vertical-align:top'
p75
ssg63
g66
sg56
(lp76
S'ajax'
p77
asbag49
(g70
g51
NtRp78
(dp79
g54
(dp80
S'_valign'
p81
S'top'
p82
ssg63
g66
sg56
(lp83
S':'
asbag49
(g70
g51
NtRp84
(dp85
g54
(dp86
sg63
g66
sg56
(lp87
g49
(g50
g51
NtRp88
(dp89
g54
(dp90
g62
I5
ssg63
g84
sg56
(lp91
S'False'
p92
asbasbasbag49
(g65
g51
NtRp93
(dp94
g54
(dp95
sg63
g59
sg56
(lp96
g49
(g70
g51
NtRp97
(dp98
g54
(dp99
g74
g75
ssg63
g93
sg56
(lp100
S'application'
p101
asbag49
(g70
g51
NtRp102
(dp103
g54
(dp104
g81
g82
ssg63
g93
sg56
(lp105
S':'
asbag49
(g70
g51
NtRp106
(dp107
g54
(dp108
sg63
g93
sg56
(lp109
g49
(g50
g51
NtRp110
(dp111
g54
(dp112
g62
I5
ssg63
g106
sg56
(lp113
S'inplace'
p114
asbasbasbag49
(g65
g51
NtRp115
(dp116
g54
(dp117
sg63
g59
sg56
(lp118
g49
(g70
g51
NtRp119
(dp120
g54
(dp121
g74
g75
ssg63
g115
sg56
(lp122
g28
asbag49
(g70
g51
NtRp123
(dp124
g54
(dp125
g81
g82
ssg63
g115
sg56
(lp126
S':'
asbag49
(g70
g51
NtRp127
(dp128
g54
(dp129
sg63
g115
sg56
(lp130
g49
(g50
g51
NtRp131
(dp132
g54
(dp133
g62
I5
ssg63
g127
sg56
(lp134
g49
(g58
g51
NtRp135
(dp136
g54
(dp137
g62
I4
ssg63
Nsg56
(lp138
sbasbasbasbag49
(g65
g51
NtRp139
(dp140
g54
(dp141
sg63
g59
sg56
(lp142
g49
(g70
g51
NtRp143
(dp144
g54
(dp145
g74
g75
ssg63
g139
sg56
(lp146
S'body'
p147
asbag49
(g70
g51
NtRp148
(dp149
g54
(dp150
g81
g82
ssg63
g139
sg56
(lp151
S':'
asbag49
(g70
g51
NtRp152
(dp153
g54
(dp154
sg63
g139
sg56
(lp155
g49
(g50
g51
NtRp156
(dp157
g54
(dp158
g62
I5
ssg63
g152
sg56
(lp159
S'<cStringIO.StringO object at 0x14ceba0>'
p160
asbasbasbag49
(g65
g51
NtRp161
(dp162
g54
(dp163
sg63
g59
sg56
(lp164
g49
(g70
g51
NtRp165
(dp166
g54
(dp167
g74
g75
ssg63
g161
sg56
(lp168
S'client'
p169
asbag49
(g70
g51
NtRp170
(dp171
g54
(dp172
g81
g82
ssg63
g161
sg56
(lp173
S':'
asbag49
(g70
g51
NtRp174
(dp175
g54
(dp176
sg63
g161
sg56
(lp177
g49
(g50
g51
NtRp178
(dp179
g54
(dp180
g62
I5
ssg63
g174
sg56
(lp181
S'127.0.0.1'
p182
asbasbasbag49
(g65
g51
NtRp183
(dp184
g54
(dp185
sg63
g59
sg56
(lp186
g49
(g70
g51
NtRp187
(dp188
g54
(dp189
g74
g75
ssg63
g183
sg56
(lp190
S'controller'
p191
asbag49
(g70
g51
NtRp192
(dp193
g54
(dp194
g81
g82
ssg63
g183
sg56
(lp195
S':'
asbag49
(g70
g51
NtRp196
(dp197
g54
(dp198
sg63
g183
sg56
(lp199
g49
(g50
g51
NtRp200
(dp201
g54
(dp202
g62
I5
ssg63
g196
sg56
(lp203
S'default'
p204
asbasbasbag49
(g65
g51
NtRp205
(dp206
g54
(dp207
sg63
g59
sg56
(lp208
g49
(g70
g51
NtRp209
(dp210
g54
(dp211
g74
g75
ssg63
g205
sg56
(lp212
S'cookies'
p213
asbag49
(g70
g51
NtRp214
(dp215
g54
(dp216
g81
g82
ssg63
g205
sg56
(lp217
S':'
asbag49
(g70
g51
NtRp218
(dp219
g54
(dp220
sg63
g205
sg56
(lp221
g49
(g50
g51
NtRp222
(dp223
g54
(dp224
g62
I5
ssg63
g218
sg56
(lp225
g49
(g58
g51
NtRp226
(dp227
g54
(dp228
g62
I4
ssg63
Nsg56
(lp229
g49
(g65
g51
NtRp230
(dp231
g54
(dp232
sg63
g226
sg56
(lp233
g49
(g70
g51
NtRp234
(dp235
g54
(dp236
g74
g75
ssg63
g230
sg56
(lp237
S'el-finder-last-finder'
p238
asbag49
(g70
g51
NtRp239
(dp240
g54
(dp241
g81
g82
ssg63
g230
sg56
(lp242
S':'
asbag49
(g70
g51
NtRp243
(dp244
g54
(dp245
sg63
g230
sg56
(lp246
g49
(g50
g51
NtRp247
(dp248
g54
(dp249
g62
I4
ssg63
g243
sg56
(lp250
g49
(g58
g51
NtRp251
(dp252
g54
(dp253
g62
I3
ssg63
Nsg56
(lp254
g49
(g65
g51
NtRp255
(dp256
g54
(dp257
sg63
g251
sg56
(lp258
g49
(g70
g51
NtRp259
(dp260
g54
(dp261
g74
g75
ssg63
g255
sg56
(lp262
S'comment'
p263
asbag49
(g70
g51
NtRp264
(dp265
g54
(dp266
g81
g82
ssg63
g255
sg56
(lp267
S':'
asbag49
(g70
g51
NtRp268
(dp269
g54
(dp270
sg63
g255
sg56
(lp271
g49
(g50
g51
NtRp272
(dp273
g54
(dp274
g62
I3
ssg63
g268
sg56
(lp275
S''
asbasbasbag49
(g65
g51
NtRp276
(dp277
g54
(dp278
sg63
g251
sg56
(lp279
g49
(g70
g51
NtRp280
(dp281
g54
(dp282
g74
g75
ssg63
g276
sg56
(lp283
S'domain'
p284
asbag49
(g70
g51
NtRp285
(dp286
g54
(dp287
g81
g82
ssg63
g276
sg56
(lp288
S':'
asbag49
(g70
g51
NtRp289
(dp290
g54
(dp291
sg63
g276
sg56
(lp292
g49
(g50
g51
NtRp293
(dp294
g54
(dp295
g62
I3
ssg63
g289
sg56
(lp296
S''
asbasbasbag49
(g65
g51
NtRp297
(dp298
g54
(dp299
sg63
g251
sg56
(lp300
g49
(g70
g51
NtRp301
(dp302
g54
(dp303
g74
g75
ssg63
g297
sg56
(lp304
S'expires'
p305
asbag49
(g70
g51
NtRp306
(dp307
g54
(dp308
g81
g82
ssg63
g297
sg56
(lp309
S':'
asbag49
(g70
g51
NtRp310
(dp311
g54
(dp312
sg63
g297
sg56
(lp313
g49
(g50
g51
NtRp314
(dp315
g54
(dp316
g62
I3
ssg63
g310
sg56
(lp317
S''
asbasbasbag49
(g65
g51
NtRp318
(dp319
g54
(dp320
sg63
g251
sg56
(lp321
g49
(g70
g51
NtRp322
(dp323
g54
(dp324
g74
g75
ssg63
g318
sg56
(lp325
S'max-age'
p326
asbag49
(g70
g51
NtRp327
(dp328
g54
(dp329
g81
g82
ssg63
g318
sg56
(lp330
S':'
asbag49
(g70
g51
NtRp331
(dp332
g54
(dp333
sg63
g318
sg56
(lp334
g49
(g50
g51
NtRp335
(dp336
g54
(dp337
g62
I3
ssg63
g331
sg56
(lp338
S''
asbasbasbag49
(g65
g51
NtRp339
(dp340
g54
(dp341
sg63
g251
sg56
(lp342
g49
(g70
g51
NtRp343
(dp344
g54
(dp345
g74
g75
ssg63
g339
sg56
(lp346
S'path'
p347
asbag49
(g70
g51
NtRp348
(dp349
g54
(dp350
g81
g82
ssg63
g339
sg56
(lp351
S':'
asbag49
(g70
g51
NtRp352
(dp353
g54
(dp354
sg63
g339
sg56
(lp355
g49
(g50
g51
NtRp356
(dp357
g54
(dp358
g62
I3
ssg63
g352
sg56
(lp359
S''
asbasbasbag49
(g65
g51
NtRp360
(dp361
g54
(dp362
sg63
g251
sg56
(lp363
g49
(g70
g51
NtRp364
(dp365
g54
(dp366
g74
g75
ssg63
g360
sg56
(lp367
S'secure'
p368
asbag49
(g70
g51
NtRp369
(dp370
g54
(dp371
g81
g82
ssg63
g360
sg56
(lp372
S':'
asbag49
(g70
g51
NtRp373
(dp374
g54
(dp375
sg63
g360
sg56
(lp376
g49
(g50
g51
NtRp377
(dp378
g54
(dp379
g62
I3
ssg63
g373
sg56
(lp380
S''
asbasbasbag49
(g65
g51
NtRp381
(dp382
g54
(dp383
sg63
g251
sg56
(lp384
g49
(g70
g51
NtRp385
(dp386
g54
(dp387
g74
g75
ssg63
g381
sg56
(lp388
S'version'
p389
asbag49
(g70
g51
NtRp390
(dp391
g54
(dp392
g81
g82
ssg63
g381
sg56
(lp393
S':'
asbag49
(g70
g51
NtRp394
(dp395
g54
(dp396
sg63
g381
sg56
(lp397
g49
(g50
g51
NtRp398
(dp399
g54
(dp400
g62
I3
ssg63
g394
sg56
(lp401
S''
asbasbasbasbasbasbasbag49
(g65
g51
NtRp402
(dp403
g54
(dp404
sg63
g226
sg56
(lp405
g49
(g70
g51
NtRp406
(dp407
g54
(dp408
g74
g75
ssg63
g402
sg56
(lp409
S'registered'
p410
asbag49
(g70
g51
NtRp411
(dp412
g54
(dp413
g81
g82
ssg63
g402
sg56
(lp414
S':'
asbag49
(g70
g51
NtRp415
(dp416
g54
(dp417
sg63
g402
sg56
(lp418
g49
(g50
g51
NtRp419
(dp420
g54
(dp421
g62
I4
ssg63
g415
sg56
(lp422
g49
(g58
g51
NtRp423
(dp424
g54
(dp425
g62
I3
ssg63
Nsg56
(lp426
g49
(g65
g51
NtRp427
(dp428
g54
(dp429
sg63
g423
sg56
(lp430
g49
(g70
g51
NtRp431
(dp432
g54
(dp433
g74
g75
ssg63
g427
sg56
(lp434
g263
asbag49
(g70
g51
NtRp435
(dp436
g54
(dp437
g81
g82
ssg63
g427
sg56
(lp438
S':'
asbag49
(g70
g51
NtRp439
(dp440
g54
(dp441
sg63
g427
sg56
(lp442
g49
(g50
g51
NtRp443
(dp444
g54
(dp445
g62
I3
ssg63
g439
sg56
(lp446
S''
asbasbasbag49
(g65
g51
NtRp447
(dp448
g54
(dp449
sg63
g423
sg56
(lp450
g49
(g70
g51
NtRp451
(dp452
g54
(dp453
g74
g75
ssg63
g447
sg56
(lp454
g284
asbag49
(g70
g51
NtRp455
(dp456
g54
(dp457
g81
g82
ssg63
g447
sg56
(lp458
S':'
asbag49
(g70
g51
NtRp459
(dp460
g54
(dp461
sg63
g447
sg56
(lp462
g49
(g50
g51
NtRp463
(dp464
g54
(dp465
g62
I3
ssg63
g459
sg56
(lp466
S''
asbasbasbag49
(g65
g51
NtRp467
(dp468
g54
(dp469
sg63
g423
sg56
(lp470
g49
(g70
g51
NtRp471
(dp472
g54
(dp473
g74
g75
ssg63
g467
sg56
(lp474
g305
asbag49
(g70
g51
NtRp475
(dp476
g54
(dp477
g81
g82
ssg63
g467
sg56
(lp478
S':'
asbag49
(g70
g51
NtRp479
(dp480
g54
(dp481
sg63
g467
sg56
(lp482
g49
(g50
g51
NtRp483
(dp484
g54
(dp485
g62
I3
ssg63
g479
sg56
(lp486
S''
asbasbasbag49
(g65
g51
NtRp487
(dp488
g54
(dp489
sg63
g423
sg56
(lp490
g49
(g70
g51
NtRp491
(dp492
g54
(dp493
g74
g75
ssg63
g487
sg56
(lp494
g326
asbag49
(g70
g51
NtRp495
(dp496
g54
(dp497
g81
g82
ssg63
g487
sg56
(lp498
S':'
asbag49
(g70
g51
NtRp499
(dp500
g54
(dp501
sg63
g487
sg56
(lp502
g49
(g50
g51
NtRp503
(dp504
g54
(dp505
g62
I3
ssg63
g499
sg56
(lp506
S''
asbasbasbag49
(g65
g51
NtRp507
(dp508
g54
(dp509
sg63
g423
sg56
(lp510
g49
(g70
g51
NtRp511
(dp512
g54
(dp513
g74
g75
ssg63
g507
sg56
(lp514
g347
asbag49
(g70
g51
NtRp515
(dp516
g54
(dp517
g81
g82
ssg63
g507
sg56
(lp518
S':'
asbag49
(g70
g51
NtRp519
(dp520
g54
(dp521
sg63
g507
sg56
(lp522
g49
(g50
g51
NtRp523
(dp524
g54
(dp525
g62
I3
ssg63
g519
sg56
(lp526
S''
asbasbasbag49
(g65
g51
NtRp527
(dp528
g54
(dp529
sg63
g423
sg56
(lp530
g49
(g70
g51
NtRp531
(dp532
g54
(dp533
g74
g75
ssg63
g527
sg56
(lp534
g368
asbag49
(g70
g51
NtRp535
(dp536
g54
(dp537
g81
g82
ssg63
g527
sg56
(lp538
S':'
asbag49
(g70
g51
NtRp539
(dp540
g54
(dp541
sg63
g527
sg56
(lp542
g49
(g50
g51
NtRp543
(dp544
g54
(dp545
g62
I3
ssg63
g539
sg56
(lp546
S''
asbasbasbag49
(g65
g51
NtRp547
(dp548
g54
(dp549
sg63
g423
sg56
(lp550
g49
(g70
g51
NtRp551
(dp552
g54
(dp553
g74
g75
ssg63
g547
sg56
(lp554
g389
asbag49
(g70
g51
NtRp555
(dp556
g54
(dp557
g81
g82
ssg63
g547
sg56
(lp558
S':'
asbag49
(g70
g51
NtRp559
(dp560
g54
(dp561
sg63
g547
sg56
(lp562
g49
(g50
g51
NtRp563
(dp564
g54
(dp565
g62
I3
ssg63
g559
sg56
(lp566
S''
asbasbasbasbasbasbasbag49
(g65
g51
NtRp567
(dp568
g54
(dp569
sg63
g226
sg56
(lp570
g49
(g70
g51
NtRp571
(dp572
g54
(dp573
g74
g75
ssg63
g567
sg56
(lp574
S's_nr'
p575
asbag49
(g70
g51
NtRp576
(dp577
g54
(dp578
g81
g82
ssg63
g567
sg56
(lp579
S':'
asbag49
(g70
g51
NtRp580
(dp581
g54
(dp582
sg63
g567
sg56
(lp583
g49
(g50
g51
NtRp584
(dp585
g54
(dp586
g62
I4
ssg63
g580
sg56
(lp587
g49
(g58
g51
NtRp588
(dp589
g54
(dp590
g62
I3
ssg63
Nsg56
(lp591
g49
(g65
g51
NtRp592
(dp593
g54
(dp594
sg63
g588
sg56
(lp595
g49
(g70
g51
NtRp596
(dp597
g54
(dp598
g74
g75
ssg63
g592
sg56
(lp599
g263
asbag49
(g70
g51
NtRp600
(dp601
g54
(dp602
g81
g82
ssg63
g592
sg56
(lp603
S':'
asbag49
(g70
g51
NtRp604
(dp605
g54
(dp606
sg63
g592
sg56
(lp607
g49
(g50
g51
NtRp608
(dp609
g54
(dp610
g62
I3
ssg63
g604
sg56
(lp611
S''
asbasbasbag49
(g65
g51
NtRp612
(dp613
g54
(dp614
sg63
g588
sg56
(lp615
g49
(g70
g51
NtRp616
(dp617
g54
(dp618
g74
g75
ssg63
g612
sg56
(lp619
g284
asbag49
(g70
g51
NtRp620
(dp621
g54
(dp622
g81
g82
ssg63
g612
sg56
(lp623
S':'
asbag49
(g70
g51
NtRp624
(dp625
g54
(dp626
sg63
g612
sg56
(lp627
g49
(g50
g51
NtRp628
(dp629
g54
(dp630
g62
I3
ssg63
g624
sg56
(lp631
S''
asbasbasbag49
(g65
g51
NtRp632
(dp633
g54
(dp634
sg63
g588
sg56
(lp635
g49
(g70
g51
NtRp636
(dp637
g54
(dp638
g74
g75
ssg63
g632
sg56
(lp639
g305
asbag49
(g70
g51
NtRp640
(dp641
g54
(dp642
g81
g82
ssg63
g632
sg56
(lp643
S':'
asbag49
(g70
g51
NtRp644
(dp645
g54
(dp646
sg63
g632
sg56
(lp647
g49
(g50
g51
NtRp648
(dp649
g54
(dp650
g62
I3
ssg63
g644
sg56
(lp651
S''
asbasbasbag49
(g65
g51
NtRp652
(dp653
g54
(dp654
sg63
g588
sg56
(lp655
g49
(g70
g51
NtRp656
(dp657
g54
(dp658
g74
g75
ssg63
g652
sg56
(lp659
g326
asbag49
(g70
g51
NtRp660
(dp661
g54
(dp662
g81
g82
ssg63
g652
sg56
(lp663
S':'
asbag49
(g70
g51
NtRp664
(dp665
g54
(dp666
sg63
g652
sg56
(lp667
g49
(g50
g51
NtRp668
(dp669
g54
(dp670
g62
I3
ssg63
g664
sg56
(lp671
S''
asbasbasbag49
(g65
g51
NtRp672
(dp673
g54
(dp674
sg63
g588
sg56
(lp675
g49
(g70
g51
NtRp676
(dp677
g54
(dp678
g74
g75
ssg63
g672
sg56
(lp679
g347
asbag49
(g70
g51
NtRp680
(dp681
g54
(dp682
g81
g82
ssg63
g672
sg56
(lp683
S':'
asbag49
(g70
g51
NtRp684
(dp685
g54
(dp686
sg63
g672
sg56
(lp687
g49
(g50
g51
NtRp688
(dp689
g54
(dp690
g62
I3
ssg63
g684
sg56
(lp691
S''
asbasbasbag49
(g65
g51
NtRp692
(dp693
g54
(dp694
sg63
g588
sg56
(lp695
g49
(g70
g51
NtRp696
(dp697
g54
(dp698
g74
g75
ssg63
g692
sg56
(lp699
g368
asbag49
(g70
g51
NtRp700
(dp701
g54
(dp702
g81
g82
ssg63
g692
sg56
(lp703
S':'
asbag49
(g70
g51
NtRp704
(dp705
g54
(dp706
sg63
g692
sg56
(lp707
g49
(g50
g51
NtRp708
(dp709
g54
(dp710
g62
I3
ssg63
g704
sg56
(lp711
S''
asbasbasbag49
(g65
g51
NtRp712
(dp713
g54
(dp714
sg63
g588
sg56
(lp715
g49
(g70
g51
NtRp716
(dp717
g54
(dp718
g74
g75
ssg63
g712
sg56
(lp719
g389
asbag49
(g70
g51
NtRp720
(dp721
g54
(dp722
g81
g82
ssg63
g712
sg56
(lp723
S':'
asbag49
(g70
g51
NtRp724
(dp725
g54
(dp726
sg63
g712
sg56
(lp727
g49
(g50
g51
NtRp728
(dp729
g54
(dp730
g62
I3
ssg63
g724
sg56
(lp731
S''
asbasbasbasbasbasbasbag49
(g65
g51
NtRp732
(dp733
g54
(dp734
sg63
g226
sg56
(lp735
g49
(g70
g51
NtRp736
(dp737
g54
(dp738
g74
g75
ssg63
g732
sg56
(lp739
S'session_id_admin'
p740
asbag49
(g70
g51
NtRp741
(dp742
g54
(dp743
g81
g82
ssg63
g732
sg56
(lp744
S':'
asbag49
(g70
g51
NtRp745
(dp746
g54
(dp747
sg63
g732
sg56
(lp748
g49
(g50
g51
NtRp749
(dp750
g54
(dp751
g62
I4
ssg63
g745
sg56
(lp752
g49
(g58
g51
NtRp753
(dp754
g54
(dp755
g62
I3
ssg63
Nsg56
(lp756
g49
(g65
g51
NtRp757
(dp758
g54
(dp759
sg63
g753
sg56
(lp760
g49
(g70
g51
NtRp761
(dp762
g54
(dp763
g74
g75
ssg63
g757
sg56
(lp764
g263
asbag49
(g70
g51
NtRp765
(dp766
g54
(dp767
g81
g82
ssg63
g757
sg56
(lp768
S':'
asbag49
(g70
g51
NtRp769
(dp770
g54
(dp771
sg63
g757
sg56
(lp772
g49
(g50
g51
NtRp773
(dp774
g54
(dp775
g62
I3
ssg63
g769
sg56
(lp776
S''
asbasbasbag49
(g65
g51
NtRp777
(dp778
g54
(dp779
sg63
g753
sg56
(lp780
g49
(g70
g51
NtRp781
(dp782
g54
(dp783
g74
g75
ssg63
g777
sg56
(lp784
g284
asbag49
(g70
g51
NtRp785
(dp786
g54
(dp787
g81
g82
ssg63
g777
sg56
(lp788
S':'
asbag49
(g70
g51
NtRp789
(dp790
g54
(dp791
sg63
g777
sg56
(lp792
g49
(g50
g51
NtRp793
(dp794
g54
(dp795
g62
I3
ssg63
g789
sg56
(lp796
S''
asbasbasbag49
(g65
g51
NtRp797
(dp798
g54
(dp799
sg63
g753
sg56
(lp800
g49
(g70
g51
NtRp801
(dp802
g54
(dp803
g74
g75
ssg63
g797
sg56
(lp804
g305
asbag49
(g70
g51
NtRp805
(dp806
g54
(dp807
g81
g82
ssg63
g797
sg56
(lp808
S':'
asbag49
(g70
g51
NtRp809
(dp810
g54
(dp811
sg63
g797
sg56
(lp812
g49
(g50
g51
NtRp813
(dp814
g54
(dp815
g62
I3
ssg63
g809
sg56
(lp816
S''
asbasbasbag49
(g65
g51
NtRp817
(dp818
g54
(dp819
sg63
g753
sg56
(lp820
g49
(g70
g51
NtRp821
(dp822
g54
(dp823
g74
g75
ssg63
g817
sg56
(lp824
g326
asbag49
(g70
g51
NtRp825
(dp826
g54
(dp827
g81
g82
ssg63
g817
sg56
(lp828
S':'
asbag49
(g70
g51
NtRp829
(dp830
g54
(dp831
sg63
g817
sg56
(lp832
g49
(g50
g51
NtRp833
(dp834
g54
(dp835
g62
I3
ssg63
g829
sg56
(lp836
S''
asbasbasbag49
(g65
g51
NtRp837
(dp838
g54
(dp839
sg63
g753
sg56
(lp840
g49
(g70
g51
NtRp841
(dp842
g54
(dp843
g74
g75
ssg63
g837
sg56
(lp844
g347
asbag49
(g70
g51
NtRp845
(dp846
g54
(dp847
g81
g82
ssg63
g837
sg56
(lp848
S':'
asbag49
(g70
g51
NtRp849
(dp850
g54
(dp851
sg63
g837
sg56
(lp852
g49
(g50
g51
NtRp853
(dp854
g54
(dp855
g62
I3
ssg63
g849
sg56
(lp856
S''
asbasbasbag49
(g65
g51
NtRp857
(dp858
g54
(dp859
sg63
g753
sg56
(lp860
g49
(g70
g51
NtRp861
(dp862
g54
(dp863
g74
g75
ssg63
g857
sg56
(lp864
g368
asbag49
(g70
g51
NtRp865
(dp866
g54
(dp867
g81
g82
ssg63
g857
sg56
(lp868
S':'
asbag49
(g70
g51
NtRp869
(dp870
g54
(dp871
sg63
g857
sg56
(lp872
g49
(g50
g51
NtRp873
(dp874
g54
(dp875
g62
I3
ssg63
g869
sg56
(lp876
S''
asbasbasbag49
(g65
g51
NtRp877
(dp878
g54
(dp879
sg63
g753
sg56
(lp880
g49
(g70
g51
NtRp881
(dp882
g54
(dp883
g74
g75
ssg63
g877
sg56
(lp884
g389
asbag49
(g70
g51
NtRp885
(dp886
g54
(dp887
g81
g82
ssg63
g877
sg56
(lp888
S':'
asbag49
(g70
g51
NtRp889
(dp890
g54
(dp891
sg63
g877
sg56
(lp892
g49
(g50
g51
NtRp893
(dp894
g54
(dp895
g62
I3
ssg63
g889
sg56
(lp896
S''
asbasbasbasbasbasbasbag49
(g65
g51
NtRp897
(dp898
g54
(dp899
sg63
g226
sg56
(lp900
g49
(g70
g51
NtRp901
(dp902
g54
(dp903
g74
g75
ssg63
g897
sg56
(lp904
S'session_id_cms'
p905
asbag49
(g70
g51
NtRp906
(dp907
g54
(dp908
g81
g82
ssg63
g897
sg56
(lp909
S':'
asbag49
(g70
g51
NtRp910
(dp911
g54
(dp912
sg63
g897
sg56
(lp913
g49
(g50
g51
NtRp914
(dp915
g54
(dp916
g62
I4
ssg63
g910
sg56
(lp917
g49
(g58
g51
NtRp918
(dp919
g54
(dp920
g62
I3
ssg63
Nsg56
(lp921
g49
(g65
g51
NtRp922
(dp923
g54
(dp924
sg63
g918
sg56
(lp925
g49
(g70
g51
NtRp926
(dp927
g54
(dp928
g74
g75
ssg63
g922
sg56
(lp929
g263
asbag49
(g70
g51
NtRp930
(dp931
g54
(dp932
g81
g82
ssg63
g922
sg56
(lp933
S':'
asbag49
(g70
g51
NtRp934
(dp935
g54
(dp936
sg63
g922
sg56
(lp937
g49
(g50
g51
NtRp938
(dp939
g54
(dp940
g62
I3
ssg63
g934
sg56
(lp941
S''
asbasbasbag49
(g65
g51
NtRp942
(dp943
g54
(dp944
sg63
g918
sg56
(lp945
g49
(g70
g51
NtRp946
(dp947
g54
(dp948
g74
g75
ssg63
g942
sg56
(lp949
g284
asbag49
(g70
g51
NtRp950
(dp951
g54
(dp952
g81
g82
ssg63
g942
sg56
(lp953
S':'
asbag49
(g70
g51
NtRp954
(dp955
g54
(dp956
sg63
g942
sg56
(lp957
g49
(g50
g51
NtRp958
(dp959
g54
(dp960
g62
I3
ssg63
g954
sg56
(lp961
S''
asbasbasbag49
(g65
g51
NtRp962
(dp963
g54
(dp964
sg63
g918
sg56
(lp965
g49
(g70
g51
NtRp966
(dp967
g54
(dp968
g74
g75
ssg63
g962
sg56
(lp969
g305
asbag49
(g70
g51
NtRp970
(dp971
g54
(dp972
g81
g82
ssg63
g962
sg56
(lp973
S':'
asbag49
(g70
g51
NtRp974
(dp975
g54
(dp976
sg63
g962
sg56
(lp977
g49
(g50
g51
NtRp978
(dp979
g54
(dp980
g62
I3
ssg63
g974
sg56
(lp981
S''
asbasbasbag49
(g65
g51
NtRp982
(dp983
g54
(dp984
sg63
g918
sg56
(lp985
g49
(g70
g51
NtRp986
(dp987
g54
(dp988
g74
g75
ssg63
g982
sg56
(lp989
g326
asbag49
(g70
g51
NtRp990
(dp991
g54
(dp992
g81
g82
ssg63
g982
sg56
(lp993
S':'
asbag49
(g70
g51
NtRp994
(dp995
g54
(dp996
sg63
g982
sg56
(lp997
g49
(g50
g51
NtRp998
(dp999
g54
(dp1000
g62
I3
ssg63
g994
sg56
(lp1001
S''
asbasbasbag49
(g65
g51
NtRp1002
(dp1003
g54
(dp1004
sg63
g918
sg56
(lp1005
g49
(g70
g51
NtRp1006
(dp1007
g54
(dp1008
g74
g75
ssg63
g1002
sg56
(lp1009
g347
asbag49
(g70
g51
NtRp1010
(dp1011
g54
(dp1012
g81
g82
ssg63
g1002
sg56
(lp1013
S':'
asbag49
(g70
g51
NtRp1014
(dp1015
g54
(dp1016
sg63
g1002
sg56
(lp1017
g49
(g50
g51
NtRp1018
(dp1019
g54
(dp1020
g62
I3
ssg63
g1014
sg56
(lp1021
S''
asbasbasbag49
(g65
g51
NtRp1022
(dp1023
g54
(dp1024
sg63
g918
sg56
(lp1025
g49
(g70
g51
NtRp1026
(dp1027
g54
(dp1028
g74
g75
ssg63
g1022
sg56
(lp1029
g368
asbag49
(g70
g51
NtRp1030
(dp1031
g54
(dp1032
g81
g82
ssg63
g1022
sg56
(lp1033
S':'
asbag49
(g70
g51
NtRp1034
(dp1035
g54
(dp1036
sg63
g1022
sg56
(lp1037
g49
(g50
g51
NtRp1038
(dp1039
g54
(dp1040
g62
I3
ssg63
g1034
sg56
(lp1041
S''
asbasbasbag49
(g65
g51
NtRp1042
(dp1043
g54
(dp1044
sg63
g918
sg56
(lp1045
g49
(g70
g51
NtRp1046
(dp1047
g54
(dp1048
g74
g75
ssg63
g1042
sg56
(lp1049
g389
asbag49
(g70
g51
NtRp1050
(dp1051
g54
(dp1052
g81
g82
ssg63
g1042
sg56
(lp1053
S':'
asbag49
(g70
g51
NtRp1054
(dp1055
g54
(dp1056
sg63
g1042
sg56
(lp1057
g49
(g50
g51
NtRp1058
(dp1059
g54
(dp1060
g62
I3
ssg63
g1054
sg56
(lp1061
S''
asbasbasbasbasbasbasbag49
(g65
g51
NtRp1062
(dp1063
g54
(dp1064
sg63
g226
sg56
(lp1065
g49
(g70
g51
NtRp1066
(dp1067
g54
(dp1068
g74
g75
ssg63
g1062
sg56
(lp1069
S'session_id_inplace'
p1070
asbag49
(g70
g51
NtRp1071
(dp1072
g54
(dp1073
g81
g82
ssg63
g1062
sg56
(lp1074
S':'
asbag49
(g70
g51
NtRp1075
(dp1076
g54
(dp1077
sg63
g1062
sg56
(lp1078
g49
(g50
g51
NtRp1079
(dp1080
g54
(dp1081
g62
I4
ssg63
g1075
sg56
(lp1082
g49
(g58
g51
NtRp1083
(dp1084
g54
(dp1085
g62
I3
ssg63
Nsg56
(lp1086
g49
(g65
g51
NtRp1087
(dp1088
g54
(dp1089
sg63
g1083
sg56
(lp1090
g49
(g70
g51
NtRp1091
(dp1092
g54
(dp1093
g74
g75
ssg63
g1087
sg56
(lp1094
g263
asbag49
(g70
g51
NtRp1095
(dp1096
g54
(dp1097
g81
g82
ssg63
g1087
sg56
(lp1098
S':'
asbag49
(g70
g51
NtRp1099
(dp1100
g54
(dp1101
sg63
g1087
sg56
(lp1102
g49
(g50
g51
NtRp1103
(dp1104
g54
(dp1105
g62
I3
ssg63
g1099
sg56
(lp1106
S''
asbasbasbag49
(g65
g51
NtRp1107
(dp1108
g54
(dp1109
sg63
g1083
sg56
(lp1110
g49
(g70
g51
NtRp1111
(dp1112
g54
(dp1113
g74
g75
ssg63
g1107
sg56
(lp1114
g284
asbag49
(g70
g51
NtRp1115
(dp1116
g54
(dp1117
g81
g82
ssg63
g1107
sg56
(lp1118
S':'
asbag49
(g70
g51
NtRp1119
(dp1120
g54
(dp1121
sg63
g1107
sg56
(lp1122
g49
(g50
g51
NtRp1123
(dp1124
g54
(dp1125
g62
I3
ssg63
g1119
sg56
(lp1126
S''
asbasbasbag49
(g65
g51
NtRp1127
(dp1128
g54
(dp1129
sg63
g1083
sg56
(lp1130
g49
(g70
g51
NtRp1131
(dp1132
g54
(dp1133
g74
g75
ssg63
g1127
sg56
(lp1134
g305
asbag49
(g70
g51
NtRp1135
(dp1136
g54
(dp1137
g81
g82
ssg63
g1127
sg56
(lp1138
S':'
asbag49
(g70
g51
NtRp1139
(dp1140
g54
(dp1141
sg63
g1127
sg56
(lp1142
g49
(g50
g51
NtRp1143
(dp1144
g54
(dp1145
g62
I3
ssg63
g1139
sg56
(lp1146
S''
asbasbasbag49
(g65
g51
NtRp1147
(dp1148
g54
(dp1149
sg63
g1083
sg56
(lp1150
g49
(g70
g51
NtRp1151
(dp1152
g54
(dp1153
g74
g75
ssg63
g1147
sg56
(lp1154
g326
asbag49
(g70
g51
NtRp1155
(dp1156
g54
(dp1157
g81
g82
ssg63
g1147
sg56
(lp1158
S':'
asbag49
(g70
g51
NtRp1159
(dp1160
g54
(dp1161
sg63
g1147
sg56
(lp1162
g49
(g50
g51
NtRp1163
(dp1164
g54
(dp1165
g62
I3
ssg63
g1159
sg56
(lp1166
S''
asbasbasbag49
(g65
g51
NtRp1167
(dp1168
g54
(dp1169
sg63
g1083
sg56
(lp1170
g49
(g70
g51
NtRp1171
(dp1172
g54
(dp1173
g74
g75
ssg63
g1167
sg56
(lp1174
g347
asbag49
(g70
g51
NtRp1175
(dp1176
g54
(dp1177
g81
g82
ssg63
g1167
sg56
(lp1178
S':'
asbag49
(g70
g51
NtRp1179
(dp1180
g54
(dp1181
sg63
g1167
sg56
(lp1182
g49
(g50
g51
NtRp1183
(dp1184
g54
(dp1185
g62
I3
ssg63
g1179
sg56
(lp1186
S''
asbasbasbag49
(g65
g51
NtRp1187
(dp1188
g54
(dp1189
sg63
g1083
sg56
(lp1190
g49
(g70
g51
NtRp1191
(dp1192
g54
(dp1193
g74
g75
ssg63
g1187
sg56
(lp1194
g368
asbag49
(g70
g51
NtRp1195
(dp1196
g54
(dp1197
g81
g82
ssg63
g1187
sg56
(lp1198
S':'
asbag49
(g70
g51
NtRp1199
(dp1200
g54
(dp1201
sg63
g1187
sg56
(lp1202
g49
(g50
g51
NtRp1203
(dp1204
g54
(dp1205
g62
I3
ssg63
g1199
sg56
(lp1206
S''
asbasbasbag49
(g65
g51
NtRp1207
(dp1208
g54
(dp1209
sg63
g1083
sg56
(lp1210
g49
(g70
g51
NtRp1211
(dp1212
g54
(dp1213
g74
g75
ssg63
g1207
sg56
(lp1214
g389
asbag49
(g70
g51
NtRp1215
(dp1216
g54
(dp1217
g81
g82
ssg63
g1207
sg56
(lp1218
S':'
asbag49
(g70
g51
NtRp1219
(dp1220
g54
(dp1221
sg63
g1207
sg56
(lp1222
g49
(g50
g51
NtRp1223
(dp1224
g54
(dp1225
g62
I3
ssg63
g1219
sg56
(lp1226
S''
asbasbasbasbasbasbasbasbasbasbasbag49
(g65
g51
NtRp1227
(dp1228
g54
(dp1229
sg63
g59
sg56
(lp1230
g49
(g70
g51
NtRp1231
(dp1232
g54
(dp1233
g74
g75
ssg63
g1227
sg56
(lp1234
S'env'
p1235
asbag49
(g70
g51
NtRp1236
(dp1237
g54
(dp1238
g81
g82
ssg63
g1227
sg56
(lp1239
S':'
asbag49
(g70
g51
NtRp1240
(dp1241
g54
(dp1242
sg63
g1227
sg56
(lp1243
g49
(g50
g51
NtRp1244
(dp1245
g54
(dp1246
g62
I5
ssg63
g1240
sg56
(lp1247
g49
(g58
g51
NtRp1248
(dp1249
g54
(dp1250
g62
I4
ssg63
Nsg56
(lp1251
g49
(g65
g51
NtRp1252
(dp1253
g54
(dp1254
sg63
g1248
sg56
(lp1255
g49
(g70
g51
NtRp1256
(dp1257
g54
(dp1258
g74
g75
ssg63
g1252
sg56
(lp1259
S'app_folders'
p1260
asbag49
(g70
g51
NtRp1261
(dp1262
g54
(dp1263
g81
g82
ssg63
g1252
sg56
(lp1264
S':'
asbag49
(g70
g51
NtRp1265
(dp1266
g54
(dp1267
sg63
g1252
sg56
(lp1268
g49
(g50
g51
NtRp1269
(dp1270
g54
(dp1271
g62
I4
ssg63
g1265
sg56
(lp1272
S"set(['/Users/mdipierro/Dropbox/web2py/applications/inplace/', '/Users/mdipierro/Dropbox/web2py/applications/cms/', '/Users/mdipierro/Dropbox/web2py/applications/admin/'])"
p1273
asbasbasbag49
(g65
g51
NtRp1274
(dp1275
g54
(dp1276
sg63
g1248
sg56
(lp1277
g49
(g70
g51
NtRp1278
(dp1279
g54
(dp1280
g74
g75
ssg63
g1274
sg56
(lp1281
S'applications_parent'
p1282
asbag49
(g70
g51
NtRp1283
(dp1284
g54
(dp1285
g81
g82
ssg63
g1274
sg56
(lp1286
S':'
asbag49
(g70
g51
NtRp1287
(dp1288
g54
(dp1289
sg63
g1274
sg56
(lp1290
g49
(g50
g51
NtRp1291
(dp1292
g54
(dp1293
g62
I4
ssg63
g1287
sg56
(lp1294
S'/Users/mdipierro/Dropbox/web2py'
p1295
asbasbasbag49
(g65
g51
NtRp1296
(dp1297
g54
(dp1298
sg63
g1248
sg56
(lp1299
g49
(g70
g51
NtRp1300
(dp1301
g54
(dp1302
g74
g75
ssg63
g1296
sg56
(lp1303
S'cmd_args'
p1304
asbag49
(g70
g51
NtRp1305
(dp1306
g54
(dp1307
g81
g82
ssg63
g1296
sg56
(lp1308
S':'
asbag49
(g70
g51
NtRp1309
(dp1310
g54
(dp1311
sg63
g1296
sg56
(lp1312
g49
(g50
g51
NtRp1313
(dp1314
g54
(dp1315
g62
I4
ssg63
g1309
sg56
(lp1316
g49
(g58
g51
NtRp1317
(dp1318
g54
(dp1319
g62
I3
ssg63
Nsg56
(lp1320
sbasbasbasbag49
(g65
g51
NtRp1321
(dp1322
g54
(dp1323
sg63
g1248
sg56
(lp1324
g49
(g70
g51
NtRp1325
(dp1326
g54
(dp1327
g74
g75
ssg63
g1321
sg56
(lp1328
S'cmd_options'
p1329
asbag49
(g70
g51
NtRp1330
(dp1331
g54
(dp1332
g81
g82
ssg63
g1321
sg56
(lp1333
S':'
asbag49
(g70
g51
NtRp1334
(dp1335
g54
(dp1336
sg63
g1321
sg56
(lp1337
g49
(g50
g51
NtRp1338
(dp1339
g54
(dp1340
g62
I4
ssg63
g1334
sg56
(lp1341
S"<Values at 0x153a378: {'verbose': False, 'ip': '127.0.0.1', 'shutdown_timeout': 5, 'taskbar': False, 'nocron': False, 'pid_filename': 'httpserver.pid', 'maxthreads': None, 'softcron': False, 'server_name': 'massimo-di-pierros-macbook-2.local', 'bpython': False, 'nogui': False, 'port': 8000, 'extcron': False, 'debuglevel': 30, 'test': None, 'folder': '/Users/mdipierro/Dropbox/web2py', 'config': '', 'import_models': False, 'winservice': '', 'shell': None, 'run': '', 'log_filename': 'httpserver.log', 'args': [''], 'socket_timeout': 1, 'ssl_ca_certificate': None, 'scheduler': None, 'profiler_filename': None, 'ssl_private_key': '', 'password': 'hello', 'request_queue_size': 5, 'ssl_certificate': '', 'cronjob': False, 'numthreads': None, 'quiet': False, 'interfaces': None, 'minthreads': None, 'timeout': 10, 'plain': False, 'nobanner': False}>"
p1342
asbasbasbag49
(g65
g51
NtRp1343
(dp1344
g54
(dp1345
sg63
g1248
sg56
(lp1346
g49
(g70
g51
NtRp1347
(dp1348
g54
(dp1349
g74
g75
ssg63
g1343
sg56
(lp1350
S'db_sessions'
p1351
asbag49
(g70
g51
NtRp1352
(dp1353
g54
(dp1354
g81
g82
ssg63
g1343
sg56
(lp1355
S':'
asbag49
(g70
g51
NtRp1356
(dp1357
g54
(dp1358
sg63
g1343
sg56
(lp1359
g49
(g50
g51
NtRp1360
(dp1361
g54
(dp1362
g62
I4
ssg63
g1356
sg56
(lp1363
S'set([])'
p1364
asbasbasbag49
(g65
g51
NtRp1365
(dp1366
g54
(dp1367
sg63
g1248
sg56
(lp1368
g49
(g70
g51
NtRp1369
(dp1370
g54
(dp1371
g74
g75
ssg63
g1365
sg56
(lp1372
S'debugging'
p1373
asbag49
(g70
g51
NtRp1374
(dp1375
g54
(dp1376
g81
g82
ssg63
g1365
sg56
(lp1377
S':'
asbag49
(g70
g51
NtRp1378
(dp1379
g54
(dp1380
sg63
g1365
sg56
(lp1381
g49
(g50
g51
NtRp1382
(dp1383
g54
(dp1384
g62
I4
ssg63
g1378
sg56
(lp1385
g92
asbasbasbag49
(g65
g51
NtRp1386
(dp1387
g54
(dp1388
sg63
g1248
sg56
(lp1389
g49
(g70
g51
NtRp1390
(dp1391
g54
(dp1392
g74
g75
ssg63
g1386
sg56
(lp1393
S'gluon_parent'
p1394
asbag49
(g70
g51
NtRp1395
(dp1396
g54
(dp1397
g81
g82
ssg63
g1386
sg56
(lp1398
S':'
asbag49
(g70
g51
NtRp1399
(dp1400
g54
(dp1401
sg63
g1386
sg56
(lp1402
g49
(g50
g51
NtRp1403
(dp1404
g54
(dp1405
g62
I4
ssg63
g1399
sg56
(lp1406
S'/Users/mdipierro/Dropbox/web2py'
p1407
asbasbasbag49
(g65
g51
NtRp1408
(dp1409
g54
(dp1410
sg63
g1248
sg56
(lp1411
g49
(g70
g51
NtRp1412
(dp1413
g54
(dp1414
g74
g75
ssg63
g1408
sg56
(lp1415
S'http_accept'
p1416
asbag49
(g70
g51
NtRp1417
(dp1418
g54
(dp1419
g81
g82
ssg63
g1408
sg56
(lp1420
S':'
asbag49
(g70
g51
NtRp1421
(dp1422
g54
(dp1423
sg63
g1408
sg56
(lp1424
g49
(g50
g51
NtRp1425
(dp1426
g54
(dp1427
g62
I4
ssg63
g1421
sg56
(lp1428
S'text/html,application/xhtml+xml,application/xml;q=0.9,*/*;q=0.8'
p1429
asbasbasbag49
(g65
g51
NtRp1430
(dp1431
g54
(dp1432
sg63
g1248
sg56
(lp1433
g49
(g70
g51
NtRp1434
(dp1435
g54
(dp1436
g74
g75
ssg63
g1430
sg56
(lp1437
S'http_accept_charset'
p1438
asbag49
(g70
g51
NtRp1439
(dp1440
g54
(dp1441
g81
g82
ssg63
g1430
sg56
(lp1442
S':'
asbag49
(g70
g51
NtRp1443
(dp1444
g54
(dp1445
sg63
g1430
sg56
(lp1446
g49
(g50
g51
NtRp1447
(dp1448
g54
(dp1449
g62
I4
ssg63
g1443
sg56
(lp1450
S'ISO-8859-1,utf-8;q=0.7,*;q=0.3'
p1451
asbasbasbag49
(g65
g51
NtRp1452
(dp1453
g54
(dp1454
sg63
g1248
sg56
(lp1455
g49
(g70
g51
NtRp1456
(dp1457
g54
(dp1458
g74
g75
ssg63
g1452
sg56
(lp1459
S'http_accept_encoding'
p1460
asbag49
(g70
g51
NtRp1461
(dp1462
g54
(dp1463
g81
g82
ssg63
g1452
sg56
(lp1464
S':'
asbag49
(g70
g51
NtRp1465
(dp1466
g54
(dp1467
sg63
g1452
sg56
(lp1468
g49
(g50
g51
NtRp1469
(dp1470
g54
(dp1471
g62
I4
ssg63
g1465
sg56
(lp1472
S'gzip,deflate,sdch'
p1473
asbasbasbag49
(g65
g51
NtRp1474
(dp1475
g54
(dp1476
sg63
g1248
sg56
(lp1477
g49
(g70
g51
NtRp1478
(dp1479
g54
(dp1480
g74
g75
ssg63
g1474
sg56
(lp1481
S'http_accept_language'
p1482
asbag49
(g70
g51
NtRp1483
(dp1484
g54
(dp1485
g81
g82
ssg63
g1474
sg56
(lp1486
S':'
asbag49
(g70
g51
NtRp1487
(dp1488
g54
(dp1489
sg63
g1474
sg56
(lp1490
g49
(g50
g51
NtRp1491
(dp1492
g54
(dp1493
g62
I4
ssg63
g1487
sg56
(lp1494
S'en,en-US;q=0.8,de-DE;q=0.6,de;q=0.4,it-IT;q=0.2,it;q=0.2,ja;q=0.2'
p1495
asbasbasbag49
(g65
g51
NtRp1496
(dp1497
g54
(dp1498
sg63
g1248
sg56
(lp1499
g49
(g70
g51
NtRp1500
(dp1501
g54
(dp1502
g74
g75
ssg63
g1496
sg56
(lp1503
S'http_cache_control'
p1504
asbag49
(g70
g51
NtRp1505
(dp1506
g54
(dp1507
g81
g82
ssg63
g1496
sg56
(lp1508
S':'
asbag49
(g70
g51
NtRp1509
(dp1510
g54
(dp1511
sg63
g1496
sg56
(lp1512
g49
(g50
g51
NtRp1513
(dp1514
g54
(dp1515
g62
I4
ssg63
g1509
sg56
(lp1516
S'max-age=0'
p1517
asbasbasbag49
(g65
g51
NtRp1518
(dp1519
g54
(dp1520
sg63
g1248
sg56
(lp1521
g49
(g70
g51
NtRp1522
(dp1523
g54
(dp1524
g74
g75
ssg63
g1518
sg56
(lp1525
S'http_connection'
p1526
asbag49
(g70
g51
NtRp1527
(dp1528
g54
(dp1529
g81
g82
ssg63
g1518
sg56
(lp1530
S':'
asbag49
(g70
g51
NtRp1531
(dp1532
g54
(dp1533
sg63
g1518
sg56
(lp1534
g49
(g50
g51
NtRp1535
(dp1536
g54
(dp1537
g62
I4
ssg63
g1531
sg56
(lp1538
S'keep-alive'
p1539
asbasbasbag49
(g65
g51
NtRp1540
(dp1541
g54
(dp1542
sg63
g1248
sg56
(lp1543
g49
(g70
g51
NtRp1544
(dp1545
g54
(dp1546
g74
g75
ssg63
g1540
sg56
(lp1547
S'http_cookie'
p1548
asbag49
(g70
g51
NtRp1549
(dp1550
g54
(dp1551
g81
g82
ssg63
g1540
sg56
(lp1552
S':'
asbag49
(g70
g51
NtRp1553
(dp1554
g54
(dp1555
sg63
g1540
sg56
(lp1556
g49
(g50
g51
NtRp1557
(dp1558
g54
(dp1559
g62
I4
ssg63
g1553
sg56
(lp1560
S'registered=yes; __utma_a2a=1369166446.1335515545.1303958619.1316700181.1318215879.74; el-finder-last-finder=4f5a448a961f1931173928a6b6d9d4d2; s_nr=1323495907438-New; __qca=P0-1359637726-1323501662225; _chartbeat2=ha3n2egp47d2hmo0.1323501662417; session_id_admin=127.0.0.1-679d2186-6737-4db8-ad8e-2680070f65e8; __utma=96992031.1452952453.1313221394.1323533094.1323638999.6; __utmc=96992031; __utmz=96992031.1313221394.1.1.utmcsr=(direct)|utmccn=(direct)|utmcmd=(none); session_id_cms=127.0.0.1-f4c1e56e-4f4d-4936-aaf7-92fdd3a97f53; session_id_inplace=127.0.0.1-b67af904-b8cf-469d-95b3-18285a004db1'
p1561
asbasbasbag49
(g65
g51
NtRp1562
(dp1563
g54
(dp1564
sg63
g1248
sg56
(lp1565
g49
(g70
g51
NtRp1566
(dp1567
g54
(dp1568
g74
g75
ssg63
g1562
sg56
(lp1569
S'http_host'
p1570
asbag49
(g70
g51
NtRp1571
(dp1572
g54
(dp1573
g81
g82
ssg63
g1562
sg56
(lp1574
S':'
asbag49
(g70
g51
NtRp1575
(dp1576
g54
(dp1577
sg63
g1562
sg56
(lp1578
g49
(g50
g51
NtRp1579
(dp1580
g54
(dp1581
g62
I4
ssg63
g1575
sg56
(lp1582
S'127.0.0.1:8000'
p1583
asbasbasbag49
(g65
g51
NtRp1584
(dp1585
g54
(dp1586
sg63
g1248
sg56
(lp1587
g49
(g70
g51
NtRp1588
(dp1589
g54
(dp1590
g74
g75
ssg63
g1584
sg56
(lp1591
S'http_referer'
p1592
asbag49
(g70
g51
NtRp1593
(dp1594
g54
(dp1595
g81
g82
ssg63
g1584
sg56
(lp1596
S':'
asbag49
(g70
g51
NtRp1597
(dp1598
g54
(dp1599
sg63
g1584
sg56
(lp1600
g49
(g50
g51
NtRp1601
(dp1602
g54
(dp1603
g62
I4
ssg63
g1597
sg56
(lp1604
S'http://127.0.0.1:8000/inplace/default/index'
p1605
asbasbasbag49
(g65
g51
NtRp1606
(dp1607
g54
(dp1608
sg63
g1248
sg56
(lp1609
g49
(g70
g51
NtRp1610
(dp1611
g54
(dp1612
g74
g75
ssg63
g1606
sg56
(lp1613
S'http_user_agent'
p1614
asbag49
(g70
g51
NtRp1615
(dp1616
g54
(dp1617
g81
g82
ssg63
g1606
sg56
(lp1618
S':'
asbag49
(g70
g51
NtRp1619
(dp1620
g54
(dp1621
sg63
g1606
sg56
(lp1622
g49
(g50
g51
NtRp1623
(dp1624
g54
(dp1625
g62
I4
ssg63
g1619
sg56
(lp1626
S'Mozilla/5.0 (Macintosh; Intel Mac OS X 10_6_8) AppleWebKit/535.7 (KHTML, like Gecko) Chrome/16.0.912.63 Safari/535.7'
p1627
asbasbasbag49
(g65
g51
NtRp1628
(dp1629
g54
(dp1630
sg63
g1248
sg56
(lp1631
g49
(g70
g51
NtRp1632
(dp1633
g54
(dp1634
g74
g75
ssg63
g1628
sg56
(lp1635
S'is_jython'
p1636
asbag49
(g70
g51
NtRp1637
(dp1638
g54
(dp1639
g81
g82
ssg63
g1628
sg56
(lp1640
S':'
asbag49
(g70
g51
NtRp1641
(dp1642
g54
(dp1643
sg63
g1628
sg56
(lp1644
g49
(g50
g51
NtRp1645
(dp1646
g54
(dp1647
g62
I4
ssg63
g1641
sg56
(lp1648
g92
asbasbasbag49
(g65
g51
NtRp1649
(dp1650
g54
(dp1651
sg63
g1248
sg56
(lp1652
g49
(g70
g51
NtRp1653
(dp1654
g54
(dp1655
g74
g75
ssg63
g1649
sg56
(lp1656
S'is_pypy'
p1657
asbag49
(g70
g51
NtRp1658
(dp1659
g54
(dp1660
g81
g82
ssg63
g1649
sg56
(lp1661
S':'
asbag49
(g70
g51
NtRp1662
(dp1663
g54
(dp1664
sg63
g1649
sg56
(lp1665
g49
(g50
g51
NtRp1666
(dp1667
g54
(dp1668
g62
I4
ssg63
g1662
sg56
(lp1669
g92
asbasbasbag49
(g65
g51
NtRp1670
(dp1671
g54
(dp1672
sg63
g1248
sg56
(lp1673
g49
(g70
g51
NtRp1674
(dp1675
g54
(dp1676
g74
g75
ssg63
g1670
sg56
(lp1677
S'path_info'
p1678
asbag49
(g70
g51
NtRp1679
(dp1680
g54
(dp1681
g81
g82
ssg63
g1670
sg56
(lp1682
S':'
asbag49
(g70
g51
NtRp1683
(dp1684
g54
(dp1685
sg63
g1670
sg56
(lp1686
g49
(g50
g51
NtRp1687
(dp1688
g54
(dp1689
g62
I4
ssg63
g1683
sg56
(lp1690
S'/inplace/default/edit'
p1691
asbasbasbag49
(g65
g51
NtRp1692
(dp1693
g54
(dp1694
sg63
g1248
sg56
(lp1695
g49
(g70
g51
NtRp1696
(dp1697
g54
(dp1698
g74
g75
ssg63
g1692
sg56
(lp1699
S'query_string'
p1700
asbag49
(g70
g51
NtRp1701
(dp1702
g54
(dp1703
g81
g82
ssg63
g1692
sg56
(lp1704
S':'
asbag49
(g70
g51
NtRp1705
(dp1706
g54
(dp1707
sg63
g1692
sg56
(lp1708
g49
(g50
g51
NtRp1709
(dp1710
g54
(dp1711
g62
I4
ssg63
g1705
sg56
(lp1712
S'url=http%3A%2F%2Fweb2py.com'
p1713
asbasbasbag49
(g65
g51
NtRp1714
(dp1715
g54
(dp1716
sg63
g1248
sg56
(lp1717
g49
(g70
g51
NtRp1718
(dp1719
g54
(dp1720
g74
g75
ssg63
g1714
sg56
(lp1721
S'remote_addr'
p1722
asbag49
(g70
g51
NtRp1723
(dp1724
g54
(dp1725
g81
g82
ssg63
g1714
sg56
(lp1726
S':'
asbag49
(g70
g51
NtRp1727
(dp1728
g54
(dp1729
sg63
g1714
sg56
(lp1730
g49
(g50
g51
NtRp1731
(dp1732
g54
(dp1733
g62
I4
ssg63
g1727
sg56
(lp1734
g182
asbasbasbag49
(g65
g51
NtRp1735
(dp1736
g54
(dp1737
sg63
g1248
sg56
(lp1738
g49
(g70
g51
NtRp1739
(dp1740
g54
(dp1741
g74
g75
ssg63
g1735
sg56
(lp1742
S'remote_port'
p1743
asbag49
(g70
g51
NtRp1744
(dp1745
g54
(dp1746
g81
g82
ssg63
g1735
sg56
(lp1747
S':'
asbag49
(g70
g51
NtRp1748
(dp1749
g54
(dp1750
sg63
g1735
sg56
(lp1751
g49
(g50
g51
NtRp1752
(dp1753
g54
(dp1754
g62
I4
ssg63
g1748
sg56
(lp1755
S'55138'
p1756
asbasbasbag49
(g65
g51
NtRp1757
(dp1758
g54
(dp1759
sg63
g1248
sg56
(lp1760
g49
(g70
g51
NtRp1761
(dp1762
g54
(dp1763
g74
g75
ssg63
g1757
sg56
(lp1764
S'request_method'
p1765
asbag49
(g70
g51
NtRp1766
(dp1767
g54
(dp1768
g81
g82
ssg63
g1757
sg56
(lp1769
S':'
asbag49
(g70
g51
NtRp1770
(dp1771
g54
(dp1772
sg63
g1757
sg56
(lp1773
g49
(g50
g51
NtRp1774
(dp1775
g54
(dp1776
g62
I4
ssg63
g1770
sg56
(lp1777
S'GET'
p1778
asbasbasbag49
(g65
g51
NtRp1779
(dp1780
g54
(dp1781
sg63
g1248
sg56
(lp1782
g49
(g70
g51
NtRp1783
(dp1784
g54
(dp1785
g74
g75
ssg63
g1779
sg56
(lp1786
S'script_name'
p1787
asbag49
(g70
g51
NtRp1788
(dp1789
g54
(dp1790
g81
g82
ssg63
g1779
sg56
(lp1791
S':'
asbag49
(g70
g51
NtRp1792
(dp1793
g54
(dp1794
sg63
g1779
sg56
(lp1795
g49
(g50
g51
NtRp1796
(dp1797
g54
(dp1798
g62
I4
ssg63
g1792
sg56
(lp1799
S''
asbasbasbag49
(g65
g51
NtRp1800
(dp1801
g54
(dp1802
sg63
g1248
sg56
(lp1803
g49
(g70
g51
NtRp1804
(dp1805
g54
(dp1806
g74
g75
ssg63
g1800
sg56
(lp1807
S'server_name'
p1808
asbag49
(g70
g51
NtRp1809
(dp1810
g54
(dp1811
g81
g82
ssg63
g1800
sg56
(lp1812
S':'
asbag49
(g70
g51
NtRp1813
(dp1814
g54
(dp1815
sg63
g1800
sg56
(lp1816
g49
(g50
g51
NtRp1817
(dp1818
g54
(dp1819
g62
I4
ssg63
g1813
sg56
(lp1820
S'massimo-di-pierros-macbook-2.local'
p1821
asbasbasbag49
(g65
g51
NtRp1822
(dp1823
g54
(dp1824
sg63
g1248
sg56
(lp1825
g49
(g70
g51
NtRp1826
(dp1827
g54
(dp1828
g74
g75
ssg63
g1822
sg56
(lp1829
S'server_port'
p1830
asbag49
(g70
g51
NtRp1831
(dp1832
g54
(dp1833
g81
g82
ssg63
g1822
sg56
(lp1834
S':'
asbag49
(g70
g51
NtRp1835
(dp1836
g54
(dp1837
sg63
g1822
sg56
(lp1838
g49
(g50
g51
NtRp1839
(dp1840
g54
(dp1841
g62
I4
ssg63
g1835
sg56
(lp1842
S'8000'
p1843
asbasbasbag49
(g65
g51
NtRp1844
(dp1845
g54
(dp1846
sg63
g1248
sg56
(lp1847
g49
(g70
g51
NtRp1848
(dp1849
g54
(dp1850
g74
g75
ssg63
g1844
sg56
(lp1851
S'server_protocol'
p1852
asbag49
(g70
g51
NtRp1853
(dp1854
g54
(dp1855
g81
g82
ssg63
g1844
sg56
(lp1856
S':'
asbag49
(g70
g51
NtRp1857
(dp1858
g54
(dp1859
sg63
g1844
sg56
(lp1860
g49
(g50
g51
NtRp1861
(dp1862
g54
(dp1863
g62
I4
ssg63
g1857
sg56
(lp1864
S'HTTP/1.1'
p1865
asbasbasbag49
(g65
g51
NtRp1866
(dp1867
g54
(dp1868
sg63
g1248
sg56
(lp1869
g49
(g70
g51
NtRp1870
(dp1871
g54
(dp1872
g74
g75
ssg63
g1866
sg56
(lp1873
S'server_software'
p1874
asbag49
(g70
g51
NtRp1875
(dp1876
g54
(dp1877
g81
g82
ssg63
g1866
sg56
(lp1878
S':'
asbag49
(g70
g51
NtRp1879
(dp1880
g54
(dp1881
sg63
g1866
sg56
(lp1882
g49
(g50
g51
NtRp1883
(dp1884
g54
(dp1885
g62
I4
ssg63
g1879
sg56
(lp1886
S'Rocket 1.2.4'
p1887
asbasbasbag49
(g65
g51
NtRp1888
(dp1889
g54
(dp1890
sg63
g1248
sg56
(lp1891
g49
(g70
g51
NtRp1892
(dp1893
g54
(dp1894
g74
g75
ssg63
g1888
sg56
(lp1895
S'web2py_crontype'
p1896
asbag49
(g70
g51
NtRp1897
(dp1898
g54
(dp1899
g81
g82
ssg63
g1888
sg56
(lp1900
S':'
asbag49
(g70
g51
NtRp1901
(dp1902
g54
(dp1903
sg63
g1888
sg56
(lp1904
g49
(g50
g51
NtRp1905
(dp1906
g54
(dp1907
g62
I4
ssg63
g1901
sg56
(lp1908
S'hard'
p1909
asbasbasbag49
(g65
g51
NtRp1910
(dp1911
g54
(dp1912
sg63
g1248
sg56
(lp1913
g49
(g70
g51
NtRp1914
(dp1915
g54
(dp1916
g74
g75
ssg63
g1910
sg56
(lp1917
S'web2py_path'
p1918
asbag49
(g70
g51
NtRp1919
(dp1920
g54
(dp1921
g81
g82
ssg63
g1910
sg56
(lp1922
S':'
asbag49
(g70
g51
NtRp1923
(dp1924
g54
(dp1925
sg63
g1910
sg56
(lp1926
g49
(g50
g51
NtRp1927
(dp1928
g54
(dp1929
g62
I4
ssg63
g1923
sg56
(lp1930
g1295
asbasbasbag49
(g65
g51
NtRp1931
(dp1932
g54
(dp1933
sg63
g1248
sg56
(lp1934
g49
(g70
g51
NtRp1935
(dp1936
g54
(dp1937
g74
g75
ssg63
g1931
sg56
(lp1938
S'web2py_version'
p1939
asbag49
(g70
g51
NtRp1940
(dp1941
g54
(dp1942
g81
g82
ssg63
g1931
sg56
(lp1943
S':'
asbag49
(g70
g51
NtRp1944
(dp1945
g54
(dp1946
sg63
g1931
sg56
(lp1947
g49
(g50
g51
NtRp1948
(dp1949
g54
(dp1950
g62
I4
ssg63
g1944
sg56
(lp1951
g49
(g58
g51
NtRp1952
(dp1953
g54
(dp1954
g62
I3
ssg63
Nsg56
(lp1955
g49
(g65
g51
NtRp1956
(dp1957
g54
(dp1958
sg63
g1952
sg56
(lp1959
g49
(g70
g51
NtRp1960
(dp1961
g54
(dp1962
sg63
g1956
sg56
(lp1963
g49
(g50
g51
NtRp1964
(dp1965
g54
(dp1966
g62
I3
ssg63
g1960
sg56
(lp1967
S'1'
asbasbasbag49
(g65
g51
NtRp1968
(dp1969
g54
(dp1970
sg63
g1952
sg56
(lp1971
g49
(g70
g51
NtRp1972
(dp1973
g54
(dp1974
sg63
g1968
sg56
(lp1975
g49
(g50
g51
NtRp1976
(dp1977
g54
(dp1978
g62
I3
ssg63
g1972
sg56
(lp1979
S'99'
p1980
asbasbasbag49
(g65
g51
NtRp1981
(dp1982
g54
(dp1983
sg63
g1952
sg56
(lp1984
g49
(g70
g51
NtRp1985
(dp1986
g54
(dp1987
sg63
g1981
sg56
(lp1988
g49
(g50
g51
NtRp1989
(dp1990
g54
(dp1991
g62
I3
ssg63
g1985
sg56
(lp1992
S'3'
asbasbasbag49
(g65
g51
NtRp1993
(dp1994
g54
(dp1995
sg63
g1952
sg56
(lp1996
g49
(g70
g51
NtRp1997
(dp1998
g54
(dp1999
sg63
g1993
sg56
(lp2000
g49
(g50
g51
NtRp2001
(dp2002
g54
(dp2003
g62
I3
ssg63
g1997
sg56
(lp2004
S'datetime.datetime(2011, 12, 9, 21, 5, 4)'
p2005
asbasbasbag49
(g65
g51
NtRp2006
(dp2007
g54
(dp2008
sg63
g1952
sg56
(lp2009
g49
(g70
g51
NtRp2010
(dp2011
g54
(dp2012
sg63
g2006
sg56
(lp2013
g49
(g50
g51
NtRp2014
(dp2015
g54
(dp2016
g62
I3
ssg63
g2010
sg56
(lp2017
S'stable'
p2018
asbasbasbasbasbasbasbag49
(g65
g51
NtRp2019
(dp2020
g54
(dp2021
sg63
g1248
sg56
(lp2022
g49
(g70
g51
NtRp2023
(dp2024
g54
(dp2025
g74
g75
ssg63
g2019
sg56
(lp2026
S'wsgi_errors'
p2027
asbag49
(g70
g51
NtRp2028
(dp2029
g54
(dp2030
g81
g82
ssg63
g2019
sg56
(lp2031
S':'
asbag49
(g70
g51
NtRp2032
(dp2033
g54
(dp2034
sg63
g2019
sg56
(lp2035
g49
(g50
g51
NtRp2036
(dp2037
g54
(dp2038
g62
I4
ssg63
g2032
sg56
(lp2039
S"<open file '<stderr>', mode 'w' at 0x1620b0>"
p2040
asbasbasbag49
(g65
g51
NtRp2041
(dp2042
g54
(dp2043
sg63
g1248
sg56
(lp2044
g49
(g70
g51
NtRp2045
(dp2046
g54
(dp2047
g74
g75
ssg63
g2041
sg56
(lp2048
S'wsgi_file_wrapper'
p2049
asbag49
(g70
g51
NtRp2050
(dp2051
g54
(dp2052
g81
g82
ssg63
g2041
sg56
(lp2053
S':'
asbag49
(g70
g51
NtRp2054
(dp2055
g54
(dp2056
sg63
g2041
sg56
(lp2057
g49
(g50
g51
NtRp2058
(dp2059
g54
(dp2060
g62
I4
ssg63
g2054
sg56
(lp2061
S'<class wsgiref.util.FileWrapper at 0x7c2840>'
p2062
asbasbasbag49
(g65
g51
NtRp2063
(dp2064
g54
(dp2065
sg63
g1248
sg56
(lp2066
g49
(g70
g51
NtRp2067
(dp2068
g54
(dp2069
g74
g75
ssg63
g2063
sg56
(lp2070
S'wsgi_input'
p2071
asbag49
(g70
g51
NtRp2072
(dp2073
g54
(dp2074
g81
g82
ssg63
g2063
sg56
(lp2075
S':'
asbag49
(g70
g51
NtRp2076
(dp2077
g54
(dp2078
sg63
g2063
sg56
(lp2079
g49
(g50
g51
NtRp2080
(dp2081
g54
(dp2082
g62
I4
ssg63
g2076
sg56
(lp2083
S'<socket._fileobject object at 0x1cf03b0>'
p2084
asbasbasbag49
(g65
g51
NtRp2085
(dp2086
g54
(dp2087
sg63
g1248
sg56
(lp2088
g49
(g70
g51
NtRp2089
(dp2090
g54
(dp2091
g74
g75
ssg63
g2085
sg56
(lp2092
S'wsgi_multiprocess'
p2093
asbag49
(g70
g51
NtRp2094
(dp2095
g54
(dp2096
g81
g82
ssg63
g2085
sg56
(lp2097
S':'
asbag49
(g70
g51
NtRp2098
(dp2099
g54
(dp2100
sg63
g2085
sg56
(lp2101
g49
(g50
g51
NtRp2102
(dp2103
g54
(dp2104
g62
I4
ssg63
g2098
sg56
(lp2105
g92
asbasbasbag49
(g65
g51
NtRp2106
(dp2107
g54
(dp2108
sg63
g1248
sg56
(lp2109
g49
(g70
g51
NtRp2110
(dp2111
g54
(dp2112
g74
g75
ssg63
g2106
sg56
(lp2113
S'wsgi_multithread'
p2114
asbag49
(g70
g51
NtRp2115
(dp2116
g54
(dp2117
g81
g82
ssg63
g2106
sg56
(lp2118
S':'
asbag49
(g70
g51
NtRp2119
(dp2120
g54
(dp2121
sg63
g2106
sg56
(lp2122
g49
(g50
g51
NtRp2123
(dp2124
g54
(dp2125
g62
I4
ssg63
g2119
sg56
(lp2126
S'True'
p2127
asbasbasbag49
(g65
g51
NtRp2128
(dp2129
g54
(dp2130
sg63
g1248
sg56
(lp2131
g49
(g70
g51
NtRp2132
(dp2133
g54
(dp2134
g74
g75
ssg63
g2128
sg56
(lp2135
S'wsgi_run_once'
p2136
asbag49
(g70
g51
NtRp2137
(dp2138
g54
(dp2139
g81
g82
ssg63
g2128
sg56
(lp2140
S':'
asbag49
(g70
g51
NtRp2141
(dp2142
g54
(dp2143
sg63
g2128
sg56
(lp2144
g49
(g50
g51
NtRp2145
(dp2146
g54
(dp2147
g62
I4
ssg63
g2141
sg56
(lp2148
g92
asbasbasbag49
(g65
g51
NtRp2149
(dp2150
g54
(dp2151
sg63
g1248
sg56
(lp2152
g49
(g70
g51
NtRp2153
(dp2154
g54
(dp2155
g74
g75
ssg63
g2149
sg56
(lp2156
S'wsgi_url_scheme'
p2157
asbag49
(g70
g51
NtRp2158
(dp2159
g54
(dp2160
g81
g82
ssg63
g2149
sg56
(lp2161
S':'
asbag49
(g70
g51
NtRp2162
(dp2163
g54
(dp2164
sg63
g2149
sg56
(lp2165
g49
(g50
g51
NtRp2166
(dp2167
g54
(dp2168
g62
I4
ssg63
g2162
sg56
(lp2169
S'http'
p2170
asbasbasbag49
(g65
g51
NtRp2171
(dp2172
g54
(dp2173
sg63
g1248
sg56
(lp2174
g49
(g70
g51
NtRp2175
(dp2176
g54
(dp2177
g74
g75
ssg63
g2171
sg56
(lp2178
S'wsgi_version'
p2179
asbag49
(g70
g51
NtRp2180
(dp2181
g54
(dp2182
g81
g82
ssg63
g2171
sg56
(lp2183
S':'
asbag49
(g70
g51
NtRp2184
(dp2185
g54
(dp2186
sg63
g2171
sg56
(lp2187
g49
(g50
g51
NtRp2188
(dp2189
g54
(dp2190
g62
I4
ssg63
g2184
sg56
(lp2191
g49
(g58
g51
NtRp2192
(dp2193
g54
(dp2194
g62
I3
ssg63
Nsg56
(lp2195
g49
(g65
g51
NtRp2196
(dp2197
g54
(dp2198
sg63
g2192
sg56
(lp2199
g49
(g70
g51
NtRp2200
(dp2201
g54
(dp2202
sg63
g2196
sg56
(lp2203
g49
(g50
g51
NtRp2204
(dp2205
g54
(dp2206
g62
I3
ssg63
g2200
sg56
(lp2207
S'1'
asbasbasbag49
(g65
g51
NtRp2208
(dp2209
g54
(dp2210
sg63
g2192
sg56
(lp2211
g49
(g70
g51
NtRp2212
(dp2213
g54
(dp2214
sg63
g2208
sg56
(lp2215
g49
(g50
g51
NtRp2216
(dp2217
g54
(dp2218
g62
I3
ssg63
g2212
sg56
(lp2219
S'0'
asbasbasbasbasbasbasbasbasbasbasbag49
(g65
g51
NtRp2220
(dp2221
g54
(dp2222
sg63
g59
sg56
(lp2223
g49
(g70
g51
NtRp2224
(dp2225
g54
(dp2226
g74
g75
ssg63
g2220
sg56
(lp2227
S'extension'
p2228
asbag49
(g70
g51
NtRp2229
(dp2230
g54
(dp2231
g81
g82
ssg63
g2220
sg56
(lp2232
S':'
asbag49
(g70
g51
NtRp2233
(dp2234
g54
(dp2235
sg63
g2220
sg56
(lp2236
g49
(g50
g51
NtRp2237
(dp2238
g54
(dp2239
g62
I5
ssg63
g2233
sg56
(lp2240
S'html'
p2241
asbasbasbag49
(g65
g51
NtRp2242
(dp2243
g54
(dp2244
sg63
g59
sg56
(lp2245
g49
(g70
g51
NtRp2246
(dp2247
g54
(dp2248
g74
g75
ssg63
g2242
sg56
(lp2249
S'folder'
p2250
asbag49
(g70
g51
NtRp2251
(dp2252
g54
(dp2253
g81
g82
ssg63
g2242
sg56
(lp2254
S':'
asbag49
(g70
g51
NtRp2255
(dp2256
g54
(dp2257
sg63
g2242
sg56
(lp2258
g49
(g50
g51
NtRp2259
(dp2260
g54
(dp2261
g62
I5
ssg63
g2255
sg56
(lp2262
S'/Users/mdipierro/Dropbox/web2py/applications/inplace/'
p2263
asbasbasbag49
(g65
g51
NtRp2264
(dp2265
g54
(dp2266
sg63
g59
sg56
(lp2267
g49
(g70
g51
NtRp2268
(dp2269
g54
(dp2270
g74
g75
ssg63
g2264
sg56
(lp2271
S'function'
p2272
asbag49
(g70
g51
NtRp2273
(dp2274
g54
(dp2275
g81
g82
ssg63
g2264
sg56
(lp2276
S':'
asbag49
(g70
g51
NtRp2277
(dp2278
g54
(dp2279
sg63
g2264
sg56
(lp2280
g49
(g50
g51
NtRp2281
(dp2282
g54
(dp2283
g62
I5
ssg63
g2277
sg56
(lp2284
S'edit'
p2285
asbasbasbag49
(g65
g51
NtRp2286
(dp2287
g54
(dp2288
sg63
g59
sg56
(lp2289
g49
(g70
g51
NtRp2290
(dp2291
g54
(dp2292
g74
g75
ssg63
g2286
sg56
(lp2293
S'get_vars'
p2294
asbag49
(g70
g51
NtRp2295
(dp2296
g54
(dp2297
g81
g82
ssg63
g2286
sg56
(lp2298
S':'
asbag49
(g70
g51
NtRp2299
(dp2300
g54
(dp2301
sg63
g2286
sg56
(lp2302
g49
(g50
g51
NtRp2303
(dp2304
g54
(dp2305
g62
I5
ssg63
g2299
sg56
(lp2306
g49
(g58
g51
NtRp2307
(dp2308
g54
(dp2309
g62
I4
ssg63
Nsg56
(lp2310
g49
(g65
g51
NtRp2311
(dp2312
g54
(dp2313
sg63
g2307
sg56
(lp2314
g49
(g70
g51
NtRp2315
(dp2316
g54
(dp2317
g74
g75
ssg63
g2311
sg56
(lp2318
S'url'
p2319
asbag49
(g70
g51
NtRp2320
(dp2321
g54
(dp2322
g81
g82
ssg63
g2311
sg56
(lp2323
S':'
asbag49
(g70
g51
NtRp2324
(dp2325
g54
(dp2326
sg63
g2311
sg56
(lp2327
g49
(g50
g51
NtRp2328
(dp2329
g54
(dp2330
g62
I4
ssg63
g2324
sg56
(lp2331
S'http://web2py.com'
p2332
asbasbasbasbasbasbasbag49
(g65
g51
NtRp2333
(dp2334
g54
(dp2335
sg63
g59
sg56
(lp2336
g49
(g70
g51
NtRp2337
(dp2338
g54
(dp2339
g74
g75
ssg63
g2333
sg56
(lp2340
S'global_settings'
p2341
asbag49
(g70
g51
NtRp2342
(dp2343
g54
(dp2344
g81
g82
ssg63
g2333
sg56
(lp2345
S':'
asbag49
(g70
g51
NtRp2346
(dp2347
g54
(dp2348
sg63
g2333
sg56
(lp2349
g49
(g50
g51
NtRp2350
(dp2351
g54
(dp2352
g62
I5
ssg63
g2346
sg56
(lp2353
g49
(g58
g51
NtRp2354
(dp2355
g54
(dp2356
g62
I4
ssg63
Nsg56
(lp2357
g49
(g65
g51
NtRp2358
(dp2359
g54
(dp2360
sg63
g2354
sg56
(lp2361
g49
(g70
g51
NtRp2362
(dp2363
g54
(dp2364
g74
g75
ssg63
g2358
sg56
(lp2365
g1260
asbag49
(g70
g51
NtRp2366
(dp2367
g54
(dp2368
g81
g82
ssg63
g2358
sg56
(lp2369
S':'
asbag49
(g70
g51
NtRp2370
(dp2371
g54
(dp2372
sg63
g2358
sg56
(lp2373
g49
(g50
g51
NtRp2374
(dp2375
g54
(dp2376
g62
I4
ssg63
g2370
sg56
(lp2377
S"set(['/Users/mdipierro/Dropbox/web2py/applications/inplace/', '/Users/mdipierro/Dropbox/web2py/applications/cms/', '/Users/mdipierro/Dropbox/web2py/applications/admin/'])"
p2378
asbasbasbag49
(g65
g51
NtRp2379
(dp2380
g54
(dp2381
sg63
g2354
sg56
(lp2382
g49
(g70
g51
NtRp2383
(dp2384
g54
(dp2385
g74
g75
ssg63
g2379
sg56
(lp2386
g1282
asbag49
(g70
g51
NtRp2387
(dp2388
g54
(dp2389
g81
g82
ssg63
g2379
sg56
(lp2390
S':'
asbag49
(g70
g51
NtRp2391
(dp2392
g54
(dp2393
sg63
g2379
sg56
(lp2394
g49
(g50
g51
NtRp2395
(dp2396
g54
(dp2397
g62
I4
ssg63
g2391
sg56
(lp2398
g1295
asbasbasbag49
(g65
g51
NtRp2399
(dp2400
g54
(dp2401
sg63
g2354
sg56
(lp2402
g49
(g70
g51
NtRp2403
(dp2404
g54
(dp2405
g74
g75
ssg63
g2399
sg56
(lp2406
g1304
asbag49
(g70
g51
NtRp2407
(dp2408
g54
(dp2409
g81
g82
ssg63
g2399
sg56
(lp2410
S':'
asbag49
(g70
g51
NtRp2411
(dp2412
g54
(dp2413
sg63
g2399
sg56
(lp2414
g49
(g50
g51
NtRp2415
(dp2416
g54
(dp2417
g62
I4
ssg63
g2411
sg56
(lp2418
g49
(g58
g51
NtRp2419
(dp2420
g54
(dp2421
g62
I3
ssg63
Nsg56
(lp2422
sbasbasbasbag49
(g65
g51
NtRp2423
(dp2424
g54
(dp2425
sg63
g2354
sg56
(lp2426
g49
(g70
g51
NtRp2427
(dp2428
g54
(dp2429
g74
g75
ssg63
g2423
sg56
(lp2430
g1329
asbag49
(g70
g51
NtRp2431
(dp2432
g54
(dp2433
g81
g82
ssg63
g2423
sg56
(lp2434
S':'
asbag49
(g70
g51
NtRp2435
(dp2436
g54
(dp2437
sg63
g2423
sg56
(lp2438
g49
(g50
g51
NtRp2439
(dp2440
g54
(dp2441
g62
I4
ssg63
g2435
sg56
(lp2442
S"<Values at 0x153a378: {'verbose': False, 'ip': '127.0.0.1', 'shutdown_timeout': 5, 'taskbar': False, 'nocron': False, 'pid_filename': 'httpserver.pid', 'maxthreads': None, 'softcron': False, 'server_name': 'massimo-di-pierros-macbook-2.local', 'bpython': False, 'nogui': False, 'port': 8000, 'extcron': False, 'debuglevel': 30, 'test': None, 'folder': '/Users/mdipierro/Dropbox/web2py', 'config': '', 'import_models': False, 'winservice': '', 'shell': None, 'run': '', 'log_filename': 'httpserver.log', 'args': [''], 'socket_timeout': 1, 'ssl_ca_certificate': None, 'scheduler': None, 'profiler_filename': None, 'ssl_private_key': '', 'password': 'hello', 'request_queue_size': 5, 'ssl_certificate': '', 'cronjob': False, 'numthreads': None, 'quiet': False, 'interfaces': None, 'minthreads': None, 'timeout': 10, 'plain': False, 'nobanner': False}>"
p2443
asbasbasbag49
(g65
g51
NtRp2444
(dp2445
g54
(dp2446
sg63
g2354
sg56
(lp2447
g49
(g70
g51
NtRp2448
(dp2449
g54
(dp2450
g74
g75
ssg63
g2444
sg56
(lp2451
g1351
asbag49
(g70
g51
NtRp2452
(dp2453
g54
(dp2454
g81
g82
ssg63
g2444
sg56
(lp2455
S':'
asbag49
(g70
g51
NtRp2456
(dp2457
g54
(dp2458
sg63
g2444
sg56
(lp2459
g49
(g50
g51
NtRp2460
(dp2461
g54
(dp2462
g62
I4
ssg63
g2456
sg56
(lp2463
S'set([])'
p2464
asbasbasbag49
(g65
g51
NtRp2465
(dp2466
g54
(dp2467
sg63
g2354
sg56
(lp2468
g49
(g70
g51
NtRp2469
(dp2470
g54
(dp2471
g74
g75
ssg63
g2465
sg56
(lp2472
g1373
asbag49
(g70
g51
NtRp2473
(dp2474
g54
(dp2475
g81
g82
ssg63
g2465
sg56
(lp2476
S':'
asbag49
(g70
g51
NtRp2477
(dp2478
g54
(dp2479
sg63
g2465
sg56
(lp2480
g49
(g50
g51
NtRp2481
(dp2482
g54
(dp2483
g62
I4
ssg63
g2477
sg56
(lp2484
g92
asbasbasbag49
(g65
g51
NtRp2485
(dp2486
g54
(dp2487
sg63
g2354
sg56
(lp2488
g49
(g70
g51
NtRp2489
(dp2490
g54
(dp2491
g74
g75
ssg63
g2485
sg56
(lp2492
g1394
asbag49
(g70
g51
NtRp2493
(dp2494
g54
(dp2495
g81
g82
ssg63
g2485
sg56
(lp2496
S':'
asbag49
(g70
g51
NtRp2497
(dp2498
g54
(dp2499
sg63
g2485
sg56
(lp2500
g49
(g50
g51
NtRp2501
(dp2502
g54
(dp2503
g62
I4
ssg63
g2497
sg56
(lp2504
g1407
asbasbasbag49
(g65
g51
NtRp2505
(dp2506
g54
(dp2507
sg63
g2354
sg56
(lp2508
g49
(g70
g51
NtRp2509
(dp2510
g54
(dp2511
g74
g75
ssg63
g2505
sg56
(lp2512
g1636
asbag49
(g70
g51
NtRp2513
(dp2514
g54
(dp2515
g81
g82
ssg63
g2505
sg56
(lp2516
S':'
asbag49
(g70
g51
NtRp2517
(dp2518
g54
(dp2519
sg63
g2505
sg56
(lp2520
g49
(g50
g51
NtRp2521
(dp2522
g54
(dp2523
g62
I4
ssg63
g2517
sg56
(lp2524
g92
asbasbasbag49
(g65
g51
NtRp2525
(dp2526
g54
(dp2527
sg63
g2354
sg56
(lp2528
g49
(g70
g51
NtRp2529
(dp2530
g54
(dp2531
g74
g75
ssg63
g2525
sg56
(lp2532
g1657
asbag49
(g70
g51
NtRp2533
(dp2534
g54
(dp2535
g81
g82
ssg63
g2525
sg56
(lp2536
S':'
asbag49
(g70
g51
NtRp2537
(dp2538
g54
(dp2539
sg63
g2525
sg56
(lp2540
g49
(g50
g51
NtRp2541
(dp2542
g54
(dp2543
g62
I4
ssg63
g2537
sg56
(lp2544
g92
asbasbasbag49
(g65
g51
NtRp2545
(dp2546
g54
(dp2547
sg63
g2354
sg56
(lp2548
g49
(g70
g51
NtRp2549
(dp2550
g54
(dp2551
g74
g75
ssg63
g2545
sg56
(lp2552
g1896
asbag49
(g70
g51
NtRp2553
(dp2554
g54
(dp2555
g81
g82
ssg63
g2545
sg56
(lp2556
S':'
asbag49
(g70
g51
NtRp2557
(dp2558
g54
(dp2559
sg63
g2545
sg56
(lp2560
g49
(g50
g51
NtRp2561
(dp2562
g54
(dp2563
g62
I4
ssg63
g2557
sg56
(lp2564
g1909
asbasbasbag49
(g65
g51
NtRp2565
(dp2566
g54
(dp2567
sg63
g2354
sg56
(lp2568
g49
(g70
g51
NtRp2569
(dp2570
g54
(dp2571
g74
g75
ssg63
g2565
sg56
(lp2572
g1939
asbag49
(g70
g51
NtRp2573
(dp2574
g54
(dp2575
g81
g82
ssg63
g2565
sg56
(lp2576
S':'
asbag49
(g70
g51
NtRp2577
(dp2578
g54
(dp2579
sg63
g2565
sg56
(lp2580
g49
(g50
g51
NtRp2581
(dp2582
g54
(dp2583
g62
I4
ssg63
g2577
sg56
(lp2584
g49
(g58
g51
NtRp2585
(dp2586
g54
(dp2587
g62
I3
ssg63
Nsg56
(lp2588
g49
(g65
g51
NtRp2589
(dp2590
g54
(dp2591
sg63
g2585
sg56
(lp2592
g49
(g70
g51
NtRp2593
(dp2594
g54
(dp2595
sg63
g2589
sg56
(lp2596
g49
(g50
g51
NtRp2597
(dp2598
g54
(dp2599
g62
I3
ssg63
g2593
sg56
(lp2600
S'1'
asbasbasbag49
(g65
g51
NtRp2601
(dp2602
g54
(dp2603
sg63
g2585
sg56
(lp2604
g49
(g70
g51
NtRp2605
(dp2606
g54
(dp2607
sg63
g2601
sg56
(lp2608
g49
(g50
g51
NtRp2609
(dp2610
g54
(dp2611
g62
I3
ssg63
g2605
sg56
(lp2612
S'99'
p2613
asbasbasbag49
(g65
g51
NtRp2614
(dp2615
g54
(dp2616
sg63
g2585
sg56
(lp2617
g49
(g70
g51
NtRp2618
(dp2619
g54
(dp2620
sg63
g2614
sg56
(lp2621
g49
(g50
g51
NtRp2622
(dp2623
g54
(dp2624
g62
I3
ssg63
g2618
sg56
(lp2625
S'3'
asbasbasbag49
(g65
g51
NtRp2626
(dp2627
g54
(dp2628
sg63
g2585
sg56
(lp2629
g49
(g70
g51
NtRp2630
(dp2631
g54
(dp2632
sg63
g2626
sg56
(lp2633
g49
(g50
g51
NtRp2634
(dp2635
g54
(dp2636
g62
I3
ssg63
g2630
sg56
(lp2637
S'datetime.datetime(2011, 12, 9, 21, 5, 4)'
p2638
asbasbasbag49
(g65
g51
NtRp2639
(dp2640
g54
(dp2641
sg63
g2585
sg56
(lp2642
g49
(g70
g51
NtRp2643
(dp2644
g54
(dp2645
sg63
g2639
sg56
(lp2646
g49
(g50
g51
NtRp2647
(dp2648
g54
(dp2649
g62
I3
ssg63
g2643
sg56
(lp2650
g2018
asbasbasbasbasbasbasbasbasbasbasbag49
(g65
g51
NtRp2651
(dp2652
g54
(dp2653
sg63
g59
sg56
(lp2654
g49
(g70
g51
NtRp2655
(dp2656
g54
(dp2657
g74
g75
ssg63
g2651
sg56
(lp2658
S'is_https'
p2659
asbag49
(g70
g51
NtRp2660
(dp2661
g54
(dp2662
g81
g82
ssg63
g2651
sg56
(lp2663
S':'
asbag49
(g70
g51
NtRp2664
(dp2665
g54
(dp2666
sg63
g2651
sg56
(lp2667
g49
(g50
g51
NtRp2668
(dp2669
g54
(dp2670
g62
I5
ssg63
g2664
sg56
(lp2671
g92
asbasbasbag49
(g65
g51
NtRp2672
(dp2673
g54
(dp2674
sg63
g59
sg56
(lp2675
g49
(g70
g51
NtRp2676
(dp2677
g54
(dp2678
g74
g75
ssg63
g2672
sg56
(lp2679
S'is_local'
p2680
asbag49
(g70
g51
NtRp2681
(dp2682
g54
(dp2683
g81
g82
ssg63
g2672
sg56
(lp2684
S':'
asbag49
(g70
g51
NtRp2685
(dp2686
g54
(dp2687
sg63
g2672
sg56
(lp2688
g49
(g50
g51
NtRp2689
(dp2690
g54
(dp2691
g62
I5
ssg63
g2685
sg56
(lp2692
g2127
asbasbasbag49
(g65
g51
NtRp2693
(dp2694
g54
(dp2695
sg63
g59
sg56
(lp2696
g49
(g70
g51
NtRp2697
(dp2698
g54
(dp2699
g74
g75
ssg63
g2693
sg56
(lp2700
S'is_restful'
p2701
asbag49
(g70
g51
NtRp2702
(dp2703
g54
(dp2704
g81
g82
ssg63
g2693
sg56
(lp2705
S':'
asbag49
(g70
g51
NtRp2706
(dp2707
g54
(dp2708
sg63
g2693
sg56
(lp2709
g49
(g50
g51
NtRp2710
(dp2711
g54
(dp2712
g62
I5
ssg63
g2706
sg56
(lp2713
g92
asbasbasbag49
(g65
g51
NtRp2714
(dp2715
g54
(dp2716
sg63
g59
sg56
(lp2717
g49
(g70
g51
NtRp2718
(dp2719
g54
(dp2720
g74
g75
ssg63
g2714
sg56
(lp2721
S'now'
p2722
asbag49
(g70
g51
NtRp2723
(dp2724
g54
(dp2725
g81
g82
ssg63
g2714
sg56
(lp2726
S':'
asbag49
(g70
g51
NtRp2727
(dp2728
g54
(dp2729
sg63
g2714
sg56
(lp2730
g49
(g50
g51
NtRp2731
(dp2732
g54
(dp2733
g62
I5
ssg63
g2727
sg56
(lp2734
S'datetime.datetime(2011, 12, 11, 16, 9, 0, 121081)'
p2735
asbasbasbag49
(g65
g51
NtRp2736
(dp2737
g54
(dp2738
sg63
g59
sg56
(lp2739
g49
(g70
g51
NtRp2740
(dp2741
g54
(dp2742
g74
g75
ssg63
g2736
sg56
(lp2743
S'post_vars'
p2744
asbag49
(g70
g51
NtRp2745
(dp2746
g54
(dp2747
g81
g82
ssg63
g2736
sg56
(lp2748
S':'
asbag49
(g70
g51
NtRp2749
(dp2750
g54
(dp2751
sg63
g2736
sg56
(lp2752
g49
(g50
g51
NtRp2753
(dp2754
g54
(dp2755
g62
I5
ssg63
g2749
sg56
(lp2756
g49
(g58
g51
NtRp2757
(dp2758
g54
(dp2759
g62
I4
ssg63
Nsg56
(lp2760
sbasbasbasbag49
(g65
g51
NtRp2761
(dp2762
g54
(dp2763
sg63
g59
sg56
(lp2764
g49
(g70
g51
NtRp2765
(dp2766
g54
(dp2767
g74
g75
ssg63
g2761
sg56
(lp2768
S'url'
p2769
asbag49
(g70
g51
NtRp2770
(dp2771
g54
(dp2772
g81
g82
ssg63
g2761
sg56
(lp2773
S':'
asbag49
(g70
g51
NtRp2774
(dp2775
g54
(dp2776
sg63
g2761
sg56
(lp2777
g49
(g50
g51
NtRp2778
(dp2779
g54
(dp2780
g62
I5
ssg63
g2774
sg56
(lp2781
S'/inplace/default/edit'
p2782
asbasbasbag49
(g65
g51
NtRp2783
(dp2784
g54
(dp2785
sg63
g59
sg56
(lp2786
g49
(g70
g51
NtRp2787
(dp2788
g54
(dp2789
g74
g75
ssg63
g2783
sg56
(lp2790
S'utcnow'
p2791
asbag49
(g70
g51
NtRp2792
(dp2793
g54
(dp2794
g81
g82
ssg63
g2783
sg56
(lp2795
S':'
asbag49
(g70
g51
NtRp2796
(dp2797
g54
(dp2798
sg63
g2783
sg56
(lp2799
g49
(g50
g51
NtRp2800
(dp2801
g54
(dp2802
g62
I5
ssg63
g2796
sg56
(lp2803
S'datetime.datetime(2011, 12, 11, 22, 9, 0, 121089)'
p2804
asbasbasbag49
(g65
g51
NtRp2805
(dp2806
g54
(dp2807
sg63
g59
sg56
(lp2808
g49
(g70
g51
NtRp2809
(dp2810
g54
(dp2811
g74
g75
ssg63
g2805
sg56
(lp2812
S'uuid'
p2813
asbag49
(g70
g51
NtRp2814
(dp2815
g54
(dp2816
g81
g82
ssg63
g2805
sg56
(lp2817
S':'
asbag49
(g70
g51
NtRp2818
(dp2819
g54
(dp2820
sg63
g2805
sg56
(lp2821
g49
(g50
g51
NtRp2822
(dp2823
g54
(dp2824
g62
I5
ssg63
g2818
sg56
(lp2825
S'inplace/127.0.0.1.2011-12-11.16-09-00.ec587787-d733-48bb-b8c1-6fd303e61fae'
p2826
asbasbasbag49
(g65
g51
NtRp2827
(dp2828
g54
(dp2829
sg63
g59
sg56
(lp2830
g49
(g70
g51
NtRp2831
(dp2832
g54
(dp2833
g74
g75
ssg63
g2827
sg56
(lp2834
S'vars'
p2835
asbag49
(g70
g51
NtRp2836
(dp2837
g54
(dp2838
g81
g82
ssg63
g2827
sg56
(lp2839
S':'
asbag49
(g70
g51
NtRp2840
(dp2841
g54
(dp2842
sg63
g2827
sg56
(lp2843
g49
(g50
g51
NtRp2844
(dp2845
g54
(dp2846
g62
I5
ssg63
g2840
sg56
(lp2847
g49
(g58
g51
NtRp2848
(dp2849
g54
(dp2850
g62
I4
ssg63
Nsg56
(lp2851
g49
(g65
g51
NtRp2852
(dp2853
g54
(dp2854
sg63
g2848
sg56
(lp2855
g49
(g70
g51
NtRp2856
(dp2857
g54
(dp2858
g74
g75
ssg63
g2852
sg56
(lp2859
g2319
asbag49
(g70
g51
NtRp2860
(dp2861
g54
(dp2862
g81
g82
ssg63
g2852
sg56
(lp2863
S':'
asbag49
(g70
g51
NtRp2864
(dp2865
g54
(dp2866
sg63
g2852
sg56
(lp2867
g49
(g50
g51
NtRp2868
(dp2869
g54
(dp2870
g62
I4
ssg63
g2864
sg56
(lp2871
g2332
asbasbasbasbasbasbasbag49
(g65
g51
NtRp2872
(dp2873
g54
(dp2874
sg63
g59
sg56
(lp2875
g49
(g70
g51
NtRp2876
(dp2877
g54
(dp2878
g74
g75
ssg63
g2872
sg56
(lp2879
S'wsgi'
p2880
asbag49
(g70
g51
NtRp2881
(dp2882
g54
(dp2883
g81
g82
ssg63
g2872
sg56
(lp2884
S':'
asbag49
(g70
g51
NtRp2885
(dp2886
g54
(dp2887
sg63
g2872
sg56
(lp2888
g49
(g50
g51
NtRp2889
(dp2890
g54
(dp2891
g62
I5
ssg63
g2885
sg56
(lp2892
g49
(g58
g51
NtRp2893
(dp2894
g54
(dp2895
g62
I4
ssg63
Nsg56
(lp2896
g49
(g65
g51
NtRp2897
(dp2898
g54
(dp2899
sg63
g2893
sg56
(lp2900
g49
(g70
g51
NtRp2901
(dp2902
g54
(dp2903
g74
g75
ssg63
g2897
sg56
(lp2904
S'environ'
p2905
asbag49
(g70
g51
NtRp2906
(dp2907
g54
(dp2908
g81
g82
ssg63
g2897
sg56
(lp2909
S':'
asbag49
(g70
g51
NtRp2910
(dp2911
g54
(dp2912
sg63
g2897
sg56
(lp2913
g49
(g50
g51
NtRp2914
(dp2915
g54
(dp2916
g62
I4
ssg63
g2910
sg56
(lp2917
g49
(g58
g51
NtRp2918
(dp2919
g54
(dp2920
g62
I3
ssg63
Nsg56
(lp2921
g49
(g65
g51
NtRp2922
(dp2923
g54
(dp2924
sg63
g2918
sg56
(lp2925
g49
(g70
g51
NtRp2926
(dp2927
g54
(dp2928
g74
g75
ssg63
g2922
sg56
(lp2929
S'HTTP_ACCEPT'
p2930
asbag49
(g70
g51
NtRp2931
(dp2932
g54
(dp2933
g81
g82
ssg63
g2922
sg56
(lp2934
S':'
asbag49
(g70
g51
NtRp2935
(dp2936
g54
(dp2937
sg63
g2922
sg56
(lp2938
g49
(g50
g51
NtRp2939
(dp2940
g54
(dp2941
g62
I3
ssg63
g2935
sg56
(lp2942
g1429
asbasbasbag49
(g65
g51
NtRp2943
(dp2944
g54
(dp2945
sg63
g2918
sg56
(lp2946
g49
(g70
g51
NtRp2947
(dp2948
g54
(dp2949
g74
g75
ssg63
g2943
sg56
(lp2950
S'HTTP_ACCEPT_CHARSET'
p2951
asbag49
(g70
g51
NtRp2952
(dp2953
g54
(dp2954
g81
g82
ssg63
g2943
sg56
(lp2955
S':'
asbag49
(g70
g51
NtRp2956
(dp2957
g54
(dp2958
sg63
g2943
sg56
(lp2959
g49
(g50
g51
NtRp2960
(dp2961
g54
(dp2962
g62
I3
ssg63
g2956
sg56
(lp2963
g1451
asbasbasbag49
(g65
g51
NtRp2964
(dp2965
g54
(dp2966
sg63
g2918
sg56
(lp2967
g49
(g70
g51
NtRp2968
(dp2969
g54
(dp2970
g74
g75
ssg63
g2964
sg56
(lp2971
S'HTTP_ACCEPT_ENCODING'
p2972
asbag49
(g70
g51
NtRp2973
(dp2974
g54
(dp2975
g81
g82
ssg63
g2964
sg56
(lp2976
S':'
asbag49
(g70
g51
NtRp2977
(dp2978
g54
(dp2979
sg63
g2964
sg56
(lp2980
g49
(g50
g51
NtRp2981
(dp2982
g54
(dp2983
g62
I3
ssg63
g2977
sg56
(lp2984
g1473
asbasbasbag49
(g65
g51
NtRp2985
(dp2986
g54
(dp2987
sg63
g2918
sg56
(lp2988
g49
(g70
g51
NtRp2989
(dp2990
g54
(dp2991
g74
g75
ssg63
g2985
sg56
(lp2992
S'HTTP_ACCEPT_LANGUAGE'
p2993
asbag49
(g70
g51
NtRp2994
(dp2995
g54
(dp2996
g81
g82
ssg63
g2985
sg56
(lp2997
S':'
asbag49
(g70
g51
NtRp2998
(dp2999
g54
(dp3000
sg63
g2985
sg56
(lp3001
g49
(g50
g51
NtRp3002
(dp3003
g54
(dp3004
g62
I3
ssg63
g2998
sg56
(lp3005
g1495
asbasbasbag49
(g65
g51
NtRp3006
(dp3007
g54
(dp3008
sg63
g2918
sg56
(lp3009
g49
(g70
g51
NtRp3010
(dp3011
g54
(dp3012
g74
g75
ssg63
g3006
sg56
(lp3013
S'HTTP_CACHE_CONTROL'
p3014
asbag49
(g70
g51
NtRp3015
(dp3016
g54
(dp3017
g81
g82
ssg63
g3006
sg56
(lp3018
S':'
asbag49
(g70
g51
NtRp3019
(dp3020
g54
(dp3021
sg63
g3006
sg56
(lp3022
g49
(g50
g51
NtRp3023
(dp3024
g54
(dp3025
g62
I3
ssg63
g3019
sg56
(lp3026
g1517
asbasbasbag49
(g65
g51
NtRp3027
(dp3028
g54
(dp3029
sg63
g2918
sg56
(lp3030
g49
(g70
g51
NtRp3031
(dp3032
g54
(dp3033
g74
g75
ssg63
g3027
sg56
(lp3034
S'HTTP_CONNECTION'
p3035
asbag49
(g70
g51
NtRp3036
(dp3037
g54
(dp3038
g81
g82
ssg63
g3027
sg56
(lp3039
S':'
asbag49
(g70
g51
NtRp3040
(dp3041
g54
(dp3042
sg63
g3027
sg56
(lp3043
g49
(g50
g51
NtRp3044
(dp3045
g54
(dp3046
g62
I3
ssg63
g3040
sg56
(lp3047
g1539
asbasbasbag49
(g65
g51
NtRp3048
(dp3049
g54
(dp3050
sg63
g2918
sg56
(lp3051
g49
(g70
g51
NtRp3052
(dp3053
g54
(dp3054
g74
g75
ssg63
g3048
sg56
(lp3055
S'HTTP_COOKIE'
p3056
asbag49
(g70
g51
NtRp3057
(dp3058
g54
(dp3059
g81
g82
ssg63
g3048
sg56
(lp3060
S':'
asbag49
(g70
g51
NtRp3061
(dp3062
g54
(dp3063
sg63
g3048
sg56
(lp3064
g49
(g50
g51
NtRp3065
(dp3066
g54
(dp3067
g62
I3
ssg63
g3061
sg56
(lp3068
g1561
asbasbasbag49
(g65
g51
NtRp3069
(dp3070
g54
(dp3071
sg63
g2918
sg56
(lp3072
g49
(g70
g51
NtRp3073
(dp3074
g54
(dp3075
g74
g75
ssg63
g3069
sg56
(lp3076
S'HTTP_HOST'
p3077
asbag49
(g70
g51
NtRp3078
(dp3079
g54
(dp3080
g81
g82
ssg63
g3069
sg56
(lp3081
S':'
asbag49
(g70
g51
NtRp3082
(dp3083
g54
(dp3084
sg63
g3069
sg56
(lp3085
g49
(g50
g51
NtRp3086
(dp3087
g54
(dp3088
g62
I3
ssg63
g3082
sg56
(lp3089
g1583
asbasbasbag49
(g65
g51
NtRp3090
(dp3091
g54
(dp3092
sg63
g2918
sg56
(lp3093
g49
(g70
g51
NtRp3094
(dp3095
g54
(dp3096
g74
g75
ssg63
g3090
sg56
(lp3097
S'HTTP_REFERER'
p3098
asbag49
(g70
g51
NtRp3099
(dp3100
g54
(dp3101
g81
g82
ssg63
g3090
sg56
(lp3102
S':'
asbag49
(g70
g51
NtRp3103
(dp3104
g54
(dp3105
sg63
g3090
sg56
(lp3106
g49
(g50
g51
NtRp3107
(dp3108
g54
(dp3109
g62
I3
ssg63
g3103
sg56
(lp3110
g1605
asbasbasbag49
(g65
g51
NtRp3111
(dp3112
g54
(dp3113
sg63
g2918
sg56
(lp3114
g49
(g70
g51
NtRp3115
(dp3116
g54
(dp3117
g74
g75
ssg63
g3111
sg56
(lp3118
S'HTTP_USER_AGENT'
p3119
asbag49
(g70
g51
NtRp3120
(dp3121
g54
(dp3122
g81
g82
ssg63
g3111
sg56
(lp3123
S':'
asbag49
(g70
g51
NtRp3124
(dp3125
g54
(dp3126
sg63
g3111
sg56
(lp3127
g49
(g50
g51
NtRp3128
(dp3129
g54
(dp3130
g62
I3
ssg63
g3124
sg56
(lp3131
g1627
asbasbasbag49
(g65
g51
NtRp3132
(dp3133
g54
(dp3134
sg63
g2918
sg56
(lp3135
g49
(g70
g51
NtRp3136
(dp3137
g54
(dp3138
g74
g75
ssg63
g3132
sg56
(lp3139
S'PATH_INFO'
p3140
asbag49
(g70
g51
NtRp3141
(dp3142
g54
(dp3143
g81
g82
ssg63
g3132
sg56
(lp3144
S':'
asbag49
(g70
g51
NtRp3145
(dp3146
g54
(dp3147
sg63
g3132
sg56
(lp3148
g49
(g50
g51
NtRp3149
(dp3150
g54
(dp3151
g62
I3
ssg63
g3145
sg56
(lp3152
g1691
asbasbasbag49
(g65
g51
NtRp3153
(dp3154
g54
(dp3155
sg63
g2918
sg56
(lp3156
g49
(g70
g51
NtRp3157
(dp3158
g54
(dp3159
g74
g75
ssg63
g3153
sg56
(lp3160
S'QUERY_STRING'
p3161
asbag49
(g70
g51
NtRp3162
(dp3163
g54
(dp3164
g81
g82
ssg63
g3153
sg56
(lp3165
S':'
asbag49
(g70
g51
NtRp3166
(dp3167
g54
(dp3168
sg63
g3153
sg56
(lp3169
g49
(g50
g51
NtRp3170
(dp3171
g54
(dp3172
g62
I3
ssg63
g3166
sg56
(lp3173
g1713
asbasbasbag49
(g65
g51
NtRp3174
(dp3175
g54
(dp3176
sg63
g2918
sg56
(lp3177
g49
(g70
g51
NtRp3178
(dp3179
g54
(dp3180
g74
g75
ssg63
g3174
sg56
(lp3181
S'REMOTE_ADDR'
p3182
asbag49
(g70
g51
NtRp3183
(dp3184
g54
(dp3185
g81
g82
ssg63
g3174
sg56
(lp3186
S':'
asbag49
(g70
g51
NtRp3187
(dp3188
g54
(dp3189
sg63
g3174
sg56
(lp3190
g49
(g50
g51
NtRp3191
(dp3192
g54
(dp3193
g62
I3
ssg63
g3187
sg56
(lp3194
g182
asbasbasbag49
(g65
g51
NtRp3195
(dp3196
g54
(dp3197
sg63
g2918
sg56
(lp3198
g49
(g70
g51
NtRp3199
(dp3200
g54
(dp3201
g74
g75
ssg63
g3195
sg56
(lp3202
S'REMOTE_PORT'
p3203
asbag49
(g70
g51
NtRp3204
(dp3205
g54
(dp3206
g81
g82
ssg63
g3195
sg56
(lp3207
S':'
asbag49
(g70
g51
NtRp3208
(dp3209
g54
(dp3210
sg63
g3195
sg56
(lp3211
g49
(g50
g51
NtRp3212
(dp3213
g54
(dp3214
g62
I3
ssg63
g3208
sg56
(lp3215
g1756
asbasbasbag49
(g65
g51
NtRp3216
(dp3217
g54
(dp3218
sg63
g2918
sg56
(lp3219
g49
(g70
g51
NtRp3220
(dp3221
g54
(dp3222
g74
g75
ssg63
g3216
sg56
(lp3223
S'REQUEST_METHOD'
p3224
asbag49
(g70
g51
NtRp3225
(dp3226
g54
(dp3227
g81
g82
ssg63
g3216
sg56
(lp3228
S':'
asbag49
(g70
g51
NtRp3229
(dp3230
g54
(dp3231
sg63
g3216
sg56
(lp3232
g49
(g50
g51
NtRp3233
(dp3234
g54
(dp3235
g62
I3
ssg63
g3229
sg56
(lp3236
g1778
asbasbasbag49
(g65
g51
NtRp3237
(dp3238
g54
(dp3239
sg63
g2918
sg56
(lp3240
g49
(g70
g51
NtRp3241
(dp3242
g54
(dp3243
g74
g75
ssg63
g3237
sg56
(lp3244
S'SCRIPT_NAME'
p3245
asbag49
(g70
g51
NtRp3246
(dp3247
g54
(dp3248
g81
g82
ssg63
g3237
sg56
(lp3249
S':'
asbag49
(g70
g51
NtRp3250
(dp3251
g54
(dp3252
sg63
g3237
sg56
(lp3253
g49
(g50
g51
NtRp3254
(dp3255
g54
(dp3256
g62
I3
ssg63
g3250
sg56
(lp3257
S''
asbasbasbag49
(g65
g51
NtRp3258
(dp3259
g54
(dp3260
sg63
g2918
sg56
(lp3261
g49
(g70
g51
NtRp3262
(dp3263
g54
(dp3264
g74
g75
ssg63
g3258
sg56
(lp3265
S'SERVER_NAME'
p3266
asbag49
(g70
g51
NtRp3267
(dp3268
g54
(dp3269
g81
g82
ssg63
g3258
sg56
(lp3270
S':'
asbag49
(g70
g51
NtRp3271
(dp3272
g54
(dp3273
sg63
g3258
sg56
(lp3274
g49
(g50
g51
NtRp3275
(dp3276
g54
(dp3277
g62
I3
ssg63
g3271
sg56
(lp3278
g1821
asbasbasbag49
(g65
g51
NtRp3279
(dp3280
g54
(dp3281
sg63
g2918
sg56
(lp3282
g49
(g70
g51
NtRp3283
(dp3284
g54
(dp3285
g74
g75
ssg63
g3279
sg56
(lp3286
S'SERVER_PORT'
p3287
asbag49
(g70
g51
NtRp3288
(dp3289
g54
(dp3290
g81
g82
ssg63
g3279
sg56
(lp3291
S':'
asbag49
(g70
g51
NtRp3292
(dp3293
g54
(dp3294
sg63
g3279
sg56
(lp3295
g49
(g50
g51
NtRp3296
(dp3297
g54
(dp3298
g62
I3
ssg63
g3292
sg56
(lp3299
g1843
asbasbasbag49
(g65
g51
NtRp3300
(dp3301
g54
(dp3302
sg63
g2918
sg56
(lp3303
g49
(g70
g51
NtRp3304
(dp3305
g54
(dp3306
g74
g75
ssg63
g3300
sg56
(lp3307
S'SERVER_PROTOCOL'
p3308
asbag49
(g70
g51
NtRp3309
(dp3310
g54
(dp3311
g81
g82
ssg63
g3300
sg56
(lp3312
S':'
asbag49
(g70
g51
NtRp3313
(dp3314
g54
(dp3315
sg63
g3300
sg56
(lp3316
g49
(g50
g51
NtRp3317
(dp3318
g54
(dp3319
g62
I3
ssg63
g3313
sg56
(lp3320
g1865
asbasbasbag49
(g65
g51
NtRp3321
(dp3322
g54
(dp3323
sg63
g2918
sg56
(lp3324
g49
(g70
g51
NtRp3325
(dp3326
g54
(dp3327
g74
g75
ssg63
g3321
sg56
(lp3328
S'SERVER_SOFTWARE'
p3329
asbag49
(g70
g51
NtRp3330
(dp3331
g54
(dp3332
g81
g82
ssg63
g3321
sg56
(lp3333
S':'
asbag49
(g70
g51
NtRp3334
(dp3335
g54
(dp3336
sg63
g3321
sg56
(lp3337
g49
(g50
g51
NtRp3338
(dp3339
g54
(dp3340
g62
I3
ssg63
g3334
sg56
(lp3341
g1887
asbasbasbag49
(g65
g51
NtRp3342
(dp3343
g54
(dp3344
sg63
g2918
sg56
(lp3345
g49
(g70
g51
NtRp3346
(dp3347
g54
(dp3348
g74
g75
ssg63
g3342
sg56
(lp3349
S'wsgi.errors'
p3350
asbag49
(g70
g51
NtRp3351
(dp3352
g54
(dp3353
g81
g82
ssg63
g3342
sg56
(lp3354
S':'
asbag49
(g70
g51
NtRp3355
(dp3356
g54
(dp3357
sg63
g3342
sg56
(lp3358
g49
(g50
g51
NtRp3359
(dp3360
g54
(dp3361
g62
I3
ssg63
g3355
sg56
(lp3362
S"<open file '<stderr>', mode 'w' at 0x1620b0>"
p3363
asbasbasbag49
(g65
g51
NtRp3364
(dp3365
g54
(dp3366
sg63
g2918
sg56
(lp3367
g49
(g70
g51
NtRp3368
(dp3369
g54
(dp3370
g74
g75
ssg63
g3364
sg56
(lp3371
S'wsgi.file_wrapper'
p3372
asbag49
(g70
g51
NtRp3373
(dp3374
g54
(dp3375
g81
g82
ssg63
g3364
sg56
(lp3376
S':'
asbag49
(g70
g51
NtRp3377
(dp3378
g54
(dp3379
sg63
g3364
sg56
(lp3380
g49
(g50
g51
NtRp3381
(dp3382
g54
(dp3383
g62
I3
ssg63
g3377
sg56
(lp3384
S'<class wsgiref.util.FileWrapper at 0x7c2840>'
p3385
asbasbasbag49
(g65
g51
NtRp3386
(dp3387
g54
(dp3388
sg63
g2918
sg56
(lp3389
g49
(g70
g51
NtRp3390
(dp3391
g54
(dp3392
g74
g75
ssg63
g3386
sg56
(lp3393
S'wsgi.input'
p3394
asbag49
(g70
g51
NtRp3395
(dp3396
g54
(dp3397
g81
g82
ssg63
g3386
sg56
(lp3398
S':'
asbag49
(g70
g51
NtRp3399
(dp3400
g54
(dp3401
sg63
g3386
sg56
(lp3402
g49
(g50
g51
NtRp3403
(dp3404
g54
(dp3405
g62
I3
ssg63
g3399
sg56
(lp3406
S'<cStringIO.StringO object at 0x14ceba0>'
p3407
asbasbasbag49
(g65
g51
NtRp3408
(dp3409
g54
(dp3410
sg63
g2918
sg56
(lp3411
g49
(g70
g51
NtRp3412
(dp3413
g54
(dp3414
g74
g75
ssg63
g3408
sg56
(lp3415
S'wsgi.multiprocess'
p3416
asbag49
(g70
g51
NtRp3417
(dp3418
g54
(dp3419
g81
g82
ssg63
g3408
sg56
(lp3420
S':'
asbag49
(g70
g51
NtRp3421
(dp3422
g54
(dp3423
sg63
g3408
sg56
(lp3424
g49
(g50
g51
NtRp3425
(dp3426
g54
(dp3427
g62
I3
ssg63
g3421
sg56
(lp3428
g92
asbasbasbag49
(g65
g51
NtRp3429
(dp3430
g54
(dp3431
sg63
g2918
sg56
(lp3432
g49
(g70
g51
NtRp3433
(dp3434
g54
(dp3435
g74
g75
ssg63
g3429
sg56
(lp3436
S'wsgi.multithread'
p3437
asbag49
(g70
g51
NtRp3438
(dp3439
g54
(dp3440
g81
g82
ssg63
g3429
sg56
(lp3441
S':'
asbag49
(g70
g51
NtRp3442
(dp3443
g54
(dp3444
sg63
g3429
sg56
(lp3445
g49
(g50
g51
NtRp3446
(dp3447
g54
(dp3448
g62
I3
ssg63
g3442
sg56
(lp3449
g2127
asbasbasbag49
(g65
g51
NtRp3450
(dp3451
g54
(dp3452
sg63
g2918
sg56
(lp3453
g49
(g70
g51
NtRp3454
(dp3455
g54
(dp3456
g74
g75
ssg63
g3450
sg56
(lp3457
S'wsgi.run_once'
p3458
asbag49
(g70
g51
NtRp3459
(dp3460
g54
(dp3461
g81
g82
ssg63
g3450
sg56
(lp3462
S':'
asbag49
(g70
g51
NtRp3463
(dp3464
g54
(dp3465
sg63
g3450
sg56
(lp3466
g49
(g50
g51
NtRp3467
(dp3468
g54
(dp3469
g62
I3
ssg63
g3463
sg56
(lp3470
g92
asbasbasbag49
(g65
g51
NtRp3471
(dp3472
g54
(dp3473
sg63
g2918
sg56
(lp3474
g49
(g70
g51
NtRp3475
(dp3476
g54
(dp3477
g74
g75
ssg63
g3471
sg56
(lp3478
S'wsgi.url_scheme'
p3479
asbag49
(g70
g51
NtRp3480
(dp3481
g54
(dp3482
g81
g82
ssg63
g3471
sg56
(lp3483
S':'
asbag49
(g70
g51
NtRp3484
(dp3485
g54
(dp3486
sg63
g3471
sg56
(lp3487
g49
(g50
g51
NtRp3488
(dp3489
g54
(dp3490
g62
I3
ssg63
g3484
sg56
(lp3491
g2170
asbasbasbag49
(g65
g51
NtRp3492
(dp3493
g54
(dp3494
sg63
g2918
sg56
(lp3495
g49
(g70
g51
NtRp3496
(dp3497
g54
(dp3498
g74
g75
ssg63
g3492
sg56
(lp3499
S'wsgi.version'
p3500
asbag49
(g70
g51
NtRp3501
(dp3502
g54
(dp3503
g81
g82
ssg63
g3492
sg56
(lp3504
S':'
asbag49
(g70
g51
NtRp3505
(dp3506
g54
(dp3507
sg63
g3492
sg56
(lp3508
g49
(g50
g51
NtRp3509
(dp3510
g54
(dp3511
g62
I3
ssg63
g3505
sg56
(lp3512
S'1'
asbasbasbasbasbasbasbasbasbasbasbasbasbsS'frames'
p3513
(lp3514
(dp3515
S'file'
p3516
S'/Users/mdipierro/Dropbox/web2py/gluon/restricted.py'
p3517
sS'dump'
p3518
(dp3519
S'environment'
p3520
S"{'A': <class 'gluon.html.A'>, 'Auth': <class 'gluon.tools.Auth'>, 'B': <class 'gluon.html.B'>, 'BEAUTIFY': <class 'gluon.html.BEAUTIFY'>, 'BODY': <class 'gluon.html.BODY'>, 'BR': <class 'gluon.html.BR'>, 'BUTTON': <class 'gluon.html.BUTTON'>, 'CAT': <class 'gluon.html.CAT'>, 'CENTER': <class 'gluon.html.CENTER'>, 'CLEANUP': <class 'gluon.validators.CLEANUP'>, ...}"
p3521
sS'ccode'
p3522
S'<code object <module> at 0x1f9ef98, file "/Users...ications/inplace/controllers/default.py", line 4>'
p3523
ssS'lnum'
p3524
I204
sS'lines'
p3525
(dp3526
I199
S'    try:'
p3527
sI200
S'        if type(code) == types.CodeType:'
p3528
sI201
S'            ccode = code'
p3529
sI202
S'        else:'
p3530
sI203
S'            ccode = compile2(code,layer)'
p3531
sI204
S'        exec ccode in environment'
p3532
sI205
S'    except HTTP:'
p3533
sI206
S'        raise'
p3534
sI207
S'    except RestrictedError:'
p3535
sI208
S'        # do not encapsulate (obfuscate) the original RestrictedError'
p3536
ssS'call'
p3537
S"(code='# -*- coding: utf-8 -*-\\n# developed by Massimo D...m=auth())\\n\\nresponse._vars=response._caller(edit)\\n', environment={'A': <class 'gluon.html.A'>, 'Auth': <class 'gluon.tools.Auth'>, 'B': <class 'gluon.html.B'>, 'BEAUTIFY': <class 'gluon.html.BEAUTIFY'>, 'BODY': <class 'gluon.html.BODY'>, 'BR': <class 'gluon.html.BR'>, 'BUTTON': <class 'gluon.html.BUTTON'>, 'CAT': <class 'gluon.html.CAT'>, 'CENTER': <class 'gluon.html.CENTER'>, 'CLEANUP': <class 'gluon.validators.CLEANUP'>, ...}, layer='/Users/mdipierro/Dropbox/web2py/applications/inplace/controllers/default.py')"
p3538
sS'func'
p3539
S'restricted'
p3540
sa(dp3541
g3516
S'/Users/mdipierro/Dropbox/web2py/applications/inplace/controllers/default.py'
p3542
sg3518
(dp3543
sg3524
I58
sg3525
(dp3544
I47
S'def clone():'
p3545
sI48
S'    id = db.clone.insert(url=session.url,html=session.new_html)'
p3546
sI49
S"    redirect(URL('page',args=id))"
p3547
sI50
S''
sI51
S'def page():'
p3548
sI52
S"    if request.args(0)=='clone': redirect(URL('index'))"
p3549
sI53
S'    return db.clone(request.args(0)).html'
p3550
sI54
S''
sI55
S'def user():'
p3551
sI56
S'    return dict(form=auth())'
p3552
ssg3537
S'()'
p3553
sg3539
S'<module>'
p3554
sa(dp3555
g3516
S'/Users/mdipierro/Dropbox/web2py/gluon/globals.py'
p3556
sg3518
(dp3557
S'self'
p3558
S'undefined'
p3559
sS'f'
S'<function edit at 0x14be530>'
p3560
ssg3524
I172
sg3525
(dp3561
I167
S'        self.meta = Storage()      # used by web2py_ajax.html'
p3562
sI168
S'        self.menu = []             # used by the default view layout'
p3563
sI169
S'        self.files = []            # used by web2py_ajax.html'
p3564
sI170
S'        self.generic_patterns = [] # patterns to allow generic views'
p3565
sI171
S'        self._vars = None'
p3566
sI172
S'        self._caller = lambda f: f()'
p3567
sI173
S'        self._view_environment = None'
p3568
sI174
S'        self._custom_commit = None'
p3569
sI175
S'        self._custom_rollback = None'
p3570
sI176
S''
ssg3537
S'(f=<function edit at 0x14be530>)'
p3571
sg3539
S'<lambda>'
p3572
sa(dp3573
g3516
S'/Users/mdipierro/Dropbox/web2py/gluon/tools.py'
p3574
sg3518
(dp3575
S'action'
p3576
S'<function edit at 0x14beaf0>'
p3577
sS'a'
S'()'
p3578
sS'b'
g39
ssg3524
I2533
sg3525
(dp3579
I2528
S'                # otherwise case 3 would be ok.'
p3580
sI2529
S'                if not (callable(condition) and condition() == True) and not condition == True:'
p3581
sI2530
S'                    current.session.flash = self.messages.access_denied'
p3582
sI2531
S'                    return call_or_redirect('
p3583
sI2532
S'                        self.settings.on_failed_authorization)'
p3584
sI2533
S'                return action(*a, **b)'
p3585
sI2534
S'            f.__doc__ = action.__doc__'
p3586
sI2535
S'            f.__name__ = action.__name__'
p3587
sI2536
S'            f.__dict__.update(action.__dict__)'
p3588
sI2537
S'            return f'
p3589
ssg3537
S'(*a=(), **b={})'
p3590
sg3539
S'f'
sa(dp3591
g3516
S'/Users/mdipierro/Dropbox/web2py/applications/inplace/controllers/default.py'
p3592
sg3518
(dp3593
S'global session'
p3594
S"<Storage {'new_html': '\\n<!DOCTYPE html>\\n<!-- p...login]': '55d255fd-e1a8-4834-be90-a03049b5e373'}>"
p3595
sS'session._unlock'
p3596
S"<bound method Session._unlock of <Storage {'new_...ogin]': '55d255fd-e1a8-4834-be90-a03049b5e373'}>>"
p3597
ssg3524
I17
sg3525
(dp3598
I12
S'    clones = db(db.clone).select()'
p3599
sI13
S'    return locals()'
p3600
sI14
S''
sI15
S'@auth.requires_login()'
p3601
sI16
S'def edit():'
p3602
sI17
S'    session._unlock()'
p3603
sI18
S'    import urllib,re'
p3604
sI19
S'    print request.args(0)'
p3605
sI20
S"    if request.args(0)=='post':"
p3606
sI21
S"        return request.vars.value or ''"
p3607
ssg3537
S'()'
p3608
sg3539
S'edit'
p3609
sasS'pyver'
p3610
S'Python 2.5.4: /usr/bin/python2.5'
p3611
sS'session'
p3612
g49
(g50
g51
NtRp3613
(dp3614
g54
(dp3615
sg56
(lp3616
g49
(g58
g51
NtRp3617
(dp3618
g54
(dp3619
g62
I5
ssg63
Nsg56
(lp3620
g49
(g65
g51
NtRp3621
(dp3622
g54
(dp3623
sg63
g3617
sg56
(lp3624
g49
(g70
g51
NtRp3625
(dp3626
g54
(dp3627
g74
g75
ssg63
g3621
sg56
(lp3628
S'auth'
p3629
asbag49
(g70
g51
NtRp3630
(dp3631
g54
(dp3632
g81
g82
ssg63
g3621
sg56
(lp3633
S':'
asbag49
(g70
g51
NtRp3634
(dp3635
g54
(dp3636
sg63
g3621
sg56
(lp3637
g49
(g50
g51
NtRp3638
(dp3639
g54
(dp3640
g62
I5
ssg63
g3634
sg56
(lp3641
g49
(g58
g51
NtRp3642
(dp3643
g54
(dp3644
g62
I4
ssg63
Nsg56
(lp3645
g49
(g65
g51
NtRp3646
(dp3647
g54
(dp3648
sg63
g3642
sg56
(lp3649
g49
(g70
g51
NtRp3650
(dp3651
g54
(dp3652
g74
g75
ssg63
g3646
sg56
(lp3653
S'expiration'
p3654
asbag49
(g70
g51
NtRp3655
(dp3656
g54
(dp3657
g81
g82
ssg63
g3646
sg56
(lp3658
S':'
asbag49
(g70
g51
NtRp3659
(dp3660
g54
(dp3661
sg63
g3646
sg56
(lp3662
g49
(g50
g51
NtRp3663
(dp3664
g54
(dp3665
g62
I4
ssg63
g3659
sg56
(lp3666
S'3600'
p3667
asbasbasbag49
(g65
g51
NtRp3668
(dp3669
g54
(dp3670
sg63
g3642
sg56
(lp3671
g49
(g70
g51
NtRp3672
(dp3673
g54
(dp3674
g74
g75
ssg63
g3668
sg56
(lp3675
S'hmac_key'
p3676
asbag49
(g70
g51
NtRp3677
(dp3678
g54
(dp3679
g81
g82
ssg63
g3668
sg56
(lp3680
S':'
asbag49
(g70
g51
NtRp3681
(dp3682
g54
(dp3683
sg63
g3668
sg56
(lp3684
g49
(g50
g51
NtRp3685
(dp3686
g54
(dp3687
g62
I4
ssg63
g3681
sg56
(lp3688
S'0b48d067-c8d0-4f2e-9c3d-d54e1884cecf'
p3689
asbasbasbag49
(g65
g51
NtRp3690
(dp3691
g54
(dp3692
sg63
g3642
sg56
(lp3693
g49
(g70
g51
NtRp3694
(dp3695
g54
(dp3696
g74
g75
ssg63
g3690
sg56
(lp3697
S'last_visit'
p3698
asbag49
(g70
g51
NtRp3699
(dp3700
g54
(dp3701
g81
g82
ssg63
g3690
sg56
(lp3702
S':'
asbag49
(g70
g51
NtRp3703
(dp3704
g54
(dp3705
sg63
g3690
sg56
(lp3706
g49
(g50
g51
NtRp3707
(dp3708
g54
(dp3709
g62
I4
ssg63
g3703
sg56
(lp3710
S'datetime.datetime(2011, 12, 11, 16, 8, 57, 842006)'
p3711
asbasbasbag49
(g65
g51
NtRp3712
(dp3713
g54
(dp3714
sg63
g3642
sg56
(lp3715
g49
(g70
g51
NtRp3716
(dp3717
g54
(dp3718
g74
g75
ssg63
g3712
sg56
(lp3719
S'user'
p3720
asbag49
(g70
g51
NtRp3721
(dp3722
g54
(dp3723
g81
g82
ssg63
g3712
sg56
(lp3724
S':'
asbag49
(g70
g51
NtRp3725
(dp3726
g54
(dp3727
sg63
g3712
sg56
(lp3728
g49
(g50
g51
NtRp3729
(dp3730
g54
(dp3731
g62
I4
ssg63
g3725
sg56
(lp3732
g49
(g58
g51
NtRp3733
(dp3734
g54
(dp3735
g62
I3
ssg63
Nsg56
(lp3736
g49
(g65
g51
NtRp3737
(dp3738
g54
(dp3739
sg63
g3733
sg56
(lp3740
g49
(g70
g51
NtRp3741
(dp3742
g54
(dp3743
g74
g75
ssg63
g3737
sg56
(lp3744
S'email'
p3745
asbag49
(g70
g51
NtRp3746
(dp3747
g54
(dp3748
g81
g82
ssg63
g3737
sg56
(lp3749
S':'
asbag49
(g70
g51
NtRp3750
(dp3751
g54
(dp3752
sg63
g3737
sg56
(lp3753
g49
(g50
g51
NtRp3754
(dp3755
g54
(dp3756
g62
I3
ssg63
g3750
sg56
(lp3757
S'mdipierro@cs.depaul.edu'
p3758
asbasbasbag49
(g65
g51
NtRp3759
(dp3760
g54
(dp3761
sg63
g3733
sg56
(lp3762
g49
(g70
g51
NtRp3763
(dp3764
g54
(dp3765
g74
g75
ssg63
g3759
sg56
(lp3766
S'first_name'
p3767
asbag49
(g70
g51
NtRp3768
(dp3769
g54
(dp3770
g81
g82
ssg63
g3759
sg56
(lp3771
S':'
asbag49
(g70
g51
NtRp3772
(dp3773
g54
(dp3774
sg63
g3759
sg56
(lp3775
g49
(g50
g51
NtRp3776
(dp3777
g54
(dp3778
g62
I3
ssg63
g3772
sg56
(lp3779
S'Massimo'
p3780
asbasbasbag49
(g65
g51
NtRp3781
(dp3782
g54
(dp3783
sg63
g3733
sg56
(lp3784
g49
(g70
g51
NtRp3785
(dp3786
g54
(dp3787
g74
g75
ssg63
g3781
sg56
(lp3788
S'id'
p3789
asbag49
(g70
g51
NtRp3790
(dp3791
g54
(dp3792
g81
g82
ssg63
g3781
sg56
(lp3793
S':'
asbag49
(g70
g51
NtRp3794
(dp3795
g54
(dp3796
sg63
g3781
sg56
(lp3797
g49
(g50
g51
NtRp3798
(dp3799
g54
(dp3800
g62
I3
ssg63
g3794
sg56
(lp3801
S'1'
asbasbasbag49
(g65
g51
NtRp3802
(dp3803
g54
(dp3804
sg63
g3733
sg56
(lp3805
g49
(g70
g51
NtRp3806
(dp3807
g54
(dp3808
g74
g75
ssg63
g3802
sg56
(lp3809
S'last_name'
p3810
asbag49
(g70
g51
NtRp3811
(dp3812
g54
(dp3813
g81
g82
ssg63
g3802
sg56
(lp3814
S':'
asbag49
(g70
g51
NtRp3815
(dp3816
g54
(dp3817
sg63
g3802
sg56
(lp3818
g49
(g50
g51
NtRp3819
(dp3820
g54
(dp3821
g62
I3
ssg63
g3815
sg56
(lp3822
S'Di Pierro'
p3823
asbasbasbag49
(g65
g51
NtRp3824
(dp3825
g54
(dp3826
sg63
g3733
sg56
(lp3827
g49
(g70
g51
NtRp3828
(dp3829
g54
(dp3830
g74
g75
ssg63
g3824
sg56
(lp3831
S'password'
p3832
asbag49
(g70
g51
NtRp3833
(dp3834
g54
(dp3835
g81
g82
ssg63
g3824
sg56
(lp3836
S':'
asbag49
(g70
g51
NtRp3837
(dp3838
g54
(dp3839
sg63
g3824
sg56
(lp3840
g49
(g50
g51
NtRp3841
(dp3842
g54
(dp3843
g62
I3
ssg63
g3837
sg56
(lp3844
S'12923092f4d9e86e56018b9cdd790947'
p3845
asbasbasbag49
(g65
g51
NtRp3846
(dp3847
g54
(dp3848
sg63
g3733
sg56
(lp3849
g49
(g70
g51
NtRp3850
(dp3851
g54
(dp3852
g74
g75
ssg63
g3846
sg56
(lp3853
S'registration_id'
p3854
asbag49
(g70
g51
NtRp3855
(dp3856
g54
(dp3857
g81
g82
ssg63
g3846
sg56
(lp3858
S':'
asbag49
(g70
g51
NtRp3859
(dp3860
g54
(dp3861
sg63
g3846
sg56
(lp3862
g49
(g50
g51
NtRp3863
(dp3864
g54
(dp3865
g62
I3
ssg63
g3859
sg56
(lp3866
S''
asbasbasbag49
(g65
g51
NtRp3867
(dp3868
g54
(dp3869
sg63
g3733
sg56
(lp3870
g49
(g70
g51
NtRp3871
(dp3872
g54
(dp3873
g74
g75
ssg63
g3867
sg56
(lp3874
S'registration_key'
p3875
asbag49
(g70
g51
NtRp3876
(dp3877
g54
(dp3878
g81
g82
ssg63
g3867
sg56
(lp3879
S':'
asbag49
(g70
g51
NtRp3880
(dp3881
g54
(dp3882
sg63
g3867
sg56
(lp3883
g49
(g50
g51
NtRp3884
(dp3885
g54
(dp3886
g62
I3
ssg63
g3880
sg56
(lp3887
S''
asbasbasbag49
(g65
g51
NtRp3888
(dp3889
g54
(dp3890
sg63
g3733
sg56
(lp3891
g49
(g70
g51
NtRp3892
(dp3893
g54
(dp3894
g74
g75
ssg63
g3888
sg56
(lp3895
S'reset_password_key'
p3896
asbag49
(g70
g51
NtRp3897
(dp3898
g54
(dp3899
g81
g82
ssg63
g3888
sg56
(lp3900
S':'
asbag49
(g70
g51
NtRp3901
(dp3902
g54
(dp3903
sg63
g3888
sg56
(lp3904
g49
(g50
g51
NtRp3905
(dp3906
g54
(dp3907
g62
I3
ssg63
g3901
sg56
(lp3908
S''
asbasbasbasbasbasbasbasbasbasbasbag49
(g65
g51
NtRp3909
(dp3910
g54
(dp3911
sg63
g3617
sg56
(lp3912
g49
(g70
g51
NtRp3913
(dp3914
g54
(dp3915
g74
g75
ssg63
g3909
sg56
(lp3916
S'html'
p3917
asbag49
(g70
g51
NtRp3918
(dp3919
g54
(dp3920
g81
g82
ssg63
g3909
sg56
(lp3921
S':'
asbag49
(g70
g51
NtRp3922
(dp3923
g54
(dp3924
sg63
g3909
sg56
(lp3925
g49
(g50
g51
NtRp3926
(dp3927
g54
(dp3928
g62
I5
ssg63
g3922
sg56
(lp3929
S'\n<!DOCTYPE html>\n<!-- paulirish.com/2008/conditional-stylesheets-vs-css-hacks-answer-neither/ -->\n<!--[if lt IE 7]><html class="ie ie6 ie-lte9 ie-lte8 ie-lte7 no-js" lang="en"> <![endif]-->\n<!--[if IE 7]><html class="ie ie7 ie-lte9 ie-lte8 ie-lte7 no-js" lang="en"> <![endif]-->\n<!--[if IE 8]><html class="ie ie8 ie-lte9 ie-lte8 no-js" lang="en"> <![endif]-->\n<!--[if IE 9]><html class="ie9 ie-lte9 no-js" lang="en"> <![endif]-->\n<!--[if (gt IE 9)|!(IE)]><!--> <html class="no-js" lang="en"> <!--<![endif]-->\n<head>\n  <meta charset="utf-8" />\n  <!-- www.phpied.com/conditional-comments-block-downloads/ -->\n  <!-- Always force latest IE rendering engine\n\t   (even in intranet) & Chrome Frame\n\t   Remove this if you use the .htaccess -->\n  <!--[if IE]>\n    <meta http-equiv="X-UA-Compatible" content="IE=edge">\n  <![endif]-->\n  \n  <title>web2py Web Framework</title>\n  \n  <!-- http://dev.w3.org/html5/markup/meta.name.html -->\n  <meta name="application-name" content="examples" />\n  \n  <!-- Speaking of Google, don\'t forget to set your site up:\n\t   http://google.com/webmasters -->\n  <meta name="google-site-verification" content="" />\n\n  <!--  Mobile Viewport Fix\n\t  j.mp/mobileviewport & davidbcalhoun.com/2010/viewport-metatag\n\t  device-width: Occupy full width of the screen in its current orientation\n\t  initial-scale = 1.0 retains dimensions instead of zooming out if page height > device height\n\t  user-scalable = yes allows the user to zoom in -->\n  <meta name="viewport" content="width=device-width, initial-scale=1.0, user-scalable=yes">\n  \n  <!-- Place favicon.ico and apple-touch-icon.png in the root of your domain and delete these references -->\n  <link rel="shortcut icon" href="/examples/static/favicon.ico" type="image/x-icon">\n  <link rel="apple-touch-icon" href="/examples/static/favicon.png">\n\n  <!-- All JavaScript at the bottom, except for Modernizr which enables \n\t   HTML5 elements & feature detects -->\n  <script src="/examples/static/js/modernizr.custom.js"></script>  \n\n  <!-- include stylesheets -->\n  \n\n  <script type="text/javascript"><!--\n    // These variables are used by the web2py_ajax_init function in web2py_ajax.js (which is loaded below).\n    var w2p_ajax_confirm_message = "Are you sure you want to delete this object?";\n    var w2p_ajax_date_format = "%Y-%m-%d";\n    var w2p_ajax_datetime_format = "%Y-%m-%d %H:%M:%S";\n    //--></script>\n<script src="/examples/static/js/jquery.js" type="text/javascript"></script><link href="/examples/static/css/calendar.css" rel="stylesheet" type="text/css" /><script src="/examples/static/js/calendar.js" type="text/javascript"></script><script src="/examples/static/js/web2py.js" type="text/javascript"></script><link href="/examples/static/css/skeleton.css" rel="stylesheet" type="text/css" /><link href="/examples/static/css/web2py.css" rel="stylesheet" type="text/css" /><link href="/examples/static/css/examples.css" rel="stylesheet" type="text/css" /><link href="/examples/static/css/superfish.css" rel="stylesheet" type="text/css" /><script src="/examples/static/js/superfish.js" type="text/javascript"></script>\n\n\n  <script type="text/javascript">\n    jQuery(function(){jQuery(\'.sf-menu\').superfish();});\n  </script>\n\n  \n\n  <!-- uncomment here to load jquery-ui\n  <link rel="stylesheet" href="http://ajax.googleapis.com/ajax/libs/jqueryui/1.8.16/themes/base/jquery-ui.css" type="text/css" media="all" />\n  <script src="http://ajax.googleapis.com/ajax/libs/jqueryui/1.8.16/jquery-ui.min.js" type="text/javascript"></script>\n  uncomment to load jquery-ui //-->\n  </style>\n</head>\n<body>\n  <div class="wrapper"><!-- for sticky footer -->    \n    <div class="flash"></div>    \n    <div class="header">\n      <div class="container">\n        <div class="sixteen columns">\n\t  <img src="/examples/static/images/web2py_logo.png" />\n          <h5></h5>\n        </div>\n        \n        <div class="sixteen columns statusbar">\n\t  \n\t  \n          <div id="menu"><ul class="sf-menu"><li><a href="/examples/default/index">Home</a></li><li><a href="/examples/default/what">About</a></li><li><a href="/examples/default/download">Download</a></li><li><a href="/examples/default/documentation">Docs &amp; Resources</a></li><li><a href="/examples/default/support">Support</a></li><li><a href="/examples/default/who">Contributors</a></li></ul>\n\t    \n            <!-- AddToAny BEGIN -->\n            <div style="float:right;padding-top:6px;" class="a2a_kit a2a_default_style">\n            <a class="a2a_dd" href="http://www.addtoany.com/share_save">Share</a></div>\n            <script type="text/javascript" src="http://static.addtoany.com/menu/page.js"></script>\n            <!-- AddToAny END -->\n          </div>\n\t  \n\t  <div class="sixteen columns announce">\n\t    <a href="http://www.infoworld.com/d/open-source-software/bossie-awards-2011-the-best-open-source-application-development-software-171759-0&current=10&last=1#slideshowTop">2011 BOSSIE AWARD FOR OPEN SOURCE DEVELOPMENT SOFTWARE</a>\n          </div>\n\t</div>\n      </div>\n    </div>\n    <div class="main">\n      <div class="container mainbody">\t\n        <div class="sixteen columns">\n          <div class="ten columns center">\n            \n            \n\n<center>\n  <img src="/examples/static/images/tag-cloud-color-small.png"/>\n</center>\n\n<h3>WEB2PY<sup>TM</sup> WEB FRAMEWORK</h3>\n<p>Free open source full-stack framework for rapid development of fast, scalable, <a href="http://www.web2py.com/book/default/chapter/01#security" target="_blank">secure</a> and portable database-driven web-based applications. Written and programmable in <a href="http://www.python.org" target="_blank">Python</a>. <a href="http://www.gnu.org/licenses/lgpl.html">LGPLv3 License</a>.\nCurrent version: 1.99.3 (2011-12-09 16:18:03) stable</p>\n\n\n\n\n\n\n            \n          </div>\n          \n          \n          <div class="five columns">\n            \n<div style="text-align:center">\n  <a href="http://web2py.com/book"><img src="/examples/static/images/tablet.png" alt="Tablet" /></a><br/>\n  <a href="http://www.lulu.com/product/paperback/web2py-book-(4th-edition)/18738286"><img src="http://static.lulu.com/images/services/buy_now_buttons/us/book.gif?20111206124946" border="0" alt="Support independent publishing: Buy this book on Lulu."></a><br/>\n  <a class="button" href="/examples/default/download" style="width:90%">DOWNLOAD NOW</a><br/>\n  <a class="button" href="http://web2py.com/demo_admin" style="width:90%">ONLINE DEMO</a><br/>\n  <a class="button" href="http://web2py.com/poweredby" style="width:90%">SITES POWERED</a>\n</div>\n\n          </div>    \n          \n        </div>\n      </div><!-- container -->\n      \n<div class="container">\n  <div class="sixteen columns">\n    <div class="five columns">\n      <h3><a href="/examples/default/about">BATTERIES INCLUDED</a></h3>\n      <p>Everything you need in one package including fast multi-threaded web server, SQL database and web-based interface. No third party dependencies but works with <a href=/examples/default/what>third party tools</a>.</p>\n    </div>\n    <div class="five columns">\n      <h3><a href="http://web2py.com/demo_admin">WEB-BASED IDE</a></h3>\n      <p>Create, modify, deploy and manage application from anywhere using your browser. One web2py instance can run multiple web sites using different databases. Try the <a href="http://web2py.com/demo_admin">interactive demo</a>.</p>\n    </div>\n    <div class="five columns">\n      <h3><a href="/examples/default/documentation">EXTENSIVE DOCS</a></h3>\n      <p>Start with some <a href="/examples/default/examples">quick examples</a>, then read the <a href="http://web2py.com/book">reference manual</a>, watch <a href="http://vimeo.com/album/178500">videos</a>, and join a <a href="/examples/default/usergroups">user group</a> for discussion. Take advantage of the <a href="http://web2py.com/layouts">layouts</a>, <a href="http://dev.s-cubism.com/web2py_plugins">plugins</a>, and <a href="http://web2pyslices.com">recipes</a>.</p>\n    </div>\n  </div>\n</div>\n<div class="container">\n  <div class="sixteen columns">\n    <img src="/examples/static/images/shadow-bottom.png" width="100%"/>\n    \n    <div class="five columns">\n      <em>\n\t<p>web2py rules! as a sysadmin I like the no installation and no configuration approach a lot)</p>\n      </em>\n      <span class="right">\n\t<a href="http://twitter.com/#!/jkogut/status/61414554273447936"><em>kjogut</em></a>\n      </span>\n    </div>\n    \n    <div class="five columns">\n      <em>\n\t<p>web2py was the life saver today for me, my blog post: Standalone Usage of web2py&#x27;s</p>\n      </em>\n      <span class="right">\n\t<a href="http://twitter.com/#!/caglartoklu/status/84292131707031553"><em>caglartoklu</em></a>\n      </span>\n    </div>\n    \n    <div class="five columns">\n      <em>\n\t<p>If you are still learning python, web2py is best tool by far</p>\n      </em>\n      <span class="right">\n\t<a href="http://twitter.com/#!/pbreit/status/48260905775017984"><em>pbreit</em></a>\n      </span>\n    </div>\n    \n  </div>\n</div>\n      \n      \n    </div><!-- main -->\n    \n    <div class="push"></div>\n  </div><!-- wrapper -->\n\n  <div class="footer">\n    <div class="container header">    \n      <div class="sixteen columns">\n         <!-- this is default footer -->\n        <div class="footer-content" >\n          Copyright &#169; 2011\n\t  - User communities in <a href="https://groups.google.com/forum/?fromgroups#!forum/web2py" target="_blank">English<a>, <a href="https://groups.google.com/forum/?fromgroups#!forum/web2py-fr" target="_blank">French</a>, <a href="https://groups.google.com/forum/?fromgroups#!forum/web2py-japan" target="_blank">Japanese</a>, <a href="https://groups.google.com/forum/?fromgroups#!forum/web2py-users-brazil" target="_blank">Portuguese</a>, and <a href="https://groups.google.com/forum/?fromgroups#!forum/web2py-usuarios" target="_blank">Spanish</a>.\n          <div style="float: right;">\n            <a href="http://www.web2py.com/" style="float: left; padding-right: 6px;">\n            <img style="padding-bottom: 0;" src="/examples/static/images/poweredby.png"/>\n            </a>\n          </div>\n        </div>\n        \t\n      </div>\n    </div><!-- container -->\n  </div><!-- footer -->\n  \n  <!--[if lt IE 7 ]>\n\t<script src="/examples/static/js/dd_belatedpng.js"></script>\n\t<script> DD_belatedPNG.fix(\'img, .png_bg\'); //fix any <img> or .png_bg background-images </script>\n\t<![endif]-->\n  \n</body>\n</html>\n'
p3930
asbasbasbag49
(g65
g51
NtRp3931
(dp3932
g54
(dp3933
sg63
g3617
sg56
(lp3934
g49
(g70
g51
NtRp3935
(dp3936
g54
(dp3937
g74
g75
ssg63
g3931
sg56
(lp3938
S'new_html'
p3939
asbag49
(g70
g51
NtRp3940
(dp3941
g54
(dp3942
g81
g82
ssg63
g3931
sg56
(lp3943
S':'
asbag49
(g70
g51
NtRp3944
(dp3945
g54
(dp3946
sg63
g3931
sg56
(lp3947
g49
(g50
g51
NtRp3948
(dp3949
g54
(dp3950
g62
I5
ssg63
g3944
sg56
(lp3951
S'\n<!DOCTYPE html>\n<!-- paulirish.com/2008/conditional-stylesheets-vs-css-hacks-answer-neither/ -->\n<!--[if lt IE 7]><html class="ie ie6 ie-lte9 ie-lte8 ie-lte7 no-js" lang="en"> <![endif]-->\n<!--[if IE 7]><html class="ie ie7 ie-lte9 ie-lte8 ie-lte7 no-js" lang="en"> <![endif]-->\n<!--[if IE 8]><html class="ie ie8 ie-lte9 ie-lte8 no-js" lang="en"> <![endif]-->\n<!--[if IE 9]><html class="ie9 ie-lte9 no-js" lang="en"> <![endif]-->\n<!--[if (gt IE 9)|!(IE)]><!--> <html class="no-js" lang="en"> <!--<![endif]-->\n<head>\n  <meta charset="utf-8" />\n  <!-- www.phpied.com/conditional-comments-block-downloads/ -->\n  <!-- Always force latest IE rendering engine\n\t   (even in intranet) & Chrome Frame\n\t   Remove this if you use the .htaccess -->\n  <!--[if IE]>\n    <meta http-equiv="X-UA-Compatible" content="IE=edge">\n  <![endif]-->\n  \n  <title>web2py Web Framework</title>\n  \n  <!-- http://dev.w3.org/html5/markup/meta.name.html -->\n  <meta name="application-name" content="examples" />\n  \n  <!-- Speaking of Google, don\'t forget to set your site up:\n\t   http://google.com/webmasters -->\n  <meta name="google-site-verification" content="" />\n\n  <!--  Mobile Viewport Fix\n\t  j.mp/mobileviewport & davidbcalhoun.com/2010/viewport-metatag\n\t  device-width: Occupy full width of the screen in its current orientation\n\t  initial-scale = 1.0 retains dimensions instead of zooming out if page height > device height\n\t  user-scalable = yes allows the user to zoom in -->\n  <meta name="viewport" content="width=device-width, initial-scale=1.0, user-scalable=yes">\n  \n  <!-- Place favicon.ico and apple-touch-icon.png in the root of your domain and delete these references -->\n  <link rel="shortcut icon" href="/examples/static/favicon.ico" type="image/x-icon">\n  <link rel="apple-touch-icon" href="/examples/static/favicon.png">\n\n  <!-- All JavaScript at the bottom, except for Modernizr which enables \n\t   HTML5 elements & feature detects -->\n  <script src="/examples/static/js/modernizr.custom.js"></script>  \n\n  <!-- include stylesheets -->\n  \n\n  <script type="text/javascript"><!--\n    // These variables are used by the web2py_ajax_init function in web2py_ajax.js (which is loaded below).\n    var w2p_ajax_confirm_message = "Are you sure you want to delete this object?";\n    var w2p_ajax_date_format = "%Y-%m-%d";\n    var w2p_ajax_datetime_format = "%Y-%m-%d %H:%M:%S";\n    //--></script>\n<script src="/examples/static/js/jquery.js" type="text/javascript"></script><link href="/examples/static/css/calendar.css" rel="stylesheet" type="text/css" /><script src="/examples/static/js/calendar.js" type="text/javascript"></script><script src="/examples/static/js/web2py.js" type="text/javascript"></script><link href="/examples/static/css/skeleton.css" rel="stylesheet" type="text/css" /><link href="/examples/static/css/web2py.css" rel="stylesheet" type="text/css" /><link href="/examples/static/css/examples.css" rel="stylesheet" type="text/css" /><link href="/examples/static/css/superfish.css" rel="stylesheet" type="text/css" /><script src="/examples/static/js/superfish.js" type="text/javascript"></script>\n\n\n  <script type="text/javascript">\n    jQuery(function(){jQuery(\'.sf-menu\').superfish();});\n  </script>\n\n  \n\n  <!-- uncomment here to load jquery-ui\n  <link rel="stylesheet" href="http://ajax.googleapis.com/ajax/libs/jqueryui/1.8.16/themes/base/jquery-ui.css" type="text/css" media="all" />\n  <script src="http://ajax.googleapis.com/ajax/libs/jqueryui/1.8.16/jquery-ui.min.js" type="text/javascript"></script>\n  uncomment to load jquery-ui //-->\n  </style>\n</head>\n<body><div style="padding: 5px 20px 5px 20px; font-size: 1.5em; text-align:right;background:black;color:white;height:30px;">Attention: this is a modified copy of the original page!!! [ <a style="color:white" href="javascript:history.go(-1)">back</a> | <a style="color:white" href="page">next</a> ]</div><iframe id="a2apage_sm_ifr" height="1" width="1" style="border-top-width: 0px; border-right-width: 0px; border-bottom-width: 0px; border-left-width: 0px; border-style: initial; border-color: initial; border-image: initial; left: 0px; top: 0px; position: absolute; z-index: 100000; display: none; " transparency="true" allowtransparency="true" frameborder="0" src="http://static.addtoany.com/menu/sm7.html#type=page&amp;event=load&amp;url=http%3A%2F%2F127.0.0.1%3A8000%2Finplace%2Fdefault%2Fedit%3Furl%3Dhttp%253A%252F%252Fweb2py.com&amp;referrer="></iframe><div style="position: static; "><div id="a2apage_dropdown" class="a2a_menu" onmouseover="a2a.onMouseOver_stay()" onmouseout="a2a.onMouseOut_delay()"><div class="a2a_menu_inside"><div id="a2apage_title_container" class="a2a_menu_title_container" style="display: none; "><input id="a2apage_title" class="a2a_menu_title"></div><div class="a2apage_wide a2a_wide"><div class="a2a_tabs a2a_tabs_default"><div id="a2apage_DEFAULT" class="a2a_tab_selected" style="margin-right: 1px; " onclick="return a2a.tabs.open(\'DEFAULT\')"><span class="a2a_i_share">Share</span></div></div><div class="a2a_tabs"><div title="Share via email" id="a2apage_EMAIL" style="margin-right: 1px; " onclick="return a2a.tabs.open(\'EMAIL\')"><span class="a2a_i_email"></span></div></div><div class="a2a_tabs"><div onclick="a2a.bmBrowser()" title="Bookmark in your browser" id="a2apage_BROWSER" style="margin-left: 1px; "><span class="a2a_i_bookmark"></span></div></div></div><div class="a2a_clear"></div><div id="a2apage_find_container" class="a2a_menu_find_container" style=""><input id="a2apage_find" class="a2a_menu_find" type="text" onclick="a2a.focus_find()" onkeyup="a2a.do_find()" autocomplete="off" onfocus="a2a[\'page\'].find_focused=true;a2a.onMouseOver_stay()" title="Instantly find any service"><span id="a2apage_find_icon" class="a2a_i_find" onclick="a2a.focus_find()"></span></div><div id="a2apage_cols_container" class="a2a_cols_container"><div class="a2a_col1" id="a2apage_col1" style=""><a id="a2apage_live" rel="nofollow" class="a2a_i a2a_sss" href="/" target="_blank"><span class="a2a_i_live">Messenger</span></a><a id="a2apage_facebook" rel="nofollow" class="a2a_i" href="/" target="_blank"><span class="a2a_i_facebook">Facebook</span></a><a id="a2apage_twitter" rel="nofollow" class="a2a_i" href="/" target="_blank"><span class="a2a_i_twitter">Twitter</span></a><a id="a2apage_google_plus" rel="nofollow" class="a2a_i" href="/" target="_blank"><span class="a2a_i_google">Google </span></a><a id="a2apage_delicious" rel="nofollow" class="a2a_i" href="/" target="_blank"><span class="a2a_i_delicious">Delicious</span></a><a id="a2apage_digg" rel="nofollow" class="a2a_i" href="/" target="_blank"><span class="a2a_i_digg">Digg</span></a><a id="a2apage_google_bookmarks" rel="nofollow" class="a2a_i" href="/" target="_blank"><span class="a2a_i_google">Google Bookmarks</span></a><a id="a2apage_myspace" rel="nofollow" class="a2a_i" href="/" target="_blank"><span class="a2a_i_myspace">MySpace</span></a><a id="a2apage_stumbleupon" rel="nofollow" class="a2a_i" href="/" target="_blank"><span class="a2a_i_stumbleupon">StumbleUpon</span></a><a id="a2apage_reddit" rel="nofollow" class="a2a_i" href="/" target="_blank"><span class="a2a_i_reddit">Reddit</span></a><a id="a2apage_vodpod" rel="nofollow" class="a2a_i" href="/" target="_blank" style="display: none; "><span class="a2a_i_vodpod">Vodpod</span></a><a id="a2apage_yahoo_bookmarks" rel="nofollow" class="a2a_i" href="/" target="_blank" style="display: none; "><span class="a2a_i_yahoo">Yahoo Bookmarks</span></a><a id="a2apage_bebo" rel="nofollow" class="a2a_i" href="/" target="_blank" style="display: none; "><span class="a2a_i_bebo">Bebo</span></a><a id="a2apage_mister_wong" rel="nofollow" class="a2a_i" href="/" target="_blank" style="display: none; "><span class="a2a_i_mister-wong">Mister-Wong</span></a><a id="a2apage_wordpress" rel="nofollow" class="a2a_i" href="/" target="_blank" style="display: none; "><span class="a2a_i_wordpress">WordPress</span></a><a id="a2apage_google_reader" rel="nofollow" class="a2a_i" href="/" target="_blank" style="display: none; "><span class="a2a_i_reader">Google Reader</span></a><a id="a2apage_orkut" rel="nofollow" class="a2a_i" href="/" target="_blank" style="display: none; "><span class="a2a_i_orkut">Orkut</span></a><a id="a2apage_xing" rel="nofollow" class="a2a_i" href="/" target="_blank" style="display: none; "><span class="a2a_i_xing">XING</span></a><a id="a2apage_evernote" rel="nofollow" class="a2a_i" href="/" target="_blank" style="display: none; "><span class="a2a_i_evernote">Evernote</span></a><a id="a2apage_netvibes_share" rel="nofollow" class="a2a_i" href="/" target="_blank" style="display: none; "><span class="a2a_i_netvibes">Netvibes Share</span></a><a id="a2apage_strands" rel="nofollow" class="a2a_i" href="/" target="_blank" style="display: none; "><span class="a2a_i_strands">Strands</span></a><a id="a2apage_posterous" rel="nofollow" class="a2a_i" href="/" target="_blank" style="display: none; "><span class="a2a_i_posterous">Posterous</span></a><a id="a2apage_business_exchange" rel="nofollow" class="a2a_i" href="/" target="_blank" style="display: none; "><span class="a2a_i_business_exchange">Business Exchange</span></a><a id="a2apage_arto" rel="nofollow" class="a2a_i" href="/" target="_blank" style="display: none; "><span class="a2a_i_arto">Arto</span></a><a id="a2apage_tipd" rel="nofollow" class="a2a_i" href="/" target="_blank" style="display: none; "><span class="a2a_i_tipd">Tipd</span></a><a id="a2apage_smaknews" rel="nofollow" class="a2a_i" href="/" target="_blank" style="display: none; "><span class="a2a_i_smaknews">SmakNews</span></a><a id="a2apage_plurk" rel="nofollow" class="a2a_i" href="/" target="_blank" style="display: none; "><span class="a2a_i_plurk">Plurk</span></a><a id="a2apage_aim" rel="nofollow" class="a2a_i" href="/" target="_blank" style="display: none; "><span class="a2a_i_aim">AIM</span></a><a id="a2apage_yahoo_messenger" rel="nofollow" class="a2a_i" href="/" target="_blank" style="display: none; "><span class="a2a_i_yim">Yahoo Messenger</span></a><a id="a2apage_identi_ca" rel="nofollow" class="a2a_i" href="/" target="_blank" style="display: none; "><span class="a2a_i_identica">Identi.ca</span></a><a id="a2apage_mozillaca" rel="nofollow" class="a2a_i" href="/" target="_blank" style="display: none; "><span class="a2a_i_mozillaca">Mozillaca</span></a><a id="a2apage_blogger_post" rel="nofollow" class="a2a_i" href="/" target="_blank" style="display: none; "><span class="a2a_i_blogger">Blogger Post</span></a><a id="a2apage_typepad_post" rel="nofollow" class="a2a_i" href="/" target="_blank" style="display: none; "><span class="a2a_i_typepad">TypePad Post</span></a><a id="a2apage_box_net" rel="nofollow" class="a2a_i" href="/" target="_blank" style="display: none; "><span class="a2a_i_box">Box.net</span></a><a id="a2apage_netlog" rel="nofollow" class="a2a_i" href="/" target="_blank" style="display: none; "><span class="a2a_i_netlog">Netlog</span></a><a id="a2apage_technorati_favorites" rel="nofollow" class="a2a_i" href="/" target="_blank" style="display: none; "><span class="a2a_i_technorati">Technorati Favorites</span></a><a id="a2apage_citeulike" rel="nofollow" class="a2a_i" href="/" target="_blank" style="display: none; "><span class="a2a_i_citeulike">CiteULike</span></a><a id="a2apage_jumptags" rel="nofollow" class="a2a_i" href="/" target="_blank" style="display: none; "><span class="a2a_i_jumptags">Jumptags</span></a><a id="a2apage_hemidemi" rel="nofollow" class="a2a_i" href="/" target="_blank" style="display: none; "><span class="a2a_i_hemidemi">Hemidemi</span></a><a id="a2apage_funp" rel="nofollow" class="a2a_i" href="/" target="_blank" style="display: none; "><span class="a2a_i_funp">FunP</span></a><a id="a2apage_instapaper" rel="nofollow" class="a2a_i" href="/" target="_blank" style="display: none; "><span class="a2a_i_instapaper">Instapaper</span></a><a id="a2apage_phonefavs" rel="nofollow" class="a2a_i" href="/" target="_blank" style="display: none; "><span class="a2a_i_phonefavs">PhoneFavs</span></a><a id="a2apage_xerpi" rel="nofollow" class="a2a_i" href="/" target="_blank" style="display: none; "><span class="a2a_i_xerpi">Xerpi</span></a><a id="a2apage_netvouz" rel="nofollow" class="a2a_i" href="/" target="_blank" style="display: none; "><span class="a2a_i_netvouz">Netvouz</span></a><a id="a2apage_wink" rel="nofollow" class="a2a_i" href="/" target="_blank" style="display: none; "><span class="a2a_i_wink">Wink</span></a><a id="a2apage_diigo" rel="nofollow" class="a2a_i" href="/" target="_blank" style="display: none; "><span class="a2a_i_diigo">Diigo</span></a><a id="a2apage_bibsonomy" rel="nofollow" class="a2a_i" href="/" target="_blank" style="display: none; "><span class="a2a_i_bibsonomy">BibSonomy</span></a><a id="a2apage_blogmarks" rel="nofollow" class="a2a_i" href="/" target="_blank" style="display: none; "><span class="a2a_i_blogmarks">BlogMarks</span></a><a id="a2apage_tailrank" rel="nofollow" class="a2a_i" href="/" target="_blank" style="display: none; "><span class="a2a_i_tailrank">Tailrank</span></a><a id="a2apage_startaid" rel="nofollow" class="a2a_i" href="/" target="_blank" style="display: none; "><span class="a2a_i_startaid">StartAid</span></a><a id="a2apage_kledy" rel="nofollow" class="a2a_i" href="/" target="_blank" style="display: none; "><span class="a2a_i_kledy">Kledy</span></a><a id="a2apage_khabbr" rel="nofollow" class="a2a_i" href="/" target="_blank" style="display: none; "><span class="a2a_i_khabbr">Khabbr</span></a><a id="a2apage_meneame" rel="nofollow" class="a2a_i" href="/" target="_blank" style="display: none; "><span class="a2a_i_meneame">Meneame</span></a><a id="a2apage_yoolink" rel="nofollow" class="a2a_i" href="/" target="_blank" style="display: none; "><span class="a2a_i_yoolink">Yoolink</span></a><a id="a2apage_bookmarks_fr" rel="nofollow" class="a2a_i" href="/" target="_blank" style="display: none; "><span class="a2a_i_bookmarks_fr">Bookmarks.fr</span></a><a id="a2apage_technotizie" rel="nofollow" class="a2a_i" href="/" target="_blank" style="display: none; "><span class="a2a_i_technotizie">Technotizie</span></a><a id="a2apage_newsvine" rel="nofollow" class="a2a_i" href="/" target="_blank" style="display: none; "><span class="a2a_i_newsvine">NewsVine</span></a><a id="a2apage_multiply" rel="nofollow" class="a2a_i" href="/" target="_blank" style="display: none; "><span class="a2a_i_multiply">Multiply</span></a><a id="a2apage_friendfeed" rel="nofollow" class="a2a_i" href="/" target="_blank" style="display: none; "><span class="a2a_i_friendfeed">FriendFeed</span></a><a id="a2apage_plaxo_pulse" rel="nofollow" class="a2a_i" href="/" target="_blank" style="display: none; "><span class="a2a_i_plaxo">Plaxo Pulse</span></a><a id="a2apage_ping" rel="nofollow" class="a2a_i" href="/" target="_blank" style="display: none; "><span class="a2a_i_ping">Ping</span></a><a id="a2apage_squidoo" rel="nofollow" class="a2a_i" href="/" target="_blank" style="display: none; "><span class="a2a_i_squidoo">Squidoo</span></a><a id="a2apage_protopage_bookmarks" rel="nofollow" class="a2a_i" href="/" target="_blank" style="display: none; "><span class="a2a_i_protopage">Protopage Bookmarks</span></a><a id="a2apage_blinklist" rel="nofollow" class="a2a_i" href="/" target="_blank" style="display: none; "><span class="a2a_i_blinklist">Blinklist</span></a><a id="a2apage_faves" rel="nofollow" class="a2a_i" href="/" target="_blank" style="display: none; "><span class="a2a_i_faves">Faves</span></a><a id="a2apage_yigg" rel="nofollow" class="a2a_i" href="/" target="_blank" style="display: none; "><span class="a2a_i_yigg">YiGG</span></a><a id="a2apage_webnews" rel="nofollow" class="a2a_i" href="/" target="_blank" style="display: none; "><span class="a2a_i_webnews">Webnews</span></a><a id="a2apage_segnalo" rel="nofollow" class="a2a_i" href="/" target="_blank" style="display: none; "><span class="a2a_i_segnalo">Segnalo</span></a><a id="a2apage_pusha" rel="nofollow" class="a2a_i" href="/" target="_blank" style="display: none; "><span class="a2a_i_pusha">Pusha</span></a><a id="a2apage_youmob" rel="nofollow" class="a2a_i" href="/" target="_blank" style="display: none; "><span class="a2a_i_youmob">YouMob</span></a><a id="a2apage_slashdot" rel="nofollow" class="a2a_i" href="/" target="_blank" style="display: none; "><span class="a2a_i_slashdot">Slashdot</span></a><a id="a2apage_fark" rel="nofollow" class="a2a_i" href="/" target="_blank" style="display: none; "><span class="a2a_i_fark">Fark</span></a><a id="a2apage_allvoices" rel="nofollow" class="a2a_i" href="/" target="_blank" style="display: none; "><span class="a2a_i_allvoices">Allvoices</span></a><a id="a2apage_jamespot" rel="nofollow" class="a2a_i" href="/" target="_blank" style="display: none; "><span class="a2a_i_jamespot">Jamespot</span></a><a id="a2apage_imera_brazil" rel="nofollow" class="a2a_i" href="/" target="_blank" style="display: none; "><span class="a2a_i_imera">Imera Brazil</span></a><a id="a2apage_twiddla" rel="nofollow" class="a2a_i" href="/" target="_blank" style="display: none; "><span class="a2a_i_twiddla">Twiddla</span></a><a id="a2apage_linkagogo" rel="nofollow" class="a2a_i" href="/" target="_blank" style="display: none; "><span class="a2a_i_linkagogo">LinkaGoGo</span></a><a id="a2apage_unalog" rel="nofollow" class="a2a_i" href="/" target="_blank" style="display: none; "><span class="a2a_i_unalog">unalog</span></a><a id="a2apage_hugg" rel="nofollow" class="a2a_i" href="/" target="_blank" style="display: none; "><span class="a2a_i_hugg">Hugg</span></a><a id="a2apage_diglog" rel="nofollow" class="a2a_i" href="/" target="_blank" style="display: none; "><span class="a2a_i_diglog">Diglog</span></a><a id="a2apage_nowpublic" rel="nofollow" class="a2a_i" href="/" target="_blank" style="display: none; "><span class="a2a_i_nowpublic">NowPublic</span></a><a id="a2apage_tumblr" rel="nofollow" class="a2a_i" href="/" target="_blank" style="display: none; "><span class="a2a_i_tumblr">Tumblr</span></a><a id="a2apage_livejournal" rel="nofollow" class="a2a_i" href="/" target="_blank" style="display: none; "><span class="a2a_i_livejournal">LiveJournal</span></a><a id="a2apage_current" rel="nofollow" class="a2a_i" href="/" target="_blank" style="display: none; "><span class="a2a_i_current">Current</span></a><a id="a2apage_hellotxt" rel="nofollow" class="a2a_i" href="/" target="_blank" style="display: none; "><span class="a2a_i_hellotxt">HelloTxt</span></a><a id="a2apage_spurl" rel="nofollow" class="a2a_i" href="/" target="_blank" style="display: none; "><span class="a2a_i_spurl">Spurl</span></a><a id="a2apage_yample" rel="nofollow" class="a2a_i" href="/" target="_blank" style="display: none; "><span class="a2a_i_yample">Yample</span></a><a id="a2apage_oneview" rel="nofollow" class="a2a_i" href="/" target="_blank" style="display: none; "><span class="a2a_i_oneview">Oneview</span></a><a id="a2apage_linkatopia" rel="nofollow" class="a2a_i" href="/" target="_blank" style="display: none; "><span class="a2a_i_linkatopia">Linkatopia</span></a><a id="a2apage_simpy" rel="nofollow" class="a2a_i" href="/" target="_blank" style="display: none; "><span class="a2a_i_simpy">Simpy</span></a><a id="a2apage_linkedin" rel="nofollow" class="a2a_i" href="/" target="_blank" style="display: none; "><span class="a2a_i_linkedin">LinkedIn</span></a><a id="a2apage_buddymarks" rel="nofollow" class="a2a_i" href="/" target="_blank" style="display: none; "><span class="a2a_i_buddymarks">BuddyMarks</span></a><a id="a2apage_ask_com_mystuff" rel="nofollow" class="a2a_i" href="/" target="_blank" style="display: none; "><span class="a2a_i_ask">Ask.com MyStuff</span></a><a id="a2apage_viadeo" rel="nofollow" class="a2a_i" href="/" target="_blank" style="display: none; "><span class="a2a_i_viadeo">Viadeo</span></a><a id="a2apage_maple" rel="nofollow" class="a2a_i" href="/" target="_blank" style="display: none; "><span class="a2a_i_maple">Maple</span></a><a id="a2apage_wists" rel="nofollow" class="a2a_i" href="/" target="_blank" style="display: none; "><span class="a2a_i_wists">Wists</span></a><a id="a2apage_connotea" rel="nofollow" class="a2a_i" href="/" target="_blank" style="display: none; "><span class="a2a_i_connotea">Connotea</span></a><a id="a2apage_backflip" rel="nofollow" class="a2a_i" href="/" target="_blank" style="display: none; "><span class="a2a_i_backflip">Backflip</span></a><a id="a2apage_mylinkvault" rel="nofollow" class="a2a_i" href="/" target="_blank" style="display: none; "><span class="a2a_i_mylinkvault">MyLinkVault</span></a><a id="a2apage_sitejot" rel="nofollow" class="a2a_i" href="/" target="_blank" style="display: none; "><span class="a2a_i_sitejot">SiteJot</span></a><a id="a2apage_sphinn" rel="nofollow" class="a2a_i" href="/" target="_blank" style="display: none; "><span class="a2a_i_sphinn">Sphinn</span></a><a id="a2apage_dzone" rel="nofollow" class="a2a_i" href="/" target="_blank" style="display: none; "><span class="a2a_i_dzone">DZone</span></a><a id="a2apage_care2_news" rel="nofollow" class="a2a_i" href="/" target="_blank" style="display: none; "><span class="a2a_i_care2">Care2 News</span></a><a id="a2apage_hyves" rel="nofollow" class="a2a_i" href="/" target="_blank" style="display: none; "><span class="a2a_i_hyves">Hyves</span></a><a id="a2apage_sphere" rel="nofollow" class="a2a_i" href="/" target="_blank" style="display: none; "><span class="a2a_i_sphere">Sphere</span></a><a id="a2apage_bitty_browser" rel="nofollow" class="a2a_i" href="/" target="_blank" style="display: none; "><span class="a2a_i_bitty">Bitty Browser</span></a><a id="a2apage_gabbr" rel="nofollow" class="a2a_i" href="/" target="_blank" style="display: none; "><span class="a2a_i_gabbr">Gabbr</span></a><a id="a2apage_symbaloo_feeds" rel="nofollow" class="a2a_i" href="/" target="_blank" style="display: none; "><span class="a2a_i_symbaloo">Symbaloo Feeds</span></a><a id="a2apage_tagza" rel="nofollow" class="a2a_i" href="/" target="_blank" style="display: none; "><span class="a2a_i_tagza">Tagza</span></a><a id="a2apage_folkd" rel="nofollow" class="a2a_i" href="/" target="_blank" style="display: none; "><span class="a2a_i_folkd">Folkd</span></a><a id="a2apage_newstrust" rel="nofollow" class="a2a_i" href="/" target="_blank" style="display: none; "><span class="a2a_i_newstrust">NewsTrust</span></a><a id="a2apage_amazon_wish_list" rel="nofollow" class="a2a_i" href="/" target="_blank" style="display: none; "><span class="a2a_i_amazon">Amazon Wish List</span></a><a id="a2apage_printfriendly" rel="nofollow" class="a2a_i" href="/" target="_blank" style="display: none; "><span class="a2a_i_printfriendly">PrintFriendly</span></a><a id="a2apage_read_it_later" rel="nofollow" class="a2a_i" href="/" target="_blank" style="display: none; "><span class="a2a_i_read_it_later">Read It Later</span></a><a id="a2apage_tuenti" rel="nofollow" class="a2a_i" href="/" target="_blank" style="display: none; "><span class="a2a_i_tuenti">Tuenti</span></a><a id="a2apage_email" rel="nofollow" class="a2a_i" href="/" target="_blank" style="display: none; "><span class="a2a_i_email">Email</span></a><a id="a2apage_rediff" rel="nofollow" class="a2a_i" href="/" target="_blank" style="display: none; "><span class="a2a_i_rediff">Rediff MyPage</span></a></div><div id="a2apage_2_col1" style="display: none; "><a id="a2apage_google_gmail" rel="nofollow" class="a2a_i" href="/" target="_blank"><span class="a2a_i_gmail">Google Gmail</span></a><a id="a2apage_yahoo_mail" rel="nofollow" class="a2a_i" href="/" target="_blank"><span class="a2a_i_yahoo">Yahoo Mail</span></a><a id="a2apage_hotmail" rel="nofollow" class="a2a_i" href="/" target="_blank"><span class="a2a_i_live">Hotmail</span></a><a id="a2apage_aol_mail" rel="nofollow" class="a2a_i" href="/" target="_blank"><span class="a2a_i_aol">AOL Mail</span></a><a id="a2apage_any_email" rel="nofollow" class="a2a_i a2a_emailer" href="/" target="_blank"><span class="a2a_i_email">Any email</span></a><a id="a2apage_email_client" rel="nofollow" class="a2a_i a2a_emailer a2a_email_client" href="/" target=""><span class="a2a_i_outlook">&nbsp;</span><span class="a2a_i_windows_mail">&nbsp;</span><span class="a2a_i_apple_mail">&nbsp;</span><span class="a2a_i_thunderbird">&nbsp;</span></a></div><div class="a2a_clear"></div></div><div id="a2apage_note_BROWSER" class="a2a_note" style="display:none"></div><div class="a2apage_wide a2a_wide" style=""><a href="javascript:void(0)" id="a2apage_show_more_less" class="a2a_menu_show_more_less" onclick="return a2a.show_more_less(0)" onmouseover="img=this.firstChild;if(a2a.c.color_arrow_hover==\'fff\'){if(img.className.indexOf(\'_wt\')==-1)img.className =\'_wt\'}else img.className=img.className.replace(/_wt/,\'\')" onmouseout="img=this.firstChild;if(a2a.c.color_arrow==\'fff\'){if(img.className.indexOf(\'_wt\')==-1)img.className =\'_wt\'}else img.className=img.className.replace(/_wt/,\'\')" title="Show all"><span class="a2a_i_darr"></span></a></div><div class="a2a_menu_powered_by" id="a2apage_powered_by" onmouseover="if(this.innerHTML!=this.orig&amp;&amp;!window.opera)this.innerHTML=this.orig;this.style.textAlign=\'center\'" style="">By <a href="http://share.lockerz.com/" target="_blank" title="Share Buttons">Lockerz</a></div></div></div></div>\n  <div class="wrapper"><!-- for sticky footer -->\n    <div class="flash" style="display: none; "></div>\n    <div class="header">\n      <div class="container">\n        <div class="sixteen columns">\n\t  <img src="http://web2py.com/examples/static/images/web2py_logo.png">\n          <h5></h5>\n        </div>\n        <div class="sixteen columns statusbar">\n          <div id="menu"><ul class="sf-menu"><li><a href="http://web2py.com/examples/default/index">Home</a></li><li><a href="http://web2py.com/examples/default/what">About</a></li><li><a href="http://web2py.com/examples/default/download">Download</a></li><li><a href="http://web2py.com/examples/default/documentation">Docs &amp; Resources</a></li><li><a href="http://web2py.com/examples/default/support">Support</a></li><li><a href="http://web2py.com/examples/default/who">Contributors</a></li></ul>\n            <!-- AddToAny BEGIN -->\n            <div style="float:right;padding-top:6px;" class="a2a_kit a2a_default_style">\n            <a class="a2a_dd" href="http://www.addtoany.com/share_save#url=http%3A%2F%2F127.0.0.1%3A8000%2Finplace%2Fdefault%2Fedit%3Furl%3Dhttp%253A%252F%252Fweb2py.com&amp;title=web2py%20Web%20Framework&amp;description="><span class="a2a_img a2a_img_text a2a_i_a2a"></span>Share</a><div style="clear: both; "></div></div>\n            <script type="text/javascript" src="http://static.addtoany.com/menu/page.js"></script>\n            <!-- AddToAny END -->\n          </div>\n\t  <div class="sixteen columns announce">\n\t    <a href="http://www.infoworld.com/d/open-source-software/bossie-awards-2011-the-best-open-source-application-development-software-171759-0&amp;current=10&amp;last=1#slideshowTop">2011 BOSSIE AWARD FOR OPEN SOURCE DEVELOPMENT SOFTWARE</a>\n          </div>\n\t</div>\n      </div>\n    </div>\n    <div class="main">\n      <div class="container mainbody">\n        <div class="sixteen columns">\n          <div class="ten columns center">\n<center>\n  <img src="http://web2py.com/examples/static/images/tag-cloud-color-small.png">\n</center>\n<h3>WEB2PY<sup>TM</sup> WEB FRAMEWORK</h3>\n<p>Free open source</p>\n          </div>\n          <div class="five columns">\n<div style="text-align:center">\n  <a href="http://web2py.com/book"><img src="http://web2py.com/examples/static/images/tablet.png" alt="Tablet"></a><br>\n  <a href="http://www.lulu.com/product/paperback/web2py-book-(4th-edition)/18738286"><img src="http://static.lulu.com/images/services/buy_now_buttons/us/book.gif?20111206124946" border="0" alt="Support independent publishing: Buy this book on Lulu."></a><br>\n  <a class="button" href="http://web2py.com/examples/default/download" style="width:90%">DOWNLOAD NOW</a><br>\n  <a class="button" href="http://web2py.com/demo_admin" style="width:90%">ONLINE DEMO</a><br>\n  <a class="button" href="http://web2py.com/poweredby" style="width:90%">SITES POWERED</a>\n</div>\n          </div>\n        </div>\n      </div><!-- container -->\n<div class="container">\n  <div class="sixteen columns">\n    <div class="five columns">\n      <h3><a href="http://web2py.com/examples/default/about">BATTERIES INCLUDED</a></h3>\n      <p>Everything you need in one package including fast multi-threaded web server, SQL database and web-based interface. No third party dependencies but works with <a href="/examples/default/what">third party tools</a>.</p>\n    </div>\n    <div class="five columns">\n      <h3><a href="http://web2py.com/demo_admin">WEB-BASED IDE</a></h3>\n      <p>Create, modify, deploy and manage application from anywhere using your browser. One web2py instance can run multiple web sites using different databases. Try the <a href="http://web2py.com/demo_admin">interactive demo</a>.</p>\n    </div>\n    <div class="five columns">\n      <h3><a href="http://web2py.com/examples/default/documentation">EXTENSIVE DOCS</a></h3>\n      <p>Start with some <a href="http://web2py.com/examples/default/examples">quick examples</a>, then read the <a href="http://web2py.com/book">reference manual</a>, watch <a href="http://vimeo.com/album/178500">videos</a>, and join a <a href="http://web2py.com/examples/default/usergroups">user group</a> for discussion. Take advantage of the <a href="http://web2py.com/layouts">layouts</a>, <a href="http://dev.s-cubism.com/web2py_plugins">plugins</a>, and <a href="http://web2pyslices.com">recipes</a>.</p>\n    </div>\n  </div>\n</div>\n<div class="container">\n  <div class="sixteen columns">\n    <img src="http://web2py.com/examples/static/images/shadow-bottom.png" width="100%">\n    <div class="five columns">\n      <em>\n\t<p>web2py rules! as a sysadmin I like the no installation and no configuration approach a lot)</p>\n      </em>\n      <span class="right">\n\t<a href="http://twitter.com/#!/jkogut/status/61414554273447936"><em>kjogut</em></a>\n      </span>\n    </div>\n    <div class="five columns">\n      <em>\n\t<p>web2py was the life saver today for me, my blog post: Standalone Usage of web2py\'s</p>\n      </em>\n      <span class="right">\n\t<a href="http://twitter.com/#!/caglartoklu/status/84292131707031553"><em>caglartoklu</em></a>\n      </span>\n    </div>\n    <div class="five columns">\n      <em>\n\t<p>If you are still learning python, web2py is best tool by far</p>\n      </em>\n      <span class="right">\n\t<a href="http://twitter.com/#!/pbreit/status/48260905775017984"><em>pbreit</em></a>\n      </span>\n    </div>\n  </div>\n</div>\n    </div><!-- main -->\n    <div class="push"></div>\n  </div><!-- wrapper -->\n  <div class="footer">\n    <div class="container header">\n      <div class="sixteen columns">\n         <!-- this is default footer -->\n        <div class="footer-content">\n          Copyright \xa9 2011\n\t  - User communities in <a href="https://groups.google.com/forum/?fromgroups#!forum/web2py" target="_blank">English</a><a>, </a><a href="https://groups.google.com/forum/?fromgroups#!forum/web2py-fr" target="_blank">French</a>, <a href="https://groups.google.com/forum/?fromgroups#!forum/web2py-japan" target="_blank">Japanese</a>, <a href="https://groups.google.com/forum/?fromgroups#!forum/web2py-users-brazil" target="_blank">Portuguese</a>, and <a href="https://groups.google.com/forum/?fromgroups#!forum/web2py-usuarios" target="_blank">Spanish</a>.\n          <div style="float: right;">\n            <a href="http://www.web2py.com/" style="float: left; padding-right: 6px;">\n            <img style="padding-bottom: 0;" src="http://web2py.com/examples/static/images/poweredby.png">\n            </a>\n          </div>\n        </div>\n      </div>\n    </div><!-- container -->\n  </div><!-- footer -->\n  <!--[if lt IE 7 ]>\n\t<script src="http://web2py.com/examples/static/js/dd_belatedpng.js"></script>\n\t<script> DD_belatedPNG.fix(\'img, .png_bg\'); //fix any <img> or .png_bg background-images </script>\n\t<![endif]-->\n\n\n</body></html>'
p3952
asbasbasbag49
(g65
g51
NtRp3953
(dp3954
g54
(dp3955
sg63
g3617
sg56
(lp3956
g49
(g70
g51
NtRp3957
(dp3958
g54
(dp3959
g74
g75
ssg63
g3953
sg56
(lp3960
S'url'
p3961
asbag49
(g70
g51
NtRp3962
(dp3963
g54
(dp3964
g81
g82
ssg63
g3953
sg56
(lp3965
S':'
asbag49
(g70
g51
NtRp3966
(dp3967
g54
(dp3968
sg63
g3953
sg56
(lp3969
g49
(g50
g51
NtRp3970
(dp3971
g54
(dp3972
g62
I5
ssg63
g3966
sg56
(lp3973
S'http://web2py.com'
p3974
asbasbasbasbasbsS'etype'
p3975
S"<type 'exceptions.TypeError'>"
p3976
sS'date'
p3977
S'Sun Dec 11 16:09:00 2011'
p3978
sS'response'
p3979
g49
(g50
g51
NtRp3980
(dp3981
g54
(dp3982
sg56
(lp3983
g49
(g58
g51
NtRp3984
(dp3985
g54
(dp3986
g62
I5
ssg63
Nsg56
(lp3987
g49
(g65
g51
NtRp3988
(dp3989
g54
(dp3990
sg63
g3984
sg56
(lp3991
g49
(g70
g51
NtRp3992
(dp3993
g54
(dp3994
g74
g75
ssg63
g3988
sg56
(lp3995
g147
asbag49
(g70
g51
NtRp3996
(dp3997
g54
(dp3998
g81
g82
ssg63
g3988
sg56
(lp3999
S':'
asbag49
(g70
g51
NtRp4000
(dp4001
g54
(dp4002
sg63
g3988
sg56
(lp4003
g49
(g50
g51
NtRp4004
(dp4005
g54
(dp4006
g62
I5
ssg63
g4000
sg56
(lp4007
S'<cStringIO.StringO object at 0x14ce0a0>'
p4008
asbasbasbag49
(g65
g51
NtRp4009
(dp4010
g54
(dp4011
sg63
g3984
sg56
(lp4012
g49
(g70
g51
NtRp4013
(dp4014
g54
(dp4015
g74
g75
ssg63
g4009
sg56
(lp4016
g213
asbag49
(g70
g51
NtRp4017
(dp4018
g54
(dp4019
g81
g82
ssg63
g4009
sg56
(lp4020
S':'
asbag49
(g70
g51
NtRp4021
(dp4022
g54
(dp4023
sg63
g4009
sg56
(lp4024
g49
(g50
g51
NtRp4025
(dp4026
g54
(dp4027
g62
I5
ssg63
g4021
sg56
(lp4028
g49
(g58
g51
NtRp4029
(dp4030
g54
(dp4031
g62
I4
ssg63
Nsg56
(lp4032
g49
(g65
g51
NtRp4033
(dp4034
g54
(dp4035
sg63
g4029
sg56
(lp4036
g49
(g70
g51
NtRp4037
(dp4038
g54
(dp4039
g74
g75
ssg63
g4033
sg56
(lp4040
S'session_id_inplace'
p4041
asbag49
(g70
g51
NtRp4042
(dp4043
g54
(dp4044
g81
g82
ssg63
g4033
sg56
(lp4045
S':'
asbag49
(g70
g51
NtRp4046
(dp4047
g54
(dp4048
sg63
g4033
sg56
(lp4049
g49
(g50
g51
NtRp4050
(dp4051
g54
(dp4052
g62
I4
ssg63
g4046
sg56
(lp4053
g49
(g58
g51
NtRp4054
(dp4055
g54
(dp4056
g62
I3
ssg63
Nsg56
(lp4057
g49
(g65
g51
NtRp4058
(dp4059
g54
(dp4060
sg63
g4054
sg56
(lp4061
g49
(g70
g51
NtRp4062
(dp4063
g54
(dp4064
g74
g75
ssg63
g4058
sg56
(lp4065
g263
asbag49
(g70
g51
NtRp4066
(dp4067
g54
(dp4068
g81
g82
ssg63
g4058
sg56
(lp4069
S':'
asbag49
(g70
g51
NtRp4070
(dp4071
g54
(dp4072
sg63
g4058
sg56
(lp4073
g49
(g50
g51
NtRp4074
(dp4075
g54
(dp4076
g62
I3
ssg63
g4070
sg56
(lp4077
S''
asbasbasbag49
(g65
g51
NtRp4078
(dp4079
g54
(dp4080
sg63
g4054
sg56
(lp4081
g49
(g70
g51
NtRp4082
(dp4083
g54
(dp4084
g74
g75
ssg63
g4078
sg56
(lp4085
g284
asbag49
(g70
g51
NtRp4086
(dp4087
g54
(dp4088
g81
g82
ssg63
g4078
sg56
(lp4089
S':'
asbag49
(g70
g51
NtRp4090
(dp4091
g54
(dp4092
sg63
g4078
sg56
(lp4093
g49
(g50
g51
NtRp4094
(dp4095
g54
(dp4096
g62
I3
ssg63
g4090
sg56
(lp4097
S''
asbasbasbag49
(g65
g51
NtRp4098
(dp4099
g54
(dp4100
sg63
g4054
sg56
(lp4101
g49
(g70
g51
NtRp4102
(dp4103
g54
(dp4104
g74
g75
ssg63
g4098
sg56
(lp4105
g305
asbag49
(g70
g51
NtRp4106
(dp4107
g54
(dp4108
g81
g82
ssg63
g4098
sg56
(lp4109
S':'
asbag49
(g70
g51
NtRp4110
(dp4111
g54
(dp4112
sg63
g4098
sg56
(lp4113
g49
(g50
g51
NtRp4114
(dp4115
g54
(dp4116
g62
I3
ssg63
g4110
sg56
(lp4117
S''
asbasbasbag49
(g65
g51
NtRp4118
(dp4119
g54
(dp4120
sg63
g4054
sg56
(lp4121
g49
(g70
g51
NtRp4122
(dp4123
g54
(dp4124
g74
g75
ssg63
g4118
sg56
(lp4125
g326
asbag49
(g70
g51
NtRp4126
(dp4127
g54
(dp4128
g81
g82
ssg63
g4118
sg56
(lp4129
S':'
asbag49
(g70
g51
NtRp4130
(dp4131
g54
(dp4132
sg63
g4118
sg56
(lp4133
g49
(g50
g51
NtRp4134
(dp4135
g54
(dp4136
g62
I3
ssg63
g4130
sg56
(lp4137
S''
asbasbasbag49
(g65
g51
NtRp4138
(dp4139
g54
(dp4140
sg63
g4054
sg56
(lp4141
g49
(g70
g51
NtRp4142
(dp4143
g54
(dp4144
g74
g75
ssg63
g4138
sg56
(lp4145
g347
asbag49
(g70
g51
NtRp4146
(dp4147
g54
(dp4148
g81
g82
ssg63
g4138
sg56
(lp4149
S':'
asbag49
(g70
g51
NtRp4150
(dp4151
g54
(dp4152
sg63
g4138
sg56
(lp4153
g49
(g50
g51
NtRp4154
(dp4155
g54
(dp4156
g62
I3
ssg63
g4150
sg56
(lp4157
S'/'
asbasbasbag49
(g65
g51
NtRp4158
(dp4159
g54
(dp4160
sg63
g4054
sg56
(lp4161
g49
(g70
g51
NtRp4162
(dp4163
g54
(dp4164
g74
g75
ssg63
g4158
sg56
(lp4165
g368
asbag49
(g70
g51
NtRp4166
(dp4167
g54
(dp4168
g81
g82
ssg63
g4158
sg56
(lp4169
S':'
asbag49
(g70
g51
NtRp4170
(dp4171
g54
(dp4172
sg63
g4158
sg56
(lp4173
g49
(g50
g51
NtRp4174
(dp4175
g54
(dp4176
g62
I3
ssg63
g4170
sg56
(lp4177
S''
asbasbasbag49
(g65
g51
NtRp4178
(dp4179
g54
(dp4180
sg63
g4054
sg56
(lp4181
g49
(g70
g51
NtRp4182
(dp4183
g54
(dp4184
g74
g75
ssg63
g4178
sg56
(lp4185
g389
asbag49
(g70
g51
NtRp4186
(dp4187
g54
(dp4188
g81
g82
ssg63
g4178
sg56
(lp4189
S':'
asbag49
(g70
g51
NtRp4190
(dp4191
g54
(dp4192
sg63
g4178
sg56
(lp4193
g49
(g50
g51
NtRp4194
(dp4195
g54
(dp4196
g62
I3
ssg63
g4190
sg56
(lp4197
S''
asbasbasbasbasbasbasbasbasbasbasbag49
(g65
g51
NtRp4198
(dp4199
g54
(dp4200
sg63
g3984
sg56
(lp4201
g49
(g70
g51
NtRp4202
(dp4203
g54
(dp4204
g74
g75
ssg63
g4198
sg56
(lp4205
S'files'
p4206
asbag49
(g70
g51
NtRp4207
(dp4208
g54
(dp4209
g81
g82
ssg63
g4198
sg56
(lp4210
S':'
asbag49
(g70
g51
NtRp4211
(dp4212
g54
(dp4213
sg63
g4198
sg56
(lp4214
g49
(g50
g51
NtRp4215
(dp4216
g54
(dp4217
g62
I5
ssg63
g4211
sg56
(lp4218
g49
(g58
g51
NtRp4219
(dp4220
g54
(dp4221
g62
I4
ssg63
Nsg56
(lp4222
sbasbasbasbag49
(g65
g51
NtRp4223
(dp4224
g54
(dp4225
sg63
g3984
sg56
(lp4226
g49
(g70
g51
NtRp4227
(dp4228
g54
(dp4229
g74
g75
ssg63
g4223
sg56
(lp4230
S'flash'
p4231
asbag49
(g70
g51
NtRp4232
(dp4233
g54
(dp4234
g81
g82
ssg63
g4223
sg56
(lp4235
S':'
asbag49
(g70
g51
NtRp4236
(dp4237
g54
(dp4238
sg63
g4223
sg56
(lp4239
g49
(g50
g51
NtRp4240
(dp4241
g54
(dp4242
g62
I5
ssg63
g4236
sg56
(lp4243
S''
asbasbasbag49
(g65
g51
NtRp4244
(dp4245
g54
(dp4246
sg63
g3984
sg56
(lp4247
g49
(g70
g51
NtRp4248
(dp4249
g54
(dp4250
g74
g75
ssg63
g4244
sg56
(lp4251
S'generic_patterns'
p4252
asbag49
(g70
g51
NtRp4253
(dp4254
g54
(dp4255
g81
g82
ssg63
g4244
sg56
(lp4256
S':'
asbag49
(g70
g51
NtRp4257
(dp4258
g54
(dp4259
sg63
g4244
sg56
(lp4260
g49
(g50
g51
NtRp4261
(dp4262
g54
(dp4263
g62
I5
ssg63
g4257
sg56
(lp4264
g49
(g58
g51
NtRp4265
(dp4266
g54
(dp4267
g62
I4
ssg63
Nsg56
(lp4268
g49
(g65
g51
NtRp4269
(dp4270
g54
(dp4271
sg63
g4265
sg56
(lp4272
g49
(g70
g51
NtRp4273
(dp4274
g54
(dp4275
sg63
g4269
sg56
(lp4276
g49
(g50
g51
NtRp4277
(dp4278
g54
(dp4279
g62
I4
ssg63
g4273
sg56
(lp4280
S'*'
asbasbasbasbasbasbasbag49
(g65
g51
NtRp4281
(dp4282
g54
(dp4283
sg63
g3984
sg56
(lp4284
g49
(g70
g51
NtRp4285
(dp4286
g54
(dp4287
g74
g75
ssg63
g4281
sg56
(lp4288
S'headers'
p4289
asbag49
(g70
g51
NtRp4290
(dp4291
g54
(dp4292
g81
g82
ssg63
g4281
sg56
(lp4293
S':'
asbag49
(g70
g51
NtRp4294
(dp4295
g54
(dp4296
sg63
g4281
sg56
(lp4297
g49
(g50
g51
NtRp4298
(dp4299
g54
(dp4300
g62
I5
ssg63
g4294
sg56
(lp4301
g49
(g58
g51
NtRp4302
(dp4303
g54
(dp4304
g62
I4
ssg63
Nsg56
(lp4305
g49
(g65
g51
NtRp4306
(dp4307
g54
(dp4308
sg63
g4302
sg56
(lp4309
g49
(g70
g51
NtRp4310
(dp4311
g54
(dp4312
g74
g75
ssg63
g4306
sg56
(lp4313
S'Cache-Control'
p4314
asbag49
(g70
g51
NtRp4315
(dp4316
g54
(dp4317
g81
g82
ssg63
g4306
sg56
(lp4318
S':'
asbag49
(g70
g51
NtRp4319
(dp4320
g54
(dp4321
sg63
g4306
sg56
(lp4322
g49
(g50
g51
NtRp4323
(dp4324
g54
(dp4325
g62
I4
ssg63
g4319
sg56
(lp4326
S'no-store, no-cache, must-revalidate, post-check=0, pre-check=0'
p4327
asbasbasbag49
(g65
g51
NtRp4328
(dp4329
g54
(dp4330
sg63
g4302
sg56
(lp4331
g49
(g70
g51
NtRp4332
(dp4333
g54
(dp4334
g74
g75
ssg63
g4328
sg56
(lp4335
S'Content-Type'
p4336
asbag49
(g70
g51
NtRp4337
(dp4338
g54
(dp4339
g81
g82
ssg63
g4328
sg56
(lp4340
S':'
asbag49
(g70
g51
NtRp4341
(dp4342
g54
(dp4343
sg63
g4328
sg56
(lp4344
g49
(g50
g51
NtRp4345
(dp4346
g54
(dp4347
g62
I4
ssg63
g4341
sg56
(lp4348
S'text/html; charset=utf-8'
p4349
asbasbasbag49
(g65
g51
NtRp4350
(dp4351
g54
(dp4352
sg63
g4302
sg56
(lp4353
g49
(g70
g51
NtRp4354
(dp4355
g54
(dp4356
g74
g75
ssg63
g4350
sg56
(lp4357
S'Expires'
p4358
asbag49
(g70
g51
NtRp4359
(dp4360
g54
(dp4361
g81
g82
ssg63
g4350
sg56
(lp4362
S':'
asbag49
(g70
g51
NtRp4363
(dp4364
g54
(dp4365
sg63
g4350
sg56
(lp4366
g49
(g50
g51
NtRp4367
(dp4368
g54
(dp4369
g62
I4
ssg63
g4363
sg56
(lp4370
S'Sun, 11 Dec 2011 22:09:00 GMT'
p4371
asbasbasbag49
(g65
g51
NtRp4372
(dp4373
g54
(dp4374
sg63
g4302
sg56
(lp4375
g49
(g70
g51
NtRp4376
(dp4377
g54
(dp4378
g74
g75
ssg63
g4372
sg56
(lp4379
S'Pragma'
p4380
asbag49
(g70
g51
NtRp4381
(dp4382
g54
(dp4383
g81
g82
ssg63
g4372
sg56
(lp4384
S':'
asbag49
(g70
g51
NtRp4385
(dp4386
g54
(dp4387
sg63
g4372
sg56
(lp4388
g49
(g50
g51
NtRp4389
(dp4390
g54
(dp4391
g62
I4
ssg63
g4385
sg56
(lp4392
S'no-cache'
p4393
asbasbasbag49
(g65
g51
NtRp4394
(dp4395
g54
(dp4396
sg63
g4302
sg56
(lp4397
g49
(g70
g51
NtRp4398
(dp4399
g54
(dp4400
g74
g75
ssg63
g4394
sg56
(lp4401
S'X-Powered-By'
p4402
asbag49
(g70
g51
NtRp4403
(dp4404
g54
(dp4405
g81
g82
ssg63
g4394
sg56
(lp4406
S':'
asbag49
(g70
g51
NtRp4407
(dp4408
g54
(dp4409
sg63
g4394
sg56
(lp4410
g49
(g50
g51
NtRp4411
(dp4412
g54
(dp4413
g62
I4
ssg63
g4407
sg56
(lp4414
S'web2py'
p4415
asbasbasbasbasbasbasbag49
(g65
g51
NtRp4416
(dp4417
g54
(dp4418
sg63
g3984
sg56
(lp4419
g49
(g70
g51
NtRp4420
(dp4421
g54
(dp4422
g74
g75
ssg63
g4416
sg56
(lp4423
S'menu'
p4424
asbag49
(g70
g51
NtRp4425
(dp4426
g54
(dp4427
g81
g82
ssg63
g4416
sg56
(lp4428
S':'
asbag49
(g70
g51
NtRp4429
(dp4430
g54
(dp4431
sg63
g4416
sg56
(lp4432
g49
(g50
g51
NtRp4433
(dp4434
g54
(dp4435
g62
I5
ssg63
g4429
sg56
(lp4436
g49
(g58
g51
NtRp4437
(dp4438
g54
(dp4439
g62
I4
ssg63
Nsg56
(lp4440
sbasbasbasbag49
(g65
g51
NtRp4441
(dp4442
g54
(dp4443
sg63
g3984
sg56
(lp4444
g49
(g70
g51
NtRp4445
(dp4446
g54
(dp4447
g74
g75
ssg63
g4441
sg56
(lp4448
S'meta'
p4449
asbag49
(g70
g51
NtRp4450
(dp4451
g54
(dp4452
g81
g82
ssg63
g4441
sg56
(lp4453
S':'
asbag49
(g70
g51
NtRp4454
(dp4455
g54
(dp4456
sg63
g4441
sg56
(lp4457
g49
(g50
g51
NtRp4458
(dp4459
g54
(dp4460
g62
I5
ssg63
g4454
sg56
(lp4461
g49
(g58
g51
NtRp4462
(dp4463
g54
(dp4464
g62
I4
ssg63
Nsg56
(lp4465
sbasbasbasbag49
(g65
g51
NtRp4466
(dp4467
g54
(dp4468
sg63
g3984
sg56
(lp4469
g49
(g70
g51
NtRp4470
(dp4471
g54
(dp4472
g74
g75
ssg63
g4466
sg56
(lp4473
S'postprocessing'
p4474
asbag49
(g70
g51
NtRp4475
(dp4476
g54
(dp4477
g81
g82
ssg63
g4466
sg56
(lp4478
S':'
asbag49
(g70
g51
NtRp4479
(dp4480
g54
(dp4481
sg63
g4466
sg56
(lp4482
g49
(g50
g51
NtRp4483
(dp4484
g54
(dp4485
g62
I5
ssg63
g4479
sg56
(lp4486
g49
(g58
g51
NtRp4487
(dp4488
g54
(dp4489
g62
I4
ssg63
Nsg56
(lp4490
sbasbasbasbag49
(g65
g51
NtRp4491
(dp4492
g54
(dp4493
sg63
g3984
sg56
(lp4494
g49
(g70
g51
NtRp4495
(dp4496
g54
(dp4497
g74
g75
ssg63
g4491
sg56
(lp4498
S'session_file'
p4499
asbag49
(g70
g51
NtRp4500
(dp4501
g54
(dp4502
g81
g82
ssg63
g4491
sg56
(lp4503
S':'
asbag49
(g70
g51
NtRp4504
(dp4505
g54
(dp4506
sg63
g4491
sg56
(lp4507
g49
(g50
g51
NtRp4508
(dp4509
g54
(dp4510
g62
I5
ssg63
g4504
sg56
(lp4511
S"<open file '/Users/mdipierro/Dropbox/web2py/applications/inplace/sessions/127.0.0.1-b67af904-b8cf-469d-95b3-18285a004db1', mode 'rb+' at 0x1f9e848>"
p4512
asbasbasbag49
(g65
g51
NtRp4513
(dp4514
g54
(dp4515
sg63
g3984
sg56
(lp4516
g49
(g70
g51
NtRp4517
(dp4518
g54
(dp4519
g74
g75
ssg63
g4513
sg56
(lp4520
S'session_filename'
p4521
asbag49
(g70
g51
NtRp4522
(dp4523
g54
(dp4524
g81
g82
ssg63
g4513
sg56
(lp4525
S':'
asbag49
(g70
g51
NtRp4526
(dp4527
g54
(dp4528
sg63
g4513
sg56
(lp4529
g49
(g50
g51
NtRp4530
(dp4531
g54
(dp4532
g62
I5
ssg63
g4526
sg56
(lp4533
S'/Users/mdipierro/Dropbox/web2py/applications/inplace/sessions/127.0.0.1-b67af904-b8cf-469d-95b3-18285a004db1'
p4534
asbasbasbag49
(g65
g51
NtRp4535
(dp4536
g54
(dp4537
sg63
g3984
sg56
(lp4538
g49
(g70
g51
NtRp4539
(dp4540
g54
(dp4541
g74
g75
ssg63
g4535
sg56
(lp4542
S'session_id'
p4543
asbag49
(g70
g51
NtRp4544
(dp4545
g54
(dp4546
g81
g82
ssg63
g4535
sg56
(lp4547
S':'
asbag49
(g70
g51
NtRp4548
(dp4549
g54
(dp4550
sg63
g4535
sg56
(lp4551
g49
(g50
g51
NtRp4552
(dp4553
g54
(dp4554
g62
I5
ssg63
g4548
sg56
(lp4555
S'127.0.0.1-b67af904-b8cf-469d-95b3-18285a004db1'
p4556
asbasbasbag49
(g65
g51
NtRp4557
(dp4558
g54
(dp4559
sg63
g3984
sg56
(lp4560
g49
(g70
g51
NtRp4561
(dp4562
g54
(dp4563
g74
g75
ssg63
g4557
sg56
(lp4564
S'session_id_name'
p4565
asbag49
(g70
g51
NtRp4566
(dp4567
g54
(dp4568
g81
g82
ssg63
g4557
sg56
(lp4569
S':'
asbag49
(g70
g51
NtRp4570
(dp4571
g54
(dp4572
sg63
g4557
sg56
(lp4573
g49
(g50
g51
NtRp4574
(dp4575
g54
(dp4576
g62
I5
ssg63
g4570
sg56
(lp4577
g4041
asbasbasbag49
(g65
g51
NtRp4578
(dp4579
g54
(dp4580
sg63
g3984
sg56
(lp4581
g49
(g70
g51
NtRp4582
(dp4583
g54
(dp4584
g74
g75
ssg63
g4578
sg56
(lp4585
S'session_locked'
p4586
asbag49
(g70
g51
NtRp4587
(dp4588
g54
(dp4589
g81
g82
ssg63
g4578
sg56
(lp4590
S':'
asbag49
(g70
g51
NtRp4591
(dp4592
g54
(dp4593
sg63
g4578
sg56
(lp4594
g49
(g50
g51
NtRp4595
(dp4596
g54
(dp4597
g62
I5
ssg63
g4591
sg56
(lp4598
g2127
asbasbasbag49
(g65
g51
NtRp4599
(dp4600
g54
(dp4601
sg63
g3984
sg56
(lp4602
g49
(g70
g51
NtRp4603
(dp4604
g54
(dp4605
g74
g75
ssg63
g4599
sg56
(lp4606
S'session_new'
p4607
asbag49
(g70
g51
NtRp4608
(dp4609
g54
(dp4610
g81
g82
ssg63
g4599
sg56
(lp4611
S':'
asbag49
(g70
g51
NtRp4612
(dp4613
g54
(dp4614
sg63
g4599
sg56
(lp4615
g49
(g50
g51
NtRp4616
(dp4617
g54
(dp4618
g62
I5
ssg63
g4612
sg56
(lp4619
g92
asbasbasbag49
(g65
g51
NtRp4620
(dp4621
g54
(dp4622
sg63
g3984
sg56
(lp4623
g49
(g70
g51
NtRp4624
(dp4625
g54
(dp4626
g74
g75
ssg63
g4620
sg56
(lp4627
S'status'
p4628
asbag49
(g70
g51
NtRp4629
(dp4630
g54
(dp4631
g81
g82
ssg63
g4620
sg56
(lp4632
S':'
asbag49
(g70
g51
NtRp4633
(dp4634
g54
(dp4635
sg63
g4620
sg56
(lp4636
g49
(g50
g51
NtRp4637
(dp4638
g54
(dp4639
g62
I5
ssg63
g4633
sg56
(lp4640
S'200'
p4641
asbasbasbag49
(g65
g51
NtRp4642
(dp4643
g54
(dp4644
sg63
g3984
sg56
(lp4645
g49
(g70
g51
NtRp4646
(dp4647
g54
(dp4648
g74
g75
ssg63
g4642
sg56
(lp4649
S'subtitle'
p4650
asbag49
(g70
g51
NtRp4651
(dp4652
g54
(dp4653
g81
g82
ssg63
g4642
sg56
(lp4654
S':'
asbag49
(g70
g51
NtRp4655
(dp4656
g54
(dp4657
sg63
g4642
sg56
(lp4658
g49
(g50
g51
NtRp4659
(dp4660
g54
(dp4661
g62
I5
ssg63
g4655
sg56
(lp4662
S'experimental!'
p4663
asbasbasbag49
(g65
g51
NtRp4664
(dp4665
g54
(dp4666
sg63
g3984
sg56
(lp4667
g49
(g70
g51
NtRp4668
(dp4669
g54
(dp4670
g74
g75
ssg63
g4664
sg56
(lp4671
S'title'
p4672
asbag49
(g70
g51
NtRp4673
(dp4674
g54
(dp4675
g81
g82
ssg63
g4664
sg56
(lp4676
S':'
asbag49
(g70
g51
NtRp4677
(dp4678
g54
(dp4679
sg63
g4664
sg56
(lp4680
g49
(g50
g51
NtRp4681
(dp4682
g54
(dp4683
g62
I5
ssg63
g4677
sg56
(lp4684
S'Inplace Web Page Editor'
p4685
asbasbasbag49
(g65
g51
NtRp4686
(dp4687
g54
(dp4688
sg63
g3984
sg56
(lp4689
g49
(g70
g51
NtRp4690
(dp4691
g54
(dp4692
g74
g75
ssg63
g4686
sg56
(lp4693
g2813
asbag49
(g70
g51
NtRp4694
(dp4695
g54
(dp4696
g81
g82
ssg63
g4686
sg56
(lp4697
S':'
asbag49
(g70
g51
NtRp4698
(dp4699
g54
(dp4700
sg63
g4686
sg56
(lp4701
g49
(g50
g51
NtRp4702
(dp4703
g54
(dp4704
g62
I5
ssg63
g4698
sg56
(lp4705
g2826
asbasbasbag49
(g65
g51
NtRp4706
(dp4707
g54
(dp4708
sg63
g3984
sg56
(lp4709
g49
(g70
g51
NtRp4710
(dp4711
g54
(dp4712
g74
g75
ssg63
g4706
sg56
(lp4713
S'view'
p4714
asbag49
(g70
g51
NtRp4715
(dp4716
g54
(dp4717
g81
g82
ssg63
g4706
sg56
(lp4718
S':'
asbag49
(g70
g51
NtRp4719
(dp4720
g54
(dp4721
sg63
g4706
sg56
(lp4722
g49
(g50
g51
NtRp4723
(dp4724
g54
(dp4725
g62
I5
ssg63
g4719
sg56
(lp4726
S'default/edit.html'
p4727
asbasbasbasbasbsS'locals'
p4728
(dp4729
ssS'traceback'
p4730
S'Traceback (most recent call last):\n  File "/Users/mdipierro/Dropbox/web2py/gluon/restricted.py", line 204, in restricted\n    exec ccode in environment\n  File "/Users/mdipierro/Dropbox/web2py/applications/inplace/controllers/default.py", line 58, in <module>\n  File "/Users/mdipierro/Dropbox/web2py/gluon/globals.py", line 172, in <lambda>\n    self._caller = lambda f: f()\n  File "/Users/mdipierro/Dropbox/web2py/gluon/tools.py", line 2533, in f\n    return action(*a, **b)\n  File "/Users/mdipierro/Dropbox/web2py/applications/inplace/controllers/default.py", line 17, in edit\n    session._unlock()\nTypeError: _unlock() takes exactly 2 arguments (1 given)\n'
p4731
s.