(dp1
S'output'
p2
S"<type 'exceptions.AttributeError'> 'NoneType' object has no attribute 'html'"
p3
sS'layer'
p4
S'/Users/mdipierro/Dropbox/web2py/applications/inplace/controllers/default.py'
p5
sS'code'
p6
S'# -*- coding: utf-8 -*-\n# this file is released under public domain and you can use without limitations\n\nresponse.title=\'Inplace Web Page Editor\'\nresponse.subtitle=\'experimental!\'\n\ndef index():\n    form=SQLFORM.factory(Field(\'url\',requires=IS_URL(),default=\'http://web2py.com\'))\n    if form.process().accepted:\n        redirect(URL(\'edit\',vars=dict(url=form.vars.url)))\n    return dict(form=form)\n\ndef edit():\n    import urllib,re\n    print request.args(0)\n    if request.args(0)==\'post\':\n        return request.vars.value or \'\'\n    elif request.args(0)==\'store\':\n        session.new_html = session.html.split(\'<body>\')[0]+\'<body>\'+request.vars.html+\'</body></html>\'\n        return \'ok\'\n    \n    url = request.vars.url\n    try:\n        html = urllib.urlopen(url).read()\n    except IOError:\n        session.flash = \'web page does not exist!\'\n        redirect(URL(\'index\'))\n    session.url = url\n    session.html = html\n    html = re.sub(\'\\s+[\\n]\',\'\\n\',html)\n    html = re.sub(\'>[ \\t]+<\',\'> <\',html)\n    html = re.sub(\'(src|SRC)\\s*=\\s*"/(?!/)\',\'src="\'+\'/\'.join(url.split(\'/\')[:3])+\'/\',html)\n    html = re.sub(\'(src|SRC)\\s*=\\s*"(?!(/|http))\',\'src="\'+\'/\'.join(url.split(\'/\'))+\'/\',html)\n    html = re.sub(\'(href|HREF)\\s*=\\s*"/(?!/)\',\'href="\'+\'/\'.join(url.split(\'/\')[:3])+\'/\',html)\n    html = re.sub(\'(href|HREF)\\s*=\\s*"(?!(/|http))\',\'href="\'+\'/\'.join(url.split(\'/\'))+\'/\',html)\n    html = re.sub(\'url\\(/(?!/)\',\'url(\'+\'/\'.join(url.split(\'/\')[:3])+\'/\',html)\n    html = re.sub(\'url\\((?!(/|http))\',\'url(\'+\'/\'.join(url.split(\'/\'))+\'/\',html)\n    inject = \'<script src="%s" language="javascript"></script>\' % URL(\'static\',\'js/inject.js\')\n    html = html.replace(\'</head>\',inject+\'</head>\')\n    return html\n\ndef page():\n    id = db.clone.insert(url=session.url,html=session.new_html)\n    redirect(URL(\'clone\',args=id))\n\ndef clone():\n    if request.args(0)==\'post\': redirect(URL(\'index\'))\n    return db.clone(request.args(0)).html\n\nresponse._vars=response._caller(clone)\n'
p7
sS'snapshot'
p8
(dp9
S'exception'
p10
(dp11
S'__hash__'
p12
S"<method-wrapper '__hash__' of exceptions.AttributeError object at 0x13d0828>"
p13
sS'__setattr__'
p14
S"<method-wrapper '__setattr__' of exceptions.AttributeError object at 0x13d0828>"
p15
sS'__reduce_ex__'
p16
S'<built-in method __reduce_ex__ of exceptions.AttributeError object at 0x13d0828>'
p17
sS'__getslice__'
p18
S"<method-wrapper '__getslice__' of exceptions.AttributeError object at 0x13d0828>"
p19
sS'__getitem__'
p20
S"<method-wrapper '__getitem__' of exceptions.AttributeError object at 0x13d0828>"
p21
sS'__setstate__'
p22
S'<built-in method __setstate__ of exceptions.AttributeError object at 0x13d0828>'
p23
sS'__reduce__'
p24
S'<built-in method __reduce__ of exceptions.AttributeError object at 0x13d0828>'
p25
sS'__str__'
p26
S"<method-wrapper '__str__' of exceptions.AttributeError object at 0x13d0828>"
p27
sS'args'
p28
S'("\'NoneType\' object has no attribute \'html\'",)'
p29
sS'__getattribute__'
p30
S"<method-wrapper '__getattribute__' of exceptions.AttributeError object at 0x13d0828>"
p31
sS'__class__'
p32
S"<type 'exceptions.AttributeError'>"
p33
sS'__delattr__'
p34
S"<method-wrapper '__delattr__' of exceptions.AttributeError object at 0x13d0828>"
p35
sS'__repr__'
p36
S"<method-wrapper '__repr__' of exceptions.AttributeError object at 0x13d0828>"
p37
sS'__dict__'
p38
S'{}'
p39
sS'__doc__'
p40
S"'Attribute not found.'"
p41
sS'__init__'
p42
S"<method-wrapper '__init__' of exceptions.AttributeError object at 0x13d0828>"
p43
sS'__new__'
p44
S'<built-in method __new__ of type object at 0xdc140>'
p45
ssS'evalue'
p46
S"'NoneType' object has no attribute 'html'"
p47
sS'request'
p48
ccopy_reg
_reconstructor
p49
(cgluon.html
BEAUTIFY
p50
c__builtin__
object
p51
NtRp52
(dp53
S'attributes'
p54
(dp55
sS'components'
p56
(lp57
g49
(cgluon.html
TABLE
p58
g51
NtRp59
(dp60
g54
(dp61
S'level'
p62
I5
ssS'parent'
p63
Nsg56
(lp64
g49
(cgluon.html
TR
p65
g51
NtRp66
(dp67
g54
(dp68
sg63
g59
sg56
(lp69
g49
(cgluon.html
TD
p70
g51
NtRp71
(dp72
g54
(dp73
S'_style'
p74
S'font-weight:bold;vertical-align:top'
p75
ssg63
g66
sg56
(lp76
S'ajax'
p77
asbag49
(g70
g51
NtRp78
(dp79
g54
(dp80
S'_valign'
p81
S'top'
p82
ssg63
g66
sg56
(lp83
S':'
asbag49
(g70
g51
NtRp84
(dp85
g54
(dp86
sg63
g66
sg56
(lp87
g49
(g50
g51
NtRp88
(dp89
g54
(dp90
g62
I5
ssg63
g84
sg56
(lp91
S'False'
p92
asbasbasbag49
(g65
g51
NtRp93
(dp94
g54
(dp95
sg63
g59
sg56
(lp96
g49
(g70
g51
NtRp97
(dp98
g54
(dp99
g74
g75
ssg63
g93
sg56
(lp100
S'application'
p101
asbag49
(g70
g51
NtRp102
(dp103
g54
(dp104
g81
g82
ssg63
g93
sg56
(lp105
S':'
asbag49
(g70
g51
NtRp106
(dp107
g54
(dp108
sg63
g93
sg56
(lp109
g49
(g50
g51
NtRp110
(dp111
g54
(dp112
g62
I5
ssg63
g106
sg56
(lp113
S'inplace'
p114
asbasbasbag49
(g65
g51
NtRp115
(dp116
g54
(dp117
sg63
g59
sg56
(lp118
g49
(g70
g51
NtRp119
(dp120
g54
(dp121
g74
g75
ssg63
g115
sg56
(lp122
g28
asbag49
(g70
g51
NtRp123
(dp124
g54
(dp125
g81
g82
ssg63
g115
sg56
(lp126
S':'
asbag49
(g70
g51
NtRp127
(dp128
g54
(dp129
sg63
g115
sg56
(lp130
g49
(g50
g51
NtRp131
(dp132
g54
(dp133
g62
I5
ssg63
g127
sg56
(lp134
g49
(g58
g51
NtRp135
(dp136
g54
(dp137
g62
I4
ssg63
Nsg56
(lp138
g49
(g65
g51
NtRp139
(dp140
g54
(dp141
sg63
g135
sg56
(lp142
g49
(g70
g51
NtRp143
(dp144
g54
(dp145
sg63
g139
sg56
(lp146
g49
(g50
g51
NtRp147
(dp148
g54
(dp149
g62
I4
ssg63
g143
sg56
(lp150
S'page'
p151
asbasbasbasbasbasbasbag49
(g65
g51
NtRp152
(dp153
g54
(dp154
sg63
g59
sg56
(lp155
g49
(g70
g51
NtRp156
(dp157
g54
(dp158
g74
g75
ssg63
g152
sg56
(lp159
S'body'
p160
asbag49
(g70
g51
NtRp161
(dp162
g54
(dp163
g81
g82
ssg63
g152
sg56
(lp164
S':'
asbag49
(g70
g51
NtRp165
(dp166
g54
(dp167
sg63
g152
sg56
(lp168
g49
(g50
g51
NtRp169
(dp170
g54
(dp171
g62
I5
ssg63
g165
sg56
(lp172
S'<cStringIO.StringO object at 0x14dc600>'
p173
asbasbasbag49
(g65
g51
NtRp174
(dp175
g54
(dp176
sg63
g59
sg56
(lp177
g49
(g70
g51
NtRp178
(dp179
g54
(dp180
g74
g75
ssg63
g174
sg56
(lp181
S'client'
p182
asbag49
(g70
g51
NtRp183
(dp184
g54
(dp185
g81
g82
ssg63
g174
sg56
(lp186
S':'
asbag49
(g70
g51
NtRp187
(dp188
g54
(dp189
sg63
g174
sg56
(lp190
g49
(g50
g51
NtRp191
(dp192
g54
(dp193
g62
I5
ssg63
g187
sg56
(lp194
S'127.0.0.1'
p195
asbasbasbag49
(g65
g51
NtRp196
(dp197
g54
(dp198
sg63
g59
sg56
(lp199
g49
(g70
g51
NtRp200
(dp201
g54
(dp202
g74
g75
ssg63
g196
sg56
(lp203
S'controller'
p204
asbag49
(g70
g51
NtRp205
(dp206
g54
(dp207
g81
g82
ssg63
g196
sg56
(lp208
S':'
asbag49
(g70
g51
NtRp209
(dp210
g54
(dp211
sg63
g196
sg56
(lp212
g49
(g50
g51
NtRp213
(dp214
g54
(dp215
g62
I5
ssg63
g209
sg56
(lp216
S'default'
p217
asbasbasbag49
(g65
g51
NtRp218
(dp219
g54
(dp220
sg63
g59
sg56
(lp221
g49
(g70
g51
NtRp222
(dp223
g54
(dp224
g74
g75
ssg63
g218
sg56
(lp225
S'cookies'
p226
asbag49
(g70
g51
NtRp227
(dp228
g54
(dp229
g81
g82
ssg63
g218
sg56
(lp230
S':'
asbag49
(g70
g51
NtRp231
(dp232
g54
(dp233
sg63
g218
sg56
(lp234
g49
(g50
g51
NtRp235
(dp236
g54
(dp237
g62
I5
ssg63
g231
sg56
(lp238
g49
(g58
g51
NtRp239
(dp240
g54
(dp241
g62
I4
ssg63
Nsg56
(lp242
g49
(g65
g51
NtRp243
(dp244
g54
(dp245
sg63
g239
sg56
(lp246
g49
(g70
g51
NtRp247
(dp248
g54
(dp249
g74
g75
ssg63
g243
sg56
(lp250
S'el-finder-last-finder'
p251
asbag49
(g70
g51
NtRp252
(dp253
g54
(dp254
g81
g82
ssg63
g243
sg56
(lp255
S':'
asbag49
(g70
g51
NtRp256
(dp257
g54
(dp258
sg63
g243
sg56
(lp259
g49
(g50
g51
NtRp260
(dp261
g54
(dp262
g62
I4
ssg63
g256
sg56
(lp263
g49
(g58
g51
NtRp264
(dp265
g54
(dp266
g62
I3
ssg63
Nsg56
(lp267
g49
(g65
g51
NtRp268
(dp269
g54
(dp270
sg63
g264
sg56
(lp271
g49
(g70
g51
NtRp272
(dp273
g54
(dp274
g74
g75
ssg63
g268
sg56
(lp275
S'comment'
p276
asbag49
(g70
g51
NtRp277
(dp278
g54
(dp279
g81
g82
ssg63
g268
sg56
(lp280
S':'
asbag49
(g70
g51
NtRp281
(dp282
g54
(dp283
sg63
g268
sg56
(lp284
g49
(g50
g51
NtRp285
(dp286
g54
(dp287
g62
I3
ssg63
g281
sg56
(lp288
S''
asbasbasbag49
(g65
g51
NtRp289
(dp290
g54
(dp291
sg63
g264
sg56
(lp292
g49
(g70
g51
NtRp293
(dp294
g54
(dp295
g74
g75
ssg63
g289
sg56
(lp296
S'domain'
p297
asbag49
(g70
g51
NtRp298
(dp299
g54
(dp300
g81
g82
ssg63
g289
sg56
(lp301
S':'
asbag49
(g70
g51
NtRp302
(dp303
g54
(dp304
sg63
g289
sg56
(lp305
g49
(g50
g51
NtRp306
(dp307
g54
(dp308
g62
I3
ssg63
g302
sg56
(lp309
S''
asbasbasbag49
(g65
g51
NtRp310
(dp311
g54
(dp312
sg63
g264
sg56
(lp313
g49
(g70
g51
NtRp314
(dp315
g54
(dp316
g74
g75
ssg63
g310
sg56
(lp317
S'expires'
p318
asbag49
(g70
g51
NtRp319
(dp320
g54
(dp321
g81
g82
ssg63
g310
sg56
(lp322
S':'
asbag49
(g70
g51
NtRp323
(dp324
g54
(dp325
sg63
g310
sg56
(lp326
g49
(g50
g51
NtRp327
(dp328
g54
(dp329
g62
I3
ssg63
g323
sg56
(lp330
S''
asbasbasbag49
(g65
g51
NtRp331
(dp332
g54
(dp333
sg63
g264
sg56
(lp334
g49
(g70
g51
NtRp335
(dp336
g54
(dp337
g74
g75
ssg63
g331
sg56
(lp338
S'max-age'
p339
asbag49
(g70
g51
NtRp340
(dp341
g54
(dp342
g81
g82
ssg63
g331
sg56
(lp343
S':'
asbag49
(g70
g51
NtRp344
(dp345
g54
(dp346
sg63
g331
sg56
(lp347
g49
(g50
g51
NtRp348
(dp349
g54
(dp350
g62
I3
ssg63
g344
sg56
(lp351
S''
asbasbasbag49
(g65
g51
NtRp352
(dp353
g54
(dp354
sg63
g264
sg56
(lp355
g49
(g70
g51
NtRp356
(dp357
g54
(dp358
g74
g75
ssg63
g352
sg56
(lp359
S'path'
p360
asbag49
(g70
g51
NtRp361
(dp362
g54
(dp363
g81
g82
ssg63
g352
sg56
(lp364
S':'
asbag49
(g70
g51
NtRp365
(dp366
g54
(dp367
sg63
g352
sg56
(lp368
g49
(g50
g51
NtRp369
(dp370
g54
(dp371
g62
I3
ssg63
g365
sg56
(lp372
S''
asbasbasbag49
(g65
g51
NtRp373
(dp374
g54
(dp375
sg63
g264
sg56
(lp376
g49
(g70
g51
NtRp377
(dp378
g54
(dp379
g74
g75
ssg63
g373
sg56
(lp380
S'secure'
p381
asbag49
(g70
g51
NtRp382
(dp383
g54
(dp384
g81
g82
ssg63
g373
sg56
(lp385
S':'
asbag49
(g70
g51
NtRp386
(dp387
g54
(dp388
sg63
g373
sg56
(lp389
g49
(g50
g51
NtRp390
(dp391
g54
(dp392
g62
I3
ssg63
g386
sg56
(lp393
S''
asbasbasbag49
(g65
g51
NtRp394
(dp395
g54
(dp396
sg63
g264
sg56
(lp397
g49
(g70
g51
NtRp398
(dp399
g54
(dp400
g74
g75
ssg63
g394
sg56
(lp401
S'version'
p402
asbag49
(g70
g51
NtRp403
(dp404
g54
(dp405
g81
g82
ssg63
g394
sg56
(lp406
S':'
asbag49
(g70
g51
NtRp407
(dp408
g54
(dp409
sg63
g394
sg56
(lp410
g49
(g50
g51
NtRp411
(dp412
g54
(dp413
g62
I3
ssg63
g407
sg56
(lp414
S''
asbasbasbasbasbasbasbag49
(g65
g51
NtRp415
(dp416
g54
(dp417
sg63
g239
sg56
(lp418
g49
(g70
g51
NtRp419
(dp420
g54
(dp421
g74
g75
ssg63
g415
sg56
(lp422
S'registered'
p423
asbag49
(g70
g51
NtRp424
(dp425
g54
(dp426
g81
g82
ssg63
g415
sg56
(lp427
S':'
asbag49
(g70
g51
NtRp428
(dp429
g54
(dp430
sg63
g415
sg56
(lp431
g49
(g50
g51
NtRp432
(dp433
g54
(dp434
g62
I4
ssg63
g428
sg56
(lp435
g49
(g58
g51
NtRp436
(dp437
g54
(dp438
g62
I3
ssg63
Nsg56
(lp439
g49
(g65
g51
NtRp440
(dp441
g54
(dp442
sg63
g436
sg56
(lp443
g49
(g70
g51
NtRp444
(dp445
g54
(dp446
g74
g75
ssg63
g440
sg56
(lp447
g276
asbag49
(g70
g51
NtRp448
(dp449
g54
(dp450
g81
g82
ssg63
g440
sg56
(lp451
S':'
asbag49
(g70
g51
NtRp452
(dp453
g54
(dp454
sg63
g440
sg56
(lp455
g49
(g50
g51
NtRp456
(dp457
g54
(dp458
g62
I3
ssg63
g452
sg56
(lp459
S''
asbasbasbag49
(g65
g51
NtRp460
(dp461
g54
(dp462
sg63
g436
sg56
(lp463
g49
(g70
g51
NtRp464
(dp465
g54
(dp466
g74
g75
ssg63
g460
sg56
(lp467
g297
asbag49
(g70
g51
NtRp468
(dp469
g54
(dp470
g81
g82
ssg63
g460
sg56
(lp471
S':'
asbag49
(g70
g51
NtRp472
(dp473
g54
(dp474
sg63
g460
sg56
(lp475
g49
(g50
g51
NtRp476
(dp477
g54
(dp478
g62
I3
ssg63
g472
sg56
(lp479
S''
asbasbasbag49
(g65
g51
NtRp480
(dp481
g54
(dp482
sg63
g436
sg56
(lp483
g49
(g70
g51
NtRp484
(dp485
g54
(dp486
g74
g75
ssg63
g480
sg56
(lp487
g318
asbag49
(g70
g51
NtRp488
(dp489
g54
(dp490
g81
g82
ssg63
g480
sg56
(lp491
S':'
asbag49
(g70
g51
NtRp492
(dp493
g54
(dp494
sg63
g480
sg56
(lp495
g49
(g50
g51
NtRp496
(dp497
g54
(dp498
g62
I3
ssg63
g492
sg56
(lp499
S''
asbasbasbag49
(g65
g51
NtRp500
(dp501
g54
(dp502
sg63
g436
sg56
(lp503
g49
(g70
g51
NtRp504
(dp505
g54
(dp506
g74
g75
ssg63
g500
sg56
(lp507
g339
asbag49
(g70
g51
NtRp508
(dp509
g54
(dp510
g81
g82
ssg63
g500
sg56
(lp511
S':'
asbag49
(g70
g51
NtRp512
(dp513
g54
(dp514
sg63
g500
sg56
(lp515
g49
(g50
g51
NtRp516
(dp517
g54
(dp518
g62
I3
ssg63
g512
sg56
(lp519
S''
asbasbasbag49
(g65
g51
NtRp520
(dp521
g54
(dp522
sg63
g436
sg56
(lp523
g49
(g70
g51
NtRp524
(dp525
g54
(dp526
g74
g75
ssg63
g520
sg56
(lp527
g360
asbag49
(g70
g51
NtRp528
(dp529
g54
(dp530
g81
g82
ssg63
g520
sg56
(lp531
S':'
asbag49
(g70
g51
NtRp532
(dp533
g54
(dp534
sg63
g520
sg56
(lp535
g49
(g50
g51
NtRp536
(dp537
g54
(dp538
g62
I3
ssg63
g532
sg56
(lp539
S''
asbasbasbag49
(g65
g51
NtRp540
(dp541
g54
(dp542
sg63
g436
sg56
(lp543
g49
(g70
g51
NtRp544
(dp545
g54
(dp546
g74
g75
ssg63
g540
sg56
(lp547
g381
asbag49
(g70
g51
NtRp548
(dp549
g54
(dp550
g81
g82
ssg63
g540
sg56
(lp551
S':'
asbag49
(g70
g51
NtRp552
(dp553
g54
(dp554
sg63
g540
sg56
(lp555
g49
(g50
g51
NtRp556
(dp557
g54
(dp558
g62
I3
ssg63
g552
sg56
(lp559
S''
asbasbasbag49
(g65
g51
NtRp560
(dp561
g54
(dp562
sg63
g436
sg56
(lp563
g49
(g70
g51
NtRp564
(dp565
g54
(dp566
g74
g75
ssg63
g560
sg56
(lp567
g402
asbag49
(g70
g51
NtRp568
(dp569
g54
(dp570
g81
g82
ssg63
g560
sg56
(lp571
S':'
asbag49
(g70
g51
NtRp572
(dp573
g54
(dp574
sg63
g560
sg56
(lp575
g49
(g50
g51
NtRp576
(dp577
g54
(dp578
g62
I3
ssg63
g572
sg56
(lp579
S''
asbasbasbasbasbasbasbag49
(g65
g51
NtRp580
(dp581
g54
(dp582
sg63
g239
sg56
(lp583
g49
(g70
g51
NtRp584
(dp585
g54
(dp586
g74
g75
ssg63
g580
sg56
(lp587
S's_nr'
p588
asbag49
(g70
g51
NtRp589
(dp590
g54
(dp591
g81
g82
ssg63
g580
sg56
(lp592
S':'
asbag49
(g70
g51
NtRp593
(dp594
g54
(dp595
sg63
g580
sg56
(lp596
g49
(g50
g51
NtRp597
(dp598
g54
(dp599
g62
I4
ssg63
g593
sg56
(lp600
g49
(g58
g51
NtRp601
(dp602
g54
(dp603
g62
I3
ssg63
Nsg56
(lp604
g49
(g65
g51
NtRp605
(dp606
g54
(dp607
sg63
g601
sg56
(lp608
g49
(g70
g51
NtRp609
(dp610
g54
(dp611
g74
g75
ssg63
g605
sg56
(lp612
g276
asbag49
(g70
g51
NtRp613
(dp614
g54
(dp615
g81
g82
ssg63
g605
sg56
(lp616
S':'
asbag49
(g70
g51
NtRp617
(dp618
g54
(dp619
sg63
g605
sg56
(lp620
g49
(g50
g51
NtRp621
(dp622
g54
(dp623
g62
I3
ssg63
g617
sg56
(lp624
S''
asbasbasbag49
(g65
g51
NtRp625
(dp626
g54
(dp627
sg63
g601
sg56
(lp628
g49
(g70
g51
NtRp629
(dp630
g54
(dp631
g74
g75
ssg63
g625
sg56
(lp632
g297
asbag49
(g70
g51
NtRp633
(dp634
g54
(dp635
g81
g82
ssg63
g625
sg56
(lp636
S':'
asbag49
(g70
g51
NtRp637
(dp638
g54
(dp639
sg63
g625
sg56
(lp640
g49
(g50
g51
NtRp641
(dp642
g54
(dp643
g62
I3
ssg63
g637
sg56
(lp644
S''
asbasbasbag49
(g65
g51
NtRp645
(dp646
g54
(dp647
sg63
g601
sg56
(lp648
g49
(g70
g51
NtRp649
(dp650
g54
(dp651
g74
g75
ssg63
g645
sg56
(lp652
g318
asbag49
(g70
g51
NtRp653
(dp654
g54
(dp655
g81
g82
ssg63
g645
sg56
(lp656
S':'
asbag49
(g70
g51
NtRp657
(dp658
g54
(dp659
sg63
g645
sg56
(lp660
g49
(g50
g51
NtRp661
(dp662
g54
(dp663
g62
I3
ssg63
g657
sg56
(lp664
S''
asbasbasbag49
(g65
g51
NtRp665
(dp666
g54
(dp667
sg63
g601
sg56
(lp668
g49
(g70
g51
NtRp669
(dp670
g54
(dp671
g74
g75
ssg63
g665
sg56
(lp672
g339
asbag49
(g70
g51
NtRp673
(dp674
g54
(dp675
g81
g82
ssg63
g665
sg56
(lp676
S':'
asbag49
(g70
g51
NtRp677
(dp678
g54
(dp679
sg63
g665
sg56
(lp680
g49
(g50
g51
NtRp681
(dp682
g54
(dp683
g62
I3
ssg63
g677
sg56
(lp684
S''
asbasbasbag49
(g65
g51
NtRp685
(dp686
g54
(dp687
sg63
g601
sg56
(lp688
g49
(g70
g51
NtRp689
(dp690
g54
(dp691
g74
g75
ssg63
g685
sg56
(lp692
g360
asbag49
(g70
g51
NtRp693
(dp694
g54
(dp695
g81
g82
ssg63
g685
sg56
(lp696
S':'
asbag49
(g70
g51
NtRp697
(dp698
g54
(dp699
sg63
g685
sg56
(lp700
g49
(g50
g51
NtRp701
(dp702
g54
(dp703
g62
I3
ssg63
g697
sg56
(lp704
S''
asbasbasbag49
(g65
g51
NtRp705
(dp706
g54
(dp707
sg63
g601
sg56
(lp708
g49
(g70
g51
NtRp709
(dp710
g54
(dp711
g74
g75
ssg63
g705
sg56
(lp712
g381
asbag49
(g70
g51
NtRp713
(dp714
g54
(dp715
g81
g82
ssg63
g705
sg56
(lp716
S':'
asbag49
(g70
g51
NtRp717
(dp718
g54
(dp719
sg63
g705
sg56
(lp720
g49
(g50
g51
NtRp721
(dp722
g54
(dp723
g62
I3
ssg63
g717
sg56
(lp724
S''
asbasbasbag49
(g65
g51
NtRp725
(dp726
g54
(dp727
sg63
g601
sg56
(lp728
g49
(g70
g51
NtRp729
(dp730
g54
(dp731
g74
g75
ssg63
g725
sg56
(lp732
g402
asbag49
(g70
g51
NtRp733
(dp734
g54
(dp735
g81
g82
ssg63
g725
sg56
(lp736
S':'
asbag49
(g70
g51
NtRp737
(dp738
g54
(dp739
sg63
g725
sg56
(lp740
g49
(g50
g51
NtRp741
(dp742
g54
(dp743
g62
I3
ssg63
g737
sg56
(lp744
S''
asbasbasbasbasbasbasbag49
(g65
g51
NtRp745
(dp746
g54
(dp747
sg63
g239
sg56
(lp748
g49
(g70
g51
NtRp749
(dp750
g54
(dp751
g74
g75
ssg63
g745
sg56
(lp752
S'session_id_admin'
p753
asbag49
(g70
g51
NtRp754
(dp755
g54
(dp756
g81
g82
ssg63
g745
sg56
(lp757
S':'
asbag49
(g70
g51
NtRp758
(dp759
g54
(dp760
sg63
g745
sg56
(lp761
g49
(g50
g51
NtRp762
(dp763
g54
(dp764
g62
I4
ssg63
g758
sg56
(lp765
g49
(g58
g51
NtRp766
(dp767
g54
(dp768
g62
I3
ssg63
Nsg56
(lp769
g49
(g65
g51
NtRp770
(dp771
g54
(dp772
sg63
g766
sg56
(lp773
g49
(g70
g51
NtRp774
(dp775
g54
(dp776
g74
g75
ssg63
g770
sg56
(lp777
g276
asbag49
(g70
g51
NtRp778
(dp779
g54
(dp780
g81
g82
ssg63
g770
sg56
(lp781
S':'
asbag49
(g70
g51
NtRp782
(dp783
g54
(dp784
sg63
g770
sg56
(lp785
g49
(g50
g51
NtRp786
(dp787
g54
(dp788
g62
I3
ssg63
g782
sg56
(lp789
S''
asbasbasbag49
(g65
g51
NtRp790
(dp791
g54
(dp792
sg63
g766
sg56
(lp793
g49
(g70
g51
NtRp794
(dp795
g54
(dp796
g74
g75
ssg63
g790
sg56
(lp797
g297
asbag49
(g70
g51
NtRp798
(dp799
g54
(dp800
g81
g82
ssg63
g790
sg56
(lp801
S':'
asbag49
(g70
g51
NtRp802
(dp803
g54
(dp804
sg63
g790
sg56
(lp805
g49
(g50
g51
NtRp806
(dp807
g54
(dp808
g62
I3
ssg63
g802
sg56
(lp809
S''
asbasbasbag49
(g65
g51
NtRp810
(dp811
g54
(dp812
sg63
g766
sg56
(lp813
g49
(g70
g51
NtRp814
(dp815
g54
(dp816
g74
g75
ssg63
g810
sg56
(lp817
g318
asbag49
(g70
g51
NtRp818
(dp819
g54
(dp820
g81
g82
ssg63
g810
sg56
(lp821
S':'
asbag49
(g70
g51
NtRp822
(dp823
g54
(dp824
sg63
g810
sg56
(lp825
g49
(g50
g51
NtRp826
(dp827
g54
(dp828
g62
I3
ssg63
g822
sg56
(lp829
S''
asbasbasbag49
(g65
g51
NtRp830
(dp831
g54
(dp832
sg63
g766
sg56
(lp833
g49
(g70
g51
NtRp834
(dp835
g54
(dp836
g74
g75
ssg63
g830
sg56
(lp837
g339
asbag49
(g70
g51
NtRp838
(dp839
g54
(dp840
g81
g82
ssg63
g830
sg56
(lp841
S':'
asbag49
(g70
g51
NtRp842
(dp843
g54
(dp844
sg63
g830
sg56
(lp845
g49
(g50
g51
NtRp846
(dp847
g54
(dp848
g62
I3
ssg63
g842
sg56
(lp849
S''
asbasbasbag49
(g65
g51
NtRp850
(dp851
g54
(dp852
sg63
g766
sg56
(lp853
g49
(g70
g51
NtRp854
(dp855
g54
(dp856
g74
g75
ssg63
g850
sg56
(lp857
g360
asbag49
(g70
g51
NtRp858
(dp859
g54
(dp860
g81
g82
ssg63
g850
sg56
(lp861
S':'
asbag49
(g70
g51
NtRp862
(dp863
g54
(dp864
sg63
g850
sg56
(lp865
g49
(g50
g51
NtRp866
(dp867
g54
(dp868
g62
I3
ssg63
g862
sg56
(lp869
S''
asbasbasbag49
(g65
g51
NtRp870
(dp871
g54
(dp872
sg63
g766
sg56
(lp873
g49
(g70
g51
NtRp874
(dp875
g54
(dp876
g74
g75
ssg63
g870
sg56
(lp877
g381
asbag49
(g70
g51
NtRp878
(dp879
g54
(dp880
g81
g82
ssg63
g870
sg56
(lp881
S':'
asbag49
(g70
g51
NtRp882
(dp883
g54
(dp884
sg63
g870
sg56
(lp885
g49
(g50
g51
NtRp886
(dp887
g54
(dp888
g62
I3
ssg63
g882
sg56
(lp889
S''
asbasbasbag49
(g65
g51
NtRp890
(dp891
g54
(dp892
sg63
g766
sg56
(lp893
g49
(g70
g51
NtRp894
(dp895
g54
(dp896
g74
g75
ssg63
g890
sg56
(lp897
g402
asbag49
(g70
g51
NtRp898
(dp899
g54
(dp900
g81
g82
ssg63
g890
sg56
(lp901
S':'
asbag49
(g70
g51
NtRp902
(dp903
g54
(dp904
sg63
g890
sg56
(lp905
g49
(g50
g51
NtRp906
(dp907
g54
(dp908
g62
I3
ssg63
g902
sg56
(lp909
S''
asbasbasbasbasbasbasbag49
(g65
g51
NtRp910
(dp911
g54
(dp912
sg63
g239
sg56
(lp913
g49
(g70
g51
NtRp914
(dp915
g54
(dp916
g74
g75
ssg63
g910
sg56
(lp917
S'session_id_cms'
p918
asbag49
(g70
g51
NtRp919
(dp920
g54
(dp921
g81
g82
ssg63
g910
sg56
(lp922
S':'
asbag49
(g70
g51
NtRp923
(dp924
g54
(dp925
sg63
g910
sg56
(lp926
g49
(g50
g51
NtRp927
(dp928
g54
(dp929
g62
I4
ssg63
g923
sg56
(lp930
g49
(g58
g51
NtRp931
(dp932
g54
(dp933
g62
I3
ssg63
Nsg56
(lp934
g49
(g65
g51
NtRp935
(dp936
g54
(dp937
sg63
g931
sg56
(lp938
g49
(g70
g51
NtRp939
(dp940
g54
(dp941
g74
g75
ssg63
g935
sg56
(lp942
g276
asbag49
(g70
g51
NtRp943
(dp944
g54
(dp945
g81
g82
ssg63
g935
sg56
(lp946
S':'
asbag49
(g70
g51
NtRp947
(dp948
g54
(dp949
sg63
g935
sg56
(lp950
g49
(g50
g51
NtRp951
(dp952
g54
(dp953
g62
I3
ssg63
g947
sg56
(lp954
S''
asbasbasbag49
(g65
g51
NtRp955
(dp956
g54
(dp957
sg63
g931
sg56
(lp958
g49
(g70
g51
NtRp959
(dp960
g54
(dp961
g74
g75
ssg63
g955
sg56
(lp962
g297
asbag49
(g70
g51
NtRp963
(dp964
g54
(dp965
g81
g82
ssg63
g955
sg56
(lp966
S':'
asbag49
(g70
g51
NtRp967
(dp968
g54
(dp969
sg63
g955
sg56
(lp970
g49
(g50
g51
NtRp971
(dp972
g54
(dp973
g62
I3
ssg63
g967
sg56
(lp974
S''
asbasbasbag49
(g65
g51
NtRp975
(dp976
g54
(dp977
sg63
g931
sg56
(lp978
g49
(g70
g51
NtRp979
(dp980
g54
(dp981
g74
g75
ssg63
g975
sg56
(lp982
g318
asbag49
(g70
g51
NtRp983
(dp984
g54
(dp985
g81
g82
ssg63
g975
sg56
(lp986
S':'
asbag49
(g70
g51
NtRp987
(dp988
g54
(dp989
sg63
g975
sg56
(lp990
g49
(g50
g51
NtRp991
(dp992
g54
(dp993
g62
I3
ssg63
g987
sg56
(lp994
S''
asbasbasbag49
(g65
g51
NtRp995
(dp996
g54
(dp997
sg63
g931
sg56
(lp998
g49
(g70
g51
NtRp999
(dp1000
g54
(dp1001
g74
g75
ssg63
g995
sg56
(lp1002
g339
asbag49
(g70
g51
NtRp1003
(dp1004
g54
(dp1005
g81
g82
ssg63
g995
sg56
(lp1006
S':'
asbag49
(g70
g51
NtRp1007
(dp1008
g54
(dp1009
sg63
g995
sg56
(lp1010
g49
(g50
g51
NtRp1011
(dp1012
g54
(dp1013
g62
I3
ssg63
g1007
sg56
(lp1014
S''
asbasbasbag49
(g65
g51
NtRp1015
(dp1016
g54
(dp1017
sg63
g931
sg56
(lp1018
g49
(g70
g51
NtRp1019
(dp1020
g54
(dp1021
g74
g75
ssg63
g1015
sg56
(lp1022
g360
asbag49
(g70
g51
NtRp1023
(dp1024
g54
(dp1025
g81
g82
ssg63
g1015
sg56
(lp1026
S':'
asbag49
(g70
g51
NtRp1027
(dp1028
g54
(dp1029
sg63
g1015
sg56
(lp1030
g49
(g50
g51
NtRp1031
(dp1032
g54
(dp1033
g62
I3
ssg63
g1027
sg56
(lp1034
S''
asbasbasbag49
(g65
g51
NtRp1035
(dp1036
g54
(dp1037
sg63
g931
sg56
(lp1038
g49
(g70
g51
NtRp1039
(dp1040
g54
(dp1041
g74
g75
ssg63
g1035
sg56
(lp1042
g381
asbag49
(g70
g51
NtRp1043
(dp1044
g54
(dp1045
g81
g82
ssg63
g1035
sg56
(lp1046
S':'
asbag49
(g70
g51
NtRp1047
(dp1048
g54
(dp1049
sg63
g1035
sg56
(lp1050
g49
(g50
g51
NtRp1051
(dp1052
g54
(dp1053
g62
I3
ssg63
g1047
sg56
(lp1054
S''
asbasbasbag49
(g65
g51
NtRp1055
(dp1056
g54
(dp1057
sg63
g931
sg56
(lp1058
g49
(g70
g51
NtRp1059
(dp1060
g54
(dp1061
g74
g75
ssg63
g1055
sg56
(lp1062
g402
asbag49
(g70
g51
NtRp1063
(dp1064
g54
(dp1065
g81
g82
ssg63
g1055
sg56
(lp1066
S':'
asbag49
(g70
g51
NtRp1067
(dp1068
g54
(dp1069
sg63
g1055
sg56
(lp1070
g49
(g50
g51
NtRp1071
(dp1072
g54
(dp1073
g62
I3
ssg63
g1067
sg56
(lp1074
S''
asbasbasbasbasbasbasbag49
(g65
g51
NtRp1075
(dp1076
g54
(dp1077
sg63
g239
sg56
(lp1078
g49
(g70
g51
NtRp1079
(dp1080
g54
(dp1081
g74
g75
ssg63
g1075
sg56
(lp1082
S'session_id_inplace'
p1083
asbag49
(g70
g51
NtRp1084
(dp1085
g54
(dp1086
g81
g82
ssg63
g1075
sg56
(lp1087
S':'
asbag49
(g70
g51
NtRp1088
(dp1089
g54
(dp1090
sg63
g1075
sg56
(lp1091
g49
(g50
g51
NtRp1092
(dp1093
g54
(dp1094
g62
I4
ssg63
g1088
sg56
(lp1095
g49
(g58
g51
NtRp1096
(dp1097
g54
(dp1098
g62
I3
ssg63
Nsg56
(lp1099
g49
(g65
g51
NtRp1100
(dp1101
g54
(dp1102
sg63
g1096
sg56
(lp1103
g49
(g70
g51
NtRp1104
(dp1105
g54
(dp1106
g74
g75
ssg63
g1100
sg56
(lp1107
g276
asbag49
(g70
g51
NtRp1108
(dp1109
g54
(dp1110
g81
g82
ssg63
g1100
sg56
(lp1111
S':'
asbag49
(g70
g51
NtRp1112
(dp1113
g54
(dp1114
sg63
g1100
sg56
(lp1115
g49
(g50
g51
NtRp1116
(dp1117
g54
(dp1118
g62
I3
ssg63
g1112
sg56
(lp1119
S''
asbasbasbag49
(g65
g51
NtRp1120
(dp1121
g54
(dp1122
sg63
g1096
sg56
(lp1123
g49
(g70
g51
NtRp1124
(dp1125
g54
(dp1126
g74
g75
ssg63
g1120
sg56
(lp1127
g297
asbag49
(g70
g51
NtRp1128
(dp1129
g54
(dp1130
g81
g82
ssg63
g1120
sg56
(lp1131
S':'
asbag49
(g70
g51
NtRp1132
(dp1133
g54
(dp1134
sg63
g1120
sg56
(lp1135
g49
(g50
g51
NtRp1136
(dp1137
g54
(dp1138
g62
I3
ssg63
g1132
sg56
(lp1139
S''
asbasbasbag49
(g65
g51
NtRp1140
(dp1141
g54
(dp1142
sg63
g1096
sg56
(lp1143
g49
(g70
g51
NtRp1144
(dp1145
g54
(dp1146
g74
g75
ssg63
g1140
sg56
(lp1147
g318
asbag49
(g70
g51
NtRp1148
(dp1149
g54
(dp1150
g81
g82
ssg63
g1140
sg56
(lp1151
S':'
asbag49
(g70
g51
NtRp1152
(dp1153
g54
(dp1154
sg63
g1140
sg56
(lp1155
g49
(g50
g51
NtRp1156
(dp1157
g54
(dp1158
g62
I3
ssg63
g1152
sg56
(lp1159
S''
asbasbasbag49
(g65
g51
NtRp1160
(dp1161
g54
(dp1162
sg63
g1096
sg56
(lp1163
g49
(g70
g51
NtRp1164
(dp1165
g54
(dp1166
g74
g75
ssg63
g1160
sg56
(lp1167
g339
asbag49
(g70
g51
NtRp1168
(dp1169
g54
(dp1170
g81
g82
ssg63
g1160
sg56
(lp1171
S':'
asbag49
(g70
g51
NtRp1172
(dp1173
g54
(dp1174
sg63
g1160
sg56
(lp1175
g49
(g50
g51
NtRp1176
(dp1177
g54
(dp1178
g62
I3
ssg63
g1172
sg56
(lp1179
S''
asbasbasbag49
(g65
g51
NtRp1180
(dp1181
g54
(dp1182
sg63
g1096
sg56
(lp1183
g49
(g70
g51
NtRp1184
(dp1185
g54
(dp1186
g74
g75
ssg63
g1180
sg56
(lp1187
g360
asbag49
(g70
g51
NtRp1188
(dp1189
g54
(dp1190
g81
g82
ssg63
g1180
sg56
(lp1191
S':'
asbag49
(g70
g51
NtRp1192
(dp1193
g54
(dp1194
sg63
g1180
sg56
(lp1195
g49
(g50
g51
NtRp1196
(dp1197
g54
(dp1198
g62
I3
ssg63
g1192
sg56
(lp1199
S''
asbasbasbag49
(g65
g51
NtRp1200
(dp1201
g54
(dp1202
sg63
g1096
sg56
(lp1203
g49
(g70
g51
NtRp1204
(dp1205
g54
(dp1206
g74
g75
ssg63
g1200
sg56
(lp1207
g381
asbag49
(g70
g51
NtRp1208
(dp1209
g54
(dp1210
g81
g82
ssg63
g1200
sg56
(lp1211
S':'
asbag49
(g70
g51
NtRp1212
(dp1213
g54
(dp1214
sg63
g1200
sg56
(lp1215
g49
(g50
g51
NtRp1216
(dp1217
g54
(dp1218
g62
I3
ssg63
g1212
sg56
(lp1219
S''
asbasbasbag49
(g65
g51
NtRp1220
(dp1221
g54
(dp1222
sg63
g1096
sg56
(lp1223
g49
(g70
g51
NtRp1224
(dp1225
g54
(dp1226
g74
g75
ssg63
g1220
sg56
(lp1227
g402
asbag49
(g70
g51
NtRp1228
(dp1229
g54
(dp1230
g81
g82
ssg63
g1220
sg56
(lp1231
S':'
asbag49
(g70
g51
NtRp1232
(dp1233
g54
(dp1234
sg63
g1220
sg56
(lp1235
g49
(g50
g51
NtRp1236
(dp1237
g54
(dp1238
g62
I3
ssg63
g1232
sg56
(lp1239
S''
asbasbasbasbasbasbasbasbasbasbasbag49
(g65
g51
NtRp1240
(dp1241
g54
(dp1242
sg63
g59
sg56
(lp1243
g49
(g70
g51
NtRp1244
(dp1245
g54
(dp1246
g74
g75
ssg63
g1240
sg56
(lp1247
S'env'
p1248
asbag49
(g70
g51
NtRp1249
(dp1250
g54
(dp1251
g81
g82
ssg63
g1240
sg56
(lp1252
S':'
asbag49
(g70
g51
NtRp1253
(dp1254
g54
(dp1255
sg63
g1240
sg56
(lp1256
g49
(g50
g51
NtRp1257
(dp1258
g54
(dp1259
g62
I5
ssg63
g1253
sg56
(lp1260
g49
(g58
g51
NtRp1261
(dp1262
g54
(dp1263
g62
I4
ssg63
Nsg56
(lp1264
g49
(g65
g51
NtRp1265
(dp1266
g54
(dp1267
sg63
g1261
sg56
(lp1268
g49
(g70
g51
NtRp1269
(dp1270
g54
(dp1271
g74
g75
ssg63
g1265
sg56
(lp1272
S'app_folders'
p1273
asbag49
(g70
g51
NtRp1274
(dp1275
g54
(dp1276
g81
g82
ssg63
g1265
sg56
(lp1277
S':'
asbag49
(g70
g51
NtRp1278
(dp1279
g54
(dp1280
sg63
g1265
sg56
(lp1281
g49
(g50
g51
NtRp1282
(dp1283
g54
(dp1284
g62
I4
ssg63
g1278
sg56
(lp1285
S"set(['/Users/mdipierro/Dropbox/web2py/applications/inplace/', '/Users/mdipierro/Dropbox/web2py/applications/cms/', '/Users/mdipierro/Dropbox/web2py/applications/admin/'])"
p1286
asbasbasbag49
(g65
g51
NtRp1287
(dp1288
g54
(dp1289
sg63
g1261
sg56
(lp1290
g49
(g70
g51
NtRp1291
(dp1292
g54
(dp1293
g74
g75
ssg63
g1287
sg56
(lp1294
S'applications_parent'
p1295
asbag49
(g70
g51
NtRp1296
(dp1297
g54
(dp1298
g81
g82
ssg63
g1287
sg56
(lp1299
S':'
asbag49
(g70
g51
NtRp1300
(dp1301
g54
(dp1302
sg63
g1287
sg56
(lp1303
g49
(g50
g51
NtRp1304
(dp1305
g54
(dp1306
g62
I4
ssg63
g1300
sg56
(lp1307
S'/Users/mdipierro/Dropbox/web2py'
p1308
asbasbasbag49
(g65
g51
NtRp1309
(dp1310
g54
(dp1311
sg63
g1261
sg56
(lp1312
g49
(g70
g51
NtRp1313
(dp1314
g54
(dp1315
g74
g75
ssg63
g1309
sg56
(lp1316
S'cmd_args'
p1317
asbag49
(g70
g51
NtRp1318
(dp1319
g54
(dp1320
g81
g82
ssg63
g1309
sg56
(lp1321
S':'
asbag49
(g70
g51
NtRp1322
(dp1323
g54
(dp1324
sg63
g1309
sg56
(lp1325
g49
(g50
g51
NtRp1326
(dp1327
g54
(dp1328
g62
I4
ssg63
g1322
sg56
(lp1329
g49
(g58
g51
NtRp1330
(dp1331
g54
(dp1332
g62
I3
ssg63
Nsg56
(lp1333
sbasbasbasbag49
(g65
g51
NtRp1334
(dp1335
g54
(dp1336
sg63
g1261
sg56
(lp1337
g49
(g70
g51
NtRp1338
(dp1339
g54
(dp1340
g74
g75
ssg63
g1334
sg56
(lp1341
S'cmd_options'
p1342
asbag49
(g70
g51
NtRp1343
(dp1344
g54
(dp1345
g81
g82
ssg63
g1334
sg56
(lp1346
S':'
asbag49
(g70
g51
NtRp1347
(dp1348
g54
(dp1349
sg63
g1334
sg56
(lp1350
g49
(g50
g51
NtRp1351
(dp1352
g54
(dp1353
g62
I4
ssg63
g1347
sg56
(lp1354
S"<Values at 0x153a378: {'verbose': False, 'ip': '127.0.0.1', 'shutdown_timeout': 5, 'taskbar': False, 'nocron': False, 'pid_filename': 'httpserver.pid', 'maxthreads': None, 'softcron': False, 'server_name': 'massimo-di-pierros-macbook-2.local', 'bpython': False, 'nogui': False, 'port': 8000, 'extcron': False, 'debuglevel': 30, 'test': None, 'folder': '/Users/mdipierro/Dropbox/web2py', 'config': '', 'import_models': False, 'winservice': '', 'shell': None, 'run': '', 'log_filename': 'httpserver.log', 'args': [''], 'socket_timeout': 1, 'ssl_ca_certificate': None, 'scheduler': None, 'profiler_filename': None, 'ssl_private_key': '', 'password': 'hello', 'request_queue_size': 5, 'ssl_certificate': '', 'cronjob': False, 'numthreads': None, 'quiet': False, 'interfaces': None, 'minthreads': None, 'timeout': 10, 'plain': False, 'nobanner': False}>"
p1355
asbasbasbag49
(g65
g51
NtRp1356
(dp1357
g54
(dp1358
sg63
g1261
sg56
(lp1359
g49
(g70
g51
NtRp1360
(dp1361
g54
(dp1362
g74
g75
ssg63
g1356
sg56
(lp1363
S'db_sessions'
p1364
asbag49
(g70
g51
NtRp1365
(dp1366
g54
(dp1367
g81
g82
ssg63
g1356
sg56
(lp1368
S':'
asbag49
(g70
g51
NtRp1369
(dp1370
g54
(dp1371
sg63
g1356
sg56
(lp1372
g49
(g50
g51
NtRp1373
(dp1374
g54
(dp1375
g62
I4
ssg63
g1369
sg56
(lp1376
S'set([])'
p1377
asbasbasbag49
(g65
g51
NtRp1378
(dp1379
g54
(dp1380
sg63
g1261
sg56
(lp1381
g49
(g70
g51
NtRp1382
(dp1383
g54
(dp1384
g74
g75
ssg63
g1378
sg56
(lp1385
S'debugging'
p1386
asbag49
(g70
g51
NtRp1387
(dp1388
g54
(dp1389
g81
g82
ssg63
g1378
sg56
(lp1390
S':'
asbag49
(g70
g51
NtRp1391
(dp1392
g54
(dp1393
sg63
g1378
sg56
(lp1394
g49
(g50
g51
NtRp1395
(dp1396
g54
(dp1397
g62
I4
ssg63
g1391
sg56
(lp1398
g92
asbasbasbag49
(g65
g51
NtRp1399
(dp1400
g54
(dp1401
sg63
g1261
sg56
(lp1402
g49
(g70
g51
NtRp1403
(dp1404
g54
(dp1405
g74
g75
ssg63
g1399
sg56
(lp1406
S'gluon_parent'
p1407
asbag49
(g70
g51
NtRp1408
(dp1409
g54
(dp1410
g81
g82
ssg63
g1399
sg56
(lp1411
S':'
asbag49
(g70
g51
NtRp1412
(dp1413
g54
(dp1414
sg63
g1399
sg56
(lp1415
g49
(g50
g51
NtRp1416
(dp1417
g54
(dp1418
g62
I4
ssg63
g1412
sg56
(lp1419
S'/Users/mdipierro/Dropbox/web2py'
p1420
asbasbasbag49
(g65
g51
NtRp1421
(dp1422
g54
(dp1423
sg63
g1261
sg56
(lp1424
g49
(g70
g51
NtRp1425
(dp1426
g54
(dp1427
g74
g75
ssg63
g1421
sg56
(lp1428
S'http_accept'
p1429
asbag49
(g70
g51
NtRp1430
(dp1431
g54
(dp1432
g81
g82
ssg63
g1421
sg56
(lp1433
S':'
asbag49
(g70
g51
NtRp1434
(dp1435
g54
(dp1436
sg63
g1421
sg56
(lp1437
g49
(g50
g51
NtRp1438
(dp1439
g54
(dp1440
g62
I4
ssg63
g1434
sg56
(lp1441
S'text/html,application/xhtml+xml,application/xml;q=0.9,*/*;q=0.8'
p1442
asbasbasbag49
(g65
g51
NtRp1443
(dp1444
g54
(dp1445
sg63
g1261
sg56
(lp1446
g49
(g70
g51
NtRp1447
(dp1448
g54
(dp1449
g74
g75
ssg63
g1443
sg56
(lp1450
S'http_accept_charset'
p1451
asbag49
(g70
g51
NtRp1452
(dp1453
g54
(dp1454
g81
g82
ssg63
g1443
sg56
(lp1455
S':'
asbag49
(g70
g51
NtRp1456
(dp1457
g54
(dp1458
sg63
g1443
sg56
(lp1459
g49
(g50
g51
NtRp1460
(dp1461
g54
(dp1462
g62
I4
ssg63
g1456
sg56
(lp1463
S'ISO-8859-1,utf-8;q=0.7,*;q=0.3'
p1464
asbasbasbag49
(g65
g51
NtRp1465
(dp1466
g54
(dp1467
sg63
g1261
sg56
(lp1468
g49
(g70
g51
NtRp1469
(dp1470
g54
(dp1471
g74
g75
ssg63
g1465
sg56
(lp1472
S'http_accept_encoding'
p1473
asbag49
(g70
g51
NtRp1474
(dp1475
g54
(dp1476
g81
g82
ssg63
g1465
sg56
(lp1477
S':'
asbag49
(g70
g51
NtRp1478
(dp1479
g54
(dp1480
sg63
g1465
sg56
(lp1481
g49
(g50
g51
NtRp1482
(dp1483
g54
(dp1484
g62
I4
ssg63
g1478
sg56
(lp1485
S'gzip,deflate,sdch'
p1486
asbasbasbag49
(g65
g51
NtRp1487
(dp1488
g54
(dp1489
sg63
g1261
sg56
(lp1490
g49
(g70
g51
NtRp1491
(dp1492
g54
(dp1493
g74
g75
ssg63
g1487
sg56
(lp1494
S'http_accept_language'
p1495
asbag49
(g70
g51
NtRp1496
(dp1497
g54
(dp1498
g81
g82
ssg63
g1487
sg56
(lp1499
S':'
asbag49
(g70
g51
NtRp1500
(dp1501
g54
(dp1502
sg63
g1487
sg56
(lp1503
g49
(g50
g51
NtRp1504
(dp1505
g54
(dp1506
g62
I4
ssg63
g1500
sg56
(lp1507
S'en,en-US;q=0.8,de-DE;q=0.6,de;q=0.4,it-IT;q=0.2,it;q=0.2,ja;q=0.2'
p1508
asbasbasbag49
(g65
g51
NtRp1509
(dp1510
g54
(dp1511
sg63
g1261
sg56
(lp1512
g49
(g70
g51
NtRp1513
(dp1514
g54
(dp1515
g74
g75
ssg63
g1509
sg56
(lp1516
S'http_cache_control'
p1517
asbag49
(g70
g51
NtRp1518
(dp1519
g54
(dp1520
g81
g82
ssg63
g1509
sg56
(lp1521
S':'
asbag49
(g70
g51
NtRp1522
(dp1523
g54
(dp1524
sg63
g1509
sg56
(lp1525
g49
(g50
g51
NtRp1526
(dp1527
g54
(dp1528
g62
I4
ssg63
g1522
sg56
(lp1529
S'max-age=0'
p1530
asbasbasbag49
(g65
g51
NtRp1531
(dp1532
g54
(dp1533
sg63
g1261
sg56
(lp1534
g49
(g70
g51
NtRp1535
(dp1536
g54
(dp1537
g74
g75
ssg63
g1531
sg56
(lp1538
S'http_connection'
p1539
asbag49
(g70
g51
NtRp1540
(dp1541
g54
(dp1542
g81
g82
ssg63
g1531
sg56
(lp1543
S':'
asbag49
(g70
g51
NtRp1544
(dp1545
g54
(dp1546
sg63
g1531
sg56
(lp1547
g49
(g50
g51
NtRp1548
(dp1549
g54
(dp1550
g62
I4
ssg63
g1544
sg56
(lp1551
S'keep-alive'
p1552
asbasbasbag49
(g65
g51
NtRp1553
(dp1554
g54
(dp1555
sg63
g1261
sg56
(lp1556
g49
(g70
g51
NtRp1557
(dp1558
g54
(dp1559
g74
g75
ssg63
g1553
sg56
(lp1560
S'http_cookie'
p1561
asbag49
(g70
g51
NtRp1562
(dp1563
g54
(dp1564
g81
g82
ssg63
g1553
sg56
(lp1565
S':'
asbag49
(g70
g51
NtRp1566
(dp1567
g54
(dp1568
sg63
g1553
sg56
(lp1569
g49
(g50
g51
NtRp1570
(dp1571
g54
(dp1572
g62
I4
ssg63
g1566
sg56
(lp1573
S'registered=yes; __utma_a2a=1369166446.1335515545.1303958619.1316700181.1318215879.74; el-finder-last-finder=4f5a448a961f1931173928a6b6d9d4d2; s_nr=1323495907438-New; session_id_cms=127.0.0.1-f4c1e56e-4f4d-4936-aaf7-92fdd3a97f53; __utma=96992031.1452952453.1313221394.1323495073.1323500519.4; __utmb=96992031.1.10.1323500519; __utmc=96992031; __utmz=96992031.1313221394.1.1.utmcsr=(direct)|utmccn=(direct)|utmcmd=(none); session_id_admin=127.0.0.1-d7df2493-be50-44c2-bc1d-74581b0ed26d; session_id_inplace=127.0.0.1-b67af904-b8cf-469d-95b3-18285a004db1'
p1574
asbasbasbag49
(g65
g51
NtRp1575
(dp1576
g54
(dp1577
sg63
g1261
sg56
(lp1578
g49
(g70
g51
NtRp1579
(dp1580
g54
(dp1581
g74
g75
ssg63
g1575
sg56
(lp1582
S'http_host'
p1583
asbag49
(g70
g51
NtRp1584
(dp1585
g54
(dp1586
g81
g82
ssg63
g1575
sg56
(lp1587
S':'
asbag49
(g70
g51
NtRp1588
(dp1589
g54
(dp1590
sg63
g1575
sg56
(lp1591
g49
(g50
g51
NtRp1592
(dp1593
g54
(dp1594
g62
I4
ssg63
g1588
sg56
(lp1595
S'127.0.0.1:8000'
p1596
asbasbasbag49
(g65
g51
NtRp1597
(dp1598
g54
(dp1599
sg63
g1261
sg56
(lp1600
g49
(g70
g51
NtRp1601
(dp1602
g54
(dp1603
g74
g75
ssg63
g1597
sg56
(lp1604
S'http_user_agent'
p1605
asbag49
(g70
g51
NtRp1606
(dp1607
g54
(dp1608
g81
g82
ssg63
g1597
sg56
(lp1609
S':'
asbag49
(g70
g51
NtRp1610
(dp1611
g54
(dp1612
sg63
g1597
sg56
(lp1613
g49
(g50
g51
NtRp1614
(dp1615
g54
(dp1616
g62
I4
ssg63
g1610
sg56
(lp1617
S'Mozilla/5.0 (Macintosh; Intel Mac OS X 10_6_8) AppleWebKit/535.7 (KHTML, like Gecko) Chrome/16.0.912.63 Safari/535.7'
p1618
asbasbasbag49
(g65
g51
NtRp1619
(dp1620
g54
(dp1621
sg63
g1261
sg56
(lp1622
g49
(g70
g51
NtRp1623
(dp1624
g54
(dp1625
g74
g75
ssg63
g1619
sg56
(lp1626
S'is_jython'
p1627
asbag49
(g70
g51
NtRp1628
(dp1629
g54
(dp1630
g81
g82
ssg63
g1619
sg56
(lp1631
S':'
asbag49
(g70
g51
NtRp1632
(dp1633
g54
(dp1634
sg63
g1619
sg56
(lp1635
g49
(g50
g51
NtRp1636
(dp1637
g54
(dp1638
g62
I4
ssg63
g1632
sg56
(lp1639
g92
asbasbasbag49
(g65
g51
NtRp1640
(dp1641
g54
(dp1642
sg63
g1261
sg56
(lp1643
g49
(g70
g51
NtRp1644
(dp1645
g54
(dp1646
g74
g75
ssg63
g1640
sg56
(lp1647
S'is_pypy'
p1648
asbag49
(g70
g51
NtRp1649
(dp1650
g54
(dp1651
g81
g82
ssg63
g1640
sg56
(lp1652
S':'
asbag49
(g70
g51
NtRp1653
(dp1654
g54
(dp1655
sg63
g1640
sg56
(lp1656
g49
(g50
g51
NtRp1657
(dp1658
g54
(dp1659
g62
I4
ssg63
g1653
sg56
(lp1660
g92
asbasbasbag49
(g65
g51
NtRp1661
(dp1662
g54
(dp1663
sg63
g1261
sg56
(lp1664
g49
(g70
g51
NtRp1665
(dp1666
g54
(dp1667
g74
g75
ssg63
g1661
sg56
(lp1668
S'path_info'
p1669
asbag49
(g70
g51
NtRp1670
(dp1671
g54
(dp1672
g81
g82
ssg63
g1661
sg56
(lp1673
S':'
asbag49
(g70
g51
NtRp1674
(dp1675
g54
(dp1676
sg63
g1661
sg56
(lp1677
g49
(g50
g51
NtRp1678
(dp1679
g54
(dp1680
g62
I4
ssg63
g1674
sg56
(lp1681
S'/inplace/default/clone/page'
p1682
asbasbasbag49
(g65
g51
NtRp1683
(dp1684
g54
(dp1685
sg63
g1261
sg56
(lp1686
g49
(g70
g51
NtRp1687
(dp1688
g54
(dp1689
g74
g75
ssg63
g1683
sg56
(lp1690
S'query_string'
p1691
asbag49
(g70
g51
NtRp1692
(dp1693
g54
(dp1694
g81
g82
ssg63
g1683
sg56
(lp1695
S':'
asbag49
(g70
g51
NtRp1696
(dp1697
g54
(dp1698
sg63
g1683
sg56
(lp1699
g49
(g50
g51
NtRp1700
(dp1701
g54
(dp1702
g62
I4
ssg63
g1696
sg56
(lp1703
S''
asbasbasbag49
(g65
g51
NtRp1704
(dp1705
g54
(dp1706
sg63
g1261
sg56
(lp1707
g49
(g70
g51
NtRp1708
(dp1709
g54
(dp1710
g74
g75
ssg63
g1704
sg56
(lp1711
S'remote_addr'
p1712
asbag49
(g70
g51
NtRp1713
(dp1714
g54
(dp1715
g81
g82
ssg63
g1704
sg56
(lp1716
S':'
asbag49
(g70
g51
NtRp1717
(dp1718
g54
(dp1719
sg63
g1704
sg56
(lp1720
g49
(g50
g51
NtRp1721
(dp1722
g54
(dp1723
g62
I4
ssg63
g1717
sg56
(lp1724
g195
asbasbasbag49
(g65
g51
NtRp1725
(dp1726
g54
(dp1727
sg63
g1261
sg56
(lp1728
g49
(g70
g51
NtRp1729
(dp1730
g54
(dp1731
g74
g75
ssg63
g1725
sg56
(lp1732
S'remote_port'
p1733
asbag49
(g70
g51
NtRp1734
(dp1735
g54
(dp1736
g81
g82
ssg63
g1725
sg56
(lp1737
S':'
asbag49
(g70
g51
NtRp1738
(dp1739
g54
(dp1740
sg63
g1725
sg56
(lp1741
g49
(g50
g51
NtRp1742
(dp1743
g54
(dp1744
g62
I4
ssg63
g1738
sg56
(lp1745
S'60576'
p1746
asbasbasbag49
(g65
g51
NtRp1747
(dp1748
g54
(dp1749
sg63
g1261
sg56
(lp1750
g49
(g70
g51
NtRp1751
(dp1752
g54
(dp1753
g74
g75
ssg63
g1747
sg56
(lp1754
S'request_method'
p1755
asbag49
(g70
g51
NtRp1756
(dp1757
g54
(dp1758
g81
g82
ssg63
g1747
sg56
(lp1759
S':'
asbag49
(g70
g51
NtRp1760
(dp1761
g54
(dp1762
sg63
g1747
sg56
(lp1763
g49
(g50
g51
NtRp1764
(dp1765
g54
(dp1766
g62
I4
ssg63
g1760
sg56
(lp1767
S'GET'
p1768
asbasbasbag49
(g65
g51
NtRp1769
(dp1770
g54
(dp1771
sg63
g1261
sg56
(lp1772
g49
(g70
g51
NtRp1773
(dp1774
g54
(dp1775
g74
g75
ssg63
g1769
sg56
(lp1776
S'script_name'
p1777
asbag49
(g70
g51
NtRp1778
(dp1779
g54
(dp1780
g81
g82
ssg63
g1769
sg56
(lp1781
S':'
asbag49
(g70
g51
NtRp1782
(dp1783
g54
(dp1784
sg63
g1769
sg56
(lp1785
g49
(g50
g51
NtRp1786
(dp1787
g54
(dp1788
g62
I4
ssg63
g1782
sg56
(lp1789
S''
asbasbasbag49
(g65
g51
NtRp1790
(dp1791
g54
(dp1792
sg63
g1261
sg56
(lp1793
g49
(g70
g51
NtRp1794
(dp1795
g54
(dp1796
g74
g75
ssg63
g1790
sg56
(lp1797
S'server_name'
p1798
asbag49
(g70
g51
NtRp1799
(dp1800
g54
(dp1801
g81
g82
ssg63
g1790
sg56
(lp1802
S':'
asbag49
(g70
g51
NtRp1803
(dp1804
g54
(dp1805
sg63
g1790
sg56
(lp1806
g49
(g50
g51
NtRp1807
(dp1808
g54
(dp1809
g62
I4
ssg63
g1803
sg56
(lp1810
S'massimo-di-pierros-macbook-2.local'
p1811
asbasbasbag49
(g65
g51
NtRp1812
(dp1813
g54
(dp1814
sg63
g1261
sg56
(lp1815
g49
(g70
g51
NtRp1816
(dp1817
g54
(dp1818
g74
g75
ssg63
g1812
sg56
(lp1819
S'server_port'
p1820
asbag49
(g70
g51
NtRp1821
(dp1822
g54
(dp1823
g81
g82
ssg63
g1812
sg56
(lp1824
S':'
asbag49
(g70
g51
NtRp1825
(dp1826
g54
(dp1827
sg63
g1812
sg56
(lp1828
g49
(g50
g51
NtRp1829
(dp1830
g54
(dp1831
g62
I4
ssg63
g1825
sg56
(lp1832
S'8000'
p1833
asbasbasbag49
(g65
g51
NtRp1834
(dp1835
g54
(dp1836
sg63
g1261
sg56
(lp1837
g49
(g70
g51
NtRp1838
(dp1839
g54
(dp1840
g74
g75
ssg63
g1834
sg56
(lp1841
S'server_protocol'
p1842
asbag49
(g70
g51
NtRp1843
(dp1844
g54
(dp1845
g81
g82
ssg63
g1834
sg56
(lp1846
S':'
asbag49
(g70
g51
NtRp1847
(dp1848
g54
(dp1849
sg63
g1834
sg56
(lp1850
g49
(g50
g51
NtRp1851
(dp1852
g54
(dp1853
g62
I4
ssg63
g1847
sg56
(lp1854
S'HTTP/1.1'
p1855
asbasbasbag49
(g65
g51
NtRp1856
(dp1857
g54
(dp1858
sg63
g1261
sg56
(lp1859
g49
(g70
g51
NtRp1860
(dp1861
g54
(dp1862
g74
g75
ssg63
g1856
sg56
(lp1863
S'server_software'
p1864
asbag49
(g70
g51
NtRp1865
(dp1866
g54
(dp1867
g81
g82
ssg63
g1856
sg56
(lp1868
S':'
asbag49
(g70
g51
NtRp1869
(dp1870
g54
(dp1871
sg63
g1856
sg56
(lp1872
g49
(g50
g51
NtRp1873
(dp1874
g54
(dp1875
g62
I4
ssg63
g1869
sg56
(lp1876
S'Rocket 1.2.4'
p1877
asbasbasbag49
(g65
g51
NtRp1878
(dp1879
g54
(dp1880
sg63
g1261
sg56
(lp1881
g49
(g70
g51
NtRp1882
(dp1883
g54
(dp1884
g74
g75
ssg63
g1878
sg56
(lp1885
S'web2py_crontype'
p1886
asbag49
(g70
g51
NtRp1887
(dp1888
g54
(dp1889
g81
g82
ssg63
g1878
sg56
(lp1890
S':'
asbag49
(g70
g51
NtRp1891
(dp1892
g54
(dp1893
sg63
g1878
sg56
(lp1894
g49
(g50
g51
NtRp1895
(dp1896
g54
(dp1897
g62
I4
ssg63
g1891
sg56
(lp1898
S'hard'
p1899
asbasbasbag49
(g65
g51
NtRp1900
(dp1901
g54
(dp1902
sg63
g1261
sg56
(lp1903
g49
(g70
g51
NtRp1904
(dp1905
g54
(dp1906
g74
g75
ssg63
g1900
sg56
(lp1907
S'web2py_path'
p1908
asbag49
(g70
g51
NtRp1909
(dp1910
g54
(dp1911
g81
g82
ssg63
g1900
sg56
(lp1912
S':'
asbag49
(g70
g51
NtRp1913
(dp1914
g54
(dp1915
sg63
g1900
sg56
(lp1916
g49
(g50
g51
NtRp1917
(dp1918
g54
(dp1919
g62
I4
ssg63
g1913
sg56
(lp1920
g1308
asbasbasbag49
(g65
g51
NtRp1921
(dp1922
g54
(dp1923
sg63
g1261
sg56
(lp1924
g49
(g70
g51
NtRp1925
(dp1926
g54
(dp1927
g74
g75
ssg63
g1921
sg56
(lp1928
S'web2py_version'
p1929
asbag49
(g70
g51
NtRp1930
(dp1931
g54
(dp1932
g81
g82
ssg63
g1921
sg56
(lp1933
S':'
asbag49
(g70
g51
NtRp1934
(dp1935
g54
(dp1936
sg63
g1921
sg56
(lp1937
g49
(g50
g51
NtRp1938
(dp1939
g54
(dp1940
g62
I4
ssg63
g1934
sg56
(lp1941
g49
(g58
g51
NtRp1942
(dp1943
g54
(dp1944
g62
I3
ssg63
Nsg56
(lp1945
g49
(g65
g51
NtRp1946
(dp1947
g54
(dp1948
sg63
g1942
sg56
(lp1949
g49
(g70
g51
NtRp1950
(dp1951
g54
(dp1952
sg63
g1946
sg56
(lp1953
g49
(g50
g51
NtRp1954
(dp1955
g54
(dp1956
g62
I3
ssg63
g1950
sg56
(lp1957
S'1'
asbasbasbag49
(g65
g51
NtRp1958
(dp1959
g54
(dp1960
sg63
g1942
sg56
(lp1961
g49
(g70
g51
NtRp1962
(dp1963
g54
(dp1964
sg63
g1958
sg56
(lp1965
g49
(g50
g51
NtRp1966
(dp1967
g54
(dp1968
g62
I3
ssg63
g1962
sg56
(lp1969
S'99'
p1970
asbasbasbag49
(g65
g51
NtRp1971
(dp1972
g54
(dp1973
sg63
g1942
sg56
(lp1974
g49
(g70
g51
NtRp1975
(dp1976
g54
(dp1977
sg63
g1971
sg56
(lp1978
g49
(g50
g51
NtRp1979
(dp1980
g54
(dp1981
g62
I3
ssg63
g1975
sg56
(lp1982
S'3'
asbasbasbag49
(g65
g51
NtRp1983
(dp1984
g54
(dp1985
sg63
g1942
sg56
(lp1986
g49
(g70
g51
NtRp1987
(dp1988
g54
(dp1989
sg63
g1983
sg56
(lp1990
g49
(g50
g51
NtRp1991
(dp1992
g54
(dp1993
g62
I3
ssg63
g1987
sg56
(lp1994
S'datetime.datetime(2011, 12, 9, 21, 5, 4)'
p1995
asbasbasbag49
(g65
g51
NtRp1996
(dp1997
g54
(dp1998
sg63
g1942
sg56
(lp1999
g49
(g70
g51
NtRp2000
(dp2001
g54
(dp2002
sg63
g1996
sg56
(lp2003
g49
(g50
g51
NtRp2004
(dp2005
g54
(dp2006
g62
I3
ssg63
g2000
sg56
(lp2007
S'stable'
p2008
asbasbasbasbasbasbasbag49
(g65
g51
NtRp2009
(dp2010
g54
(dp2011
sg63
g1261
sg56
(lp2012
g49
(g70
g51
NtRp2013
(dp2014
g54
(dp2015
g74
g75
ssg63
g2009
sg56
(lp2016
S'wsgi_errors'
p2017
asbag49
(g70
g51
NtRp2018
(dp2019
g54
(dp2020
g81
g82
ssg63
g2009
sg56
(lp2021
S':'
asbag49
(g70
g51
NtRp2022
(dp2023
g54
(dp2024
sg63
g2009
sg56
(lp2025
g49
(g50
g51
NtRp2026
(dp2027
g54
(dp2028
g62
I4
ssg63
g2022
sg56
(lp2029
S"<open file '<stderr>', mode 'w' at 0x1620b0>"
p2030
asbasbasbag49
(g65
g51
NtRp2031
(dp2032
g54
(dp2033
sg63
g1261
sg56
(lp2034
g49
(g70
g51
NtRp2035
(dp2036
g54
(dp2037
g74
g75
ssg63
g2031
sg56
(lp2038
S'wsgi_file_wrapper'
p2039
asbag49
(g70
g51
NtRp2040
(dp2041
g54
(dp2042
g81
g82
ssg63
g2031
sg56
(lp2043
S':'
asbag49
(g70
g51
NtRp2044
(dp2045
g54
(dp2046
sg63
g2031
sg56
(lp2047
g49
(g50
g51
NtRp2048
(dp2049
g54
(dp2050
g62
I4
ssg63
g2044
sg56
(lp2051
S'<class wsgiref.util.FileWrapper at 0x7c2840>'
p2052
asbasbasbag49
(g65
g51
NtRp2053
(dp2054
g54
(dp2055
sg63
g1261
sg56
(lp2056
g49
(g70
g51
NtRp2057
(dp2058
g54
(dp2059
g74
g75
ssg63
g2053
sg56
(lp2060
S'wsgi_input'
p2061
asbag49
(g70
g51
NtRp2062
(dp2063
g54
(dp2064
g81
g82
ssg63
g2053
sg56
(lp2065
S':'
asbag49
(g70
g51
NtRp2066
(dp2067
g54
(dp2068
sg63
g2053
sg56
(lp2069
g49
(g50
g51
NtRp2070
(dp2071
g54
(dp2072
g62
I4
ssg63
g2066
sg56
(lp2073
S'<socket._fileobject object at 0x1531830>'
p2074
asbasbasbag49
(g65
g51
NtRp2075
(dp2076
g54
(dp2077
sg63
g1261
sg56
(lp2078
g49
(g70
g51
NtRp2079
(dp2080
g54
(dp2081
g74
g75
ssg63
g2075
sg56
(lp2082
S'wsgi_multiprocess'
p2083
asbag49
(g70
g51
NtRp2084
(dp2085
g54
(dp2086
g81
g82
ssg63
g2075
sg56
(lp2087
S':'
asbag49
(g70
g51
NtRp2088
(dp2089
g54
(dp2090
sg63
g2075
sg56
(lp2091
g49
(g50
g51
NtRp2092
(dp2093
g54
(dp2094
g62
I4
ssg63
g2088
sg56
(lp2095
g92
asbasbasbag49
(g65
g51
NtRp2096
(dp2097
g54
(dp2098
sg63
g1261
sg56
(lp2099
g49
(g70
g51
NtRp2100
(dp2101
g54
(dp2102
g74
g75
ssg63
g2096
sg56
(lp2103
S'wsgi_multithread'
p2104
asbag49
(g70
g51
NtRp2105
(dp2106
g54
(dp2107
g81
g82
ssg63
g2096
sg56
(lp2108
S':'
asbag49
(g70
g51
NtRp2109
(dp2110
g54
(dp2111
sg63
g2096
sg56
(lp2112
g49
(g50
g51
NtRp2113
(dp2114
g54
(dp2115
g62
I4
ssg63
g2109
sg56
(lp2116
S'True'
p2117
asbasbasbag49
(g65
g51
NtRp2118
(dp2119
g54
(dp2120
sg63
g1261
sg56
(lp2121
g49
(g70
g51
NtRp2122
(dp2123
g54
(dp2124
g74
g75
ssg63
g2118
sg56
(lp2125
S'wsgi_run_once'
p2126
asbag49
(g70
g51
NtRp2127
(dp2128
g54
(dp2129
g81
g82
ssg63
g2118
sg56
(lp2130
S':'
asbag49
(g70
g51
NtRp2131
(dp2132
g54
(dp2133
sg63
g2118
sg56
(lp2134
g49
(g50
g51
NtRp2135
(dp2136
g54
(dp2137
g62
I4
ssg63
g2131
sg56
(lp2138
g92
asbasbasbag49
(g65
g51
NtRp2139
(dp2140
g54
(dp2141
sg63
g1261
sg56
(lp2142
g49
(g70
g51
NtRp2143
(dp2144
g54
(dp2145
g74
g75
ssg63
g2139
sg56
(lp2146
S'wsgi_url_scheme'
p2147
asbag49
(g70
g51
NtRp2148
(dp2149
g54
(dp2150
g81
g82
ssg63
g2139
sg56
(lp2151
S':'
asbag49
(g70
g51
NtRp2152
(dp2153
g54
(dp2154
sg63
g2139
sg56
(lp2155
g49
(g50
g51
NtRp2156
(dp2157
g54
(dp2158
g62
I4
ssg63
g2152
sg56
(lp2159
S'http'
p2160
asbasbasbag49
(g65
g51
NtRp2161
(dp2162
g54
(dp2163
sg63
g1261
sg56
(lp2164
g49
(g70
g51
NtRp2165
(dp2166
g54
(dp2167
g74
g75
ssg63
g2161
sg56
(lp2168
S'wsgi_version'
p2169
asbag49
(g70
g51
NtRp2170
(dp2171
g54
(dp2172
g81
g82
ssg63
g2161
sg56
(lp2173
S':'
asbag49
(g70
g51
NtRp2174
(dp2175
g54
(dp2176
sg63
g2161
sg56
(lp2177
g49
(g50
g51
NtRp2178
(dp2179
g54
(dp2180
g62
I4
ssg63
g2174
sg56
(lp2181
g49
(g58
g51
NtRp2182
(dp2183
g54
(dp2184
g62
I3
ssg63
Nsg56
(lp2185
g49
(g65
g51
NtRp2186
(dp2187
g54
(dp2188
sg63
g2182
sg56
(lp2189
g49
(g70
g51
NtRp2190
(dp2191
g54
(dp2192
sg63
g2186
sg56
(lp2193
g49
(g50
g51
NtRp2194
(dp2195
g54
(dp2196
g62
I3
ssg63
g2190
sg56
(lp2197
S'1'
asbasbasbag49
(g65
g51
NtRp2198
(dp2199
g54
(dp2200
sg63
g2182
sg56
(lp2201
g49
(g70
g51
NtRp2202
(dp2203
g54
(dp2204
sg63
g2198
sg56
(lp2205
g49
(g50
g51
NtRp2206
(dp2207
g54
(dp2208
g62
I3
ssg63
g2202
sg56
(lp2209
S'0'
asbasbasbasbasbasbasbasbasbasbasbag49
(g65
g51
NtRp2210
(dp2211
g54
(dp2212
sg63
g59
sg56
(lp2213
g49
(g70
g51
NtRp2214
(dp2215
g54
(dp2216
g74
g75
ssg63
g2210
sg56
(lp2217
S'extension'
p2218
asbag49
(g70
g51
NtRp2219
(dp2220
g54
(dp2221
g81
g82
ssg63
g2210
sg56
(lp2222
S':'
asbag49
(g70
g51
NtRp2223
(dp2224
g54
(dp2225
sg63
g2210
sg56
(lp2226
g49
(g50
g51
NtRp2227
(dp2228
g54
(dp2229
g62
I5
ssg63
g2223
sg56
(lp2230
S'html'
p2231
asbasbasbag49
(g65
g51
NtRp2232
(dp2233
g54
(dp2234
sg63
g59
sg56
(lp2235
g49
(g70
g51
NtRp2236
(dp2237
g54
(dp2238
g74
g75
ssg63
g2232
sg56
(lp2239
S'folder'
p2240
asbag49
(g70
g51
NtRp2241
(dp2242
g54
(dp2243
g81
g82
ssg63
g2232
sg56
(lp2244
S':'
asbag49
(g70
g51
NtRp2245
(dp2246
g54
(dp2247
sg63
g2232
sg56
(lp2248
g49
(g50
g51
NtRp2249
(dp2250
g54
(dp2251
g62
I5
ssg63
g2245
sg56
(lp2252
S'/Users/mdipierro/Dropbox/web2py/applications/inplace/'
p2253
asbasbasbag49
(g65
g51
NtRp2254
(dp2255
g54
(dp2256
sg63
g59
sg56
(lp2257
g49
(g70
g51
NtRp2258
(dp2259
g54
(dp2260
g74
g75
ssg63
g2254
sg56
(lp2261
S'function'
p2262
asbag49
(g70
g51
NtRp2263
(dp2264
g54
(dp2265
g81
g82
ssg63
g2254
sg56
(lp2266
S':'
asbag49
(g70
g51
NtRp2267
(dp2268
g54
(dp2269
sg63
g2254
sg56
(lp2270
g49
(g50
g51
NtRp2271
(dp2272
g54
(dp2273
g62
I5
ssg63
g2267
sg56
(lp2274
S'clone'
p2275
asbasbasbag49
(g65
g51
NtRp2276
(dp2277
g54
(dp2278
sg63
g59
sg56
(lp2279
g49
(g70
g51
NtRp2280
(dp2281
g54
(dp2282
g74
g75
ssg63
g2276
sg56
(lp2283
S'get_vars'
p2284
asbag49
(g70
g51
NtRp2285
(dp2286
g54
(dp2287
g81
g82
ssg63
g2276
sg56
(lp2288
S':'
asbag49
(g70
g51
NtRp2289
(dp2290
g54
(dp2291
sg63
g2276
sg56
(lp2292
g49
(g50
g51
NtRp2293
(dp2294
g54
(dp2295
g62
I5
ssg63
g2289
sg56
(lp2296
g49
(g58
g51
NtRp2297
(dp2298
g54
(dp2299
g62
I4
ssg63
Nsg56
(lp2300
sbasbasbasbag49
(g65
g51
NtRp2301
(dp2302
g54
(dp2303
sg63
g59
sg56
(lp2304
g49
(g70
g51
NtRp2305
(dp2306
g54
(dp2307
g74
g75
ssg63
g2301
sg56
(lp2308
S'global_settings'
p2309
asbag49
(g70
g51
NtRp2310
(dp2311
g54
(dp2312
g81
g82
ssg63
g2301
sg56
(lp2313
S':'
asbag49
(g70
g51
NtRp2314
(dp2315
g54
(dp2316
sg63
g2301
sg56
(lp2317
g49
(g50
g51
NtRp2318
(dp2319
g54
(dp2320
g62
I5
ssg63
g2314
sg56
(lp2321
g49
(g58
g51
NtRp2322
(dp2323
g54
(dp2324
g62
I4
ssg63
Nsg56
(lp2325
g49
(g65
g51
NtRp2326
(dp2327
g54
(dp2328
sg63
g2322
sg56
(lp2329
g49
(g70
g51
NtRp2330
(dp2331
g54
(dp2332
g74
g75
ssg63
g2326
sg56
(lp2333
g1273
asbag49
(g70
g51
NtRp2334
(dp2335
g54
(dp2336
g81
g82
ssg63
g2326
sg56
(lp2337
S':'
asbag49
(g70
g51
NtRp2338
(dp2339
g54
(dp2340
sg63
g2326
sg56
(lp2341
g49
(g50
g51
NtRp2342
(dp2343
g54
(dp2344
g62
I4
ssg63
g2338
sg56
(lp2345
S"set(['/Users/mdipierro/Dropbox/web2py/applications/inplace/', '/Users/mdipierro/Dropbox/web2py/applications/cms/', '/Users/mdipierro/Dropbox/web2py/applications/admin/'])"
p2346
asbasbasbag49
(g65
g51
NtRp2347
(dp2348
g54
(dp2349
sg63
g2322
sg56
(lp2350
g49
(g70
g51
NtRp2351
(dp2352
g54
(dp2353
g74
g75
ssg63
g2347
sg56
(lp2354
g1295
asbag49
(g70
g51
NtRp2355
(dp2356
g54
(dp2357
g81
g82
ssg63
g2347
sg56
(lp2358
S':'
asbag49
(g70
g51
NtRp2359
(dp2360
g54
(dp2361
sg63
g2347
sg56
(lp2362
g49
(g50
g51
NtRp2363
(dp2364
g54
(dp2365
g62
I4
ssg63
g2359
sg56
(lp2366
g1308
asbasbasbag49
(g65
g51
NtRp2367
(dp2368
g54
(dp2369
sg63
g2322
sg56
(lp2370
g49
(g70
g51
NtRp2371
(dp2372
g54
(dp2373
g74
g75
ssg63
g2367
sg56
(lp2374
g1317
asbag49
(g70
g51
NtRp2375
(dp2376
g54
(dp2377
g81
g82
ssg63
g2367
sg56
(lp2378
S':'
asbag49
(g70
g51
NtRp2379
(dp2380
g54
(dp2381
sg63
g2367
sg56
(lp2382
g49
(g50
g51
NtRp2383
(dp2384
g54
(dp2385
g62
I4
ssg63
g2379
sg56
(lp2386
g49
(g58
g51
NtRp2387
(dp2388
g54
(dp2389
g62
I3
ssg63
Nsg56
(lp2390
sbasbasbasbag49
(g65
g51
NtRp2391
(dp2392
g54
(dp2393
sg63
g2322
sg56
(lp2394
g49
(g70
g51
NtRp2395
(dp2396
g54
(dp2397
g74
g75
ssg63
g2391
sg56
(lp2398
g1342
asbag49
(g70
g51
NtRp2399
(dp2400
g54
(dp2401
g81
g82
ssg63
g2391
sg56
(lp2402
S':'
asbag49
(g70
g51
NtRp2403
(dp2404
g54
(dp2405
sg63
g2391
sg56
(lp2406
g49
(g50
g51
NtRp2407
(dp2408
g54
(dp2409
g62
I4
ssg63
g2403
sg56
(lp2410
S"<Values at 0x153a378: {'verbose': False, 'ip': '127.0.0.1', 'shutdown_timeout': 5, 'taskbar': False, 'nocron': False, 'pid_filename': 'httpserver.pid', 'maxthreads': None, 'softcron': False, 'server_name': 'massimo-di-pierros-macbook-2.local', 'bpython': False, 'nogui': False, 'port': 8000, 'extcron': False, 'debuglevel': 30, 'test': None, 'folder': '/Users/mdipierro/Dropbox/web2py', 'config': '', 'import_models': False, 'winservice': '', 'shell': None, 'run': '', 'log_filename': 'httpserver.log', 'args': [''], 'socket_timeout': 1, 'ssl_ca_certificate': None, 'scheduler': None, 'profiler_filename': None, 'ssl_private_key': '', 'password': 'hello', 'request_queue_size': 5, 'ssl_certificate': '', 'cronjob': False, 'numthreads': None, 'quiet': False, 'interfaces': None, 'minthreads': None, 'timeout': 10, 'plain': False, 'nobanner': False}>"
p2411
asbasbasbag49
(g65
g51
NtRp2412
(dp2413
g54
(dp2414
sg63
g2322
sg56
(lp2415
g49
(g70
g51
NtRp2416
(dp2417
g54
(dp2418
g74
g75
ssg63
g2412
sg56
(lp2419
g1364
asbag49
(g70
g51
NtRp2420
(dp2421
g54
(dp2422
g81
g82
ssg63
g2412
sg56
(lp2423
S':'
asbag49
(g70
g51
NtRp2424
(dp2425
g54
(dp2426
sg63
g2412
sg56
(lp2427
g49
(g50
g51
NtRp2428
(dp2429
g54
(dp2430
g62
I4
ssg63
g2424
sg56
(lp2431
S'set([])'
p2432
asbasbasbag49
(g65
g51
NtRp2433
(dp2434
g54
(dp2435
sg63
g2322
sg56
(lp2436
g49
(g70
g51
NtRp2437
(dp2438
g54
(dp2439
g74
g75
ssg63
g2433
sg56
(lp2440
g1386
asbag49
(g70
g51
NtRp2441
(dp2442
g54
(dp2443
g81
g82
ssg63
g2433
sg56
(lp2444
S':'
asbag49
(g70
g51
NtRp2445
(dp2446
g54
(dp2447
sg63
g2433
sg56
(lp2448
g49
(g50
g51
NtRp2449
(dp2450
g54
(dp2451
g62
I4
ssg63
g2445
sg56
(lp2452
g92
asbasbasbag49
(g65
g51
NtRp2453
(dp2454
g54
(dp2455
sg63
g2322
sg56
(lp2456
g49
(g70
g51
NtRp2457
(dp2458
g54
(dp2459
g74
g75
ssg63
g2453
sg56
(lp2460
g1407
asbag49
(g70
g51
NtRp2461
(dp2462
g54
(dp2463
g81
g82
ssg63
g2453
sg56
(lp2464
S':'
asbag49
(g70
g51
NtRp2465
(dp2466
g54
(dp2467
sg63
g2453
sg56
(lp2468
g49
(g50
g51
NtRp2469
(dp2470
g54
(dp2471
g62
I4
ssg63
g2465
sg56
(lp2472
g1420
asbasbasbag49
(g65
g51
NtRp2473
(dp2474
g54
(dp2475
sg63
g2322
sg56
(lp2476
g49
(g70
g51
NtRp2477
(dp2478
g54
(dp2479
g74
g75
ssg63
g2473
sg56
(lp2480
g1627
asbag49
(g70
g51
NtRp2481
(dp2482
g54
(dp2483
g81
g82
ssg63
g2473
sg56
(lp2484
S':'
asbag49
(g70
g51
NtRp2485
(dp2486
g54
(dp2487
sg63
g2473
sg56
(lp2488
g49
(g50
g51
NtRp2489
(dp2490
g54
(dp2491
g62
I4
ssg63
g2485
sg56
(lp2492
g92
asbasbasbag49
(g65
g51
NtRp2493
(dp2494
g54
(dp2495
sg63
g2322
sg56
(lp2496
g49
(g70
g51
NtRp2497
(dp2498
g54
(dp2499
g74
g75
ssg63
g2493
sg56
(lp2500
g1648
asbag49
(g70
g51
NtRp2501
(dp2502
g54
(dp2503
g81
g82
ssg63
g2493
sg56
(lp2504
S':'
asbag49
(g70
g51
NtRp2505
(dp2506
g54
(dp2507
sg63
g2493
sg56
(lp2508
g49
(g50
g51
NtRp2509
(dp2510
g54
(dp2511
g62
I4
ssg63
g2505
sg56
(lp2512
g92
asbasbasbag49
(g65
g51
NtRp2513
(dp2514
g54
(dp2515
sg63
g2322
sg56
(lp2516
g49
(g70
g51
NtRp2517
(dp2518
g54
(dp2519
g74
g75
ssg63
g2513
sg56
(lp2520
g1886
asbag49
(g70
g51
NtRp2521
(dp2522
g54
(dp2523
g81
g82
ssg63
g2513
sg56
(lp2524
S':'
asbag49
(g70
g51
NtRp2525
(dp2526
g54
(dp2527
sg63
g2513
sg56
(lp2528
g49
(g50
g51
NtRp2529
(dp2530
g54
(dp2531
g62
I4
ssg63
g2525
sg56
(lp2532
g1899
asbasbasbag49
(g65
g51
NtRp2533
(dp2534
g54
(dp2535
sg63
g2322
sg56
(lp2536
g49
(g70
g51
NtRp2537
(dp2538
g54
(dp2539
g74
g75
ssg63
g2533
sg56
(lp2540
g1929
asbag49
(g70
g51
NtRp2541
(dp2542
g54
(dp2543
g81
g82
ssg63
g2533
sg56
(lp2544
S':'
asbag49
(g70
g51
NtRp2545
(dp2546
g54
(dp2547
sg63
g2533
sg56
(lp2548
g49
(g50
g51
NtRp2549
(dp2550
g54
(dp2551
g62
I4
ssg63
g2545
sg56
(lp2552
g49
(g58
g51
NtRp2553
(dp2554
g54
(dp2555
g62
I3
ssg63
Nsg56
(lp2556
g49
(g65
g51
NtRp2557
(dp2558
g54
(dp2559
sg63
g2553
sg56
(lp2560
g49
(g70
g51
NtRp2561
(dp2562
g54
(dp2563
sg63
g2557
sg56
(lp2564
g49
(g50
g51
NtRp2565
(dp2566
g54
(dp2567
g62
I3
ssg63
g2561
sg56
(lp2568
S'1'
asbasbasbag49
(g65
g51
NtRp2569
(dp2570
g54
(dp2571
sg63
g2553
sg56
(lp2572
g49
(g70
g51
NtRp2573
(dp2574
g54
(dp2575
sg63
g2569
sg56
(lp2576
g49
(g50
g51
NtRp2577
(dp2578
g54
(dp2579
g62
I3
ssg63
g2573
sg56
(lp2580
S'99'
p2581
asbasbasbag49
(g65
g51
NtRp2582
(dp2583
g54
(dp2584
sg63
g2553
sg56
(lp2585
g49
(g70
g51
NtRp2586
(dp2587
g54
(dp2588
sg63
g2582
sg56
(lp2589
g49
(g50
g51
NtRp2590
(dp2591
g54
(dp2592
g62
I3
ssg63
g2586
sg56
(lp2593
S'3'
asbasbasbag49
(g65
g51
NtRp2594
(dp2595
g54
(dp2596
sg63
g2553
sg56
(lp2597
g49
(g70
g51
NtRp2598
(dp2599
g54
(dp2600
sg63
g2594
sg56
(lp2601
g49
(g50
g51
NtRp2602
(dp2603
g54
(dp2604
g62
I3
ssg63
g2598
sg56
(lp2605
S'datetime.datetime(2011, 12, 9, 21, 5, 4)'
p2606
asbasbasbag49
(g65
g51
NtRp2607
(dp2608
g54
(dp2609
sg63
g2553
sg56
(lp2610
g49
(g70
g51
NtRp2611
(dp2612
g54
(dp2613
sg63
g2607
sg56
(lp2614
g49
(g50
g51
NtRp2615
(dp2616
g54
(dp2617
g62
I3
ssg63
g2611
sg56
(lp2618
g2008
asbasbasbasbasbasbasbasbasbasbasbag49
(g65
g51
NtRp2619
(dp2620
g54
(dp2621
sg63
g59
sg56
(lp2622
g49
(g70
g51
NtRp2623
(dp2624
g54
(dp2625
g74
g75
ssg63
g2619
sg56
(lp2626
S'is_https'
p2627
asbag49
(g70
g51
NtRp2628
(dp2629
g54
(dp2630
g81
g82
ssg63
g2619
sg56
(lp2631
S':'
asbag49
(g70
g51
NtRp2632
(dp2633
g54
(dp2634
sg63
g2619
sg56
(lp2635
g49
(g50
g51
NtRp2636
(dp2637
g54
(dp2638
g62
I5
ssg63
g2632
sg56
(lp2639
g92
asbasbasbag49
(g65
g51
NtRp2640
(dp2641
g54
(dp2642
sg63
g59
sg56
(lp2643
g49
(g70
g51
NtRp2644
(dp2645
g54
(dp2646
g74
g75
ssg63
g2640
sg56
(lp2647
S'is_local'
p2648
asbag49
(g70
g51
NtRp2649
(dp2650
g54
(dp2651
g81
g82
ssg63
g2640
sg56
(lp2652
S':'
asbag49
(g70
g51
NtRp2653
(dp2654
g54
(dp2655
sg63
g2640
sg56
(lp2656
g49
(g50
g51
NtRp2657
(dp2658
g54
(dp2659
g62
I5
ssg63
g2653
sg56
(lp2660
g2117
asbasbasbag49
(g65
g51
NtRp2661
(dp2662
g54
(dp2663
sg63
g59
sg56
(lp2664
g49
(g70
g51
NtRp2665
(dp2666
g54
(dp2667
g74
g75
ssg63
g2661
sg56
(lp2668
S'is_restful'
p2669
asbag49
(g70
g51
NtRp2670
(dp2671
g54
(dp2672
g81
g82
ssg63
g2661
sg56
(lp2673
S':'
asbag49
(g70
g51
NtRp2674
(dp2675
g54
(dp2676
sg63
g2661
sg56
(lp2677
g49
(g50
g51
NtRp2678
(dp2679
g54
(dp2680
g62
I5
ssg63
g2674
sg56
(lp2681
g92
asbasbasbag49
(g65
g51
NtRp2682
(dp2683
g54
(dp2684
sg63
g59
sg56
(lp2685
g49
(g70
g51
NtRp2686
(dp2687
g54
(dp2688
g74
g75
ssg63
g2682
sg56
(lp2689
S'now'
p2690
asbag49
(g70
g51
NtRp2691
(dp2692
g54
(dp2693
g81
g82
ssg63
g2682
sg56
(lp2694
S':'
asbag49
(g70
g51
NtRp2695
(dp2696
g54
(dp2697
sg63
g2682
sg56
(lp2698
g49
(g50
g51
NtRp2699
(dp2700
g54
(dp2701
g62
I5
ssg63
g2695
sg56
(lp2702
S'datetime.datetime(2011, 12, 10, 1, 18, 20, 476352)'
p2703
asbasbasbag49
(g65
g51
NtRp2704
(dp2705
g54
(dp2706
sg63
g59
sg56
(lp2707
g49
(g70
g51
NtRp2708
(dp2709
g54
(dp2710
g74
g75
ssg63
g2704
sg56
(lp2711
S'post_vars'
p2712
asbag49
(g70
g51
NtRp2713
(dp2714
g54
(dp2715
g81
g82
ssg63
g2704
sg56
(lp2716
S':'
asbag49
(g70
g51
NtRp2717
(dp2718
g54
(dp2719
sg63
g2704
sg56
(lp2720
g49
(g50
g51
NtRp2721
(dp2722
g54
(dp2723
g62
I5
ssg63
g2717
sg56
(lp2724
g49
(g58
g51
NtRp2725
(dp2726
g54
(dp2727
g62
I4
ssg63
Nsg56
(lp2728
sbasbasbasbag49
(g65
g51
NtRp2729
(dp2730
g54
(dp2731
sg63
g59
sg56
(lp2732
g49
(g70
g51
NtRp2733
(dp2734
g54
(dp2735
g74
g75
ssg63
g2729
sg56
(lp2736
S'raw_args'
p2737
asbag49
(g70
g51
NtRp2738
(dp2739
g54
(dp2740
g81
g82
ssg63
g2729
sg56
(lp2741
S':'
asbag49
(g70
g51
NtRp2742
(dp2743
g54
(dp2744
sg63
g2729
sg56
(lp2745
g49
(g50
g51
NtRp2746
(dp2747
g54
(dp2748
g62
I5
ssg63
g2742
sg56
(lp2749
S'page'
p2750
asbasbasbag49
(g65
g51
NtRp2751
(dp2752
g54
(dp2753
sg63
g59
sg56
(lp2754
g49
(g70
g51
NtRp2755
(dp2756
g54
(dp2757
g74
g75
ssg63
g2751
sg56
(lp2758
S'url'
p2759
asbag49
(g70
g51
NtRp2760
(dp2761
g54
(dp2762
g81
g82
ssg63
g2751
sg56
(lp2763
S':'
asbag49
(g70
g51
NtRp2764
(dp2765
g54
(dp2766
sg63
g2751
sg56
(lp2767
g49
(g50
g51
NtRp2768
(dp2769
g54
(dp2770
g62
I5
ssg63
g2764
sg56
(lp2771
S'/inplace/default/clone/page'
p2772
asbasbasbag49
(g65
g51
NtRp2773
(dp2774
g54
(dp2775
sg63
g59
sg56
(lp2776
g49
(g70
g51
NtRp2777
(dp2778
g54
(dp2779
g74
g75
ssg63
g2773
sg56
(lp2780
S'utcnow'
p2781
asbag49
(g70
g51
NtRp2782
(dp2783
g54
(dp2784
g81
g82
ssg63
g2773
sg56
(lp2785
S':'
asbag49
(g70
g51
NtRp2786
(dp2787
g54
(dp2788
sg63
g2773
sg56
(lp2789
g49
(g50
g51
NtRp2790
(dp2791
g54
(dp2792
g62
I5
ssg63
g2786
sg56
(lp2793
S'datetime.datetime(2011, 12, 10, 7, 18, 20, 476363)'
p2794
asbasbasbag49
(g65
g51
NtRp2795
(dp2796
g54
(dp2797
sg63
g59
sg56
(lp2798
g49
(g70
g51
NtRp2799
(dp2800
g54
(dp2801
g74
g75
ssg63
g2795
sg56
(lp2802
S'uuid'
p2803
asbag49
(g70
g51
NtRp2804
(dp2805
g54
(dp2806
g81
g82
ssg63
g2795
sg56
(lp2807
S':'
asbag49
(g70
g51
NtRp2808
(dp2809
g54
(dp2810
sg63
g2795
sg56
(lp2811
g49
(g50
g51
NtRp2812
(dp2813
g54
(dp2814
g62
I5
ssg63
g2808
sg56
(lp2815
S'inplace/127.0.0.1.2011-12-10.01-18-20.7fb6ed0f-04ce-4b2b-bca4-cd772d735a44'
p2816
asbasbasbag49
(g65
g51
NtRp2817
(dp2818
g54
(dp2819
sg63
g59
sg56
(lp2820
g49
(g70
g51
NtRp2821
(dp2822
g54
(dp2823
g74
g75
ssg63
g2817
sg56
(lp2824
S'vars'
p2825
asbag49
(g70
g51
NtRp2826
(dp2827
g54
(dp2828
g81
g82
ssg63
g2817
sg56
(lp2829
S':'
asbag49
(g70
g51
NtRp2830
(dp2831
g54
(dp2832
sg63
g2817
sg56
(lp2833
g49
(g50
g51
NtRp2834
(dp2835
g54
(dp2836
g62
I5
ssg63
g2830
sg56
(lp2837
g49
(g58
g51
NtRp2838
(dp2839
g54
(dp2840
g62
I4
ssg63
Nsg56
(lp2841
sbasbasbasbag49
(g65
g51
NtRp2842
(dp2843
g54
(dp2844
sg63
g59
sg56
(lp2845
g49
(g70
g51
NtRp2846
(dp2847
g54
(dp2848
g74
g75
ssg63
g2842
sg56
(lp2849
S'wsgi'
p2850
asbag49
(g70
g51
NtRp2851
(dp2852
g54
(dp2853
g81
g82
ssg63
g2842
sg56
(lp2854
S':'
asbag49
(g70
g51
NtRp2855
(dp2856
g54
(dp2857
sg63
g2842
sg56
(lp2858
g49
(g50
g51
NtRp2859
(dp2860
g54
(dp2861
g62
I5
ssg63
g2855
sg56
(lp2862
g49
(g58
g51
NtRp2863
(dp2864
g54
(dp2865
g62
I4
ssg63
Nsg56
(lp2866
g49
(g65
g51
NtRp2867
(dp2868
g54
(dp2869
sg63
g2863
sg56
(lp2870
g49
(g70
g51
NtRp2871
(dp2872
g54
(dp2873
g74
g75
ssg63
g2867
sg56
(lp2874
S'environ'
p2875
asbag49
(g70
g51
NtRp2876
(dp2877
g54
(dp2878
g81
g82
ssg63
g2867
sg56
(lp2879
S':'
asbag49
(g70
g51
NtRp2880
(dp2881
g54
(dp2882
sg63
g2867
sg56
(lp2883
g49
(g50
g51
NtRp2884
(dp2885
g54
(dp2886
g62
I4
ssg63
g2880
sg56
(lp2887
g49
(g58
g51
NtRp2888
(dp2889
g54
(dp2890
g62
I3
ssg63
Nsg56
(lp2891
g49
(g65
g51
NtRp2892
(dp2893
g54
(dp2894
sg63
g2888
sg56
(lp2895
g49
(g70
g51
NtRp2896
(dp2897
g54
(dp2898
g74
g75
ssg63
g2892
sg56
(lp2899
S'HTTP_ACCEPT'
p2900
asbag49
(g70
g51
NtRp2901
(dp2902
g54
(dp2903
g81
g82
ssg63
g2892
sg56
(lp2904
S':'
asbag49
(g70
g51
NtRp2905
(dp2906
g54
(dp2907
sg63
g2892
sg56
(lp2908
g49
(g50
g51
NtRp2909
(dp2910
g54
(dp2911
g62
I3
ssg63
g2905
sg56
(lp2912
g1442
asbasbasbag49
(g65
g51
NtRp2913
(dp2914
g54
(dp2915
sg63
g2888
sg56
(lp2916
g49
(g70
g51
NtRp2917
(dp2918
g54
(dp2919
g74
g75
ssg63
g2913
sg56
(lp2920
S'HTTP_ACCEPT_CHARSET'
p2921
asbag49
(g70
g51
NtRp2922
(dp2923
g54
(dp2924
g81
g82
ssg63
g2913
sg56
(lp2925
S':'
asbag49
(g70
g51
NtRp2926
(dp2927
g54
(dp2928
sg63
g2913
sg56
(lp2929
g49
(g50
g51
NtRp2930
(dp2931
g54
(dp2932
g62
I3
ssg63
g2926
sg56
(lp2933
g1464
asbasbasbag49
(g65
g51
NtRp2934
(dp2935
g54
(dp2936
sg63
g2888
sg56
(lp2937
g49
(g70
g51
NtRp2938
(dp2939
g54
(dp2940
g74
g75
ssg63
g2934
sg56
(lp2941
S'HTTP_ACCEPT_ENCODING'
p2942
asbag49
(g70
g51
NtRp2943
(dp2944
g54
(dp2945
g81
g82
ssg63
g2934
sg56
(lp2946
S':'
asbag49
(g70
g51
NtRp2947
(dp2948
g54
(dp2949
sg63
g2934
sg56
(lp2950
g49
(g50
g51
NtRp2951
(dp2952
g54
(dp2953
g62
I3
ssg63
g2947
sg56
(lp2954
g1486
asbasbasbag49
(g65
g51
NtRp2955
(dp2956
g54
(dp2957
sg63
g2888
sg56
(lp2958
g49
(g70
g51
NtRp2959
(dp2960
g54
(dp2961
g74
g75
ssg63
g2955
sg56
(lp2962
S'HTTP_ACCEPT_LANGUAGE'
p2963
asbag49
(g70
g51
NtRp2964
(dp2965
g54
(dp2966
g81
g82
ssg63
g2955
sg56
(lp2967
S':'
asbag49
(g70
g51
NtRp2968
(dp2969
g54
(dp2970
sg63
g2955
sg56
(lp2971
g49
(g50
g51
NtRp2972
(dp2973
g54
(dp2974
g62
I3
ssg63
g2968
sg56
(lp2975
g1508
asbasbasbag49
(g65
g51
NtRp2976
(dp2977
g54
(dp2978
sg63
g2888
sg56
(lp2979
g49
(g70
g51
NtRp2980
(dp2981
g54
(dp2982
g74
g75
ssg63
g2976
sg56
(lp2983
S'HTTP_CACHE_CONTROL'
p2984
asbag49
(g70
g51
NtRp2985
(dp2986
g54
(dp2987
g81
g82
ssg63
g2976
sg56
(lp2988
S':'
asbag49
(g70
g51
NtRp2989
(dp2990
g54
(dp2991
sg63
g2976
sg56
(lp2992
g49
(g50
g51
NtRp2993
(dp2994
g54
(dp2995
g62
I3
ssg63
g2989
sg56
(lp2996
g1530
asbasbasbag49
(g65
g51
NtRp2997
(dp2998
g54
(dp2999
sg63
g2888
sg56
(lp3000
g49
(g70
g51
NtRp3001
(dp3002
g54
(dp3003
g74
g75
ssg63
g2997
sg56
(lp3004
S'HTTP_CONNECTION'
p3005
asbag49
(g70
g51
NtRp3006
(dp3007
g54
(dp3008
g81
g82
ssg63
g2997
sg56
(lp3009
S':'
asbag49
(g70
g51
NtRp3010
(dp3011
g54
(dp3012
sg63
g2997
sg56
(lp3013
g49
(g50
g51
NtRp3014
(dp3015
g54
(dp3016
g62
I3
ssg63
g3010
sg56
(lp3017
g1552
asbasbasbag49
(g65
g51
NtRp3018
(dp3019
g54
(dp3020
sg63
g2888
sg56
(lp3021
g49
(g70
g51
NtRp3022
(dp3023
g54
(dp3024
g74
g75
ssg63
g3018
sg56
(lp3025
S'HTTP_COOKIE'
p3026
asbag49
(g70
g51
NtRp3027
(dp3028
g54
(dp3029
g81
g82
ssg63
g3018
sg56
(lp3030
S':'
asbag49
(g70
g51
NtRp3031
(dp3032
g54
(dp3033
sg63
g3018
sg56
(lp3034
g49
(g50
g51
NtRp3035
(dp3036
g54
(dp3037
g62
I3
ssg63
g3031
sg56
(lp3038
g1574
asbasbasbag49
(g65
g51
NtRp3039
(dp3040
g54
(dp3041
sg63
g2888
sg56
(lp3042
g49
(g70
g51
NtRp3043
(dp3044
g54
(dp3045
g74
g75
ssg63
g3039
sg56
(lp3046
S'HTTP_HOST'
p3047
asbag49
(g70
g51
NtRp3048
(dp3049
g54
(dp3050
g81
g82
ssg63
g3039
sg56
(lp3051
S':'
asbag49
(g70
g51
NtRp3052
(dp3053
g54
(dp3054
sg63
g3039
sg56
(lp3055
g49
(g50
g51
NtRp3056
(dp3057
g54
(dp3058
g62
I3
ssg63
g3052
sg56
(lp3059
g1596
asbasbasbag49
(g65
g51
NtRp3060
(dp3061
g54
(dp3062
sg63
g2888
sg56
(lp3063
g49
(g70
g51
NtRp3064
(dp3065
g54
(dp3066
g74
g75
ssg63
g3060
sg56
(lp3067
S'HTTP_USER_AGENT'
p3068
asbag49
(g70
g51
NtRp3069
(dp3070
g54
(dp3071
g81
g82
ssg63
g3060
sg56
(lp3072
S':'
asbag49
(g70
g51
NtRp3073
(dp3074
g54
(dp3075
sg63
g3060
sg56
(lp3076
g49
(g50
g51
NtRp3077
(dp3078
g54
(dp3079
g62
I3
ssg63
g3073
sg56
(lp3080
g1618
asbasbasbag49
(g65
g51
NtRp3081
(dp3082
g54
(dp3083
sg63
g2888
sg56
(lp3084
g49
(g70
g51
NtRp3085
(dp3086
g54
(dp3087
g74
g75
ssg63
g3081
sg56
(lp3088
S'PATH_INFO'
p3089
asbag49
(g70
g51
NtRp3090
(dp3091
g54
(dp3092
g81
g82
ssg63
g3081
sg56
(lp3093
S':'
asbag49
(g70
g51
NtRp3094
(dp3095
g54
(dp3096
sg63
g3081
sg56
(lp3097
g49
(g50
g51
NtRp3098
(dp3099
g54
(dp3100
g62
I3
ssg63
g3094
sg56
(lp3101
g1682
asbasbasbag49
(g65
g51
NtRp3102
(dp3103
g54
(dp3104
sg63
g2888
sg56
(lp3105
g49
(g70
g51
NtRp3106
(dp3107
g54
(dp3108
g74
g75
ssg63
g3102
sg56
(lp3109
S'QUERY_STRING'
p3110
asbag49
(g70
g51
NtRp3111
(dp3112
g54
(dp3113
g81
g82
ssg63
g3102
sg56
(lp3114
S':'
asbag49
(g70
g51
NtRp3115
(dp3116
g54
(dp3117
sg63
g3102
sg56
(lp3118
g49
(g50
g51
NtRp3119
(dp3120
g54
(dp3121
g62
I3
ssg63
g3115
sg56
(lp3122
S''
asbasbasbag49
(g65
g51
NtRp3123
(dp3124
g54
(dp3125
sg63
g2888
sg56
(lp3126
g49
(g70
g51
NtRp3127
(dp3128
g54
(dp3129
g74
g75
ssg63
g3123
sg56
(lp3130
S'REMOTE_ADDR'
p3131
asbag49
(g70
g51
NtRp3132
(dp3133
g54
(dp3134
g81
g82
ssg63
g3123
sg56
(lp3135
S':'
asbag49
(g70
g51
NtRp3136
(dp3137
g54
(dp3138
sg63
g3123
sg56
(lp3139
g49
(g50
g51
NtRp3140
(dp3141
g54
(dp3142
g62
I3
ssg63
g3136
sg56
(lp3143
g195
asbasbasbag49
(g65
g51
NtRp3144
(dp3145
g54
(dp3146
sg63
g2888
sg56
(lp3147
g49
(g70
g51
NtRp3148
(dp3149
g54
(dp3150
g74
g75
ssg63
g3144
sg56
(lp3151
S'REMOTE_PORT'
p3152
asbag49
(g70
g51
NtRp3153
(dp3154
g54
(dp3155
g81
g82
ssg63
g3144
sg56
(lp3156
S':'
asbag49
(g70
g51
NtRp3157
(dp3158
g54
(dp3159
sg63
g3144
sg56
(lp3160
g49
(g50
g51
NtRp3161
(dp3162
g54
(dp3163
g62
I3
ssg63
g3157
sg56
(lp3164
g1746
asbasbasbag49
(g65
g51
NtRp3165
(dp3166
g54
(dp3167
sg63
g2888
sg56
(lp3168
g49
(g70
g51
NtRp3169
(dp3170
g54
(dp3171
g74
g75
ssg63
g3165
sg56
(lp3172
S'REQUEST_METHOD'
p3173
asbag49
(g70
g51
NtRp3174
(dp3175
g54
(dp3176
g81
g82
ssg63
g3165
sg56
(lp3177
S':'
asbag49
(g70
g51
NtRp3178
(dp3179
g54
(dp3180
sg63
g3165
sg56
(lp3181
g49
(g50
g51
NtRp3182
(dp3183
g54
(dp3184
g62
I3
ssg63
g3178
sg56
(lp3185
g1768
asbasbasbag49
(g65
g51
NtRp3186
(dp3187
g54
(dp3188
sg63
g2888
sg56
(lp3189
g49
(g70
g51
NtRp3190
(dp3191
g54
(dp3192
g74
g75
ssg63
g3186
sg56
(lp3193
S'SCRIPT_NAME'
p3194
asbag49
(g70
g51
NtRp3195
(dp3196
g54
(dp3197
g81
g82
ssg63
g3186
sg56
(lp3198
S':'
asbag49
(g70
g51
NtRp3199
(dp3200
g54
(dp3201
sg63
g3186
sg56
(lp3202
g49
(g50
g51
NtRp3203
(dp3204
g54
(dp3205
g62
I3
ssg63
g3199
sg56
(lp3206
S''
asbasbasbag49
(g65
g51
NtRp3207
(dp3208
g54
(dp3209
sg63
g2888
sg56
(lp3210
g49
(g70
g51
NtRp3211
(dp3212
g54
(dp3213
g74
g75
ssg63
g3207
sg56
(lp3214
S'SERVER_NAME'
p3215
asbag49
(g70
g51
NtRp3216
(dp3217
g54
(dp3218
g81
g82
ssg63
g3207
sg56
(lp3219
S':'
asbag49
(g70
g51
NtRp3220
(dp3221
g54
(dp3222
sg63
g3207
sg56
(lp3223
g49
(g50
g51
NtRp3224
(dp3225
g54
(dp3226
g62
I3
ssg63
g3220
sg56
(lp3227
g1811
asbasbasbag49
(g65
g51
NtRp3228
(dp3229
g54
(dp3230
sg63
g2888
sg56
(lp3231
g49
(g70
g51
NtRp3232
(dp3233
g54
(dp3234
g74
g75
ssg63
g3228
sg56
(lp3235
S'SERVER_PORT'
p3236
asbag49
(g70
g51
NtRp3237
(dp3238
g54
(dp3239
g81
g82
ssg63
g3228
sg56
(lp3240
S':'
asbag49
(g70
g51
NtRp3241
(dp3242
g54
(dp3243
sg63
g3228
sg56
(lp3244
g49
(g50
g51
NtRp3245
(dp3246
g54
(dp3247
g62
I3
ssg63
g3241
sg56
(lp3248
g1833
asbasbasbag49
(g65
g51
NtRp3249
(dp3250
g54
(dp3251
sg63
g2888
sg56
(lp3252
g49
(g70
g51
NtRp3253
(dp3254
g54
(dp3255
g74
g75
ssg63
g3249
sg56
(lp3256
S'SERVER_PROTOCOL'
p3257
asbag49
(g70
g51
NtRp3258
(dp3259
g54
(dp3260
g81
g82
ssg63
g3249
sg56
(lp3261
S':'
asbag49
(g70
g51
NtRp3262
(dp3263
g54
(dp3264
sg63
g3249
sg56
(lp3265
g49
(g50
g51
NtRp3266
(dp3267
g54
(dp3268
g62
I3
ssg63
g3262
sg56
(lp3269
g1855
asbasbasbag49
(g65
g51
NtRp3270
(dp3271
g54
(dp3272
sg63
g2888
sg56
(lp3273
g49
(g70
g51
NtRp3274
(dp3275
g54
(dp3276
g74
g75
ssg63
g3270
sg56
(lp3277
S'SERVER_SOFTWARE'
p3278
asbag49
(g70
g51
NtRp3279
(dp3280
g54
(dp3281
g81
g82
ssg63
g3270
sg56
(lp3282
S':'
asbag49
(g70
g51
NtRp3283
(dp3284
g54
(dp3285
sg63
g3270
sg56
(lp3286
g49
(g50
g51
NtRp3287
(dp3288
g54
(dp3289
g62
I3
ssg63
g3283
sg56
(lp3290
g1877
asbasbasbag49
(g65
g51
NtRp3291
(dp3292
g54
(dp3293
sg63
g2888
sg56
(lp3294
g49
(g70
g51
NtRp3295
(dp3296
g54
(dp3297
g74
g75
ssg63
g3291
sg56
(lp3298
S'wsgi.errors'
p3299
asbag49
(g70
g51
NtRp3300
(dp3301
g54
(dp3302
g81
g82
ssg63
g3291
sg56
(lp3303
S':'
asbag49
(g70
g51
NtRp3304
(dp3305
g54
(dp3306
sg63
g3291
sg56
(lp3307
g49
(g50
g51
NtRp3308
(dp3309
g54
(dp3310
g62
I3
ssg63
g3304
sg56
(lp3311
S"<open file '<stderr>', mode 'w' at 0x1620b0>"
p3312
asbasbasbag49
(g65
g51
NtRp3313
(dp3314
g54
(dp3315
sg63
g2888
sg56
(lp3316
g49
(g70
g51
NtRp3317
(dp3318
g54
(dp3319
g74
g75
ssg63
g3313
sg56
(lp3320
S'wsgi.file_wrapper'
p3321
asbag49
(g70
g51
NtRp3322
(dp3323
g54
(dp3324
g81
g82
ssg63
g3313
sg56
(lp3325
S':'
asbag49
(g70
g51
NtRp3326
(dp3327
g54
(dp3328
sg63
g3313
sg56
(lp3329
g49
(g50
g51
NtRp3330
(dp3331
g54
(dp3332
g62
I3
ssg63
g3326
sg56
(lp3333
S'<class wsgiref.util.FileWrapper at 0x7c2840>'
p3334
asbasbasbag49
(g65
g51
NtRp3335
(dp3336
g54
(dp3337
sg63
g2888
sg56
(lp3338
g49
(g70
g51
NtRp3339
(dp3340
g54
(dp3341
g74
g75
ssg63
g3335
sg56
(lp3342
S'wsgi.input'
p3343
asbag49
(g70
g51
NtRp3344
(dp3345
g54
(dp3346
g81
g82
ssg63
g3335
sg56
(lp3347
S':'
asbag49
(g70
g51
NtRp3348
(dp3349
g54
(dp3350
sg63
g3335
sg56
(lp3351
g49
(g50
g51
NtRp3352
(dp3353
g54
(dp3354
g62
I3
ssg63
g3348
sg56
(lp3355
S'<cStringIO.StringO object at 0x14dc600>'
p3356
asbasbasbag49
(g65
g51
NtRp3357
(dp3358
g54
(dp3359
sg63
g2888
sg56
(lp3360
g49
(g70
g51
NtRp3361
(dp3362
g54
(dp3363
g74
g75
ssg63
g3357
sg56
(lp3364
S'wsgi.multiprocess'
p3365
asbag49
(g70
g51
NtRp3366
(dp3367
g54
(dp3368
g81
g82
ssg63
g3357
sg56
(lp3369
S':'
asbag49
(g70
g51
NtRp3370
(dp3371
g54
(dp3372
sg63
g3357
sg56
(lp3373
g49
(g50
g51
NtRp3374
(dp3375
g54
(dp3376
g62
I3
ssg63
g3370
sg56
(lp3377
g92
asbasbasbag49
(g65
g51
NtRp3378
(dp3379
g54
(dp3380
sg63
g2888
sg56
(lp3381
g49
(g70
g51
NtRp3382
(dp3383
g54
(dp3384
g74
g75
ssg63
g3378
sg56
(lp3385
S'wsgi.multithread'
p3386
asbag49
(g70
g51
NtRp3387
(dp3388
g54
(dp3389
g81
g82
ssg63
g3378
sg56
(lp3390
S':'
asbag49
(g70
g51
NtRp3391
(dp3392
g54
(dp3393
sg63
g3378
sg56
(lp3394
g49
(g50
g51
NtRp3395
(dp3396
g54
(dp3397
g62
I3
ssg63
g3391
sg56
(lp3398
g2117
asbasbasbag49
(g65
g51
NtRp3399
(dp3400
g54
(dp3401
sg63
g2888
sg56
(lp3402
g49
(g70
g51
NtRp3403
(dp3404
g54
(dp3405
g74
g75
ssg63
g3399
sg56
(lp3406
S'wsgi.run_once'
p3407
asbag49
(g70
g51
NtRp3408
(dp3409
g54
(dp3410
g81
g82
ssg63
g3399
sg56
(lp3411
S':'
asbag49
(g70
g51
NtRp3412
(dp3413
g54
(dp3414
sg63
g3399
sg56
(lp3415
g49
(g50
g51
NtRp3416
(dp3417
g54
(dp3418
g62
I3
ssg63
g3412
sg56
(lp3419
g92
asbasbasbag49
(g65
g51
NtRp3420
(dp3421
g54
(dp3422
sg63
g2888
sg56
(lp3423
g49
(g70
g51
NtRp3424
(dp3425
g54
(dp3426
g74
g75
ssg63
g3420
sg56
(lp3427
S'wsgi.url_scheme'
p3428
asbag49
(g70
g51
NtRp3429
(dp3430
g54
(dp3431
g81
g82
ssg63
g3420
sg56
(lp3432
S':'
asbag49
(g70
g51
NtRp3433
(dp3434
g54
(dp3435
sg63
g3420
sg56
(lp3436
g49
(g50
g51
NtRp3437
(dp3438
g54
(dp3439
g62
I3
ssg63
g3433
sg56
(lp3440
g2160
asbasbasbag49
(g65
g51
NtRp3441
(dp3442
g54
(dp3443
sg63
g2888
sg56
(lp3444
g49
(g70
g51
NtRp3445
(dp3446
g54
(dp3447
g74
g75
ssg63
g3441
sg56
(lp3448
S'wsgi.version'
p3449
asbag49
(g70
g51
NtRp3450
(dp3451
g54
(dp3452
g81
g82
ssg63
g3441
sg56
(lp3453
S':'
asbag49
(g70
g51
NtRp3454
(dp3455
g54
(dp3456
sg63
g3441
sg56
(lp3457
g49
(g50
g51
NtRp3458
(dp3459
g54
(dp3460
g62
I3
ssg63
g3454
sg56
(lp3461
S'1'
asbasbasbasbasbasbasbasbasbasbasbasbasbsS'frames'
p3462
(lp3463
(dp3464
S'file'
p3465
S'/Users/mdipierro/Dropbox/web2py/gluon/restricted.py'
p3466
sS'dump'
p3467
(dp3468
S'environment'
p3469
S"{'A': <class 'gluon.html.A'>, 'Auth': <class 'gluon.tools.Auth'>, 'B': <class 'gluon.html.B'>, 'BEAUTIFY': <class 'gluon.html.BEAUTIFY'>, 'BODY': <class 'gluon.html.BODY'>, 'BR': <class 'gluon.html.BR'>, 'BUTTON': <class 'gluon.html.BUTTON'>, 'CAT': <class 'gluon.html.CAT'>, 'CENTER': <class 'gluon.html.CENTER'>, 'CLEANUP': <class 'gluon.validators.CLEANUP'>, ...}"
p3470
sS'ccode'
p3471
S'<code object <module> at 0x1c734e8, file "/Users...ications/inplace/controllers/default.py", line 4>'
p3472
ssS'lnum'
p3473
I204
sS'lines'
p3474
(dp3475
I199
S'    try:'
p3476
sI200
S'        if type(code) == types.CodeType:'
p3477
sI201
S'            ccode = code'
p3478
sI202
S'        else:'
p3479
sI203
S'            ccode = compile2(code,layer)'
p3480
sI204
S'        exec ccode in environment'
p3481
sI205
S'    except HTTP:'
p3482
sI206
S'        raise'
p3483
sI207
S'    except RestrictedError:'
p3484
sI208
S'        # do not encapsulate (obfuscate) the original RestrictedError'
p3485
ssS'call'
p3486
S"(code='# -*- coding: utf-8 -*-\\n# this file is released ...0)).html\\n\\nresponse._vars=response._caller(clone)\\n', environment={'A': <class 'gluon.html.A'>, 'Auth': <class 'gluon.tools.Auth'>, 'B': <class 'gluon.html.B'>, 'BEAUTIFY': <class 'gluon.html.BEAUTIFY'>, 'BODY': <class 'gluon.html.BODY'>, 'BR': <class 'gluon.html.BR'>, 'BUTTON': <class 'gluon.html.BUTTON'>, 'CAT': <class 'gluon.html.CAT'>, 'CENTER': <class 'gluon.html.CENTER'>, 'CLEANUP': <class 'gluon.validators.CLEANUP'>, ...}, layer='/Users/mdipierro/Dropbox/web2py/applications/inplace/controllers/default.py')"
p3487
sS'func'
p3488
S'restricted'
p3489
sa(dp3490
g3465
S'/Users/mdipierro/Dropbox/web2py/applications/inplace/controllers/default.py'
p3491
sg3467
(dp3492
sg3473
I50
sg3474
(dp3493
I39
S"    html = html.replace('</head>',inject+'</head>')"
p3494
sI40
S'    return html'
p3495
sI41
S''
sI42
S'def page():'
p3496
sI43
S'    id = db.clone.insert(url=session.url,html=session.new_html)'
p3497
sI44
S"    redirect(URL('clone',args=id))"
p3498
sI45
S''
sI46
S'def clone():'
p3499
sI47
S"    if request.args(0)=='post': redirect(URL('index'))"
p3500
sI48
S'    return db.clone(request.args(0)).html'
p3501
ssg3486
S'()'
p3502
sg3488
S'<module>'
p3503
sa(dp3504
g3465
S'/Users/mdipierro/Dropbox/web2py/gluon/globals.py'
p3505
sg3467
(dp3506
S'self'
p3507
S'undefined'
p3508
sS'f'
S'<function clone at 0x1c8c430>'
p3509
ssg3473
I172
sg3474
(dp3510
I167
S'        self.meta = Storage()      # used by web2py_ajax.html'
p3511
sI168
S'        self.menu = []             # used by the default view layout'
p3512
sI169
S'        self.files = []            # used by web2py_ajax.html'
p3513
sI170
S'        self.generic_patterns = [] # patterns to allow generic views'
p3514
sI171
S'        self._vars = None'
p3515
sI172
S'        self._caller = lambda f: f()'
p3516
sI173
S'        self._view_environment = None'
p3517
sI174
S'        self._custom_commit = None'
p3518
sI175
S'        self._custom_rollback = None'
p3519
sI176
S''
ssg3486
S'(f=<function clone at 0x1c8c430>)'
p3520
sg3488
S'<lambda>'
p3521
sa(dp3522
g3465
S'/Users/mdipierro/Dropbox/web2py/applications/inplace/controllers/default.py'
p3523
sg3467
(dp3524
S'global db'
p3525
S"<DAL {'auth_event': <Table {'origin': <gluon.dal... '_id': <gluon.dal.Field object at 0x1e4d7d0>}>}>"
p3526
sS'global request'
p3527
S"<Storage {'body': <cStringIO.StringO object at 0..._vars': <Storage {}>, 'post_vars': <Storage {}>}>"
p3528
sS'db.clone'
p3529
S"<Table {'ALL': <gluon.dal.SQLALL object at 0x114...ield object at 0x114eed0>, '_singular': 'Clone'}>"
p3530
sS'request.args'
p3531
S"['page']"
p3532
sS').html'
p3533
g3508
ssg3473
I48
sg3474
(dp3534
I39
S"    html = html.replace('</head>',inject+'</head>')"
p3535
sI40
S'    return html'
p3536
sI41
S''
sI42
S'def page():'
p3537
sI43
S'    id = db.clone.insert(url=session.url,html=session.new_html)'
p3538
sI44
S"    redirect(URL('clone',args=id))"
p3539
sI45
S''
sI46
S'def clone():'
p3540
sI47
S"    if request.args(0)=='post': redirect(URL('index'))"
p3541
sI48
S'    return db.clone(request.args(0)).html'
p3542
ssg3486
S'()'
p3543
sg3488
S'clone'
p3544
sasS'pyver'
p3545
S'Python 2.5.4: /usr/bin/python2.5'
p3546
sS'session'
p3547
g49
(g50
g51
NtRp3548
(dp3549
g54
(dp3550
sg56
(lp3551
g49
(g58
g51
NtRp3552
(dp3553
g54
(dp3554
g62
I5
ssg63
Nsg56
(lp3555
g49
(g65
g51
NtRp3556
(dp3557
g54
(dp3558
sg63
g3552
sg56
(lp3559
g49
(g70
g51
NtRp3560
(dp3561
g54
(dp3562
g74
g75
ssg63
g3556
sg56
(lp3563
S'html'
p3564
asbag49
(g70
g51
NtRp3565
(dp3566
g54
(dp3567
g81
g82
ssg63
g3556
sg56
(lp3568
S':'
asbag49
(g70
g51
NtRp3569
(dp3570
g54
(dp3571
sg63
g3556
sg56
(lp3572
g49
(g50
g51
NtRp3573
(dp3574
g54
(dp3575
g62
I5
ssg63
g3569
sg56
(lp3576
S'\n<!DOCTYPE html>\n<!-- paulirish.com/2008/conditional-stylesheets-vs-css-hacks-answer-neither/ -->\n<!--[if lt IE 7]><html class="ie ie6 ie-lte9 ie-lte8 ie-lte7 no-js" lang="en"> <![endif]-->\n<!--[if IE 7]><html class="ie ie7 ie-lte9 ie-lte8 ie-lte7 no-js" lang="en"> <![endif]-->\n<!--[if IE 8]><html class="ie ie8 ie-lte9 ie-lte8 no-js" lang="en"> <![endif]-->\n<!--[if IE 9]><html class="ie9 ie-lte9 no-js" lang="en"> <![endif]-->\n<!--[if (gt IE 9)|!(IE)]><!--> <html class="no-js" lang="en"> <!--<![endif]-->\n<head>\n  <meta charset="utf-8" />\n  <!-- www.phpied.com/conditional-comments-block-downloads/ -->\n  <!-- Always force latest IE rendering engine\n\t   (even in intranet) & Chrome Frame\n\t   Remove this if you use the .htaccess -->\n  <!--[if IE]>\n    <meta http-equiv="X-UA-Compatible" content="IE=edge">\n  <![endif]-->\n  \n  <title>web2py Web Framework</title>\n  \n  <!-- http://dev.w3.org/html5/markup/meta.name.html -->\n  <meta name="application-name" content="examples" />\n  \n  <!-- Speaking of Google, don\'t forget to set your site up:\n\t   http://google.com/webmasters -->\n  <meta name="google-site-verification" content="" />\n\n  <!--  Mobile Viewport Fix\n\t  j.mp/mobileviewport & davidbcalhoun.com/2010/viewport-metatag\n\t  device-width: Occupy full width of the screen in its current orientation\n\t  initial-scale = 1.0 retains dimensions instead of zooming out if page height > device height\n\t  user-scalable = yes allows the user to zoom in -->\n  <meta name="viewport" content="width=device-width, initial-scale=1.0, user-scalable=yes">\n  \n  <!-- Place favicon.ico and apple-touch-icon.png in the root of your domain and delete these references -->\n  <link rel="shortcut icon" href="/examples/static/favicon.ico" type="image/x-icon">\n  <link rel="apple-touch-icon" href="/examples/static/favicon.png">\n\n  <!-- All JavaScript at the bottom, except for Modernizr which enables \n\t   HTML5 elements & feature detects -->\n  <script src="/examples/static/js/modernizr.custom.js"></script>  \n\n  <!-- include stylesheets -->\n  \n\n  <script type="text/javascript"><!--\n    // These variables are used by the web2py_ajax_init function in web2py_ajax.js (which is loaded below).\n    var w2p_ajax_confirm_message = "Are you sure you want to delete this object?";\n    var w2p_ajax_date_format = "%Y-%m-%d";\n    var w2p_ajax_datetime_format = "%Y-%m-%d %H:%M:%S";\n    //--></script>\n<script src="/examples/static/js/jquery.js" type="text/javascript"></script><link href="/examples/static/css/calendar.css" rel="stylesheet" type="text/css" /><script src="/examples/static/js/calendar.js" type="text/javascript"></script><script src="/examples/static/js/web2py.js" type="text/javascript"></script><link href="/examples/static/css/skeleton.css" rel="stylesheet" type="text/css" /><link href="/examples/static/css/web2py.css" rel="stylesheet" type="text/css" /><link href="/examples/static/css/examples.css" rel="stylesheet" type="text/css" /><link href="/examples/static/css/superfish.css" rel="stylesheet" type="text/css" /><script src="/examples/static/js/superfish.js" type="text/javascript"></script>\n\n\n  <script type="text/javascript">\n    jQuery(function(){jQuery(\'.sf-menu\').superfish();});\n  </script>\n\n  \n\n  <!-- uncomment here to load jquery-ui\n  <link rel="stylesheet" href="http://ajax.googleapis.com/ajax/libs/jqueryui/1.8.16/themes/base/jquery-ui.css" type="text/css" media="all" />\n  <script src="http://ajax.googleapis.com/ajax/libs/jqueryui/1.8.16/jquery-ui.min.js" type="text/javascript"></script>\n  uncomment to load jquery-ui //-->\n  </style>\n</head>\n<body>\n  <div class="wrapper"><!-- for sticky footer -->    \n    <div class="flash"></div>    \n    <div class="header">\n      <div class="container">\n        <div class="sixteen columns">\n\t  <img src="/examples/static/images/web2py_logo.png" />\n          <h5></h5>\n        </div>\n        \n        <div class="sixteen columns statusbar">\n\t  \n\t  \n          <div id="menu"><ul class="sf-menu"><li><a href="/examples/default/index">Home</a></li><li><a href="/examples/default/what">About</a></li><li><a href="/examples/default/download">Download</a></li><li><a href="/examples/default/documentation">Docs &amp; Resources</a></li><li><a href="/examples/default/support">Support</a></li><li><a href="/examples/default/who">Contributors</a></li></ul>\n\t    \n            <!-- AddToAny BEGIN -->\n            <div style="float:right;padding-top:6px;" class="a2a_kit a2a_default_style">\n            <a class="a2a_dd" href="http://www.addtoany.com/share_save">Share</a></div>\n            <script type="text/javascript" src="http://static.addtoany.com/menu/page.js"></script>\n            <!-- AddToAny END -->\n          </div>\n\t  \n\t  <div class="sixteen columns announce">\n\t    <a href="http://www.infoworld.com/d/open-source-software/bossie-awards-2011-the-best-open-source-application-development-software-171759-0&current=10&last=1#slideshowTop">2011 BOSSIE AWARD FOR OPEN SOURCE DEVELOPMENT SOFTWARE</a>\n          </div>\n\t</div>\n      </div>\n    </div>\n    <div class="main">\n      <div class="container mainbody">\t\n        <div class="sixteen columns">\n          <div class="ten columns center">\n            \n            \n\n<center>\n  <img src="/examples/static/images/tag-cloud-color-small.png"/>\n</center>\n\n<h3>WEB2PY<sup>TM</sup> WEB FRAMEWORK</h3>\n<p>Free open source full-stack framework for rapid development of fast, scalable, <a href="http://www.web2py.com/book/default/chapter/01#security" target="_blank">secure</a> and portable database-driven web-based applications. Written and programmable in <a href="http://www.python.org" target="_blank">Python</a>. <a href="http://www.gnu.org/licenses/lgpl.html">LGPLv3 License</a>.\nCurrent version: 1.99.3 (2011-12-09 16:18:03) stable</p>\n\n\n\n\n\n\n            \n          </div>\n          \n          \n          <div class="five columns">\n            \n<div style="text-align:center">\n  <a href="http://web2py.com/book"><img src="/examples/static/images/tablet.png" alt="Tablet" /></a><br/>\n  <a href="http://www.lulu.com/product/paperback/web2py-book-(4th-edition)/18738286"><img src="http://static.lulu.com/images/services/buy_now_buttons/us/book.gif?20111206124946" border="0" alt="Support independent publishing: Buy this book on Lulu."></a><br/>\n  <a class="button" href="/examples/default/download" style="width:90%">DOWNLOAD NOW</a><br/>\n  <a class="button" href="http://web2py.com/demo_admin" style="width:90%">ONLINE DEMO</a><br/>\n  <a class="button" href="http://web2py.com/poweredby" style="width:90%">SITES POWERED</a>\n</div>\n\n          </div>    \n          \n        </div>\n      </div><!-- container -->\n      \n<div class="container">\n  <div class="sixteen columns">\n    <div class="five columns">\n      <h3><a href="/examples/default/about">BATTERIES INCLUDED</a></h3>\n      <p>Everything you need in one package including fast multi-threaded web server, SQL database and web-based interface. No third party dependencies but works with <a href=/examples/default/what>third party tools</a>.</p>\n    </div>\n    <div class="five columns">\n      <h3><a href="http://web2py.com/demo_admin">WEB-BASED IDE</a></h3>\n      <p>Create, modify, deploy and manage application from anywhere using your browser. One web2py instance can run multiple web sites using different databases. Try the <a href="http://web2py.com/demo_admin">interactive demo</a>.</p>\n    </div>\n    <div class="five columns">\n      <h3><a href="/examples/default/documentation">EXTENSIVE DOCS</a></h3>\n      <p>Start with some <a href="/examples/default/examples">quick examples</a>, then read the <a href="http://web2py.com/book">reference manual</a>, watch <a href="http://vimeo.com/album/178500">videos</a>, and join a <a href="/examples/default/usergroups">user group</a> for discussion. Take advantage of the <a href="http://web2py.com/layouts">layouts</a>, <a href="http://dev.s-cubism.com/web2py_plugins">plugins</a>, and <a href="http://web2pyslices.com">recipes</a>.</p>\n    </div>\n  </div>\n</div>\n<div class="container">\n  <div class="sixteen columns">\n    <img src="/examples/static/images/shadow-bottom.png" width="100%"/>\n    \n    <div class="five columns">\n      <em>\n\t<p>web2py rules! as a sysadmin I like the no installation and no configuration approach a lot)</p>\n      </em>\n      <span class="right">\n\t<a href="http://twitter.com/#!/jkogut/status/61414554273447936"><em>kjogut</em></a>\n      </span>\n    </div>\n    \n    <div class="five columns">\n      <em>\n\t<p>web2py it is. Compatible with everything under the sun and great interfaces to googleappengine</p>\n      </em>\n      <span class="right">\n\t<a href="http://twitter.com/#!/comamitc/status/51744719071477760"><em>comamitc</em></a>\n      </span>\n    </div>\n    \n    <div class="five columns">\n      <em>\n\t<p>If you are still learning python, web2py is best tool by far</p>\n      </em>\n      <span class="right">\n\t<a href="http://twitter.com/#!/pbreit/status/48260905775017984"><em>pbreit</em></a>\n      </span>\n    </div>\n    \n  </div>\n</div>\n      \n      \n    </div><!-- main -->\n    \n    <div class="push"></div>\n  </div><!-- wrapper -->\n\n  <div class="footer">\n    <div class="container header">    \n      <div class="sixteen columns">\n         <!-- this is default footer -->\n        <div class="footer-content" >\n          Copyright &#169; 2011\n\t  - User communities in <a href="https://groups.google.com/forum/?fromgroups#!forum/web2py" target="_blank">English<a>, <a href="https://groups.google.com/forum/?fromgroups#!forum/web2py-fr" target="_blank">French</a>, <a href="https://groups.google.com/forum/?fromgroups#!forum/web2py-japan" target="_blank">Japanese</a>, <a href="https://groups.google.com/forum/?fromgroups#!forum/web2py-users-brazil" target="_blank">Portuguese</a>, and <a href="https://groups.google.com/forum/?fromgroups#!forum/web2py-usuarios" target="_blank">Spanish</a>.\n          <div style="float: right;">\n            <a href="http://www.web2py.com/" style="float: left; padding-right: 6px;">\n            <img style="padding-bottom: 0;" src="/examples/static/images/poweredby.png"/>\n            </a>\n          </div>\n        </div>\n        \t\n      </div>\n    </div><!-- container -->\n  </div><!-- footer -->\n  \n  <!--[if lt IE 7 ]>\n\t<script src="/examples/static/js/dd_belatedpng.js"></script>\n\t<script> DD_belatedPNG.fix(\'img, .png_bg\'); //fix any <img> or .png_bg background-images </script>\n\t<![endif]-->\n  \n</body>\n</html>\n'
p3577
asbasbasbag49
(g65
g51
NtRp3578
(dp3579
g54
(dp3580
sg63
g3552
sg56
(lp3581
g49
(g70
g51
NtRp3582
(dp3583
g54
(dp3584
g74
g75
ssg63
g3578
sg56
(lp3585
S'new_html'
p3586
asbag49
(g70
g51
NtRp3587
(dp3588
g54
(dp3589
g81
g82
ssg63
g3578
sg56
(lp3590
S':'
asbag49
(g70
g51
NtRp3591
(dp3592
g54
(dp3593
sg63
g3578
sg56
(lp3594
g49
(g50
g51
NtRp3595
(dp3596
g54
(dp3597
g62
I5
ssg63
g3591
sg56
(lp3598
S'\n<!DOCTYPE html>\n<!-- paulirish.com/2008/conditional-stylesheets-vs-css-hacks-answer-neither/ -->\n<!--[if lt IE 7]><html class="ie ie6 ie-lte9 ie-lte8 ie-lte7 no-js" lang="en"> <![endif]-->\n<!--[if IE 7]><html class="ie ie7 ie-lte9 ie-lte8 ie-lte7 no-js" lang="en"> <![endif]-->\n<!--[if IE 8]><html class="ie ie8 ie-lte9 ie-lte8 no-js" lang="en"> <![endif]-->\n<!--[if IE 9]><html class="ie9 ie-lte9 no-js" lang="en"> <![endif]-->\n<!--[if (gt IE 9)|!(IE)]><!--> <html class="no-js" lang="en"> <!--<![endif]-->\n<head>\n  <meta charset="utf-8" />\n  <!-- www.phpied.com/conditional-comments-block-downloads/ -->\n  <!-- Always force latest IE rendering engine\n\t   (even in intranet) & Chrome Frame\n\t   Remove this if you use the .htaccess -->\n  <!--[if IE]>\n    <meta http-equiv="X-UA-Compatible" content="IE=edge">\n  <![endif]-->\n  \n  <title>web2py Web Framework</title>\n  \n  <!-- http://dev.w3.org/html5/markup/meta.name.html -->\n  <meta name="application-name" content="examples" />\n  \n  <!-- Speaking of Google, don\'t forget to set your site up:\n\t   http://google.com/webmasters -->\n  <meta name="google-site-verification" content="" />\n\n  <!--  Mobile Viewport Fix\n\t  j.mp/mobileviewport & davidbcalhoun.com/2010/viewport-metatag\n\t  device-width: Occupy full width of the screen in its current orientation\n\t  initial-scale = 1.0 retains dimensions instead of zooming out if page height > device height\n\t  user-scalable = yes allows the user to zoom in -->\n  <meta name="viewport" content="width=device-width, initial-scale=1.0, user-scalable=yes">\n  \n  <!-- Place favicon.ico and apple-touch-icon.png in the root of your domain and delete these references -->\n  <link rel="shortcut icon" href="/examples/static/favicon.ico" type="image/x-icon">\n  <link rel="apple-touch-icon" href="/examples/static/favicon.png">\n\n  <!-- All JavaScript at the bottom, except for Modernizr which enables \n\t   HTML5 elements & feature detects -->\n  <script src="/examples/static/js/modernizr.custom.js"></script>  \n\n  <!-- include stylesheets -->\n  \n\n  <script type="text/javascript"><!--\n    // These variables are used by the web2py_ajax_init function in web2py_ajax.js (which is loaded below).\n    var w2p_ajax_confirm_message = "Are you sure you want to delete this object?";\n    var w2p_ajax_date_format = "%Y-%m-%d";\n    var w2p_ajax_datetime_format = "%Y-%m-%d %H:%M:%S";\n    //--></script>\n<script src="/examples/static/js/jquery.js" type="text/javascript"></script><link href="/examples/static/css/calendar.css" rel="stylesheet" type="text/css" /><script src="/examples/static/js/calendar.js" type="text/javascript"></script><script src="/examples/static/js/web2py.js" type="text/javascript"></script><link href="/examples/static/css/skeleton.css" rel="stylesheet" type="text/css" /><link href="/examples/static/css/web2py.css" rel="stylesheet" type="text/css" /><link href="/examples/static/css/examples.css" rel="stylesheet" type="text/css" /><link href="/examples/static/css/superfish.css" rel="stylesheet" type="text/css" /><script src="/examples/static/js/superfish.js" type="text/javascript"></script>\n\n\n  <script type="text/javascript">\n    jQuery(function(){jQuery(\'.sf-menu\').superfish();});\n  </script>\n\n  \n\n  <!-- uncomment here to load jquery-ui\n  <link rel="stylesheet" href="http://ajax.googleapis.com/ajax/libs/jqueryui/1.8.16/themes/base/jquery-ui.css" type="text/css" media="all" />\n  <script src="http://ajax.googleapis.com/ajax/libs/jqueryui/1.8.16/jquery-ui.min.js" type="text/javascript"></script>\n  uncomment to load jquery-ui //-->\n  </style>\n</head>\n<body><div style="padding: 5px 20px 5px 20px; font-size: 1.5em; text-align:right;background:black;color:white;height:30px;">Attention: this is a copy of the original page [ <a style="color:white" href="javascript:history.go(-1)">back</a> | <a style="color:white" href="page">next</a> ]</div><iframe id="a2apage_sm_ifr" height="1" width="1" style="border-top-width: 0px; border-right-width: 0px; border-bottom-width: 0px; border-left-width: 0px; border-style: initial; border-color: initial; border-image: initial; left: 0px; top: 0px; position: absolute; z-index: 100000; display: none; " transparency="true" allowtransparency="true" frameborder="0" src="http://static.addtoany.com/menu/sm7.html#type=page&amp;event=load&amp;url=http%3A%2F%2F127.0.0.1%3A8000%2Finplace%2Fdefault%2Fedit%3Furl%3Dhttp%253A%252F%252Fweb2py.com&amp;referrer=http%3A%2F%2F127.0.0.1%3A8000%2Finplace"></iframe><div style="position: static; "><div id="a2apage_dropdown" class="a2a_menu" onmouseover="a2a.onMouseOver_stay()" onmouseout="a2a.onMouseOut_delay()"><div class="a2a_menu_inside"><div id="a2apage_title_container" class="a2a_menu_title_container" style="display: none; "><input id="a2apage_title" class="a2a_menu_title"></div><div class="a2apage_wide a2a_wide"><div class="a2a_tabs a2a_tabs_default"><div id="a2apage_DEFAULT" class="a2a_tab_selected" style="margin-right: 1px; " onclick="return a2a.tabs.open(\'DEFAULT\')"><span class="a2a_i_share">Share</span></div></div><div class="a2a_tabs"><div title="Share via email" id="a2apage_EMAIL" style="margin-right: 1px; " onclick="return a2a.tabs.open(\'EMAIL\')"><span class="a2a_i_email"></span></div></div><div class="a2a_tabs"><div onclick="a2a.bmBrowser()" title="Bookmark in your browser" id="a2apage_BROWSER" style="margin-left: 1px; "><span class="a2a_i_bookmark"></span></div></div></div><div class="a2a_clear"></div><div id="a2apage_find_container" class="a2a_menu_find_container" style=""><input id="a2apage_find" class="a2a_menu_find" type="text" onclick="a2a.focus_find()" onkeyup="a2a.do_find()" autocomplete="off" onfocus="a2a[\'page\'].find_focused=true;a2a.onMouseOver_stay()" title="Instantly find any service"><span id="a2apage_find_icon" class="a2a_i_find" onclick="a2a.focus_find()"></span></div><div id="a2apage_cols_container" class="a2a_cols_container"><div class="a2a_col1" id="a2apage_col1" style=""><a id="a2apage_live" rel="nofollow" class="a2a_i a2a_sss" href="/" target="_blank"><span class="a2a_i_live">Messenger</span></a><a id="a2apage_facebook" rel="nofollow" class="a2a_i" href="/" target="_blank"><span class="a2a_i_facebook">Facebook</span></a><a id="a2apage_twitter" rel="nofollow" class="a2a_i" href="/" target="_blank"><span class="a2a_i_twitter">Twitter</span></a><a id="a2apage_google_plus" rel="nofollow" class="a2a_i" href="/" target="_blank"><span class="a2a_i_google">Google </span></a><a id="a2apage_delicious" rel="nofollow" class="a2a_i" href="/" target="_blank"><span class="a2a_i_delicious">Delicious</span></a><a id="a2apage_digg" rel="nofollow" class="a2a_i" href="/" target="_blank"><span class="a2a_i_digg">Digg</span></a><a id="a2apage_google_bookmarks" rel="nofollow" class="a2a_i" href="/" target="_blank"><span class="a2a_i_google">Google Bookmarks</span></a><a id="a2apage_myspace" rel="nofollow" class="a2a_i" href="/" target="_blank"><span class="a2a_i_myspace">MySpace</span></a><a id="a2apage_stumbleupon" rel="nofollow" class="a2a_i" href="/" target="_blank"><span class="a2a_i_stumbleupon">StumbleUpon</span></a><a id="a2apage_reddit" rel="nofollow" class="a2a_i" href="/" target="_blank"><span class="a2a_i_reddit">Reddit</span></a><a id="a2apage_vodpod" rel="nofollow" class="a2a_i" href="/" target="_blank" style="display: none; "><span class="a2a_i_vodpod">Vodpod</span></a><a id="a2apage_yahoo_bookmarks" rel="nofollow" class="a2a_i" href="/" target="_blank" style="display: none; "><span class="a2a_i_yahoo">Yahoo Bookmarks</span></a><a id="a2apage_bebo" rel="nofollow" class="a2a_i" href="/" target="_blank" style="display: none; "><span class="a2a_i_bebo">Bebo</span></a><a id="a2apage_mister_wong" rel="nofollow" class="a2a_i" href="/" target="_blank" style="display: none; "><span class="a2a_i_mister-wong">Mister-Wong</span></a><a id="a2apage_wordpress" rel="nofollow" class="a2a_i" href="/" target="_blank" style="display: none; "><span class="a2a_i_wordpress">WordPress</span></a><a id="a2apage_google_reader" rel="nofollow" class="a2a_i" href="/" target="_blank" style="display: none; "><span class="a2a_i_reader">Google Reader</span></a><a id="a2apage_orkut" rel="nofollow" class="a2a_i" href="/" target="_blank" style="display: none; "><span class="a2a_i_orkut">Orkut</span></a><a id="a2apage_xing" rel="nofollow" class="a2a_i" href="/" target="_blank" style="display: none; "><span class="a2a_i_xing">XING</span></a><a id="a2apage_evernote" rel="nofollow" class="a2a_i" href="/" target="_blank" style="display: none; "><span class="a2a_i_evernote">Evernote</span></a><a id="a2apage_netvibes_share" rel="nofollow" class="a2a_i" href="/" target="_blank" style="display: none; "><span class="a2a_i_netvibes">Netvibes Share</span></a><a id="a2apage_strands" rel="nofollow" class="a2a_i" href="/" target="_blank" style="display: none; "><span class="a2a_i_strands">Strands</span></a><a id="a2apage_posterous" rel="nofollow" class="a2a_i" href="/" target="_blank" style="display: none; "><span class="a2a_i_posterous">Posterous</span></a><a id="a2apage_business_exchange" rel="nofollow" class="a2a_i" href="/" target="_blank" style="display: none; "><span class="a2a_i_business_exchange">Business Exchange</span></a><a id="a2apage_arto" rel="nofollow" class="a2a_i" href="/" target="_blank" style="display: none; "><span class="a2a_i_arto">Arto</span></a><a id="a2apage_tipd" rel="nofollow" class="a2a_i" href="/" target="_blank" style="display: none; "><span class="a2a_i_tipd">Tipd</span></a><a id="a2apage_smaknews" rel="nofollow" class="a2a_i" href="/" target="_blank" style="display: none; "><span class="a2a_i_smaknews">SmakNews</span></a><a id="a2apage_plurk" rel="nofollow" class="a2a_i" href="/" target="_blank" style="display: none; "><span class="a2a_i_plurk">Plurk</span></a><a id="a2apage_aim" rel="nofollow" class="a2a_i" href="/" target="_blank" style="display: none; "><span class="a2a_i_aim">AIM</span></a><a id="a2apage_yahoo_messenger" rel="nofollow" class="a2a_i" href="/" target="_blank" style="display: none; "><span class="a2a_i_yim">Yahoo Messenger</span></a><a id="a2apage_identi_ca" rel="nofollow" class="a2a_i" href="/" target="_blank" style="display: none; "><span class="a2a_i_identica">Identi.ca</span></a><a id="a2apage_mozillaca" rel="nofollow" class="a2a_i" href="/" target="_blank" style="display: none; "><span class="a2a_i_mozillaca">Mozillaca</span></a><a id="a2apage_blogger_post" rel="nofollow" class="a2a_i" href="/" target="_blank" style="display: none; "><span class="a2a_i_blogger">Blogger Post</span></a><a id="a2apage_typepad_post" rel="nofollow" class="a2a_i" href="/" target="_blank" style="display: none; "><span class="a2a_i_typepad">TypePad Post</span></a><a id="a2apage_box_net" rel="nofollow" class="a2a_i" href="/" target="_blank" style="display: none; "><span class="a2a_i_box">Box.net</span></a><a id="a2apage_netlog" rel="nofollow" class="a2a_i" href="/" target="_blank" style="display: none; "><span class="a2a_i_netlog">Netlog</span></a><a id="a2apage_technorati_favorites" rel="nofollow" class="a2a_i" href="/" target="_blank" style="display: none; "><span class="a2a_i_technorati">Technorati Favorites</span></a><a id="a2apage_citeulike" rel="nofollow" class="a2a_i" href="/" target="_blank" style="display: none; "><span class="a2a_i_citeulike">CiteULike</span></a><a id="a2apage_jumptags" rel="nofollow" class="a2a_i" href="/" target="_blank" style="display: none; "><span class="a2a_i_jumptags">Jumptags</span></a><a id="a2apage_hemidemi" rel="nofollow" class="a2a_i" href="/" target="_blank" style="display: none; "><span class="a2a_i_hemidemi">Hemidemi</span></a><a id="a2apage_funp" rel="nofollow" class="a2a_i" href="/" target="_blank" style="display: none; "><span class="a2a_i_funp">FunP</span></a><a id="a2apage_instapaper" rel="nofollow" class="a2a_i" href="/" target="_blank" style="display: none; "><span class="a2a_i_instapaper">Instapaper</span></a><a id="a2apage_phonefavs" rel="nofollow" class="a2a_i" href="/" target="_blank" style="display: none; "><span class="a2a_i_phonefavs">PhoneFavs</span></a><a id="a2apage_xerpi" rel="nofollow" class="a2a_i" href="/" target="_blank" style="display: none; "><span class="a2a_i_xerpi">Xerpi</span></a><a id="a2apage_netvouz" rel="nofollow" class="a2a_i" href="/" target="_blank" style="display: none; "><span class="a2a_i_netvouz">Netvouz</span></a><a id="a2apage_wink" rel="nofollow" class="a2a_i" href="/" target="_blank" style="display: none; "><span class="a2a_i_wink">Wink</span></a><a id="a2apage_diigo" rel="nofollow" class="a2a_i" href="/" target="_blank" style="display: none; "><span class="a2a_i_diigo">Diigo</span></a><a id="a2apage_bibsonomy" rel="nofollow" class="a2a_i" href="/" target="_blank" style="display: none; "><span class="a2a_i_bibsonomy">BibSonomy</span></a><a id="a2apage_blogmarks" rel="nofollow" class="a2a_i" href="/" target="_blank" style="display: none; "><span class="a2a_i_blogmarks">BlogMarks</span></a><a id="a2apage_tailrank" rel="nofollow" class="a2a_i" href="/" target="_blank" style="display: none; "><span class="a2a_i_tailrank">Tailrank</span></a><a id="a2apage_startaid" rel="nofollow" class="a2a_i" href="/" target="_blank" style="display: none; "><span class="a2a_i_startaid">StartAid</span></a><a id="a2apage_kledy" rel="nofollow" class="a2a_i" href="/" target="_blank" style="display: none; "><span class="a2a_i_kledy">Kledy</span></a><a id="a2apage_khabbr" rel="nofollow" class="a2a_i" href="/" target="_blank" style="display: none; "><span class="a2a_i_khabbr">Khabbr</span></a><a id="a2apage_meneame" rel="nofollow" class="a2a_i" href="/" target="_blank" style="display: none; "><span class="a2a_i_meneame">Meneame</span></a><a id="a2apage_yoolink" rel="nofollow" class="a2a_i" href="/" target="_blank" style="display: none; "><span class="a2a_i_yoolink">Yoolink</span></a><a id="a2apage_bookmarks_fr" rel="nofollow" class="a2a_i" href="/" target="_blank" style="display: none; "><span class="a2a_i_bookmarks_fr">Bookmarks.fr</span></a><a id="a2apage_technotizie" rel="nofollow" class="a2a_i" href="/" target="_blank" style="display: none; "><span class="a2a_i_technotizie">Technotizie</span></a><a id="a2apage_newsvine" rel="nofollow" class="a2a_i" href="/" target="_blank" style="display: none; "><span class="a2a_i_newsvine">NewsVine</span></a><a id="a2apage_multiply" rel="nofollow" class="a2a_i" href="/" target="_blank" style="display: none; "><span class="a2a_i_multiply">Multiply</span></a><a id="a2apage_friendfeed" rel="nofollow" class="a2a_i" href="/" target="_blank" style="display: none; "><span class="a2a_i_friendfeed">FriendFeed</span></a><a id="a2apage_plaxo_pulse" rel="nofollow" class="a2a_i" href="/" target="_blank" style="display: none; "><span class="a2a_i_plaxo">Plaxo Pulse</span></a><a id="a2apage_ping" rel="nofollow" class="a2a_i" href="/" target="_blank" style="display: none; "><span class="a2a_i_ping">Ping</span></a><a id="a2apage_squidoo" rel="nofollow" class="a2a_i" href="/" target="_blank" style="display: none; "><span class="a2a_i_squidoo">Squidoo</span></a><a id="a2apage_protopage_bookmarks" rel="nofollow" class="a2a_i" href="/" target="_blank" style="display: none; "><span class="a2a_i_protopage">Protopage Bookmarks</span></a><a id="a2apage_blinklist" rel="nofollow" class="a2a_i" href="/" target="_blank" style="display: none; "><span class="a2a_i_blinklist">Blinklist</span></a><a id="a2apage_faves" rel="nofollow" class="a2a_i" href="/" target="_blank" style="display: none; "><span class="a2a_i_faves">Faves</span></a><a id="a2apage_yigg" rel="nofollow" class="a2a_i" href="/" target="_blank" style="display: none; "><span class="a2a_i_yigg">YiGG</span></a><a id="a2apage_webnews" rel="nofollow" class="a2a_i" href="/" target="_blank" style="display: none; "><span class="a2a_i_webnews">Webnews</span></a><a id="a2apage_segnalo" rel="nofollow" class="a2a_i" href="/" target="_blank" style="display: none; "><span class="a2a_i_segnalo">Segnalo</span></a><a id="a2apage_pusha" rel="nofollow" class="a2a_i" href="/" target="_blank" style="display: none; "><span class="a2a_i_pusha">Pusha</span></a><a id="a2apage_youmob" rel="nofollow" class="a2a_i" href="/" target="_blank" style="display: none; "><span class="a2a_i_youmob">YouMob</span></a><a id="a2apage_slashdot" rel="nofollow" class="a2a_i" href="/" target="_blank" style="display: none; "><span class="a2a_i_slashdot">Slashdot</span></a><a id="a2apage_fark" rel="nofollow" class="a2a_i" href="/" target="_blank" style="display: none; "><span class="a2a_i_fark">Fark</span></a><a id="a2apage_allvoices" rel="nofollow" class="a2a_i" href="/" target="_blank" style="display: none; "><span class="a2a_i_allvoices">Allvoices</span></a><a id="a2apage_jamespot" rel="nofollow" class="a2a_i" href="/" target="_blank" style="display: none; "><span class="a2a_i_jamespot">Jamespot</span></a><a id="a2apage_imera_brazil" rel="nofollow" class="a2a_i" href="/" target="_blank" style="display: none; "><span class="a2a_i_imera">Imera Brazil</span></a><a id="a2apage_twiddla" rel="nofollow" class="a2a_i" href="/" target="_blank" style="display: none; "><span class="a2a_i_twiddla">Twiddla</span></a><a id="a2apage_linkagogo" rel="nofollow" class="a2a_i" href="/" target="_blank" style="display: none; "><span class="a2a_i_linkagogo">LinkaGoGo</span></a><a id="a2apage_unalog" rel="nofollow" class="a2a_i" href="/" target="_blank" style="display: none; "><span class="a2a_i_unalog">unalog</span></a><a id="a2apage_hugg" rel="nofollow" class="a2a_i" href="/" target="_blank" style="display: none; "><span class="a2a_i_hugg">Hugg</span></a><a id="a2apage_diglog" rel="nofollow" class="a2a_i" href="/" target="_blank" style="display: none; "><span class="a2a_i_diglog">Diglog</span></a><a id="a2apage_nowpublic" rel="nofollow" class="a2a_i" href="/" target="_blank" style="display: none; "><span class="a2a_i_nowpublic">NowPublic</span></a><a id="a2apage_tumblr" rel="nofollow" class="a2a_i" href="/" target="_blank" style="display: none; "><span class="a2a_i_tumblr">Tumblr</span></a><a id="a2apage_livejournal" rel="nofollow" class="a2a_i" href="/" target="_blank" style="display: none; "><span class="a2a_i_livejournal">LiveJournal</span></a><a id="a2apage_current" rel="nofollow" class="a2a_i" href="/" target="_blank" style="display: none; "><span class="a2a_i_current">Current</span></a><a id="a2apage_hellotxt" rel="nofollow" class="a2a_i" href="/" target="_blank" style="display: none; "><span class="a2a_i_hellotxt">HelloTxt</span></a><a id="a2apage_spurl" rel="nofollow" class="a2a_i" href="/" target="_blank" style="display: none; "><span class="a2a_i_spurl">Spurl</span></a><a id="a2apage_yample" rel="nofollow" class="a2a_i" href="/" target="_blank" style="display: none; "><span class="a2a_i_yample">Yample</span></a><a id="a2apage_oneview" rel="nofollow" class="a2a_i" href="/" target="_blank" style="display: none; "><span class="a2a_i_oneview">Oneview</span></a><a id="a2apage_linkatopia" rel="nofollow" class="a2a_i" href="/" target="_blank" style="display: none; "><span class="a2a_i_linkatopia">Linkatopia</span></a><a id="a2apage_simpy" rel="nofollow" class="a2a_i" href="/" target="_blank" style="display: none; "><span class="a2a_i_simpy">Simpy</span></a><a id="a2apage_linkedin" rel="nofollow" class="a2a_i" href="/" target="_blank" style="display: none; "><span class="a2a_i_linkedin">LinkedIn</span></a><a id="a2apage_buddymarks" rel="nofollow" class="a2a_i" href="/" target="_blank" style="display: none; "><span class="a2a_i_buddymarks">BuddyMarks</span></a><a id="a2apage_ask_com_mystuff" rel="nofollow" class="a2a_i" href="/" target="_blank" style="display: none; "><span class="a2a_i_ask">Ask.com MyStuff</span></a><a id="a2apage_viadeo" rel="nofollow" class="a2a_i" href="/" target="_blank" style="display: none; "><span class="a2a_i_viadeo">Viadeo</span></a><a id="a2apage_maple" rel="nofollow" class="a2a_i" href="/" target="_blank" style="display: none; "><span class="a2a_i_maple">Maple</span></a><a id="a2apage_wists" rel="nofollow" class="a2a_i" href="/" target="_blank" style="display: none; "><span class="a2a_i_wists">Wists</span></a><a id="a2apage_connotea" rel="nofollow" class="a2a_i" href="/" target="_blank" style="display: none; "><span class="a2a_i_connotea">Connotea</span></a><a id="a2apage_backflip" rel="nofollow" class="a2a_i" href="/" target="_blank" style="display: none; "><span class="a2a_i_backflip">Backflip</span></a><a id="a2apage_mylinkvault" rel="nofollow" class="a2a_i" href="/" target="_blank" style="display: none; "><span class="a2a_i_mylinkvault">MyLinkVault</span></a><a id="a2apage_sitejot" rel="nofollow" class="a2a_i" href="/" target="_blank" style="display: none; "><span class="a2a_i_sitejot">SiteJot</span></a><a id="a2apage_sphinn" rel="nofollow" class="a2a_i" href="/" target="_blank" style="display: none; "><span class="a2a_i_sphinn">Sphinn</span></a><a id="a2apage_dzone" rel="nofollow" class="a2a_i" href="/" target="_blank" style="display: none; "><span class="a2a_i_dzone">DZone</span></a><a id="a2apage_care2_news" rel="nofollow" class="a2a_i" href="/" target="_blank" style="display: none; "><span class="a2a_i_care2">Care2 News</span></a><a id="a2apage_hyves" rel="nofollow" class="a2a_i" href="/" target="_blank" style="display: none; "><span class="a2a_i_hyves">Hyves</span></a><a id="a2apage_sphere" rel="nofollow" class="a2a_i" href="/" target="_blank" style="display: none; "><span class="a2a_i_sphere">Sphere</span></a><a id="a2apage_bitty_browser" rel="nofollow" class="a2a_i" href="/" target="_blank" style="display: none; "><span class="a2a_i_bitty">Bitty Browser</span></a><a id="a2apage_gabbr" rel="nofollow" class="a2a_i" href="/" target="_blank" style="display: none; "><span class="a2a_i_gabbr">Gabbr</span></a><a id="a2apage_symbaloo_feeds" rel="nofollow" class="a2a_i" href="/" target="_blank" style="display: none; "><span class="a2a_i_symbaloo">Symbaloo Feeds</span></a><a id="a2apage_tagza" rel="nofollow" class="a2a_i" href="/" target="_blank" style="display: none; "><span class="a2a_i_tagza">Tagza</span></a><a id="a2apage_folkd" rel="nofollow" class="a2a_i" href="/" target="_blank" style="display: none; "><span class="a2a_i_folkd">Folkd</span></a><a id="a2apage_newstrust" rel="nofollow" class="a2a_i" href="/" target="_blank" style="display: none; "><span class="a2a_i_newstrust">NewsTrust</span></a><a id="a2apage_amazon_wish_list" rel="nofollow" class="a2a_i" href="/" target="_blank" style="display: none; "><span class="a2a_i_amazon">Amazon Wish List</span></a><a id="a2apage_printfriendly" rel="nofollow" class="a2a_i" href="/" target="_blank" style="display: none; "><span class="a2a_i_printfriendly">PrintFriendly</span></a><a id="a2apage_read_it_later" rel="nofollow" class="a2a_i" href="/" target="_blank" style="display: none; "><span class="a2a_i_read_it_later">Read It Later</span></a><a id="a2apage_tuenti" rel="nofollow" class="a2a_i" href="/" target="_blank" style="display: none; "><span class="a2a_i_tuenti">Tuenti</span></a><a id="a2apage_email" rel="nofollow" class="a2a_i" href="/" target="_blank" style="display: none; "><span class="a2a_i_email">Email</span></a><a id="a2apage_rediff" rel="nofollow" class="a2a_i" href="/" target="_blank" style="display: none; "><span class="a2a_i_rediff">Rediff MyPage</span></a></div><div id="a2apage_2_col1" style="display: none; "><a id="a2apage_google_gmail" rel="nofollow" class="a2a_i" href="/" target="_blank"><span class="a2a_i_gmail">Google Gmail</span></a><a id="a2apage_yahoo_mail" rel="nofollow" class="a2a_i" href="/" target="_blank"><span class="a2a_i_yahoo">Yahoo Mail</span></a><a id="a2apage_hotmail" rel="nofollow" class="a2a_i" href="/" target="_blank"><span class="a2a_i_live">Hotmail</span></a><a id="a2apage_aol_mail" rel="nofollow" class="a2a_i" href="/" target="_blank"><span class="a2a_i_aol">AOL Mail</span></a><a id="a2apage_any_email" rel="nofollow" class="a2a_i a2a_emailer" href="/" target="_blank"><span class="a2a_i_email">Any email</span></a><a id="a2apage_email_client" rel="nofollow" class="a2a_i a2a_emailer a2a_email_client" href="/" target=""><span class="a2a_i_outlook">&nbsp;</span><span class="a2a_i_windows_mail">&nbsp;</span><span class="a2a_i_apple_mail">&nbsp;</span><span class="a2a_i_thunderbird">&nbsp;</span></a></div><div class="a2a_clear"></div></div><div id="a2apage_note_BROWSER" class="a2a_note" style="display:none"></div><div class="a2apage_wide a2a_wide" style=""><a href="javascript:void(0)" id="a2apage_show_more_less" class="a2a_menu_show_more_less" onclick="return a2a.show_more_less(0)" onmouseover="img=this.firstChild;if(a2a.c.color_arrow_hover==\'fff\'){if(img.className.indexOf(\'_wt\')==-1)img.className =\'_wt\'}else img.className=img.className.replace(/_wt/,\'\')" onmouseout="img=this.firstChild;if(a2a.c.color_arrow==\'fff\'){if(img.className.indexOf(\'_wt\')==-1)img.className =\'_wt\'}else img.className=img.className.replace(/_wt/,\'\')" title="Show all"><span class="a2a_i_darr"></span></a></div><div class="a2a_menu_powered_by" id="a2apage_powered_by" onmouseover="if(this.innerHTML!=this.orig&amp;&amp;!window.opera)this.innerHTML=this.orig;this.style.textAlign=\'center\'" style="">By <a href="http://share.lockerz.com/" target="_blank" title="Share Buttons">Lockerz</a></div></div></div></div>\n  <div class="wrapper"><!-- for sticky footer -->\n    <div class="flash" style="display: none; "></div>\n    <div class="header">\n      <div class="container">\n        <div class="sixteen columns">\n\t  <img src="http://web2py.com/examples/static/images/web2py_logo.png">\n          <h5></h5>\n        </div>\n        <div class="sixteen columns statusbar">\n          <div id="menu"><ul class="sf-menu"><li><a href="http://web2py.com/examples/default/index">Home</a></li><li><a href="http://web2py.com/examples/default/what">About</a></li><li><a href="http://web2py.com/examples/default/download">Download</a></li><li><a href="http://web2py.com/examples/default/documentation">Docs &amp; Resources</a></li><li><a href="http://web2py.com/examples/default/support">Support</a></li><li><a href="http://web2py.com/examples/default/who">Contributors</a></li></ul>\n            <!-- AddToAny BEGIN -->\n            <div style="float:right;padding-top:6px;" class="a2a_kit a2a_default_style">\n            <a class="a2a_dd" href="http://www.addtoany.com/share_save#url=http%3A%2F%2F127.0.0.1%3A8000%2Finplace%2Fdefault%2Fedit%3Furl%3Dhttp%253A%252F%252Fweb2py.com&amp;title=web2py%20Web%20Framework&amp;description="><span class="a2a_img a2a_img_text a2a_i_a2a"></span>Share</a><div style="clear: both; "></div></div>\n            <script type="text/javascript" src="http://static.addtoany.com/menu/page.js"></script>\n            <!-- AddToAny END -->\n          </div>\n\t  <div class="sixteen columns announce">\n\t    <a href="http://www.infoworld.com/d/open-source-software/bossie-awards-2011-the-best-open-source-application-development-software-171759-0&amp;current=10&amp;last=1#slideshowTop">2011 BOSSIE AWARD FOR OPEN SOURCE DEVELOPMENT SOFTWARE</a>\n          </div>\n\t</div>\n      </div>\n    </div>\n    <div class="main">\n      <div class="container mainbody">\n        <div class="sixteen columns">\n          <div class="ten columns center">\n<center>\n  <img src="http://web2py.com/examples/static/images/tag-cloud-color-small.png">\n</center>\n<h3>WEB2PY<sup>TM</sup> WEB FRAMEWORK</h3>\n<p>Do you ove this?</p>\n          </div>\n          <div class="five columns">\n<div style="text-align:center">\n  <a href="http://web2py.com/book"><img src="http://web2py.com/examples/static/images/tablet.png" alt="Tablet"></a><br>\n  <a href="http://www.lulu.com/product/paperback/web2py-book-(4th-edition)/18738286"><img src="http://static.lulu.com/images/services/buy_now_buttons/us/book.gif?20111206124946" border="0" alt="Support independent publishing: Buy this book on Lulu."></a><br>\n  <a class="button" href="http://web2py.com/examples/default/download" style="width:90%">DOWNLOAD NOW</a><br>\n  <a class="button" href="http://web2py.com/demo_admin" style="width:90%">ONLINE DEMO</a><br>\n  <a class="button" href="http://web2py.com/poweredby" style="width:90%">SITES POWERED</a>\n</div>\n          </div>\n        </div>\n      </div><!-- container -->\n<div class="container">\n  <div class="sixteen columns">\n    <div class="five columns">\n      <h3><a href="http://web2py.com/examples/default/about">BATTERIES INCLUDED</a></h3>\n      <p>Everything you need in one package including fast multi-threaded web server, SQL database and web-based interface. No third party dependencies but works with <a href="/examples/default/what">third party tools</a>.</p>\n    </div>\n    <div class="five columns">\n      <h3><a href="http://web2py.com/demo_admin">WEB-BASED IDE</a></h3>\n      <p>Create, modify, deploy and manage application from anywhere using your browser. One web2py instance can run multiple web sites using different databases. Try the <a href="http://web2py.com/demo_admin">interactive demo</a>.</p>\n    </div>\n    <div class="five columns">\n      <h3><a href="http://web2py.com/examples/default/documentation">EXTENSIVE DOCS</a></h3>\n      <p>Start with some <a href="http://web2py.com/examples/default/examples">quick examples</a>, then read the <a href="http://web2py.com/book">reference manual</a>, watch <a href="http://vimeo.com/album/178500">videos</a>, and join a <a href="http://web2py.com/examples/default/usergroups">user group</a> for discussion. Take advantage of the <a href="http://web2py.com/layouts">layouts</a>, <a href="http://dev.s-cubism.com/web2py_plugins">plugins</a>, and <a href="http://web2pyslices.com">recipes</a>.</p>\n    </div>\n  </div>\n</div>\n<div class="container">\n  <div class="sixteen columns">\n    <img src="http://web2py.com/examples/static/images/shadow-bottom.png" width="100%">\n    <div class="five columns">\n      <em>\n\t<p>web2py rules! as a sysadmin I like the no installation and no configuration approach a lot)</p>\n      </em>\n      <span class="right">\n\t<a href="http://twitter.com/#!/jkogut/status/61414554273447936"><em>kjogut</em></a>\n      </span>\n    </div>\n    <div class="five columns">\n      <em>\n\t<p>web2py it is. Compatible with everything under the sun and great interfaces to googleappengine</p>\n      </em>\n      <span class="right">\n\t<a href="http://twitter.com/#!/comamitc/status/51744719071477760"><em>comamitc</em></a>\n      </span>\n    </div>\n    <div class="five columns">\n      <em>\n\t<p>If you are still learning python, web2py is best tool by far</p>\n      </em>\n      <span class="right">\n\t<a href="http://twitter.com/#!/pbreit/status/48260905775017984"><em>pbreit</em></a>\n      </span>\n    </div>\n  </div>\n</div>\n    </div><!-- main -->\n    <div class="push"></div>\n  </div><!-- wrapper -->\n  <div class="footer">\n    <div class="container header">\n      <div class="sixteen columns">\n         <!-- this is default footer -->\n        <div class="footer-content">\n          Copyright \xa9 2011\n\t  - User communities in <a href="https://groups.google.com/forum/?fromgroups#!forum/web2py" target="_blank">English</a><a>, </a><a href="https://groups.google.com/forum/?fromgroups#!forum/web2py-fr" target="_blank">French</a>, <a href="https://groups.google.com/forum/?fromgroups#!forum/web2py-japan" target="_blank">Japanese</a>, <a href="https://groups.google.com/forum/?fromgroups#!forum/web2py-users-brazil" target="_blank">Portuguese</a>, and <a href="https://groups.google.com/forum/?fromgroups#!forum/web2py-usuarios" target="_blank">Spanish</a>.\n          <div style="float: right;">\n            <a href="http://www.web2py.com/" style="float: left; padding-right: 6px;">\n            <img style="padding-bottom: 0;" src="http://web2py.com/examples/static/images/poweredby.png">\n            </a>\n          </div>\n        </div>\n      </div>\n    </div><!-- container -->\n  </div><!-- footer -->\n  <!--[if lt IE 7 ]>\n\t<script src="http://web2py.com/examples/static/js/dd_belatedpng.js"></script>\n\t<script> DD_belatedPNG.fix(\'img, .png_bg\'); //fix any <img> or .png_bg background-images </script>\n\t<![endif]-->\n\n\n</body></html>'
p3599
asbasbasbag49
(g65
g51
NtRp3600
(dp3601
g54
(dp3602
sg63
g3552
sg56
(lp3603
g49
(g70
g51
NtRp3604
(dp3605
g54
(dp3606
g74
g75
ssg63
g3600
sg56
(lp3607
S'url'
p3608
asbag49
(g70
g51
NtRp3609
(dp3610
g54
(dp3611
g81
g82
ssg63
g3600
sg56
(lp3612
S':'
asbag49
(g70
g51
NtRp3613
(dp3614
g54
(dp3615
sg63
g3600
sg56
(lp3616
g49
(g50
g51
NtRp3617
(dp3618
g54
(dp3619
g62
I5
ssg63
g3613
sg56
(lp3620
S'http://web2py.com'
p3621
asbasbasbasbasbsS'etype'
p3622
S"<type 'exceptions.AttributeError'>"
p3623
sS'date'
p3624
S'Sat Dec 10 01:18:20 2011'
p3625
sS'response'
p3626
g49
(g50
g51
NtRp3627
(dp3628
g54
(dp3629
sg56
(lp3630
g49
(g58
g51
NtRp3631
(dp3632
g54
(dp3633
g62
I5
ssg63
Nsg56
(lp3634
g49
(g65
g51
NtRp3635
(dp3636
g54
(dp3637
sg63
g3631
sg56
(lp3638
g49
(g70
g51
NtRp3639
(dp3640
g54
(dp3641
g74
g75
ssg63
g3635
sg56
(lp3642
g160
asbag49
(g70
g51
NtRp3643
(dp3644
g54
(dp3645
g81
g82
ssg63
g3635
sg56
(lp3646
S':'
asbag49
(g70
g51
NtRp3647
(dp3648
g54
(dp3649
sg63
g3635
sg56
(lp3650
g49
(g50
g51
NtRp3651
(dp3652
g54
(dp3653
g62
I5
ssg63
g3647
sg56
(lp3654
S'<cStringIO.StringO object at 0x15502c0>'
p3655
asbasbasbag49
(g65
g51
NtRp3656
(dp3657
g54
(dp3658
sg63
g3631
sg56
(lp3659
g49
(g70
g51
NtRp3660
(dp3661
g54
(dp3662
g74
g75
ssg63
g3656
sg56
(lp3663
g226
asbag49
(g70
g51
NtRp3664
(dp3665
g54
(dp3666
g81
g82
ssg63
g3656
sg56
(lp3667
S':'
asbag49
(g70
g51
NtRp3668
(dp3669
g54
(dp3670
sg63
g3656
sg56
(lp3671
g49
(g50
g51
NtRp3672
(dp3673
g54
(dp3674
g62
I5
ssg63
g3668
sg56
(lp3675
g49
(g58
g51
NtRp3676
(dp3677
g54
(dp3678
g62
I4
ssg63
Nsg56
(lp3679
g49
(g65
g51
NtRp3680
(dp3681
g54
(dp3682
sg63
g3676
sg56
(lp3683
g49
(g70
g51
NtRp3684
(dp3685
g54
(dp3686
g74
g75
ssg63
g3680
sg56
(lp3687
S'session_id_inplace'
p3688
asbag49
(g70
g51
NtRp3689
(dp3690
g54
(dp3691
g81
g82
ssg63
g3680
sg56
(lp3692
S':'
asbag49
(g70
g51
NtRp3693
(dp3694
g54
(dp3695
sg63
g3680
sg56
(lp3696
g49
(g50
g51
NtRp3697
(dp3698
g54
(dp3699
g62
I4
ssg63
g3693
sg56
(lp3700
g49
(g58
g51
NtRp3701
(dp3702
g54
(dp3703
g62
I3
ssg63
Nsg56
(lp3704
g49
(g65
g51
NtRp3705
(dp3706
g54
(dp3707
sg63
g3701
sg56
(lp3708
g49
(g70
g51
NtRp3709
(dp3710
g54
(dp3711
g74
g75
ssg63
g3705
sg56
(lp3712
g276
asbag49
(g70
g51
NtRp3713
(dp3714
g54
(dp3715
g81
g82
ssg63
g3705
sg56
(lp3716
S':'
asbag49
(g70
g51
NtRp3717
(dp3718
g54
(dp3719
sg63
g3705
sg56
(lp3720
g49
(g50
g51
NtRp3721
(dp3722
g54
(dp3723
g62
I3
ssg63
g3717
sg56
(lp3724
S''
asbasbasbag49
(g65
g51
NtRp3725
(dp3726
g54
(dp3727
sg63
g3701
sg56
(lp3728
g49
(g70
g51
NtRp3729
(dp3730
g54
(dp3731
g74
g75
ssg63
g3725
sg56
(lp3732
g297
asbag49
(g70
g51
NtRp3733
(dp3734
g54
(dp3735
g81
g82
ssg63
g3725
sg56
(lp3736
S':'
asbag49
(g70
g51
NtRp3737
(dp3738
g54
(dp3739
sg63
g3725
sg56
(lp3740
g49
(g50
g51
NtRp3741
(dp3742
g54
(dp3743
g62
I3
ssg63
g3737
sg56
(lp3744
S''
asbasbasbag49
(g65
g51
NtRp3745
(dp3746
g54
(dp3747
sg63
g3701
sg56
(lp3748
g49
(g70
g51
NtRp3749
(dp3750
g54
(dp3751
g74
g75
ssg63
g3745
sg56
(lp3752
g318
asbag49
(g70
g51
NtRp3753
(dp3754
g54
(dp3755
g81
g82
ssg63
g3745
sg56
(lp3756
S':'
asbag49
(g70
g51
NtRp3757
(dp3758
g54
(dp3759
sg63
g3745
sg56
(lp3760
g49
(g50
g51
NtRp3761
(dp3762
g54
(dp3763
g62
I3
ssg63
g3757
sg56
(lp3764
S''
asbasbasbag49
(g65
g51
NtRp3765
(dp3766
g54
(dp3767
sg63
g3701
sg56
(lp3768
g49
(g70
g51
NtRp3769
(dp3770
g54
(dp3771
g74
g75
ssg63
g3765
sg56
(lp3772
g339
asbag49
(g70
g51
NtRp3773
(dp3774
g54
(dp3775
g81
g82
ssg63
g3765
sg56
(lp3776
S':'
asbag49
(g70
g51
NtRp3777
(dp3778
g54
(dp3779
sg63
g3765
sg56
(lp3780
g49
(g50
g51
NtRp3781
(dp3782
g54
(dp3783
g62
I3
ssg63
g3777
sg56
(lp3784
S''
asbasbasbag49
(g65
g51
NtRp3785
(dp3786
g54
(dp3787
sg63
g3701
sg56
(lp3788
g49
(g70
g51
NtRp3789
(dp3790
g54
(dp3791
g74
g75
ssg63
g3785
sg56
(lp3792
g360
asbag49
(g70
g51
NtRp3793
(dp3794
g54
(dp3795
g81
g82
ssg63
g3785
sg56
(lp3796
S':'
asbag49
(g70
g51
NtRp3797
(dp3798
g54
(dp3799
sg63
g3785
sg56
(lp3800
g49
(g50
g51
NtRp3801
(dp3802
g54
(dp3803
g62
I3
ssg63
g3797
sg56
(lp3804
S'/'
asbasbasbag49
(g65
g51
NtRp3805
(dp3806
g54
(dp3807
sg63
g3701
sg56
(lp3808
g49
(g70
g51
NtRp3809
(dp3810
g54
(dp3811
g74
g75
ssg63
g3805
sg56
(lp3812
g381
asbag49
(g70
g51
NtRp3813
(dp3814
g54
(dp3815
g81
g82
ssg63
g3805
sg56
(lp3816
S':'
asbag49
(g70
g51
NtRp3817
(dp3818
g54
(dp3819
sg63
g3805
sg56
(lp3820
g49
(g50
g51
NtRp3821
(dp3822
g54
(dp3823
g62
I3
ssg63
g3817
sg56
(lp3824
S''
asbasbasbag49
(g65
g51
NtRp3825
(dp3826
g54
(dp3827
sg63
g3701
sg56
(lp3828
g49
(g70
g51
NtRp3829
(dp3830
g54
(dp3831
g74
g75
ssg63
g3825
sg56
(lp3832
g402
asbag49
(g70
g51
NtRp3833
(dp3834
g54
(dp3835
g81
g82
ssg63
g3825
sg56
(lp3836
S':'
asbag49
(g70
g51
NtRp3837
(dp3838
g54
(dp3839
sg63
g3825
sg56
(lp3840
g49
(g50
g51
NtRp3841
(dp3842
g54
(dp3843
g62
I3
ssg63
g3837
sg56
(lp3844
S''
asbasbasbasbasbasbasbasbasbasbasbag49
(g65
g51
NtRp3845
(dp3846
g54
(dp3847
sg63
g3631
sg56
(lp3848
g49
(g70
g51
NtRp3849
(dp3850
g54
(dp3851
g74
g75
ssg63
g3845
sg56
(lp3852
S'files'
p3853
asbag49
(g70
g51
NtRp3854
(dp3855
g54
(dp3856
g81
g82
ssg63
g3845
sg56
(lp3857
S':'
asbag49
(g70
g51
NtRp3858
(dp3859
g54
(dp3860
sg63
g3845
sg56
(lp3861
g49
(g50
g51
NtRp3862
(dp3863
g54
(dp3864
g62
I5
ssg63
g3858
sg56
(lp3865
g49
(g58
g51
NtRp3866
(dp3867
g54
(dp3868
g62
I4
ssg63
Nsg56
(lp3869
sbasbasbasbag49
(g65
g51
NtRp3870
(dp3871
g54
(dp3872
sg63
g3631
sg56
(lp3873
g49
(g70
g51
NtRp3874
(dp3875
g54
(dp3876
g74
g75
ssg63
g3870
sg56
(lp3877
S'flash'
p3878
asbag49
(g70
g51
NtRp3879
(dp3880
g54
(dp3881
g81
g82
ssg63
g3870
sg56
(lp3882
S':'
asbag49
(g70
g51
NtRp3883
(dp3884
g54
(dp3885
sg63
g3870
sg56
(lp3886
g49
(g50
g51
NtRp3887
(dp3888
g54
(dp3889
g62
I5
ssg63
g3883
sg56
(lp3890
S''
asbasbasbag49
(g65
g51
NtRp3891
(dp3892
g54
(dp3893
sg63
g3631
sg56
(lp3894
g49
(g70
g51
NtRp3895
(dp3896
g54
(dp3897
g74
g75
ssg63
g3891
sg56
(lp3898
S'generic_patterns'
p3899
asbag49
(g70
g51
NtRp3900
(dp3901
g54
(dp3902
g81
g82
ssg63
g3891
sg56
(lp3903
S':'
asbag49
(g70
g51
NtRp3904
(dp3905
g54
(dp3906
sg63
g3891
sg56
(lp3907
g49
(g50
g51
NtRp3908
(dp3909
g54
(dp3910
g62
I5
ssg63
g3904
sg56
(lp3911
g49
(g58
g51
NtRp3912
(dp3913
g54
(dp3914
g62
I4
ssg63
Nsg56
(lp3915
g49
(g65
g51
NtRp3916
(dp3917
g54
(dp3918
sg63
g3912
sg56
(lp3919
g49
(g70
g51
NtRp3920
(dp3921
g54
(dp3922
sg63
g3916
sg56
(lp3923
g49
(g50
g51
NtRp3924
(dp3925
g54
(dp3926
g62
I4
ssg63
g3920
sg56
(lp3927
S'*'
asbasbasbasbasbasbasbag49
(g65
g51
NtRp3928
(dp3929
g54
(dp3930
sg63
g3631
sg56
(lp3931
g49
(g70
g51
NtRp3932
(dp3933
g54
(dp3934
g74
g75
ssg63
g3928
sg56
(lp3935
S'headers'
p3936
asbag49
(g70
g51
NtRp3937
(dp3938
g54
(dp3939
g81
g82
ssg63
g3928
sg56
(lp3940
S':'
asbag49
(g70
g51
NtRp3941
(dp3942
g54
(dp3943
sg63
g3928
sg56
(lp3944
g49
(g50
g51
NtRp3945
(dp3946
g54
(dp3947
g62
I5
ssg63
g3941
sg56
(lp3948
g49
(g58
g51
NtRp3949
(dp3950
g54
(dp3951
g62
I4
ssg63
Nsg56
(lp3952
g49
(g65
g51
NtRp3953
(dp3954
g54
(dp3955
sg63
g3949
sg56
(lp3956
g49
(g70
g51
NtRp3957
(dp3958
g54
(dp3959
g74
g75
ssg63
g3953
sg56
(lp3960
S'Cache-Control'
p3961
asbag49
(g70
g51
NtRp3962
(dp3963
g54
(dp3964
g81
g82
ssg63
g3953
sg56
(lp3965
S':'
asbag49
(g70
g51
NtRp3966
(dp3967
g54
(dp3968
sg63
g3953
sg56
(lp3969
g49
(g50
g51
NtRp3970
(dp3971
g54
(dp3972
g62
I4
ssg63
g3966
sg56
(lp3973
S'no-store, no-cache, must-revalidate, post-check=0, pre-check=0'
p3974
asbasbasbag49
(g65
g51
NtRp3975
(dp3976
g54
(dp3977
sg63
g3949
sg56
(lp3978
g49
(g70
g51
NtRp3979
(dp3980
g54
(dp3981
g74
g75
ssg63
g3975
sg56
(lp3982
S'Content-Type'
p3983
asbag49
(g70
g51
NtRp3984
(dp3985
g54
(dp3986
g81
g82
ssg63
g3975
sg56
(lp3987
S':'
asbag49
(g70
g51
NtRp3988
(dp3989
g54
(dp3990
sg63
g3975
sg56
(lp3991
g49
(g50
g51
NtRp3992
(dp3993
g54
(dp3994
g62
I4
ssg63
g3988
sg56
(lp3995
S'text/html; charset=utf-8'
p3996
asbasbasbag49
(g65
g51
NtRp3997
(dp3998
g54
(dp3999
sg63
g3949
sg56
(lp4000
g49
(g70
g51
NtRp4001
(dp4002
g54
(dp4003
g74
g75
ssg63
g3997
sg56
(lp4004
S'Expires'
p4005
asbag49
(g70
g51
NtRp4006
(dp4007
g54
(dp4008
g81
g82
ssg63
g3997
sg56
(lp4009
S':'
asbag49
(g70
g51
NtRp4010
(dp4011
g54
(dp4012
sg63
g3997
sg56
(lp4013
g49
(g50
g51
NtRp4014
(dp4015
g54
(dp4016
g62
I4
ssg63
g4010
sg56
(lp4017
S'Sat, 10 Dec 2011 07:18:20 GMT'
p4018
asbasbasbag49
(g65
g51
NtRp4019
(dp4020
g54
(dp4021
sg63
g3949
sg56
(lp4022
g49
(g70
g51
NtRp4023
(dp4024
g54
(dp4025
g74
g75
ssg63
g4019
sg56
(lp4026
S'Pragma'
p4027
asbag49
(g70
g51
NtRp4028
(dp4029
g54
(dp4030
g81
g82
ssg63
g4019
sg56
(lp4031
S':'
asbag49
(g70
g51
NtRp4032
(dp4033
g54
(dp4034
sg63
g4019
sg56
(lp4035
g49
(g50
g51
NtRp4036
(dp4037
g54
(dp4038
g62
I4
ssg63
g4032
sg56
(lp4039
S'no-cache'
p4040
asbasbasbag49
(g65
g51
NtRp4041
(dp4042
g54
(dp4043
sg63
g3949
sg56
(lp4044
g49
(g70
g51
NtRp4045
(dp4046
g54
(dp4047
g74
g75
ssg63
g4041
sg56
(lp4048
S'X-Powered-By'
p4049
asbag49
(g70
g51
NtRp4050
(dp4051
g54
(dp4052
g81
g82
ssg63
g4041
sg56
(lp4053
S':'
asbag49
(g70
g51
NtRp4054
(dp4055
g54
(dp4056
sg63
g4041
sg56
(lp4057
g49
(g50
g51
NtRp4058
(dp4059
g54
(dp4060
g62
I4
ssg63
g4054
sg56
(lp4061
S'web2py'
p4062
asbasbasbasbasbasbasbag49
(g65
g51
NtRp4063
(dp4064
g54
(dp4065
sg63
g3631
sg56
(lp4066
g49
(g70
g51
NtRp4067
(dp4068
g54
(dp4069
g74
g75
ssg63
g4063
sg56
(lp4070
S'menu'
p4071
asbag49
(g70
g51
NtRp4072
(dp4073
g54
(dp4074
g81
g82
ssg63
g4063
sg56
(lp4075
S':'
asbag49
(g70
g51
NtRp4076
(dp4077
g54
(dp4078
sg63
g4063
sg56
(lp4079
g49
(g50
g51
NtRp4080
(dp4081
g54
(dp4082
g62
I5
ssg63
g4076
sg56
(lp4083
g49
(g58
g51
NtRp4084
(dp4085
g54
(dp4086
g62
I4
ssg63
Nsg56
(lp4087
sbasbasbasbag49
(g65
g51
NtRp4088
(dp4089
g54
(dp4090
sg63
g3631
sg56
(lp4091
g49
(g70
g51
NtRp4092
(dp4093
g54
(dp4094
g74
g75
ssg63
g4088
sg56
(lp4095
S'meta'
p4096
asbag49
(g70
g51
NtRp4097
(dp4098
g54
(dp4099
g81
g82
ssg63
g4088
sg56
(lp4100
S':'
asbag49
(g70
g51
NtRp4101
(dp4102
g54
(dp4103
sg63
g4088
sg56
(lp4104
g49
(g50
g51
NtRp4105
(dp4106
g54
(dp4107
g62
I5
ssg63
g4101
sg56
(lp4108
g49
(g58
g51
NtRp4109
(dp4110
g54
(dp4111
g62
I4
ssg63
Nsg56
(lp4112
sbasbasbasbag49
(g65
g51
NtRp4113
(dp4114
g54
(dp4115
sg63
g3631
sg56
(lp4116
g49
(g70
g51
NtRp4117
(dp4118
g54
(dp4119
g74
g75
ssg63
g4113
sg56
(lp4120
S'postprocessing'
p4121
asbag49
(g70
g51
NtRp4122
(dp4123
g54
(dp4124
g81
g82
ssg63
g4113
sg56
(lp4125
S':'
asbag49
(g70
g51
NtRp4126
(dp4127
g54
(dp4128
sg63
g4113
sg56
(lp4129
g49
(g50
g51
NtRp4130
(dp4131
g54
(dp4132
g62
I5
ssg63
g4126
sg56
(lp4133
g49
(g58
g51
NtRp4134
(dp4135
g54
(dp4136
g62
I4
ssg63
Nsg56
(lp4137
sbasbasbasbag49
(g65
g51
NtRp4138
(dp4139
g54
(dp4140
sg63
g3631
sg56
(lp4141
g49
(g70
g51
NtRp4142
(dp4143
g54
(dp4144
g74
g75
ssg63
g4138
sg56
(lp4145
S'session_file'
p4146
asbag49
(g70
g51
NtRp4147
(dp4148
g54
(dp4149
g81
g82
ssg63
g4138
sg56
(lp4150
S':'
asbag49
(g70
g51
NtRp4151
(dp4152
g54
(dp4153
sg63
g4138
sg56
(lp4154
g49
(g50
g51
NtRp4155
(dp4156
g54
(dp4157
g62
I5
ssg63
g4151
sg56
(lp4158
S"<open file '/Users/mdipierro/Dropbox/web2py/applications/inplace/sessions/127.0.0.1-b67af904-b8cf-469d-95b3-18285a004db1', mode 'rb+' at 0x1cca2f0>"
p4159
asbasbasbag49
(g65
g51
NtRp4160
(dp4161
g54
(dp4162
sg63
g3631
sg56
(lp4163
g49
(g70
g51
NtRp4164
(dp4165
g54
(dp4166
g74
g75
ssg63
g4160
sg56
(lp4167
S'session_filename'
p4168
asbag49
(g70
g51
NtRp4169
(dp4170
g54
(dp4171
g81
g82
ssg63
g4160
sg56
(lp4172
S':'
asbag49
(g70
g51
NtRp4173
(dp4174
g54
(dp4175
sg63
g4160
sg56
(lp4176
g49
(g50
g51
NtRp4177
(dp4178
g54
(dp4179
g62
I5
ssg63
g4173
sg56
(lp4180
S'/Users/mdipierro/Dropbox/web2py/applications/inplace/sessions/127.0.0.1-b67af904-b8cf-469d-95b3-18285a004db1'
p4181
asbasbasbag49
(g65
g51
NtRp4182
(dp4183
g54
(dp4184
sg63
g3631
sg56
(lp4185
g49
(g70
g51
NtRp4186
(dp4187
g54
(dp4188
g74
g75
ssg63
g4182
sg56
(lp4189
S'session_id'
p4190
asbag49
(g70
g51
NtRp4191
(dp4192
g54
(dp4193
g81
g82
ssg63
g4182
sg56
(lp4194
S':'
asbag49
(g70
g51
NtRp4195
(dp4196
g54
(dp4197
sg63
g4182
sg56
(lp4198
g49
(g50
g51
NtRp4199
(dp4200
g54
(dp4201
g62
I5
ssg63
g4195
sg56
(lp4202
S'127.0.0.1-b67af904-b8cf-469d-95b3-18285a004db1'
p4203
asbasbasbag49
(g65
g51
NtRp4204
(dp4205
g54
(dp4206
sg63
g3631
sg56
(lp4207
g49
(g70
g51
NtRp4208
(dp4209
g54
(dp4210
g74
g75
ssg63
g4204
sg56
(lp4211
S'session_id_name'
p4212
asbag49
(g70
g51
NtRp4213
(dp4214
g54
(dp4215
g81
g82
ssg63
g4204
sg56
(lp4216
S':'
asbag49
(g70
g51
NtRp4217
(dp4218
g54
(dp4219
sg63
g4204
sg56
(lp4220
g49
(g50
g51
NtRp4221
(dp4222
g54
(dp4223
g62
I5
ssg63
g4217
sg56
(lp4224
g3688
asbasbasbag49
(g65
g51
NtRp4225
(dp4226
g54
(dp4227
sg63
g3631
sg56
(lp4228
g49
(g70
g51
NtRp4229
(dp4230
g54
(dp4231
g74
g75
ssg63
g4225
sg56
(lp4232
S'session_locked'
p4233
asbag49
(g70
g51
NtRp4234
(dp4235
g54
(dp4236
g81
g82
ssg63
g4225
sg56
(lp4237
S':'
asbag49
(g70
g51
NtRp4238
(dp4239
g54
(dp4240
sg63
g4225
sg56
(lp4241
g49
(g50
g51
NtRp4242
(dp4243
g54
(dp4244
g62
I5
ssg63
g4238
sg56
(lp4245
g2117
asbasbasbag49
(g65
g51
NtRp4246
(dp4247
g54
(dp4248
sg63
g3631
sg56
(lp4249
g49
(g70
g51
NtRp4250
(dp4251
g54
(dp4252
g74
g75
ssg63
g4246
sg56
(lp4253
S'session_new'
p4254
asbag49
(g70
g51
NtRp4255
(dp4256
g54
(dp4257
g81
g82
ssg63
g4246
sg56
(lp4258
S':'
asbag49
(g70
g51
NtRp4259
(dp4260
g54
(dp4261
sg63
g4246
sg56
(lp4262
g49
(g50
g51
NtRp4263
(dp4264
g54
(dp4265
g62
I5
ssg63
g4259
sg56
(lp4266
g92
asbasbasbag49
(g65
g51
NtRp4267
(dp4268
g54
(dp4269
sg63
g3631
sg56
(lp4270
g49
(g70
g51
NtRp4271
(dp4272
g54
(dp4273
g74
g75
ssg63
g4267
sg56
(lp4274
S'status'
p4275
asbag49
(g70
g51
NtRp4276
(dp4277
g54
(dp4278
g81
g82
ssg63
g4267
sg56
(lp4279
S':'
asbag49
(g70
g51
NtRp4280
(dp4281
g54
(dp4282
sg63
g4267
sg56
(lp4283
g49
(g50
g51
NtRp4284
(dp4285
g54
(dp4286
g62
I5
ssg63
g4280
sg56
(lp4287
S'200'
p4288
asbasbasbag49
(g65
g51
NtRp4289
(dp4290
g54
(dp4291
sg63
g3631
sg56
(lp4292
g49
(g70
g51
NtRp4293
(dp4294
g54
(dp4295
g74
g75
ssg63
g4289
sg56
(lp4296
S'subtitle'
p4297
asbag49
(g70
g51
NtRp4298
(dp4299
g54
(dp4300
g81
g82
ssg63
g4289
sg56
(lp4301
S':'
asbag49
(g70
g51
NtRp4302
(dp4303
g54
(dp4304
sg63
g4289
sg56
(lp4305
g49
(g50
g51
NtRp4306
(dp4307
g54
(dp4308
g62
I5
ssg63
g4302
sg56
(lp4309
S'experimental!'
p4310
asbasbasbag49
(g65
g51
NtRp4311
(dp4312
g54
(dp4313
sg63
g3631
sg56
(lp4314
g49
(g70
g51
NtRp4315
(dp4316
g54
(dp4317
g74
g75
ssg63
g4311
sg56
(lp4318
S'title'
p4319
asbag49
(g70
g51
NtRp4320
(dp4321
g54
(dp4322
g81
g82
ssg63
g4311
sg56
(lp4323
S':'
asbag49
(g70
g51
NtRp4324
(dp4325
g54
(dp4326
sg63
g4311
sg56
(lp4327
g49
(g50
g51
NtRp4328
(dp4329
g54
(dp4330
g62
I5
ssg63
g4324
sg56
(lp4331
S'Inplace Web Page Editor'
p4332
asbasbasbag49
(g65
g51
NtRp4333
(dp4334
g54
(dp4335
sg63
g3631
sg56
(lp4336
g49
(g70
g51
NtRp4337
(dp4338
g54
(dp4339
g74
g75
ssg63
g4333
sg56
(lp4340
g2803
asbag49
(g70
g51
NtRp4341
(dp4342
g54
(dp4343
g81
g82
ssg63
g4333
sg56
(lp4344
S':'
asbag49
(g70
g51
NtRp4345
(dp4346
g54
(dp4347
sg63
g4333
sg56
(lp4348
g49
(g50
g51
NtRp4349
(dp4350
g54
(dp4351
g62
I5
ssg63
g4345
sg56
(lp4352
g2816
asbasbasbag49
(g65
g51
NtRp4353
(dp4354
g54
(dp4355
sg63
g3631
sg56
(lp4356
g49
(g70
g51
NtRp4357
(dp4358
g54
(dp4359
g74
g75
ssg63
g4353
sg56
(lp4360
S'view'
p4361
asbag49
(g70
g51
NtRp4362
(dp4363
g54
(dp4364
g81
g82
ssg63
g4353
sg56
(lp4365
S':'
asbag49
(g70
g51
NtRp4366
(dp4367
g54
(dp4368
sg63
g4353
sg56
(lp4369
g49
(g50
g51
NtRp4370
(dp4371
g54
(dp4372
g62
I5
ssg63
g4366
sg56
(lp4373
S'default/clone.html'
p4374
asbasbasbasbasbsS'locals'
p4375
(dp4376
ssS'traceback'
p4377
S'Traceback (most recent call last):\n  File "/Users/mdipierro/Dropbox/web2py/gluon/restricted.py", line 204, in restricted\n    exec ccode in environment\n  File "/Users/mdipierro/Dropbox/web2py/applications/inplace/controllers/default.py", line 50, in <module>\n  File "/Users/mdipierro/Dropbox/web2py/gluon/globals.py", line 172, in <lambda>\n    self._caller = lambda f: f()\n  File "/Users/mdipierro/Dropbox/web2py/applications/inplace/controllers/default.py", line 48, in clone\n    return db.clone(request.args(0)).html\nAttributeError: \'NoneType\' object has no attribute \'html\'\n'
p4378
s.