(dp1
S'output'
p2
S"<type 'exceptions.IOError'> [Errno socket error] (8, 'nodename nor servname provided, or not known')"
p3
sS'layer'
p4
S'/Users/mdipierro/Dropbox/web2py/applications/inplace/controllers/default.py'
p5
sS'code'
p6
S'# -*- coding: utf-8 -*-\n# this file is released under public domain and you can use without limitations\n\nresponse.title=\'Inplace Web Page Editor\'\nresponse.subtitle=\'experimental!\'\n\ndef index():\n    form=SQLFORM.factory(Field(\'url\',requires=IS_URL(),default=\'http://web2py.com\'))\n    if form.process().accepted:\n        redirect(URL(\'edit\',vars=dict(url=form.vars.url)))\n    return dict(form=form)\n\ndef edit():\n    import urllib,re\n    print request.args(0)\n    if request.args(0)==\'post\':\n        return request.vars.value or \'\'\n    if request.args(0)==\'store\':\n        session.new_html = session.html.split(\'<body>\')[0]+\'<body>\'+request.vars.html+\'</body></html>\'\n        return \'ok\'\n    url = request.vars.url\n    html = urllib.urlopen(url).read()\n    session.html = html\n    html = re.sub(\'\\s+[\\n]\',\'\\n\',html)\n    html = re.sub(\'>[ \\t]+<\',\'> <\',html)\n    html = re.sub(\'(src|SRC)\\s*=\\s*"/(?!/)\',\'src="\'+\'/\'.join(url.split(\'/\')[:3])+\'/\',html)\n    html = re.sub(\'(src|SRC)\\s*=\\s*"(?!(/|http))\',\'src="\'+\'/\'.join(url.split(\'/\'))+\'/\',html)\n    html = re.sub(\'(href|HREF)\\s*=\\s*"/(?!/)\',\'href="\'+\'/\'.join(url.split(\'/\')[:3])+\'/\',html)\n    html = re.sub(\'(href|HREF)\\s*=\\s*"(?!(/|http))\',\'href="\'+\'/\'.join(url.split(\'/\'))+\'/\',html)\n    html = re.sub(\'url\\(/(?!/)\',\'url(\'+\'/\'.join(url.split(\'/\')[:3])+\'/\',html)\n    html = re.sub(\'url\\((?!(/|http))\',\'url(\'+\'/\'.join(url.split(\'/\'))+\'/\',html)\n    inject = \'<script src="%s" language="javascript"></script>\' % URL(\'static\',\'js/inject.js\')\n    html = html.replace(\'</head>\',inject+\'</head>\')\n    return html\n\ndef page():\n    return session.new_html\n\n\nresponse._vars=response._caller(edit)\n'
p7
sS'snapshot'
p8
(dp9
S'exception'
p10
(dp11
S'__hash__'
p12
S"<method-wrapper '__hash__' of exceptions.IOError object at 0x1538180>"
p13
sS'__setattr__'
p14
S"<method-wrapper '__setattr__' of exceptions.IOError object at 0x1538180>"
p15
sS'__reduce_ex__'
p16
S'<built-in method __reduce_ex__ of exceptions.IOError object at 0x1538180>'
p17
sS'__getslice__'
p18
S"<method-wrapper '__getslice__' of exceptions.IOError object at 0x1538180>"
p19
sS'__getitem__'
p20
S"<method-wrapper '__getitem__' of exceptions.IOError object at 0x1538180>"
p21
sS'__setstate__'
p22
S'<built-in method __setstate__ of exceptions.IOError object at 0x1538180>'
p23
sS'__reduce__'
p24
S'<built-in method __reduce__ of exceptions.IOError object at 0x1538180>'
p25
sS'__str__'
p26
S"<method-wrapper '__str__' of exceptions.IOError object at 0x1538180>"
p27
sS'args'
p28
S"('socket error', gaierror(8, 'nodename nor servname provided, or not known'))"
p29
sS'__getattribute__'
p30
S"<method-wrapper '__getattribute__' of exceptions.IOError object at 0x1538180>"
p31
sS'__class__'
p32
S"<type 'exceptions.IOError'>"
p33
sS'filename'
p34
S'None'
p35
sS'__delattr__'
p36
S"<method-wrapper '__delattr__' of exceptions.IOError object at 0x1538180>"
p37
sS'strerror'
p38
S"gaierror(8, 'nodename nor servname provided, or not known')"
p39
sS'__repr__'
p40
S"<method-wrapper '__repr__' of exceptions.IOError object at 0x1538180>"
p41
sS'errno'
p42
S"'socket error'"
p43
sS'__dict__'
p44
S'{}'
p45
sS'__doc__'
p46
S"'I/O operation failed.'"
p47
sS'__init__'
p48
S"<method-wrapper '__init__' of exceptions.IOError object at 0x1538180>"
p49
sS'__new__'
p50
S'<built-in method __new__ of type object at 0xdbc00>'
p51
ssS'evalue'
p52
S"[Errno socket error] (8, 'nodename nor servname provided, or not known')"
p53
sS'request'
p54
ccopy_reg
_reconstructor
p55
(cgluon.html
BEAUTIFY
p56
c__builtin__
object
p57
NtRp58
(dp59
S'attributes'
p60
(dp61
sS'components'
p62
(lp63
g55
(cgluon.html
TABLE
p64
g57
NtRp65
(dp66
g60
(dp67
S'level'
p68
I5
ssS'parent'
p69
Nsg62
(lp70
g55
(cgluon.html
TR
p71
g57
NtRp72
(dp73
g60
(dp74
sg69
g65
sg62
(lp75
g55
(cgluon.html
TD
p76
g57
NtRp77
(dp78
g60
(dp79
S'_style'
p80
S'font-weight:bold;vertical-align:top'
p81
ssg69
g72
sg62
(lp82
S'ajax'
p83
asbag55
(g76
g57
NtRp84
(dp85
g60
(dp86
S'_valign'
p87
S'top'
p88
ssg69
g72
sg62
(lp89
S':'
asbag55
(g76
g57
NtRp90
(dp91
g60
(dp92
sg69
g72
sg62
(lp93
g55
(g56
g57
NtRp94
(dp95
g60
(dp96
g68
I5
ssg69
g90
sg62
(lp97
S'False'
p98
asbasbasbag55
(g71
g57
NtRp99
(dp100
g60
(dp101
sg69
g65
sg62
(lp102
g55
(g76
g57
NtRp103
(dp104
g60
(dp105
g80
g81
ssg69
g99
sg62
(lp106
S'application'
p107
asbag55
(g76
g57
NtRp108
(dp109
g60
(dp110
g87
g88
ssg69
g99
sg62
(lp111
S':'
asbag55
(g76
g57
NtRp112
(dp113
g60
(dp114
sg69
g99
sg62
(lp115
g55
(g56
g57
NtRp116
(dp117
g60
(dp118
g68
I5
ssg69
g112
sg62
(lp119
S'inplace'
p120
asbasbasbag55
(g71
g57
NtRp121
(dp122
g60
(dp123
sg69
g65
sg62
(lp124
g55
(g76
g57
NtRp125
(dp126
g60
(dp127
g80
g81
ssg69
g121
sg62
(lp128
g28
asbag55
(g76
g57
NtRp129
(dp130
g60
(dp131
g87
g88
ssg69
g121
sg62
(lp132
S':'
asbag55
(g76
g57
NtRp133
(dp134
g60
(dp135
sg69
g121
sg62
(lp136
g55
(g56
g57
NtRp137
(dp138
g60
(dp139
g68
I5
ssg69
g133
sg62
(lp140
g55
(g64
g57
NtRp141
(dp142
g60
(dp143
g68
I4
ssg69
Nsg62
(lp144
sbasbasbasbag55
(g71
g57
NtRp145
(dp146
g60
(dp147
sg69
g65
sg62
(lp148
g55
(g76
g57
NtRp149
(dp150
g60
(dp151
g80
g81
ssg69
g145
sg62
(lp152
S'body'
p153
asbag55
(g76
g57
NtRp154
(dp155
g60
(dp156
g87
g88
ssg69
g145
sg62
(lp157
S':'
asbag55
(g76
g57
NtRp158
(dp159
g60
(dp160
sg69
g145
sg62
(lp161
g55
(g56
g57
NtRp162
(dp163
g60
(dp164
g68
I5
ssg69
g158
sg62
(lp165
S'<cStringIO.StringO object at 0x1144f80>'
p166
asbasbasbag55
(g71
g57
NtRp167
(dp168
g60
(dp169
sg69
g65
sg62
(lp170
g55
(g76
g57
NtRp171
(dp172
g60
(dp173
g80
g81
ssg69
g167
sg62
(lp174
S'client'
p175
asbag55
(g76
g57
NtRp176
(dp177
g60
(dp178
g87
g88
ssg69
g167
sg62
(lp179
S':'
asbag55
(g76
g57
NtRp180
(dp181
g60
(dp182
sg69
g167
sg62
(lp183
g55
(g56
g57
NtRp184
(dp185
g60
(dp186
g68
I5
ssg69
g180
sg62
(lp187
S'127.0.0.1'
p188
asbasbasbag55
(g71
g57
NtRp189
(dp190
g60
(dp191
sg69
g65
sg62
(lp192
g55
(g76
g57
NtRp193
(dp194
g60
(dp195
g80
g81
ssg69
g189
sg62
(lp196
S'controller'
p197
asbag55
(g76
g57
NtRp198
(dp199
g60
(dp200
g87
g88
ssg69
g189
sg62
(lp201
S':'
asbag55
(g76
g57
NtRp202
(dp203
g60
(dp204
sg69
g189
sg62
(lp205
g55
(g56
g57
NtRp206
(dp207
g60
(dp208
g68
I5
ssg69
g202
sg62
(lp209
S'default'
p210
asbasbasbag55
(g71
g57
NtRp211
(dp212
g60
(dp213
sg69
g65
sg62
(lp214
g55
(g76
g57
NtRp215
(dp216
g60
(dp217
g80
g81
ssg69
g211
sg62
(lp218
S'cookies'
p219
asbag55
(g76
g57
NtRp220
(dp221
g60
(dp222
g87
g88
ssg69
g211
sg62
(lp223
S':'
asbag55
(g76
g57
NtRp224
(dp225
g60
(dp226
sg69
g211
sg62
(lp227
g55
(g56
g57
NtRp228
(dp229
g60
(dp230
g68
I5
ssg69
g224
sg62
(lp231
g55
(g64
g57
NtRp232
(dp233
g60
(dp234
g68
I4
ssg69
Nsg62
(lp235
g55
(g71
g57
NtRp236
(dp237
g60
(dp238
sg69
g232
sg62
(lp239
g55
(g76
g57
NtRp240
(dp241
g60
(dp242
g80
g81
ssg69
g236
sg62
(lp243
S'el-finder-last-finder'
p244
asbag55
(g76
g57
NtRp245
(dp246
g60
(dp247
g87
g88
ssg69
g236
sg62
(lp248
S':'
asbag55
(g76
g57
NtRp249
(dp250
g60
(dp251
sg69
g236
sg62
(lp252
g55
(g56
g57
NtRp253
(dp254
g60
(dp255
g68
I4
ssg69
g249
sg62
(lp256
g55
(g64
g57
NtRp257
(dp258
g60
(dp259
g68
I3
ssg69
Nsg62
(lp260
g55
(g71
g57
NtRp261
(dp262
g60
(dp263
sg69
g257
sg62
(lp264
g55
(g76
g57
NtRp265
(dp266
g60
(dp267
g80
g81
ssg69
g261
sg62
(lp268
S'comment'
p269
asbag55
(g76
g57
NtRp270
(dp271
g60
(dp272
g87
g88
ssg69
g261
sg62
(lp273
S':'
asbag55
(g76
g57
NtRp274
(dp275
g60
(dp276
sg69
g261
sg62
(lp277
g55
(g56
g57
NtRp278
(dp279
g60
(dp280
g68
I3
ssg69
g274
sg62
(lp281
S''
asbasbasbag55
(g71
g57
NtRp282
(dp283
g60
(dp284
sg69
g257
sg62
(lp285
g55
(g76
g57
NtRp286
(dp287
g60
(dp288
g80
g81
ssg69
g282
sg62
(lp289
S'domain'
p290
asbag55
(g76
g57
NtRp291
(dp292
g60
(dp293
g87
g88
ssg69
g282
sg62
(lp294
S':'
asbag55
(g76
g57
NtRp295
(dp296
g60
(dp297
sg69
g282
sg62
(lp298
g55
(g56
g57
NtRp299
(dp300
g60
(dp301
g68
I3
ssg69
g295
sg62
(lp302
S''
asbasbasbag55
(g71
g57
NtRp303
(dp304
g60
(dp305
sg69
g257
sg62
(lp306
g55
(g76
g57
NtRp307
(dp308
g60
(dp309
g80
g81
ssg69
g303
sg62
(lp310
S'expires'
p311
asbag55
(g76
g57
NtRp312
(dp313
g60
(dp314
g87
g88
ssg69
g303
sg62
(lp315
S':'
asbag55
(g76
g57
NtRp316
(dp317
g60
(dp318
sg69
g303
sg62
(lp319
g55
(g56
g57
NtRp320
(dp321
g60
(dp322
g68
I3
ssg69
g316
sg62
(lp323
S''
asbasbasbag55
(g71
g57
NtRp324
(dp325
g60
(dp326
sg69
g257
sg62
(lp327
g55
(g76
g57
NtRp328
(dp329
g60
(dp330
g80
g81
ssg69
g324
sg62
(lp331
S'max-age'
p332
asbag55
(g76
g57
NtRp333
(dp334
g60
(dp335
g87
g88
ssg69
g324
sg62
(lp336
S':'
asbag55
(g76
g57
NtRp337
(dp338
g60
(dp339
sg69
g324
sg62
(lp340
g55
(g56
g57
NtRp341
(dp342
g60
(dp343
g68
I3
ssg69
g337
sg62
(lp344
S''
asbasbasbag55
(g71
g57
NtRp345
(dp346
g60
(dp347
sg69
g257
sg62
(lp348
g55
(g76
g57
NtRp349
(dp350
g60
(dp351
g80
g81
ssg69
g345
sg62
(lp352
S'path'
p353
asbag55
(g76
g57
NtRp354
(dp355
g60
(dp356
g87
g88
ssg69
g345
sg62
(lp357
S':'
asbag55
(g76
g57
NtRp358
(dp359
g60
(dp360
sg69
g345
sg62
(lp361
g55
(g56
g57
NtRp362
(dp363
g60
(dp364
g68
I3
ssg69
g358
sg62
(lp365
S''
asbasbasbag55
(g71
g57
NtRp366
(dp367
g60
(dp368
sg69
g257
sg62
(lp369
g55
(g76
g57
NtRp370
(dp371
g60
(dp372
g80
g81
ssg69
g366
sg62
(lp373
S'secure'
p374
asbag55
(g76
g57
NtRp375
(dp376
g60
(dp377
g87
g88
ssg69
g366
sg62
(lp378
S':'
asbag55
(g76
g57
NtRp379
(dp380
g60
(dp381
sg69
g366
sg62
(lp382
g55
(g56
g57
NtRp383
(dp384
g60
(dp385
g68
I3
ssg69
g379
sg62
(lp386
S''
asbasbasbag55
(g71
g57
NtRp387
(dp388
g60
(dp389
sg69
g257
sg62
(lp390
g55
(g76
g57
NtRp391
(dp392
g60
(dp393
g80
g81
ssg69
g387
sg62
(lp394
S'version'
p395
asbag55
(g76
g57
NtRp396
(dp397
g60
(dp398
g87
g88
ssg69
g387
sg62
(lp399
S':'
asbag55
(g76
g57
NtRp400
(dp401
g60
(dp402
sg69
g387
sg62
(lp403
g55
(g56
g57
NtRp404
(dp405
g60
(dp406
g68
I3
ssg69
g400
sg62
(lp407
S''
asbasbasbasbasbasbasbag55
(g71
g57
NtRp408
(dp409
g60
(dp410
sg69
g232
sg62
(lp411
g55
(g76
g57
NtRp412
(dp413
g60
(dp414
g80
g81
ssg69
g408
sg62
(lp415
S'registered'
p416
asbag55
(g76
g57
NtRp417
(dp418
g60
(dp419
g87
g88
ssg69
g408
sg62
(lp420
S':'
asbag55
(g76
g57
NtRp421
(dp422
g60
(dp423
sg69
g408
sg62
(lp424
g55
(g56
g57
NtRp425
(dp426
g60
(dp427
g68
I4
ssg69
g421
sg62
(lp428
g55
(g64
g57
NtRp429
(dp430
g60
(dp431
g68
I3
ssg69
Nsg62
(lp432
g55
(g71
g57
NtRp433
(dp434
g60
(dp435
sg69
g429
sg62
(lp436
g55
(g76
g57
NtRp437
(dp438
g60
(dp439
g80
g81
ssg69
g433
sg62
(lp440
g269
asbag55
(g76
g57
NtRp441
(dp442
g60
(dp443
g87
g88
ssg69
g433
sg62
(lp444
S':'
asbag55
(g76
g57
NtRp445
(dp446
g60
(dp447
sg69
g433
sg62
(lp448
g55
(g56
g57
NtRp449
(dp450
g60
(dp451
g68
I3
ssg69
g445
sg62
(lp452
S''
asbasbasbag55
(g71
g57
NtRp453
(dp454
g60
(dp455
sg69
g429
sg62
(lp456
g55
(g76
g57
NtRp457
(dp458
g60
(dp459
g80
g81
ssg69
g453
sg62
(lp460
g290
asbag55
(g76
g57
NtRp461
(dp462
g60
(dp463
g87
g88
ssg69
g453
sg62
(lp464
S':'
asbag55
(g76
g57
NtRp465
(dp466
g60
(dp467
sg69
g453
sg62
(lp468
g55
(g56
g57
NtRp469
(dp470
g60
(dp471
g68
I3
ssg69
g465
sg62
(lp472
S''
asbasbasbag55
(g71
g57
NtRp473
(dp474
g60
(dp475
sg69
g429
sg62
(lp476
g55
(g76
g57
NtRp477
(dp478
g60
(dp479
g80
g81
ssg69
g473
sg62
(lp480
g311
asbag55
(g76
g57
NtRp481
(dp482
g60
(dp483
g87
g88
ssg69
g473
sg62
(lp484
S':'
asbag55
(g76
g57
NtRp485
(dp486
g60
(dp487
sg69
g473
sg62
(lp488
g55
(g56
g57
NtRp489
(dp490
g60
(dp491
g68
I3
ssg69
g485
sg62
(lp492
S''
asbasbasbag55
(g71
g57
NtRp493
(dp494
g60
(dp495
sg69
g429
sg62
(lp496
g55
(g76
g57
NtRp497
(dp498
g60
(dp499
g80
g81
ssg69
g493
sg62
(lp500
g332
asbag55
(g76
g57
NtRp501
(dp502
g60
(dp503
g87
g88
ssg69
g493
sg62
(lp504
S':'
asbag55
(g76
g57
NtRp505
(dp506
g60
(dp507
sg69
g493
sg62
(lp508
g55
(g56
g57
NtRp509
(dp510
g60
(dp511
g68
I3
ssg69
g505
sg62
(lp512
S''
asbasbasbag55
(g71
g57
NtRp513
(dp514
g60
(dp515
sg69
g429
sg62
(lp516
g55
(g76
g57
NtRp517
(dp518
g60
(dp519
g80
g81
ssg69
g513
sg62
(lp520
g353
asbag55
(g76
g57
NtRp521
(dp522
g60
(dp523
g87
g88
ssg69
g513
sg62
(lp524
S':'
asbag55
(g76
g57
NtRp525
(dp526
g60
(dp527
sg69
g513
sg62
(lp528
g55
(g56
g57
NtRp529
(dp530
g60
(dp531
g68
I3
ssg69
g525
sg62
(lp532
S''
asbasbasbag55
(g71
g57
NtRp533
(dp534
g60
(dp535
sg69
g429
sg62
(lp536
g55
(g76
g57
NtRp537
(dp538
g60
(dp539
g80
g81
ssg69
g533
sg62
(lp540
g374
asbag55
(g76
g57
NtRp541
(dp542
g60
(dp543
g87
g88
ssg69
g533
sg62
(lp544
S':'
asbag55
(g76
g57
NtRp545
(dp546
g60
(dp547
sg69
g533
sg62
(lp548
g55
(g56
g57
NtRp549
(dp550
g60
(dp551
g68
I3
ssg69
g545
sg62
(lp552
S''
asbasbasbag55
(g71
g57
NtRp553
(dp554
g60
(dp555
sg69
g429
sg62
(lp556
g55
(g76
g57
NtRp557
(dp558
g60
(dp559
g80
g81
ssg69
g553
sg62
(lp560
g395
asbag55
(g76
g57
NtRp561
(dp562
g60
(dp563
g87
g88
ssg69
g553
sg62
(lp564
S':'
asbag55
(g76
g57
NtRp565
(dp566
g60
(dp567
sg69
g553
sg62
(lp568
g55
(g56
g57
NtRp569
(dp570
g60
(dp571
g68
I3
ssg69
g565
sg62
(lp572
S''
asbasbasbasbasbasbasbag55
(g71
g57
NtRp573
(dp574
g60
(dp575
sg69
g232
sg62
(lp576
g55
(g76
g57
NtRp577
(dp578
g60
(dp579
g80
g81
ssg69
g573
sg62
(lp580
S's_nr'
p581
asbag55
(g76
g57
NtRp582
(dp583
g60
(dp584
g87
g88
ssg69
g573
sg62
(lp585
S':'
asbag55
(g76
g57
NtRp586
(dp587
g60
(dp588
sg69
g573
sg62
(lp589
g55
(g56
g57
NtRp590
(dp591
g60
(dp592
g68
I4
ssg69
g586
sg62
(lp593
g55
(g64
g57
NtRp594
(dp595
g60
(dp596
g68
I3
ssg69
Nsg62
(lp597
g55
(g71
g57
NtRp598
(dp599
g60
(dp600
sg69
g594
sg62
(lp601
g55
(g76
g57
NtRp602
(dp603
g60
(dp604
g80
g81
ssg69
g598
sg62
(lp605
g269
asbag55
(g76
g57
NtRp606
(dp607
g60
(dp608
g87
g88
ssg69
g598
sg62
(lp609
S':'
asbag55
(g76
g57
NtRp610
(dp611
g60
(dp612
sg69
g598
sg62
(lp613
g55
(g56
g57
NtRp614
(dp615
g60
(dp616
g68
I3
ssg69
g610
sg62
(lp617
S''
asbasbasbag55
(g71
g57
NtRp618
(dp619
g60
(dp620
sg69
g594
sg62
(lp621
g55
(g76
g57
NtRp622
(dp623
g60
(dp624
g80
g81
ssg69
g618
sg62
(lp625
g290
asbag55
(g76
g57
NtRp626
(dp627
g60
(dp628
g87
g88
ssg69
g618
sg62
(lp629
S':'
asbag55
(g76
g57
NtRp630
(dp631
g60
(dp632
sg69
g618
sg62
(lp633
g55
(g56
g57
NtRp634
(dp635
g60
(dp636
g68
I3
ssg69
g630
sg62
(lp637
S''
asbasbasbag55
(g71
g57
NtRp638
(dp639
g60
(dp640
sg69
g594
sg62
(lp641
g55
(g76
g57
NtRp642
(dp643
g60
(dp644
g80
g81
ssg69
g638
sg62
(lp645
g311
asbag55
(g76
g57
NtRp646
(dp647
g60
(dp648
g87
g88
ssg69
g638
sg62
(lp649
S':'
asbag55
(g76
g57
NtRp650
(dp651
g60
(dp652
sg69
g638
sg62
(lp653
g55
(g56
g57
NtRp654
(dp655
g60
(dp656
g68
I3
ssg69
g650
sg62
(lp657
S''
asbasbasbag55
(g71
g57
NtRp658
(dp659
g60
(dp660
sg69
g594
sg62
(lp661
g55
(g76
g57
NtRp662
(dp663
g60
(dp664
g80
g81
ssg69
g658
sg62
(lp665
g332
asbag55
(g76
g57
NtRp666
(dp667
g60
(dp668
g87
g88
ssg69
g658
sg62
(lp669
S':'
asbag55
(g76
g57
NtRp670
(dp671
g60
(dp672
sg69
g658
sg62
(lp673
g55
(g56
g57
NtRp674
(dp675
g60
(dp676
g68
I3
ssg69
g670
sg62
(lp677
S''
asbasbasbag55
(g71
g57
NtRp678
(dp679
g60
(dp680
sg69
g594
sg62
(lp681
g55
(g76
g57
NtRp682
(dp683
g60
(dp684
g80
g81
ssg69
g678
sg62
(lp685
g353
asbag55
(g76
g57
NtRp686
(dp687
g60
(dp688
g87
g88
ssg69
g678
sg62
(lp689
S':'
asbag55
(g76
g57
NtRp690
(dp691
g60
(dp692
sg69
g678
sg62
(lp693
g55
(g56
g57
NtRp694
(dp695
g60
(dp696
g68
I3
ssg69
g690
sg62
(lp697
S''
asbasbasbag55
(g71
g57
NtRp698
(dp699
g60
(dp700
sg69
g594
sg62
(lp701
g55
(g76
g57
NtRp702
(dp703
g60
(dp704
g80
g81
ssg69
g698
sg62
(lp705
g374
asbag55
(g76
g57
NtRp706
(dp707
g60
(dp708
g87
g88
ssg69
g698
sg62
(lp709
S':'
asbag55
(g76
g57
NtRp710
(dp711
g60
(dp712
sg69
g698
sg62
(lp713
g55
(g56
g57
NtRp714
(dp715
g60
(dp716
g68
I3
ssg69
g710
sg62
(lp717
S''
asbasbasbag55
(g71
g57
NtRp718
(dp719
g60
(dp720
sg69
g594
sg62
(lp721
g55
(g76
g57
NtRp722
(dp723
g60
(dp724
g80
g81
ssg69
g718
sg62
(lp725
g395
asbag55
(g76
g57
NtRp726
(dp727
g60
(dp728
g87
g88
ssg69
g718
sg62
(lp729
S':'
asbag55
(g76
g57
NtRp730
(dp731
g60
(dp732
sg69
g718
sg62
(lp733
g55
(g56
g57
NtRp734
(dp735
g60
(dp736
g68
I3
ssg69
g730
sg62
(lp737
S''
asbasbasbasbasbasbasbag55
(g71
g57
NtRp738
(dp739
g60
(dp740
sg69
g232
sg62
(lp741
g55
(g76
g57
NtRp742
(dp743
g60
(dp744
g80
g81
ssg69
g738
sg62
(lp745
S'session_id_admin'
p746
asbag55
(g76
g57
NtRp747
(dp748
g60
(dp749
g87
g88
ssg69
g738
sg62
(lp750
S':'
asbag55
(g76
g57
NtRp751
(dp752
g60
(dp753
sg69
g738
sg62
(lp754
g55
(g56
g57
NtRp755
(dp756
g60
(dp757
g68
I4
ssg69
g751
sg62
(lp758
g55
(g64
g57
NtRp759
(dp760
g60
(dp761
g68
I3
ssg69
Nsg62
(lp762
g55
(g71
g57
NtRp763
(dp764
g60
(dp765
sg69
g759
sg62
(lp766
g55
(g76
g57
NtRp767
(dp768
g60
(dp769
g80
g81
ssg69
g763
sg62
(lp770
g269
asbag55
(g76
g57
NtRp771
(dp772
g60
(dp773
g87
g88
ssg69
g763
sg62
(lp774
S':'
asbag55
(g76
g57
NtRp775
(dp776
g60
(dp777
sg69
g763
sg62
(lp778
g55
(g56
g57
NtRp779
(dp780
g60
(dp781
g68
I3
ssg69
g775
sg62
(lp782
S''
asbasbasbag55
(g71
g57
NtRp783
(dp784
g60
(dp785
sg69
g759
sg62
(lp786
g55
(g76
g57
NtRp787
(dp788
g60
(dp789
g80
g81
ssg69
g783
sg62
(lp790
g290
asbag55
(g76
g57
NtRp791
(dp792
g60
(dp793
g87
g88
ssg69
g783
sg62
(lp794
S':'
asbag55
(g76
g57
NtRp795
(dp796
g60
(dp797
sg69
g783
sg62
(lp798
g55
(g56
g57
NtRp799
(dp800
g60
(dp801
g68
I3
ssg69
g795
sg62
(lp802
S''
asbasbasbag55
(g71
g57
NtRp803
(dp804
g60
(dp805
sg69
g759
sg62
(lp806
g55
(g76
g57
NtRp807
(dp808
g60
(dp809
g80
g81
ssg69
g803
sg62
(lp810
g311
asbag55
(g76
g57
NtRp811
(dp812
g60
(dp813
g87
g88
ssg69
g803
sg62
(lp814
S':'
asbag55
(g76
g57
NtRp815
(dp816
g60
(dp817
sg69
g803
sg62
(lp818
g55
(g56
g57
NtRp819
(dp820
g60
(dp821
g68
I3
ssg69
g815
sg62
(lp822
S''
asbasbasbag55
(g71
g57
NtRp823
(dp824
g60
(dp825
sg69
g759
sg62
(lp826
g55
(g76
g57
NtRp827
(dp828
g60
(dp829
g80
g81
ssg69
g823
sg62
(lp830
g332
asbag55
(g76
g57
NtRp831
(dp832
g60
(dp833
g87
g88
ssg69
g823
sg62
(lp834
S':'
asbag55
(g76
g57
NtRp835
(dp836
g60
(dp837
sg69
g823
sg62
(lp838
g55
(g56
g57
NtRp839
(dp840
g60
(dp841
g68
I3
ssg69
g835
sg62
(lp842
S''
asbasbasbag55
(g71
g57
NtRp843
(dp844
g60
(dp845
sg69
g759
sg62
(lp846
g55
(g76
g57
NtRp847
(dp848
g60
(dp849
g80
g81
ssg69
g843
sg62
(lp850
g353
asbag55
(g76
g57
NtRp851
(dp852
g60
(dp853
g87
g88
ssg69
g843
sg62
(lp854
S':'
asbag55
(g76
g57
NtRp855
(dp856
g60
(dp857
sg69
g843
sg62
(lp858
g55
(g56
g57
NtRp859
(dp860
g60
(dp861
g68
I3
ssg69
g855
sg62
(lp862
S''
asbasbasbag55
(g71
g57
NtRp863
(dp864
g60
(dp865
sg69
g759
sg62
(lp866
g55
(g76
g57
NtRp867
(dp868
g60
(dp869
g80
g81
ssg69
g863
sg62
(lp870
g374
asbag55
(g76
g57
NtRp871
(dp872
g60
(dp873
g87
g88
ssg69
g863
sg62
(lp874
S':'
asbag55
(g76
g57
NtRp875
(dp876
g60
(dp877
sg69
g863
sg62
(lp878
g55
(g56
g57
NtRp879
(dp880
g60
(dp881
g68
I3
ssg69
g875
sg62
(lp882
S''
asbasbasbag55
(g71
g57
NtRp883
(dp884
g60
(dp885
sg69
g759
sg62
(lp886
g55
(g76
g57
NtRp887
(dp888
g60
(dp889
g80
g81
ssg69
g883
sg62
(lp890
g395
asbag55
(g76
g57
NtRp891
(dp892
g60
(dp893
g87
g88
ssg69
g883
sg62
(lp894
S':'
asbag55
(g76
g57
NtRp895
(dp896
g60
(dp897
sg69
g883
sg62
(lp898
g55
(g56
g57
NtRp899
(dp900
g60
(dp901
g68
I3
ssg69
g895
sg62
(lp902
S''
asbasbasbasbasbasbasbag55
(g71
g57
NtRp903
(dp904
g60
(dp905
sg69
g232
sg62
(lp906
g55
(g76
g57
NtRp907
(dp908
g60
(dp909
g80
g81
ssg69
g903
sg62
(lp910
S'session_id_cms'
p911
asbag55
(g76
g57
NtRp912
(dp913
g60
(dp914
g87
g88
ssg69
g903
sg62
(lp915
S':'
asbag55
(g76
g57
NtRp916
(dp917
g60
(dp918
sg69
g903
sg62
(lp919
g55
(g56
g57
NtRp920
(dp921
g60
(dp922
g68
I4
ssg69
g916
sg62
(lp923
g55
(g64
g57
NtRp924
(dp925
g60
(dp926
g68
I3
ssg69
Nsg62
(lp927
g55
(g71
g57
NtRp928
(dp929
g60
(dp930
sg69
g924
sg62
(lp931
g55
(g76
g57
NtRp932
(dp933
g60
(dp934
g80
g81
ssg69
g928
sg62
(lp935
g269
asbag55
(g76
g57
NtRp936
(dp937
g60
(dp938
g87
g88
ssg69
g928
sg62
(lp939
S':'
asbag55
(g76
g57
NtRp940
(dp941
g60
(dp942
sg69
g928
sg62
(lp943
g55
(g56
g57
NtRp944
(dp945
g60
(dp946
g68
I3
ssg69
g940
sg62
(lp947
S''
asbasbasbag55
(g71
g57
NtRp948
(dp949
g60
(dp950
sg69
g924
sg62
(lp951
g55
(g76
g57
NtRp952
(dp953
g60
(dp954
g80
g81
ssg69
g948
sg62
(lp955
g290
asbag55
(g76
g57
NtRp956
(dp957
g60
(dp958
g87
g88
ssg69
g948
sg62
(lp959
S':'
asbag55
(g76
g57
NtRp960
(dp961
g60
(dp962
sg69
g948
sg62
(lp963
g55
(g56
g57
NtRp964
(dp965
g60
(dp966
g68
I3
ssg69
g960
sg62
(lp967
S''
asbasbasbag55
(g71
g57
NtRp968
(dp969
g60
(dp970
sg69
g924
sg62
(lp971
g55
(g76
g57
NtRp972
(dp973
g60
(dp974
g80
g81
ssg69
g968
sg62
(lp975
g311
asbag55
(g76
g57
NtRp976
(dp977
g60
(dp978
g87
g88
ssg69
g968
sg62
(lp979
S':'
asbag55
(g76
g57
NtRp980
(dp981
g60
(dp982
sg69
g968
sg62
(lp983
g55
(g56
g57
NtRp984
(dp985
g60
(dp986
g68
I3
ssg69
g980
sg62
(lp987
S''
asbasbasbag55
(g71
g57
NtRp988
(dp989
g60
(dp990
sg69
g924
sg62
(lp991
g55
(g76
g57
NtRp992
(dp993
g60
(dp994
g80
g81
ssg69
g988
sg62
(lp995
g332
asbag55
(g76
g57
NtRp996
(dp997
g60
(dp998
g87
g88
ssg69
g988
sg62
(lp999
S':'
asbag55
(g76
g57
NtRp1000
(dp1001
g60
(dp1002
sg69
g988
sg62
(lp1003
g55
(g56
g57
NtRp1004
(dp1005
g60
(dp1006
g68
I3
ssg69
g1000
sg62
(lp1007
S''
asbasbasbag55
(g71
g57
NtRp1008
(dp1009
g60
(dp1010
sg69
g924
sg62
(lp1011
g55
(g76
g57
NtRp1012
(dp1013
g60
(dp1014
g80
g81
ssg69
g1008
sg62
(lp1015
g353
asbag55
(g76
g57
NtRp1016
(dp1017
g60
(dp1018
g87
g88
ssg69
g1008
sg62
(lp1019
S':'
asbag55
(g76
g57
NtRp1020
(dp1021
g60
(dp1022
sg69
g1008
sg62
(lp1023
g55
(g56
g57
NtRp1024
(dp1025
g60
(dp1026
g68
I3
ssg69
g1020
sg62
(lp1027
S''
asbasbasbag55
(g71
g57
NtRp1028
(dp1029
g60
(dp1030
sg69
g924
sg62
(lp1031
g55
(g76
g57
NtRp1032
(dp1033
g60
(dp1034
g80
g81
ssg69
g1028
sg62
(lp1035
g374
asbag55
(g76
g57
NtRp1036
(dp1037
g60
(dp1038
g87
g88
ssg69
g1028
sg62
(lp1039
S':'
asbag55
(g76
g57
NtRp1040
(dp1041
g60
(dp1042
sg69
g1028
sg62
(lp1043
g55
(g56
g57
NtRp1044
(dp1045
g60
(dp1046
g68
I3
ssg69
g1040
sg62
(lp1047
S''
asbasbasbag55
(g71
g57
NtRp1048
(dp1049
g60
(dp1050
sg69
g924
sg62
(lp1051
g55
(g76
g57
NtRp1052
(dp1053
g60
(dp1054
g80
g81
ssg69
g1048
sg62
(lp1055
g395
asbag55
(g76
g57
NtRp1056
(dp1057
g60
(dp1058
g87
g88
ssg69
g1048
sg62
(lp1059
S':'
asbag55
(g76
g57
NtRp1060
(dp1061
g60
(dp1062
sg69
g1048
sg62
(lp1063
g55
(g56
g57
NtRp1064
(dp1065
g60
(dp1066
g68
I3
ssg69
g1060
sg62
(lp1067
S''
asbasbasbasbasbasbasbag55
(g71
g57
NtRp1068
(dp1069
g60
(dp1070
sg69
g232
sg62
(lp1071
g55
(g76
g57
NtRp1072
(dp1073
g60
(dp1074
g80
g81
ssg69
g1068
sg62
(lp1075
S'session_id_inplace'
p1076
asbag55
(g76
g57
NtRp1077
(dp1078
g60
(dp1079
g87
g88
ssg69
g1068
sg62
(lp1080
S':'
asbag55
(g76
g57
NtRp1081
(dp1082
g60
(dp1083
sg69
g1068
sg62
(lp1084
g55
(g56
g57
NtRp1085
(dp1086
g60
(dp1087
g68
I4
ssg69
g1081
sg62
(lp1088
g55
(g64
g57
NtRp1089
(dp1090
g60
(dp1091
g68
I3
ssg69
Nsg62
(lp1092
g55
(g71
g57
NtRp1093
(dp1094
g60
(dp1095
sg69
g1089
sg62
(lp1096
g55
(g76
g57
NtRp1097
(dp1098
g60
(dp1099
g80
g81
ssg69
g1093
sg62
(lp1100
g269
asbag55
(g76
g57
NtRp1101
(dp1102
g60
(dp1103
g87
g88
ssg69
g1093
sg62
(lp1104
S':'
asbag55
(g76
g57
NtRp1105
(dp1106
g60
(dp1107
sg69
g1093
sg62
(lp1108
g55
(g56
g57
NtRp1109
(dp1110
g60
(dp1111
g68
I3
ssg69
g1105
sg62
(lp1112
S''
asbasbasbag55
(g71
g57
NtRp1113
(dp1114
g60
(dp1115
sg69
g1089
sg62
(lp1116
g55
(g76
g57
NtRp1117
(dp1118
g60
(dp1119
g80
g81
ssg69
g1113
sg62
(lp1120
g290
asbag55
(g76
g57
NtRp1121
(dp1122
g60
(dp1123
g87
g88
ssg69
g1113
sg62
(lp1124
S':'
asbag55
(g76
g57
NtRp1125
(dp1126
g60
(dp1127
sg69
g1113
sg62
(lp1128
g55
(g56
g57
NtRp1129
(dp1130
g60
(dp1131
g68
I3
ssg69
g1125
sg62
(lp1132
S''
asbasbasbag55
(g71
g57
NtRp1133
(dp1134
g60
(dp1135
sg69
g1089
sg62
(lp1136
g55
(g76
g57
NtRp1137
(dp1138
g60
(dp1139
g80
g81
ssg69
g1133
sg62
(lp1140
g311
asbag55
(g76
g57
NtRp1141
(dp1142
g60
(dp1143
g87
g88
ssg69
g1133
sg62
(lp1144
S':'
asbag55
(g76
g57
NtRp1145
(dp1146
g60
(dp1147
sg69
g1133
sg62
(lp1148
g55
(g56
g57
NtRp1149
(dp1150
g60
(dp1151
g68
I3
ssg69
g1145
sg62
(lp1152
S''
asbasbasbag55
(g71
g57
NtRp1153
(dp1154
g60
(dp1155
sg69
g1089
sg62
(lp1156
g55
(g76
g57
NtRp1157
(dp1158
g60
(dp1159
g80
g81
ssg69
g1153
sg62
(lp1160
g332
asbag55
(g76
g57
NtRp1161
(dp1162
g60
(dp1163
g87
g88
ssg69
g1153
sg62
(lp1164
S':'
asbag55
(g76
g57
NtRp1165
(dp1166
g60
(dp1167
sg69
g1153
sg62
(lp1168
g55
(g56
g57
NtRp1169
(dp1170
g60
(dp1171
g68
I3
ssg69
g1165
sg62
(lp1172
S''
asbasbasbag55
(g71
g57
NtRp1173
(dp1174
g60
(dp1175
sg69
g1089
sg62
(lp1176
g55
(g76
g57
NtRp1177
(dp1178
g60
(dp1179
g80
g81
ssg69
g1173
sg62
(lp1180
g353
asbag55
(g76
g57
NtRp1181
(dp1182
g60
(dp1183
g87
g88
ssg69
g1173
sg62
(lp1184
S':'
asbag55
(g76
g57
NtRp1185
(dp1186
g60
(dp1187
sg69
g1173
sg62
(lp1188
g55
(g56
g57
NtRp1189
(dp1190
g60
(dp1191
g68
I3
ssg69
g1185
sg62
(lp1192
S''
asbasbasbag55
(g71
g57
NtRp1193
(dp1194
g60
(dp1195
sg69
g1089
sg62
(lp1196
g55
(g76
g57
NtRp1197
(dp1198
g60
(dp1199
g80
g81
ssg69
g1193
sg62
(lp1200
g374
asbag55
(g76
g57
NtRp1201
(dp1202
g60
(dp1203
g87
g88
ssg69
g1193
sg62
(lp1204
S':'
asbag55
(g76
g57
NtRp1205
(dp1206
g60
(dp1207
sg69
g1193
sg62
(lp1208
g55
(g56
g57
NtRp1209
(dp1210
g60
(dp1211
g68
I3
ssg69
g1205
sg62
(lp1212
S''
asbasbasbag55
(g71
g57
NtRp1213
(dp1214
g60
(dp1215
sg69
g1089
sg62
(lp1216
g55
(g76
g57
NtRp1217
(dp1218
g60
(dp1219
g80
g81
ssg69
g1213
sg62
(lp1220
g395
asbag55
(g76
g57
NtRp1221
(dp1222
g60
(dp1223
g87
g88
ssg69
g1213
sg62
(lp1224
S':'
asbag55
(g76
g57
NtRp1225
(dp1226
g60
(dp1227
sg69
g1213
sg62
(lp1228
g55
(g56
g57
NtRp1229
(dp1230
g60
(dp1231
g68
I3
ssg69
g1225
sg62
(lp1232
S''
asbasbasbasbasbasbasbasbasbasbasbag55
(g71
g57
NtRp1233
(dp1234
g60
(dp1235
sg69
g65
sg62
(lp1236
g55
(g76
g57
NtRp1237
(dp1238
g60
(dp1239
g80
g81
ssg69
g1233
sg62
(lp1240
S'env'
p1241
asbag55
(g76
g57
NtRp1242
(dp1243
g60
(dp1244
g87
g88
ssg69
g1233
sg62
(lp1245
S':'
asbag55
(g76
g57
NtRp1246
(dp1247
g60
(dp1248
sg69
g1233
sg62
(lp1249
g55
(g56
g57
NtRp1250
(dp1251
g60
(dp1252
g68
I5
ssg69
g1246
sg62
(lp1253
g55
(g64
g57
NtRp1254
(dp1255
g60
(dp1256
g68
I4
ssg69
Nsg62
(lp1257
g55
(g71
g57
NtRp1258
(dp1259
g60
(dp1260
sg69
g1254
sg62
(lp1261
g55
(g76
g57
NtRp1262
(dp1263
g60
(dp1264
g80
g81
ssg69
g1258
sg62
(lp1265
S'app_folders'
p1266
asbag55
(g76
g57
NtRp1267
(dp1268
g60
(dp1269
g87
g88
ssg69
g1258
sg62
(lp1270
S':'
asbag55
(g76
g57
NtRp1271
(dp1272
g60
(dp1273
sg69
g1258
sg62
(lp1274
g55
(g56
g57
NtRp1275
(dp1276
g60
(dp1277
g68
I4
ssg69
g1271
sg62
(lp1278
S"set(['/Users/mdipierro/Dropbox/web2py/applications/inplace/', '/Users/mdipierro/Dropbox/web2py/applications/cms/', '/Users/mdipierro/Dropbox/web2py/applications/admin/'])"
p1279
asbasbasbag55
(g71
g57
NtRp1280
(dp1281
g60
(dp1282
sg69
g1254
sg62
(lp1283
g55
(g76
g57
NtRp1284
(dp1285
g60
(dp1286
g80
g81
ssg69
g1280
sg62
(lp1287
S'applications_parent'
p1288
asbag55
(g76
g57
NtRp1289
(dp1290
g60
(dp1291
g87
g88
ssg69
g1280
sg62
(lp1292
S':'
asbag55
(g76
g57
NtRp1293
(dp1294
g60
(dp1295
sg69
g1280
sg62
(lp1296
g55
(g56
g57
NtRp1297
(dp1298
g60
(dp1299
g68
I4
ssg69
g1293
sg62
(lp1300
S'/Users/mdipierro/Dropbox/web2py'
p1301
asbasbasbag55
(g71
g57
NtRp1302
(dp1303
g60
(dp1304
sg69
g1254
sg62
(lp1305
g55
(g76
g57
NtRp1306
(dp1307
g60
(dp1308
g80
g81
ssg69
g1302
sg62
(lp1309
S'cmd_args'
p1310
asbag55
(g76
g57
NtRp1311
(dp1312
g60
(dp1313
g87
g88
ssg69
g1302
sg62
(lp1314
S':'
asbag55
(g76
g57
NtRp1315
(dp1316
g60
(dp1317
sg69
g1302
sg62
(lp1318
g55
(g56
g57
NtRp1319
(dp1320
g60
(dp1321
g68
I4
ssg69
g1315
sg62
(lp1322
g55
(g64
g57
NtRp1323
(dp1324
g60
(dp1325
g68
I3
ssg69
Nsg62
(lp1326
sbasbasbasbag55
(g71
g57
NtRp1327
(dp1328
g60
(dp1329
sg69
g1254
sg62
(lp1330
g55
(g76
g57
NtRp1331
(dp1332
g60
(dp1333
g80
g81
ssg69
g1327
sg62
(lp1334
S'cmd_options'
p1335
asbag55
(g76
g57
NtRp1336
(dp1337
g60
(dp1338
g87
g88
ssg69
g1327
sg62
(lp1339
S':'
asbag55
(g76
g57
NtRp1340
(dp1341
g60
(dp1342
sg69
g1327
sg62
(lp1343
g55
(g56
g57
NtRp1344
(dp1345
g60
(dp1346
g68
I4
ssg69
g1340
sg62
(lp1347
S"<Values at 0x153a378: {'verbose': False, 'ip': '127.0.0.1', 'shutdown_timeout': 5, 'taskbar': False, 'nocron': False, 'pid_filename': 'httpserver.pid', 'maxthreads': None, 'softcron': False, 'server_name': 'massimo-di-pierros-macbook-2.local', 'bpython': False, 'nogui': False, 'port': 8000, 'extcron': False, 'debuglevel': 30, 'test': None, 'folder': '/Users/mdipierro/Dropbox/web2py', 'config': '', 'import_models': False, 'winservice': '', 'shell': None, 'run': '', 'log_filename': 'httpserver.log', 'args': [''], 'socket_timeout': 1, 'ssl_ca_certificate': None, 'scheduler': None, 'profiler_filename': None, 'ssl_private_key': '', 'password': 'hello', 'request_queue_size': 5, 'ssl_certificate': '', 'cronjob': False, 'numthreads': None, 'quiet': False, 'interfaces': None, 'minthreads': None, 'timeout': 10, 'plain': False, 'nobanner': False}>"
p1348
asbasbasbag55
(g71
g57
NtRp1349
(dp1350
g60
(dp1351
sg69
g1254
sg62
(lp1352
g55
(g76
g57
NtRp1353
(dp1354
g60
(dp1355
g80
g81
ssg69
g1349
sg62
(lp1356
S'db_sessions'
p1357
asbag55
(g76
g57
NtRp1358
(dp1359
g60
(dp1360
g87
g88
ssg69
g1349
sg62
(lp1361
S':'
asbag55
(g76
g57
NtRp1362
(dp1363
g60
(dp1364
sg69
g1349
sg62
(lp1365
g55
(g56
g57
NtRp1366
(dp1367
g60
(dp1368
g68
I4
ssg69
g1362
sg62
(lp1369
S'set([])'
p1370
asbasbasbag55
(g71
g57
NtRp1371
(dp1372
g60
(dp1373
sg69
g1254
sg62
(lp1374
g55
(g76
g57
NtRp1375
(dp1376
g60
(dp1377
g80
g81
ssg69
g1371
sg62
(lp1378
S'debugging'
p1379
asbag55
(g76
g57
NtRp1380
(dp1381
g60
(dp1382
g87
g88
ssg69
g1371
sg62
(lp1383
S':'
asbag55
(g76
g57
NtRp1384
(dp1385
g60
(dp1386
sg69
g1371
sg62
(lp1387
g55
(g56
g57
NtRp1388
(dp1389
g60
(dp1390
g68
I4
ssg69
g1384
sg62
(lp1391
g98
asbasbasbag55
(g71
g57
NtRp1392
(dp1393
g60
(dp1394
sg69
g1254
sg62
(lp1395
g55
(g76
g57
NtRp1396
(dp1397
g60
(dp1398
g80
g81
ssg69
g1392
sg62
(lp1399
S'gluon_parent'
p1400
asbag55
(g76
g57
NtRp1401
(dp1402
g60
(dp1403
g87
g88
ssg69
g1392
sg62
(lp1404
S':'
asbag55
(g76
g57
NtRp1405
(dp1406
g60
(dp1407
sg69
g1392
sg62
(lp1408
g55
(g56
g57
NtRp1409
(dp1410
g60
(dp1411
g68
I4
ssg69
g1405
sg62
(lp1412
S'/Users/mdipierro/Dropbox/web2py'
p1413
asbasbasbag55
(g71
g57
NtRp1414
(dp1415
g60
(dp1416
sg69
g1254
sg62
(lp1417
g55
(g76
g57
NtRp1418
(dp1419
g60
(dp1420
g80
g81
ssg69
g1414
sg62
(lp1421
S'http_accept'
p1422
asbag55
(g76
g57
NtRp1423
(dp1424
g60
(dp1425
g87
g88
ssg69
g1414
sg62
(lp1426
S':'
asbag55
(g76
g57
NtRp1427
(dp1428
g60
(dp1429
sg69
g1414
sg62
(lp1430
g55
(g56
g57
NtRp1431
(dp1432
g60
(dp1433
g68
I4
ssg69
g1427
sg62
(lp1434
S'text/html,application/xhtml+xml,application/xml;q=0.9,*/*;q=0.8'
p1435
asbasbasbag55
(g71
g57
NtRp1436
(dp1437
g60
(dp1438
sg69
g1254
sg62
(lp1439
g55
(g76
g57
NtRp1440
(dp1441
g60
(dp1442
g80
g81
ssg69
g1436
sg62
(lp1443
S'http_accept_charset'
p1444
asbag55
(g76
g57
NtRp1445
(dp1446
g60
(dp1447
g87
g88
ssg69
g1436
sg62
(lp1448
S':'
asbag55
(g76
g57
NtRp1449
(dp1450
g60
(dp1451
sg69
g1436
sg62
(lp1452
g55
(g56
g57
NtRp1453
(dp1454
g60
(dp1455
g68
I4
ssg69
g1449
sg62
(lp1456
S'ISO-8859-1,utf-8;q=0.7,*;q=0.3'
p1457
asbasbasbag55
(g71
g57
NtRp1458
(dp1459
g60
(dp1460
sg69
g1254
sg62
(lp1461
g55
(g76
g57
NtRp1462
(dp1463
g60
(dp1464
g80
g81
ssg69
g1458
sg62
(lp1465
S'http_accept_encoding'
p1466
asbag55
(g76
g57
NtRp1467
(dp1468
g60
(dp1469
g87
g88
ssg69
g1458
sg62
(lp1470
S':'
asbag55
(g76
g57
NtRp1471
(dp1472
g60
(dp1473
sg69
g1458
sg62
(lp1474
g55
(g56
g57
NtRp1475
(dp1476
g60
(dp1477
g68
I4
ssg69
g1471
sg62
(lp1478
S'gzip,deflate,sdch'
p1479
asbasbasbag55
(g71
g57
NtRp1480
(dp1481
g60
(dp1482
sg69
g1254
sg62
(lp1483
g55
(g76
g57
NtRp1484
(dp1485
g60
(dp1486
g80
g81
ssg69
g1480
sg62
(lp1487
S'http_accept_language'
p1488
asbag55
(g76
g57
NtRp1489
(dp1490
g60
(dp1491
g87
g88
ssg69
g1480
sg62
(lp1492
S':'
asbag55
(g76
g57
NtRp1493
(dp1494
g60
(dp1495
sg69
g1480
sg62
(lp1496
g55
(g56
g57
NtRp1497
(dp1498
g60
(dp1499
g68
I4
ssg69
g1493
sg62
(lp1500
S'en,en-US;q=0.8,de-DE;q=0.6,de;q=0.4,it-IT;q=0.2,it;q=0.2,ja;q=0.2'
p1501
asbasbasbag55
(g71
g57
NtRp1502
(dp1503
g60
(dp1504
sg69
g1254
sg62
(lp1505
g55
(g76
g57
NtRp1506
(dp1507
g60
(dp1508
g80
g81
ssg69
g1502
sg62
(lp1509
S'http_cache_control'
p1510
asbag55
(g76
g57
NtRp1511
(dp1512
g60
(dp1513
g87
g88
ssg69
g1502
sg62
(lp1514
S':'
asbag55
(g76
g57
NtRp1515
(dp1516
g60
(dp1517
sg69
g1502
sg62
(lp1518
g55
(g56
g57
NtRp1519
(dp1520
g60
(dp1521
g68
I4
ssg69
g1515
sg62
(lp1522
S'max-age=0'
p1523
asbasbasbag55
(g71
g57
NtRp1524
(dp1525
g60
(dp1526
sg69
g1254
sg62
(lp1527
g55
(g76
g57
NtRp1528
(dp1529
g60
(dp1530
g80
g81
ssg69
g1524
sg62
(lp1531
S'http_connection'
p1532
asbag55
(g76
g57
NtRp1533
(dp1534
g60
(dp1535
g87
g88
ssg69
g1524
sg62
(lp1536
S':'
asbag55
(g76
g57
NtRp1537
(dp1538
g60
(dp1539
sg69
g1524
sg62
(lp1540
g55
(g56
g57
NtRp1541
(dp1542
g60
(dp1543
g68
I4
ssg69
g1537
sg62
(lp1544
S'keep-alive'
p1545
asbasbasbag55
(g71
g57
NtRp1546
(dp1547
g60
(dp1548
sg69
g1254
sg62
(lp1549
g55
(g76
g57
NtRp1550
(dp1551
g60
(dp1552
g80
g81
ssg69
g1546
sg62
(lp1553
S'http_cookie'
p1554
asbag55
(g76
g57
NtRp1555
(dp1556
g60
(dp1557
g87
g88
ssg69
g1546
sg62
(lp1558
S':'
asbag55
(g76
g57
NtRp1559
(dp1560
g60
(dp1561
sg69
g1546
sg62
(lp1562
g55
(g56
g57
NtRp1563
(dp1564
g60
(dp1565
g68
I4
ssg69
g1559
sg62
(lp1566
S'registered=yes; __utma_a2a=1369166446.1335515545.1303958619.1316700181.1318215879.74; el-finder-last-finder=4f5a448a961f1931173928a6b6d9d4d2; s_nr=1323495907438-New; session_id_admin=127.0.0.1-d7df2493-be50-44c2-bc1d-74581b0ed26d; session_id_cms=127.0.0.1-f4c1e56e-4f4d-4936-aaf7-92fdd3a97f53; __utma=96992031.1452952453.1313221394.1323495073.1323500519.4; __utmb=96992031.1.10.1323500519; __utmc=96992031; __utmz=96992031.1313221394.1.1.utmcsr=(direct)|utmccn=(direct)|utmcmd=(none); session_id_inplace=127.0.0.1-b67af904-b8cf-469d-95b3-18285a004db1'
p1567
asbasbasbag55
(g71
g57
NtRp1568
(dp1569
g60
(dp1570
sg69
g1254
sg62
(lp1571
g55
(g76
g57
NtRp1572
(dp1573
g60
(dp1574
g80
g81
ssg69
g1568
sg62
(lp1575
S'http_host'
p1576
asbag55
(g76
g57
NtRp1577
(dp1578
g60
(dp1579
g87
g88
ssg69
g1568
sg62
(lp1580
S':'
asbag55
(g76
g57
NtRp1581
(dp1582
g60
(dp1583
sg69
g1568
sg62
(lp1584
g55
(g56
g57
NtRp1585
(dp1586
g60
(dp1587
g68
I4
ssg69
g1581
sg62
(lp1588
S'127.0.0.1:8000'
p1589
asbasbasbag55
(g71
g57
NtRp1590
(dp1591
g60
(dp1592
sg69
g1254
sg62
(lp1593
g55
(g76
g57
NtRp1594
(dp1595
g60
(dp1596
g80
g81
ssg69
g1590
sg62
(lp1597
S'http_referer'
p1598
asbag55
(g76
g57
NtRp1599
(dp1600
g60
(dp1601
g87
g88
ssg69
g1590
sg62
(lp1602
S':'
asbag55
(g76
g57
NtRp1603
(dp1604
g60
(dp1605
sg69
g1590
sg62
(lp1606
g55
(g56
g57
NtRp1607
(dp1608
g60
(dp1609
g68
I4
ssg69
g1603
sg62
(lp1610
S'http://127.0.0.1:8000/inplace'
p1611
asbasbasbag55
(g71
g57
NtRp1612
(dp1613
g60
(dp1614
sg69
g1254
sg62
(lp1615
g55
(g76
g57
NtRp1616
(dp1617
g60
(dp1618
g80
g81
ssg69
g1612
sg62
(lp1619
S'http_user_agent'
p1620
asbag55
(g76
g57
NtRp1621
(dp1622
g60
(dp1623
g87
g88
ssg69
g1612
sg62
(lp1624
S':'
asbag55
(g76
g57
NtRp1625
(dp1626
g60
(dp1627
sg69
g1612
sg62
(lp1628
g55
(g56
g57
NtRp1629
(dp1630
g60
(dp1631
g68
I4
ssg69
g1625
sg62
(lp1632
S'Mozilla/5.0 (Macintosh; Intel Mac OS X 10_6_8) AppleWebKit/535.7 (KHTML, like Gecko) Chrome/16.0.912.63 Safari/535.7'
p1633
asbasbasbag55
(g71
g57
NtRp1634
(dp1635
g60
(dp1636
sg69
g1254
sg62
(lp1637
g55
(g76
g57
NtRp1638
(dp1639
g60
(dp1640
g80
g81
ssg69
g1634
sg62
(lp1641
S'is_jython'
p1642
asbag55
(g76
g57
NtRp1643
(dp1644
g60
(dp1645
g87
g88
ssg69
g1634
sg62
(lp1646
S':'
asbag55
(g76
g57
NtRp1647
(dp1648
g60
(dp1649
sg69
g1634
sg62
(lp1650
g55
(g56
g57
NtRp1651
(dp1652
g60
(dp1653
g68
I4
ssg69
g1647
sg62
(lp1654
g98
asbasbasbag55
(g71
g57
NtRp1655
(dp1656
g60
(dp1657
sg69
g1254
sg62
(lp1658
g55
(g76
g57
NtRp1659
(dp1660
g60
(dp1661
g80
g81
ssg69
g1655
sg62
(lp1662
S'is_pypy'
p1663
asbag55
(g76
g57
NtRp1664
(dp1665
g60
(dp1666
g87
g88
ssg69
g1655
sg62
(lp1667
S':'
asbag55
(g76
g57
NtRp1668
(dp1669
g60
(dp1670
sg69
g1655
sg62
(lp1671
g55
(g56
g57
NtRp1672
(dp1673
g60
(dp1674
g68
I4
ssg69
g1668
sg62
(lp1675
g98
asbasbasbag55
(g71
g57
NtRp1676
(dp1677
g60
(dp1678
sg69
g1254
sg62
(lp1679
g55
(g76
g57
NtRp1680
(dp1681
g60
(dp1682
g80
g81
ssg69
g1676
sg62
(lp1683
S'path_info'
p1684
asbag55
(g76
g57
NtRp1685
(dp1686
g60
(dp1687
g87
g88
ssg69
g1676
sg62
(lp1688
S':'
asbag55
(g76
g57
NtRp1689
(dp1690
g60
(dp1691
sg69
g1676
sg62
(lp1692
g55
(g56
g57
NtRp1693
(dp1694
g60
(dp1695
g68
I4
ssg69
g1689
sg62
(lp1696
S'/inplace/default/edit'
p1697
asbasbasbag55
(g71
g57
NtRp1698
(dp1699
g60
(dp1700
sg69
g1254
sg62
(lp1701
g55
(g76
g57
NtRp1702
(dp1703
g60
(dp1704
g80
g81
ssg69
g1698
sg62
(lp1705
S'query_string'
p1706
asbag55
(g76
g57
NtRp1707
(dp1708
g60
(dp1709
g87
g88
ssg69
g1698
sg62
(lp1710
S':'
asbag55
(g76
g57
NtRp1711
(dp1712
g60
(dp1713
sg69
g1698
sg62
(lp1714
g55
(g56
g57
NtRp1715
(dp1716
g60
(dp1717
g68
I4
ssg69
g1711
sg62
(lp1718
S'url=http%3A%2F%2Fdjango.com'
p1719
asbasbasbag55
(g71
g57
NtRp1720
(dp1721
g60
(dp1722
sg69
g1254
sg62
(lp1723
g55
(g76
g57
NtRp1724
(dp1725
g60
(dp1726
g80
g81
ssg69
g1720
sg62
(lp1727
S'remote_addr'
p1728
asbag55
(g76
g57
NtRp1729
(dp1730
g60
(dp1731
g87
g88
ssg69
g1720
sg62
(lp1732
S':'
asbag55
(g76
g57
NtRp1733
(dp1734
g60
(dp1735
sg69
g1720
sg62
(lp1736
g55
(g56
g57
NtRp1737
(dp1738
g60
(dp1739
g68
I4
ssg69
g1733
sg62
(lp1740
g188
asbasbasbag55
(g71
g57
NtRp1741
(dp1742
g60
(dp1743
sg69
g1254
sg62
(lp1744
g55
(g76
g57
NtRp1745
(dp1746
g60
(dp1747
g80
g81
ssg69
g1741
sg62
(lp1748
S'remote_port'
p1749
asbag55
(g76
g57
NtRp1750
(dp1751
g60
(dp1752
g87
g88
ssg69
g1741
sg62
(lp1753
S':'
asbag55
(g76
g57
NtRp1754
(dp1755
g60
(dp1756
sg69
g1741
sg62
(lp1757
g55
(g56
g57
NtRp1758
(dp1759
g60
(dp1760
g68
I4
ssg69
g1754
sg62
(lp1761
S'60367'
p1762
asbasbasbag55
(g71
g57
NtRp1763
(dp1764
g60
(dp1765
sg69
g1254
sg62
(lp1766
g55
(g76
g57
NtRp1767
(dp1768
g60
(dp1769
g80
g81
ssg69
g1763
sg62
(lp1770
S'request_method'
p1771
asbag55
(g76
g57
NtRp1772
(dp1773
g60
(dp1774
g87
g88
ssg69
g1763
sg62
(lp1775
S':'
asbag55
(g76
g57
NtRp1776
(dp1777
g60
(dp1778
sg69
g1763
sg62
(lp1779
g55
(g56
g57
NtRp1780
(dp1781
g60
(dp1782
g68
I4
ssg69
g1776
sg62
(lp1783
S'GET'
p1784
asbasbasbag55
(g71
g57
NtRp1785
(dp1786
g60
(dp1787
sg69
g1254
sg62
(lp1788
g55
(g76
g57
NtRp1789
(dp1790
g60
(dp1791
g80
g81
ssg69
g1785
sg62
(lp1792
S'script_name'
p1793
asbag55
(g76
g57
NtRp1794
(dp1795
g60
(dp1796
g87
g88
ssg69
g1785
sg62
(lp1797
S':'
asbag55
(g76
g57
NtRp1798
(dp1799
g60
(dp1800
sg69
g1785
sg62
(lp1801
g55
(g56
g57
NtRp1802
(dp1803
g60
(dp1804
g68
I4
ssg69
g1798
sg62
(lp1805
S''
asbasbasbag55
(g71
g57
NtRp1806
(dp1807
g60
(dp1808
sg69
g1254
sg62
(lp1809
g55
(g76
g57
NtRp1810
(dp1811
g60
(dp1812
g80
g81
ssg69
g1806
sg62
(lp1813
S'server_name'
p1814
asbag55
(g76
g57
NtRp1815
(dp1816
g60
(dp1817
g87
g88
ssg69
g1806
sg62
(lp1818
S':'
asbag55
(g76
g57
NtRp1819
(dp1820
g60
(dp1821
sg69
g1806
sg62
(lp1822
g55
(g56
g57
NtRp1823
(dp1824
g60
(dp1825
g68
I4
ssg69
g1819
sg62
(lp1826
S'massimo-di-pierros-macbook-2.local'
p1827
asbasbasbag55
(g71
g57
NtRp1828
(dp1829
g60
(dp1830
sg69
g1254
sg62
(lp1831
g55
(g76
g57
NtRp1832
(dp1833
g60
(dp1834
g80
g81
ssg69
g1828
sg62
(lp1835
S'server_port'
p1836
asbag55
(g76
g57
NtRp1837
(dp1838
g60
(dp1839
g87
g88
ssg69
g1828
sg62
(lp1840
S':'
asbag55
(g76
g57
NtRp1841
(dp1842
g60
(dp1843
sg69
g1828
sg62
(lp1844
g55
(g56
g57
NtRp1845
(dp1846
g60
(dp1847
g68
I4
ssg69
g1841
sg62
(lp1848
S'8000'
p1849
asbasbasbag55
(g71
g57
NtRp1850
(dp1851
g60
(dp1852
sg69
g1254
sg62
(lp1853
g55
(g76
g57
NtRp1854
(dp1855
g60
(dp1856
g80
g81
ssg69
g1850
sg62
(lp1857
S'server_protocol'
p1858
asbag55
(g76
g57
NtRp1859
(dp1860
g60
(dp1861
g87
g88
ssg69
g1850
sg62
(lp1862
S':'
asbag55
(g76
g57
NtRp1863
(dp1864
g60
(dp1865
sg69
g1850
sg62
(lp1866
g55
(g56
g57
NtRp1867
(dp1868
g60
(dp1869
g68
I4
ssg69
g1863
sg62
(lp1870
S'HTTP/1.1'
p1871
asbasbasbag55
(g71
g57
NtRp1872
(dp1873
g60
(dp1874
sg69
g1254
sg62
(lp1875
g55
(g76
g57
NtRp1876
(dp1877
g60
(dp1878
g80
g81
ssg69
g1872
sg62
(lp1879
S'server_software'
p1880
asbag55
(g76
g57
NtRp1881
(dp1882
g60
(dp1883
g87
g88
ssg69
g1872
sg62
(lp1884
S':'
asbag55
(g76
g57
NtRp1885
(dp1886
g60
(dp1887
sg69
g1872
sg62
(lp1888
g55
(g56
g57
NtRp1889
(dp1890
g60
(dp1891
g68
I4
ssg69
g1885
sg62
(lp1892
S'Rocket 1.2.4'
p1893
asbasbasbag55
(g71
g57
NtRp1894
(dp1895
g60
(dp1896
sg69
g1254
sg62
(lp1897
g55
(g76
g57
NtRp1898
(dp1899
g60
(dp1900
g80
g81
ssg69
g1894
sg62
(lp1901
S'web2py_crontype'
p1902
asbag55
(g76
g57
NtRp1903
(dp1904
g60
(dp1905
g87
g88
ssg69
g1894
sg62
(lp1906
S':'
asbag55
(g76
g57
NtRp1907
(dp1908
g60
(dp1909
sg69
g1894
sg62
(lp1910
g55
(g56
g57
NtRp1911
(dp1912
g60
(dp1913
g68
I4
ssg69
g1907
sg62
(lp1914
S'hard'
p1915
asbasbasbag55
(g71
g57
NtRp1916
(dp1917
g60
(dp1918
sg69
g1254
sg62
(lp1919
g55
(g76
g57
NtRp1920
(dp1921
g60
(dp1922
g80
g81
ssg69
g1916
sg62
(lp1923
S'web2py_path'
p1924
asbag55
(g76
g57
NtRp1925
(dp1926
g60
(dp1927
g87
g88
ssg69
g1916
sg62
(lp1928
S':'
asbag55
(g76
g57
NtRp1929
(dp1930
g60
(dp1931
sg69
g1916
sg62
(lp1932
g55
(g56
g57
NtRp1933
(dp1934
g60
(dp1935
g68
I4
ssg69
g1929
sg62
(lp1936
g1301
asbasbasbag55
(g71
g57
NtRp1937
(dp1938
g60
(dp1939
sg69
g1254
sg62
(lp1940
g55
(g76
g57
NtRp1941
(dp1942
g60
(dp1943
g80
g81
ssg69
g1937
sg62
(lp1944
S'web2py_version'
p1945
asbag55
(g76
g57
NtRp1946
(dp1947
g60
(dp1948
g87
g88
ssg69
g1937
sg62
(lp1949
S':'
asbag55
(g76
g57
NtRp1950
(dp1951
g60
(dp1952
sg69
g1937
sg62
(lp1953
g55
(g56
g57
NtRp1954
(dp1955
g60
(dp1956
g68
I4
ssg69
g1950
sg62
(lp1957
g55
(g64
g57
NtRp1958
(dp1959
g60
(dp1960
g68
I3
ssg69
Nsg62
(lp1961
g55
(g71
g57
NtRp1962
(dp1963
g60
(dp1964
sg69
g1958
sg62
(lp1965
g55
(g76
g57
NtRp1966
(dp1967
g60
(dp1968
sg69
g1962
sg62
(lp1969
g55
(g56
g57
NtRp1970
(dp1971
g60
(dp1972
g68
I3
ssg69
g1966
sg62
(lp1973
S'1'
asbasbasbag55
(g71
g57
NtRp1974
(dp1975
g60
(dp1976
sg69
g1958
sg62
(lp1977
g55
(g76
g57
NtRp1978
(dp1979
g60
(dp1980
sg69
g1974
sg62
(lp1981
g55
(g56
g57
NtRp1982
(dp1983
g60
(dp1984
g68
I3
ssg69
g1978
sg62
(lp1985
S'99'
p1986
asbasbasbag55
(g71
g57
NtRp1987
(dp1988
g60
(dp1989
sg69
g1958
sg62
(lp1990
g55
(g76
g57
NtRp1991
(dp1992
g60
(dp1993
sg69
g1987
sg62
(lp1994
g55
(g56
g57
NtRp1995
(dp1996
g60
(dp1997
g68
I3
ssg69
g1991
sg62
(lp1998
S'3'
asbasbasbag55
(g71
g57
NtRp1999
(dp2000
g60
(dp2001
sg69
g1958
sg62
(lp2002
g55
(g76
g57
NtRp2003
(dp2004
g60
(dp2005
sg69
g1999
sg62
(lp2006
g55
(g56
g57
NtRp2007
(dp2008
g60
(dp2009
g68
I3
ssg69
g2003
sg62
(lp2010
S'datetime.datetime(2011, 12, 9, 21, 5, 4)'
p2011
asbasbasbag55
(g71
g57
NtRp2012
(dp2013
g60
(dp2014
sg69
g1958
sg62
(lp2015
g55
(g76
g57
NtRp2016
(dp2017
g60
(dp2018
sg69
g2012
sg62
(lp2019
g55
(g56
g57
NtRp2020
(dp2021
g60
(dp2022
g68
I3
ssg69
g2016
sg62
(lp2023
S'stable'
p2024
asbasbasbasbasbasbasbag55
(g71
g57
NtRp2025
(dp2026
g60
(dp2027
sg69
g1254
sg62
(lp2028
g55
(g76
g57
NtRp2029
(dp2030
g60
(dp2031
g80
g81
ssg69
g2025
sg62
(lp2032
S'wsgi_errors'
p2033
asbag55
(g76
g57
NtRp2034
(dp2035
g60
(dp2036
g87
g88
ssg69
g2025
sg62
(lp2037
S':'
asbag55
(g76
g57
NtRp2038
(dp2039
g60
(dp2040
sg69
g2025
sg62
(lp2041
g55
(g56
g57
NtRp2042
(dp2043
g60
(dp2044
g68
I4
ssg69
g2038
sg62
(lp2045
S"<open file '<stderr>', mode 'w' at 0x1620b0>"
p2046
asbasbasbag55
(g71
g57
NtRp2047
(dp2048
g60
(dp2049
sg69
g1254
sg62
(lp2050
g55
(g76
g57
NtRp2051
(dp2052
g60
(dp2053
g80
g81
ssg69
g2047
sg62
(lp2054
S'wsgi_file_wrapper'
p2055
asbag55
(g76
g57
NtRp2056
(dp2057
g60
(dp2058
g87
g88
ssg69
g2047
sg62
(lp2059
S':'
asbag55
(g76
g57
NtRp2060
(dp2061
g60
(dp2062
sg69
g2047
sg62
(lp2063
g55
(g56
g57
NtRp2064
(dp2065
g60
(dp2066
g68
I4
ssg69
g2060
sg62
(lp2067
S'<class wsgiref.util.FileWrapper at 0x7c2840>'
p2068
asbasbasbag55
(g71
g57
NtRp2069
(dp2070
g60
(dp2071
sg69
g1254
sg62
(lp2072
g55
(g76
g57
NtRp2073
(dp2074
g60
(dp2075
g80
g81
ssg69
g2069
sg62
(lp2076
S'wsgi_input'
p2077
asbag55
(g76
g57
NtRp2078
(dp2079
g60
(dp2080
g87
g88
ssg69
g2069
sg62
(lp2081
S':'
asbag55
(g76
g57
NtRp2082
(dp2083
g60
(dp2084
sg69
g2069
sg62
(lp2085
g55
(g56
g57
NtRp2086
(dp2087
g60
(dp2088
g68
I4
ssg69
g2082
sg62
(lp2089
S'<socket._fileobject object at 0x1f87df0>'
p2090
asbasbasbag55
(g71
g57
NtRp2091
(dp2092
g60
(dp2093
sg69
g1254
sg62
(lp2094
g55
(g76
g57
NtRp2095
(dp2096
g60
(dp2097
g80
g81
ssg69
g2091
sg62
(lp2098
S'wsgi_multiprocess'
p2099
asbag55
(g76
g57
NtRp2100
(dp2101
g60
(dp2102
g87
g88
ssg69
g2091
sg62
(lp2103
S':'
asbag55
(g76
g57
NtRp2104
(dp2105
g60
(dp2106
sg69
g2091
sg62
(lp2107
g55
(g56
g57
NtRp2108
(dp2109
g60
(dp2110
g68
I4
ssg69
g2104
sg62
(lp2111
g98
asbasbasbag55
(g71
g57
NtRp2112
(dp2113
g60
(dp2114
sg69
g1254
sg62
(lp2115
g55
(g76
g57
NtRp2116
(dp2117
g60
(dp2118
g80
g81
ssg69
g2112
sg62
(lp2119
S'wsgi_multithread'
p2120
asbag55
(g76
g57
NtRp2121
(dp2122
g60
(dp2123
g87
g88
ssg69
g2112
sg62
(lp2124
S':'
asbag55
(g76
g57
NtRp2125
(dp2126
g60
(dp2127
sg69
g2112
sg62
(lp2128
g55
(g56
g57
NtRp2129
(dp2130
g60
(dp2131
g68
I4
ssg69
g2125
sg62
(lp2132
S'True'
p2133
asbasbasbag55
(g71
g57
NtRp2134
(dp2135
g60
(dp2136
sg69
g1254
sg62
(lp2137
g55
(g76
g57
NtRp2138
(dp2139
g60
(dp2140
g80
g81
ssg69
g2134
sg62
(lp2141
S'wsgi_run_once'
p2142
asbag55
(g76
g57
NtRp2143
(dp2144
g60
(dp2145
g87
g88
ssg69
g2134
sg62
(lp2146
S':'
asbag55
(g76
g57
NtRp2147
(dp2148
g60
(dp2149
sg69
g2134
sg62
(lp2150
g55
(g56
g57
NtRp2151
(dp2152
g60
(dp2153
g68
I4
ssg69
g2147
sg62
(lp2154
g98
asbasbasbag55
(g71
g57
NtRp2155
(dp2156
g60
(dp2157
sg69
g1254
sg62
(lp2158
g55
(g76
g57
NtRp2159
(dp2160
g60
(dp2161
g80
g81
ssg69
g2155
sg62
(lp2162
S'wsgi_url_scheme'
p2163
asbag55
(g76
g57
NtRp2164
(dp2165
g60
(dp2166
g87
g88
ssg69
g2155
sg62
(lp2167
S':'
asbag55
(g76
g57
NtRp2168
(dp2169
g60
(dp2170
sg69
g2155
sg62
(lp2171
g55
(g56
g57
NtRp2172
(dp2173
g60
(dp2174
g68
I4
ssg69
g2168
sg62
(lp2175
S'http'
p2176
asbasbasbag55
(g71
g57
NtRp2177
(dp2178
g60
(dp2179
sg69
g1254
sg62
(lp2180
g55
(g76
g57
NtRp2181
(dp2182
g60
(dp2183
g80
g81
ssg69
g2177
sg62
(lp2184
S'wsgi_version'
p2185
asbag55
(g76
g57
NtRp2186
(dp2187
g60
(dp2188
g87
g88
ssg69
g2177
sg62
(lp2189
S':'
asbag55
(g76
g57
NtRp2190
(dp2191
g60
(dp2192
sg69
g2177
sg62
(lp2193
g55
(g56
g57
NtRp2194
(dp2195
g60
(dp2196
g68
I4
ssg69
g2190
sg62
(lp2197
g55
(g64
g57
NtRp2198
(dp2199
g60
(dp2200
g68
I3
ssg69
Nsg62
(lp2201
g55
(g71
g57
NtRp2202
(dp2203
g60
(dp2204
sg69
g2198
sg62
(lp2205
g55
(g76
g57
NtRp2206
(dp2207
g60
(dp2208
sg69
g2202
sg62
(lp2209
g55
(g56
g57
NtRp2210
(dp2211
g60
(dp2212
g68
I3
ssg69
g2206
sg62
(lp2213
S'1'
asbasbasbag55
(g71
g57
NtRp2214
(dp2215
g60
(dp2216
sg69
g2198
sg62
(lp2217
g55
(g76
g57
NtRp2218
(dp2219
g60
(dp2220
sg69
g2214
sg62
(lp2221
g55
(g56
g57
NtRp2222
(dp2223
g60
(dp2224
g68
I3
ssg69
g2218
sg62
(lp2225
S'0'
asbasbasbasbasbasbasbasbasbasbasbag55
(g71
g57
NtRp2226
(dp2227
g60
(dp2228
sg69
g65
sg62
(lp2229
g55
(g76
g57
NtRp2230
(dp2231
g60
(dp2232
g80
g81
ssg69
g2226
sg62
(lp2233
S'extension'
p2234
asbag55
(g76
g57
NtRp2235
(dp2236
g60
(dp2237
g87
g88
ssg69
g2226
sg62
(lp2238
S':'
asbag55
(g76
g57
NtRp2239
(dp2240
g60
(dp2241
sg69
g2226
sg62
(lp2242
g55
(g56
g57
NtRp2243
(dp2244
g60
(dp2245
g68
I5
ssg69
g2239
sg62
(lp2246
S'html'
p2247
asbasbasbag55
(g71
g57
NtRp2248
(dp2249
g60
(dp2250
sg69
g65
sg62
(lp2251
g55
(g76
g57
NtRp2252
(dp2253
g60
(dp2254
g80
g81
ssg69
g2248
sg62
(lp2255
S'folder'
p2256
asbag55
(g76
g57
NtRp2257
(dp2258
g60
(dp2259
g87
g88
ssg69
g2248
sg62
(lp2260
S':'
asbag55
(g76
g57
NtRp2261
(dp2262
g60
(dp2263
sg69
g2248
sg62
(lp2264
g55
(g56
g57
NtRp2265
(dp2266
g60
(dp2267
g68
I5
ssg69
g2261
sg62
(lp2268
S'/Users/mdipierro/Dropbox/web2py/applications/inplace/'
p2269
asbasbasbag55
(g71
g57
NtRp2270
(dp2271
g60
(dp2272
sg69
g65
sg62
(lp2273
g55
(g76
g57
NtRp2274
(dp2275
g60
(dp2276
g80
g81
ssg69
g2270
sg62
(lp2277
S'function'
p2278
asbag55
(g76
g57
NtRp2279
(dp2280
g60
(dp2281
g87
g88
ssg69
g2270
sg62
(lp2282
S':'
asbag55
(g76
g57
NtRp2283
(dp2284
g60
(dp2285
sg69
g2270
sg62
(lp2286
g55
(g56
g57
NtRp2287
(dp2288
g60
(dp2289
g68
I5
ssg69
g2283
sg62
(lp2290
S'edit'
p2291
asbasbasbag55
(g71
g57
NtRp2292
(dp2293
g60
(dp2294
sg69
g65
sg62
(lp2295
g55
(g76
g57
NtRp2296
(dp2297
g60
(dp2298
g80
g81
ssg69
g2292
sg62
(lp2299
S'get_vars'
p2300
asbag55
(g76
g57
NtRp2301
(dp2302
g60
(dp2303
g87
g88
ssg69
g2292
sg62
(lp2304
S':'
asbag55
(g76
g57
NtRp2305
(dp2306
g60
(dp2307
sg69
g2292
sg62
(lp2308
g55
(g56
g57
NtRp2309
(dp2310
g60
(dp2311
g68
I5
ssg69
g2305
sg62
(lp2312
g55
(g64
g57
NtRp2313
(dp2314
g60
(dp2315
g68
I4
ssg69
Nsg62
(lp2316
g55
(g71
g57
NtRp2317
(dp2318
g60
(dp2319
sg69
g2313
sg62
(lp2320
g55
(g76
g57
NtRp2321
(dp2322
g60
(dp2323
g80
g81
ssg69
g2317
sg62
(lp2324
S'url'
p2325
asbag55
(g76
g57
NtRp2326
(dp2327
g60
(dp2328
g87
g88
ssg69
g2317
sg62
(lp2329
S':'
asbag55
(g76
g57
NtRp2330
(dp2331
g60
(dp2332
sg69
g2317
sg62
(lp2333
g55
(g56
g57
NtRp2334
(dp2335
g60
(dp2336
g68
I4
ssg69
g2330
sg62
(lp2337
S'http://django.com'
p2338
asbasbasbasbasbasbasbag55
(g71
g57
NtRp2339
(dp2340
g60
(dp2341
sg69
g65
sg62
(lp2342
g55
(g76
g57
NtRp2343
(dp2344
g60
(dp2345
g80
g81
ssg69
g2339
sg62
(lp2346
S'global_settings'
p2347
asbag55
(g76
g57
NtRp2348
(dp2349
g60
(dp2350
g87
g88
ssg69
g2339
sg62
(lp2351
S':'
asbag55
(g76
g57
NtRp2352
(dp2353
g60
(dp2354
sg69
g2339
sg62
(lp2355
g55
(g56
g57
NtRp2356
(dp2357
g60
(dp2358
g68
I5
ssg69
g2352
sg62
(lp2359
g55
(g64
g57
NtRp2360
(dp2361
g60
(dp2362
g68
I4
ssg69
Nsg62
(lp2363
g55
(g71
g57
NtRp2364
(dp2365
g60
(dp2366
sg69
g2360
sg62
(lp2367
g55
(g76
g57
NtRp2368
(dp2369
g60
(dp2370
g80
g81
ssg69
g2364
sg62
(lp2371
g1266
asbag55
(g76
g57
NtRp2372
(dp2373
g60
(dp2374
g87
g88
ssg69
g2364
sg62
(lp2375
S':'
asbag55
(g76
g57
NtRp2376
(dp2377
g60
(dp2378
sg69
g2364
sg62
(lp2379
g55
(g56
g57
NtRp2380
(dp2381
g60
(dp2382
g68
I4
ssg69
g2376
sg62
(lp2383
S"set(['/Users/mdipierro/Dropbox/web2py/applications/inplace/', '/Users/mdipierro/Dropbox/web2py/applications/cms/', '/Users/mdipierro/Dropbox/web2py/applications/admin/'])"
p2384
asbasbasbag55
(g71
g57
NtRp2385
(dp2386
g60
(dp2387
sg69
g2360
sg62
(lp2388
g55
(g76
g57
NtRp2389
(dp2390
g60
(dp2391
g80
g81
ssg69
g2385
sg62
(lp2392
g1288
asbag55
(g76
g57
NtRp2393
(dp2394
g60
(dp2395
g87
g88
ssg69
g2385
sg62
(lp2396
S':'
asbag55
(g76
g57
NtRp2397
(dp2398
g60
(dp2399
sg69
g2385
sg62
(lp2400
g55
(g56
g57
NtRp2401
(dp2402
g60
(dp2403
g68
I4
ssg69
g2397
sg62
(lp2404
g1301
asbasbasbag55
(g71
g57
NtRp2405
(dp2406
g60
(dp2407
sg69
g2360
sg62
(lp2408
g55
(g76
g57
NtRp2409
(dp2410
g60
(dp2411
g80
g81
ssg69
g2405
sg62
(lp2412
g1310
asbag55
(g76
g57
NtRp2413
(dp2414
g60
(dp2415
g87
g88
ssg69
g2405
sg62
(lp2416
S':'
asbag55
(g76
g57
NtRp2417
(dp2418
g60
(dp2419
sg69
g2405
sg62
(lp2420
g55
(g56
g57
NtRp2421
(dp2422
g60
(dp2423
g68
I4
ssg69
g2417
sg62
(lp2424
g55
(g64
g57
NtRp2425
(dp2426
g60
(dp2427
g68
I3
ssg69
Nsg62
(lp2428
sbasbasbasbag55
(g71
g57
NtRp2429
(dp2430
g60
(dp2431
sg69
g2360
sg62
(lp2432
g55
(g76
g57
NtRp2433
(dp2434
g60
(dp2435
g80
g81
ssg69
g2429
sg62
(lp2436
g1335
asbag55
(g76
g57
NtRp2437
(dp2438
g60
(dp2439
g87
g88
ssg69
g2429
sg62
(lp2440
S':'
asbag55
(g76
g57
NtRp2441
(dp2442
g60
(dp2443
sg69
g2429
sg62
(lp2444
g55
(g56
g57
NtRp2445
(dp2446
g60
(dp2447
g68
I4
ssg69
g2441
sg62
(lp2448
S"<Values at 0x153a378: {'verbose': False, 'ip': '127.0.0.1', 'shutdown_timeout': 5, 'taskbar': False, 'nocron': False, 'pid_filename': 'httpserver.pid', 'maxthreads': None, 'softcron': False, 'server_name': 'massimo-di-pierros-macbook-2.local', 'bpython': False, 'nogui': False, 'port': 8000, 'extcron': False, 'debuglevel': 30, 'test': None, 'folder': '/Users/mdipierro/Dropbox/web2py', 'config': '', 'import_models': False, 'winservice': '', 'shell': None, 'run': '', 'log_filename': 'httpserver.log', 'args': [''], 'socket_timeout': 1, 'ssl_ca_certificate': None, 'scheduler': None, 'profiler_filename': None, 'ssl_private_key': '', 'password': 'hello', 'request_queue_size': 5, 'ssl_certificate': '', 'cronjob': False, 'numthreads': None, 'quiet': False, 'interfaces': None, 'minthreads': None, 'timeout': 10, 'plain': False, 'nobanner': False}>"
p2449
asbasbasbag55
(g71
g57
NtRp2450
(dp2451
g60
(dp2452
sg69
g2360
sg62
(lp2453
g55
(g76
g57
NtRp2454
(dp2455
g60
(dp2456
g80
g81
ssg69
g2450
sg62
(lp2457
g1357
asbag55
(g76
g57
NtRp2458
(dp2459
g60
(dp2460
g87
g88
ssg69
g2450
sg62
(lp2461
S':'
asbag55
(g76
g57
NtRp2462
(dp2463
g60
(dp2464
sg69
g2450
sg62
(lp2465
g55
(g56
g57
NtRp2466
(dp2467
g60
(dp2468
g68
I4
ssg69
g2462
sg62
(lp2469
S'set([])'
p2470
asbasbasbag55
(g71
g57
NtRp2471
(dp2472
g60
(dp2473
sg69
g2360
sg62
(lp2474
g55
(g76
g57
NtRp2475
(dp2476
g60
(dp2477
g80
g81
ssg69
g2471
sg62
(lp2478
g1379
asbag55
(g76
g57
NtRp2479
(dp2480
g60
(dp2481
g87
g88
ssg69
g2471
sg62
(lp2482
S':'
asbag55
(g76
g57
NtRp2483
(dp2484
g60
(dp2485
sg69
g2471
sg62
(lp2486
g55
(g56
g57
NtRp2487
(dp2488
g60
(dp2489
g68
I4
ssg69
g2483
sg62
(lp2490
g98
asbasbasbag55
(g71
g57
NtRp2491
(dp2492
g60
(dp2493
sg69
g2360
sg62
(lp2494
g55
(g76
g57
NtRp2495
(dp2496
g60
(dp2497
g80
g81
ssg69
g2491
sg62
(lp2498
g1400
asbag55
(g76
g57
NtRp2499
(dp2500
g60
(dp2501
g87
g88
ssg69
g2491
sg62
(lp2502
S':'
asbag55
(g76
g57
NtRp2503
(dp2504
g60
(dp2505
sg69
g2491
sg62
(lp2506
g55
(g56
g57
NtRp2507
(dp2508
g60
(dp2509
g68
I4
ssg69
g2503
sg62
(lp2510
g1413
asbasbasbag55
(g71
g57
NtRp2511
(dp2512
g60
(dp2513
sg69
g2360
sg62
(lp2514
g55
(g76
g57
NtRp2515
(dp2516
g60
(dp2517
g80
g81
ssg69
g2511
sg62
(lp2518
g1642
asbag55
(g76
g57
NtRp2519
(dp2520
g60
(dp2521
g87
g88
ssg69
g2511
sg62
(lp2522
S':'
asbag55
(g76
g57
NtRp2523
(dp2524
g60
(dp2525
sg69
g2511
sg62
(lp2526
g55
(g56
g57
NtRp2527
(dp2528
g60
(dp2529
g68
I4
ssg69
g2523
sg62
(lp2530
g98
asbasbasbag55
(g71
g57
NtRp2531
(dp2532
g60
(dp2533
sg69
g2360
sg62
(lp2534
g55
(g76
g57
NtRp2535
(dp2536
g60
(dp2537
g80
g81
ssg69
g2531
sg62
(lp2538
g1663
asbag55
(g76
g57
NtRp2539
(dp2540
g60
(dp2541
g87
g88
ssg69
g2531
sg62
(lp2542
S':'
asbag55
(g76
g57
NtRp2543
(dp2544
g60
(dp2545
sg69
g2531
sg62
(lp2546
g55
(g56
g57
NtRp2547
(dp2548
g60
(dp2549
g68
I4
ssg69
g2543
sg62
(lp2550
g98
asbasbasbag55
(g71
g57
NtRp2551
(dp2552
g60
(dp2553
sg69
g2360
sg62
(lp2554
g55
(g76
g57
NtRp2555
(dp2556
g60
(dp2557
g80
g81
ssg69
g2551
sg62
(lp2558
g1902
asbag55
(g76
g57
NtRp2559
(dp2560
g60
(dp2561
g87
g88
ssg69
g2551
sg62
(lp2562
S':'
asbag55
(g76
g57
NtRp2563
(dp2564
g60
(dp2565
sg69
g2551
sg62
(lp2566
g55
(g56
g57
NtRp2567
(dp2568
g60
(dp2569
g68
I4
ssg69
g2563
sg62
(lp2570
g1915
asbasbasbag55
(g71
g57
NtRp2571
(dp2572
g60
(dp2573
sg69
g2360
sg62
(lp2574
g55
(g76
g57
NtRp2575
(dp2576
g60
(dp2577
g80
g81
ssg69
g2571
sg62
(lp2578
g1945
asbag55
(g76
g57
NtRp2579
(dp2580
g60
(dp2581
g87
g88
ssg69
g2571
sg62
(lp2582
S':'
asbag55
(g76
g57
NtRp2583
(dp2584
g60
(dp2585
sg69
g2571
sg62
(lp2586
g55
(g56
g57
NtRp2587
(dp2588
g60
(dp2589
g68
I4
ssg69
g2583
sg62
(lp2590
g55
(g64
g57
NtRp2591
(dp2592
g60
(dp2593
g68
I3
ssg69
Nsg62
(lp2594
g55
(g71
g57
NtRp2595
(dp2596
g60
(dp2597
sg69
g2591
sg62
(lp2598
g55
(g76
g57
NtRp2599
(dp2600
g60
(dp2601
sg69
g2595
sg62
(lp2602
g55
(g56
g57
NtRp2603
(dp2604
g60
(dp2605
g68
I3
ssg69
g2599
sg62
(lp2606
S'1'
asbasbasbag55
(g71
g57
NtRp2607
(dp2608
g60
(dp2609
sg69
g2591
sg62
(lp2610
g55
(g76
g57
NtRp2611
(dp2612
g60
(dp2613
sg69
g2607
sg62
(lp2614
g55
(g56
g57
NtRp2615
(dp2616
g60
(dp2617
g68
I3
ssg69
g2611
sg62
(lp2618
S'99'
p2619
asbasbasbag55
(g71
g57
NtRp2620
(dp2621
g60
(dp2622
sg69
g2591
sg62
(lp2623
g55
(g76
g57
NtRp2624
(dp2625
g60
(dp2626
sg69
g2620
sg62
(lp2627
g55
(g56
g57
NtRp2628
(dp2629
g60
(dp2630
g68
I3
ssg69
g2624
sg62
(lp2631
S'3'
asbasbasbag55
(g71
g57
NtRp2632
(dp2633
g60
(dp2634
sg69
g2591
sg62
(lp2635
g55
(g76
g57
NtRp2636
(dp2637
g60
(dp2638
sg69
g2632
sg62
(lp2639
g55
(g56
g57
NtRp2640
(dp2641
g60
(dp2642
g68
I3
ssg69
g2636
sg62
(lp2643
S'datetime.datetime(2011, 12, 9, 21, 5, 4)'
p2644
asbasbasbag55
(g71
g57
NtRp2645
(dp2646
g60
(dp2647
sg69
g2591
sg62
(lp2648
g55
(g76
g57
NtRp2649
(dp2650
g60
(dp2651
sg69
g2645
sg62
(lp2652
g55
(g56
g57
NtRp2653
(dp2654
g60
(dp2655
g68
I3
ssg69
g2649
sg62
(lp2656
g2024
asbasbasbasbasbasbasbasbasbasbasbag55
(g71
g57
NtRp2657
(dp2658
g60
(dp2659
sg69
g65
sg62
(lp2660
g55
(g76
g57
NtRp2661
(dp2662
g60
(dp2663
g80
g81
ssg69
g2657
sg62
(lp2664
S'is_https'
p2665
asbag55
(g76
g57
NtRp2666
(dp2667
g60
(dp2668
g87
g88
ssg69
g2657
sg62
(lp2669
S':'
asbag55
(g76
g57
NtRp2670
(dp2671
g60
(dp2672
sg69
g2657
sg62
(lp2673
g55
(g56
g57
NtRp2674
(dp2675
g60
(dp2676
g68
I5
ssg69
g2670
sg62
(lp2677
g98
asbasbasbag55
(g71
g57
NtRp2678
(dp2679
g60
(dp2680
sg69
g65
sg62
(lp2681
g55
(g76
g57
NtRp2682
(dp2683
g60
(dp2684
g80
g81
ssg69
g2678
sg62
(lp2685
S'is_local'
p2686
asbag55
(g76
g57
NtRp2687
(dp2688
g60
(dp2689
g87
g88
ssg69
g2678
sg62
(lp2690
S':'
asbag55
(g76
g57
NtRp2691
(dp2692
g60
(dp2693
sg69
g2678
sg62
(lp2694
g55
(g56
g57
NtRp2695
(dp2696
g60
(dp2697
g68
I5
ssg69
g2691
sg62
(lp2698
g2133
asbasbasbag55
(g71
g57
NtRp2699
(dp2700
g60
(dp2701
sg69
g65
sg62
(lp2702
g55
(g76
g57
NtRp2703
(dp2704
g60
(dp2705
g80
g81
ssg69
g2699
sg62
(lp2706
S'is_restful'
p2707
asbag55
(g76
g57
NtRp2708
(dp2709
g60
(dp2710
g87
g88
ssg69
g2699
sg62
(lp2711
S':'
asbag55
(g76
g57
NtRp2712
(dp2713
g60
(dp2714
sg69
g2699
sg62
(lp2715
g55
(g56
g57
NtRp2716
(dp2717
g60
(dp2718
g68
I5
ssg69
g2712
sg62
(lp2719
g98
asbasbasbag55
(g71
g57
NtRp2720
(dp2721
g60
(dp2722
sg69
g65
sg62
(lp2723
g55
(g76
g57
NtRp2724
(dp2725
g60
(dp2726
g80
g81
ssg69
g2720
sg62
(lp2727
S'now'
p2728
asbag55
(g76
g57
NtRp2729
(dp2730
g60
(dp2731
g87
g88
ssg69
g2720
sg62
(lp2732
S':'
asbag55
(g76
g57
NtRp2733
(dp2734
g60
(dp2735
sg69
g2720
sg62
(lp2736
g55
(g56
g57
NtRp2737
(dp2738
g60
(dp2739
g68
I5
ssg69
g2733
sg62
(lp2740
S'datetime.datetime(2011, 12, 10, 1, 7, 54, 165736)'
p2741
asbasbasbag55
(g71
g57
NtRp2742
(dp2743
g60
(dp2744
sg69
g65
sg62
(lp2745
g55
(g76
g57
NtRp2746
(dp2747
g60
(dp2748
g80
g81
ssg69
g2742
sg62
(lp2749
S'post_vars'
p2750
asbag55
(g76
g57
NtRp2751
(dp2752
g60
(dp2753
g87
g88
ssg69
g2742
sg62
(lp2754
S':'
asbag55
(g76
g57
NtRp2755
(dp2756
g60
(dp2757
sg69
g2742
sg62
(lp2758
g55
(g56
g57
NtRp2759
(dp2760
g60
(dp2761
g68
I5
ssg69
g2755
sg62
(lp2762
g55
(g64
g57
NtRp2763
(dp2764
g60
(dp2765
g68
I4
ssg69
Nsg62
(lp2766
sbasbasbasbag55
(g71
g57
NtRp2767
(dp2768
g60
(dp2769
sg69
g65
sg62
(lp2770
g55
(g76
g57
NtRp2771
(dp2772
g60
(dp2773
g80
g81
ssg69
g2767
sg62
(lp2774
S'url'
p2775
asbag55
(g76
g57
NtRp2776
(dp2777
g60
(dp2778
g87
g88
ssg69
g2767
sg62
(lp2779
S':'
asbag55
(g76
g57
NtRp2780
(dp2781
g60
(dp2782
sg69
g2767
sg62
(lp2783
g55
(g56
g57
NtRp2784
(dp2785
g60
(dp2786
g68
I5
ssg69
g2780
sg62
(lp2787
S'/inplace/default/edit'
p2788
asbasbasbag55
(g71
g57
NtRp2789
(dp2790
g60
(dp2791
sg69
g65
sg62
(lp2792
g55
(g76
g57
NtRp2793
(dp2794
g60
(dp2795
g80
g81
ssg69
g2789
sg62
(lp2796
S'utcnow'
p2797
asbag55
(g76
g57
NtRp2798
(dp2799
g60
(dp2800
g87
g88
ssg69
g2789
sg62
(lp2801
S':'
asbag55
(g76
g57
NtRp2802
(dp2803
g60
(dp2804
sg69
g2789
sg62
(lp2805
g55
(g56
g57
NtRp2806
(dp2807
g60
(dp2808
g68
I5
ssg69
g2802
sg62
(lp2809
S'datetime.datetime(2011, 12, 10, 7, 7, 54, 165746)'
p2810
asbasbasbag55
(g71
g57
NtRp2811
(dp2812
g60
(dp2813
sg69
g65
sg62
(lp2814
g55
(g76
g57
NtRp2815
(dp2816
g60
(dp2817
g80
g81
ssg69
g2811
sg62
(lp2818
S'uuid'
p2819
asbag55
(g76
g57
NtRp2820
(dp2821
g60
(dp2822
g87
g88
ssg69
g2811
sg62
(lp2823
S':'
asbag55
(g76
g57
NtRp2824
(dp2825
g60
(dp2826
sg69
g2811
sg62
(lp2827
g55
(g56
g57
NtRp2828
(dp2829
g60
(dp2830
g68
I5
ssg69
g2824
sg62
(lp2831
S'inplace/127.0.0.1.2011-12-10.01-07-54.46756202-1a70-4d1e-9550-0d94cf754463'
p2832
asbasbasbag55
(g71
g57
NtRp2833
(dp2834
g60
(dp2835
sg69
g65
sg62
(lp2836
g55
(g76
g57
NtRp2837
(dp2838
g60
(dp2839
g80
g81
ssg69
g2833
sg62
(lp2840
S'vars'
p2841
asbag55
(g76
g57
NtRp2842
(dp2843
g60
(dp2844
g87
g88
ssg69
g2833
sg62
(lp2845
S':'
asbag55
(g76
g57
NtRp2846
(dp2847
g60
(dp2848
sg69
g2833
sg62
(lp2849
g55
(g56
g57
NtRp2850
(dp2851
g60
(dp2852
g68
I5
ssg69
g2846
sg62
(lp2853
g55
(g64
g57
NtRp2854
(dp2855
g60
(dp2856
g68
I4
ssg69
Nsg62
(lp2857
g55
(g71
g57
NtRp2858
(dp2859
g60
(dp2860
sg69
g2854
sg62
(lp2861
g55
(g76
g57
NtRp2862
(dp2863
g60
(dp2864
g80
g81
ssg69
g2858
sg62
(lp2865
g2325
asbag55
(g76
g57
NtRp2866
(dp2867
g60
(dp2868
g87
g88
ssg69
g2858
sg62
(lp2869
S':'
asbag55
(g76
g57
NtRp2870
(dp2871
g60
(dp2872
sg69
g2858
sg62
(lp2873
g55
(g56
g57
NtRp2874
(dp2875
g60
(dp2876
g68
I4
ssg69
g2870
sg62
(lp2877
g2338
asbasbasbasbasbasbasbag55
(g71
g57
NtRp2878
(dp2879
g60
(dp2880
sg69
g65
sg62
(lp2881
g55
(g76
g57
NtRp2882
(dp2883
g60
(dp2884
g80
g81
ssg69
g2878
sg62
(lp2885
S'wsgi'
p2886
asbag55
(g76
g57
NtRp2887
(dp2888
g60
(dp2889
g87
g88
ssg69
g2878
sg62
(lp2890
S':'
asbag55
(g76
g57
NtRp2891
(dp2892
g60
(dp2893
sg69
g2878
sg62
(lp2894
g55
(g56
g57
NtRp2895
(dp2896
g60
(dp2897
g68
I5
ssg69
g2891
sg62
(lp2898
g55
(g64
g57
NtRp2899
(dp2900
g60
(dp2901
g68
I4
ssg69
Nsg62
(lp2902
g55
(g71
g57
NtRp2903
(dp2904
g60
(dp2905
sg69
g2899
sg62
(lp2906
g55
(g76
g57
NtRp2907
(dp2908
g60
(dp2909
g80
g81
ssg69
g2903
sg62
(lp2910
S'environ'
p2911
asbag55
(g76
g57
NtRp2912
(dp2913
g60
(dp2914
g87
g88
ssg69
g2903
sg62
(lp2915
S':'
asbag55
(g76
g57
NtRp2916
(dp2917
g60
(dp2918
sg69
g2903
sg62
(lp2919
g55
(g56
g57
NtRp2920
(dp2921
g60
(dp2922
g68
I4
ssg69
g2916
sg62
(lp2923
g55
(g64
g57
NtRp2924
(dp2925
g60
(dp2926
g68
I3
ssg69
Nsg62
(lp2927
g55
(g71
g57
NtRp2928
(dp2929
g60
(dp2930
sg69
g2924
sg62
(lp2931
g55
(g76
g57
NtRp2932
(dp2933
g60
(dp2934
g80
g81
ssg69
g2928
sg62
(lp2935
S'HTTP_ACCEPT'
p2936
asbag55
(g76
g57
NtRp2937
(dp2938
g60
(dp2939
g87
g88
ssg69
g2928
sg62
(lp2940
S':'
asbag55
(g76
g57
NtRp2941
(dp2942
g60
(dp2943
sg69
g2928
sg62
(lp2944
g55
(g56
g57
NtRp2945
(dp2946
g60
(dp2947
g68
I3
ssg69
g2941
sg62
(lp2948
g1435
asbasbasbag55
(g71
g57
NtRp2949
(dp2950
g60
(dp2951
sg69
g2924
sg62
(lp2952
g55
(g76
g57
NtRp2953
(dp2954
g60
(dp2955
g80
g81
ssg69
g2949
sg62
(lp2956
S'HTTP_ACCEPT_CHARSET'
p2957
asbag55
(g76
g57
NtRp2958
(dp2959
g60
(dp2960
g87
g88
ssg69
g2949
sg62
(lp2961
S':'
asbag55
(g76
g57
NtRp2962
(dp2963
g60
(dp2964
sg69
g2949
sg62
(lp2965
g55
(g56
g57
NtRp2966
(dp2967
g60
(dp2968
g68
I3
ssg69
g2962
sg62
(lp2969
g1457
asbasbasbag55
(g71
g57
NtRp2970
(dp2971
g60
(dp2972
sg69
g2924
sg62
(lp2973
g55
(g76
g57
NtRp2974
(dp2975
g60
(dp2976
g80
g81
ssg69
g2970
sg62
(lp2977
S'HTTP_ACCEPT_ENCODING'
p2978
asbag55
(g76
g57
NtRp2979
(dp2980
g60
(dp2981
g87
g88
ssg69
g2970
sg62
(lp2982
S':'
asbag55
(g76
g57
NtRp2983
(dp2984
g60
(dp2985
sg69
g2970
sg62
(lp2986
g55
(g56
g57
NtRp2987
(dp2988
g60
(dp2989
g68
I3
ssg69
g2983
sg62
(lp2990
g1479
asbasbasbag55
(g71
g57
NtRp2991
(dp2992
g60
(dp2993
sg69
g2924
sg62
(lp2994
g55
(g76
g57
NtRp2995
(dp2996
g60
(dp2997
g80
g81
ssg69
g2991
sg62
(lp2998
S'HTTP_ACCEPT_LANGUAGE'
p2999
asbag55
(g76
g57
NtRp3000
(dp3001
g60
(dp3002
g87
g88
ssg69
g2991
sg62
(lp3003
S':'
asbag55
(g76
g57
NtRp3004
(dp3005
g60
(dp3006
sg69
g2991
sg62
(lp3007
g55
(g56
g57
NtRp3008
(dp3009
g60
(dp3010
g68
I3
ssg69
g3004
sg62
(lp3011
g1501
asbasbasbag55
(g71
g57
NtRp3012
(dp3013
g60
(dp3014
sg69
g2924
sg62
(lp3015
g55
(g76
g57
NtRp3016
(dp3017
g60
(dp3018
g80
g81
ssg69
g3012
sg62
(lp3019
S'HTTP_CACHE_CONTROL'
p3020
asbag55
(g76
g57
NtRp3021
(dp3022
g60
(dp3023
g87
g88
ssg69
g3012
sg62
(lp3024
S':'
asbag55
(g76
g57
NtRp3025
(dp3026
g60
(dp3027
sg69
g3012
sg62
(lp3028
g55
(g56
g57
NtRp3029
(dp3030
g60
(dp3031
g68
I3
ssg69
g3025
sg62
(lp3032
g1523
asbasbasbag55
(g71
g57
NtRp3033
(dp3034
g60
(dp3035
sg69
g2924
sg62
(lp3036
g55
(g76
g57
NtRp3037
(dp3038
g60
(dp3039
g80
g81
ssg69
g3033
sg62
(lp3040
S'HTTP_CONNECTION'
p3041
asbag55
(g76
g57
NtRp3042
(dp3043
g60
(dp3044
g87
g88
ssg69
g3033
sg62
(lp3045
S':'
asbag55
(g76
g57
NtRp3046
(dp3047
g60
(dp3048
sg69
g3033
sg62
(lp3049
g55
(g56
g57
NtRp3050
(dp3051
g60
(dp3052
g68
I3
ssg69
g3046
sg62
(lp3053
g1545
asbasbasbag55
(g71
g57
NtRp3054
(dp3055
g60
(dp3056
sg69
g2924
sg62
(lp3057
g55
(g76
g57
NtRp3058
(dp3059
g60
(dp3060
g80
g81
ssg69
g3054
sg62
(lp3061
S'HTTP_COOKIE'
p3062
asbag55
(g76
g57
NtRp3063
(dp3064
g60
(dp3065
g87
g88
ssg69
g3054
sg62
(lp3066
S':'
asbag55
(g76
g57
NtRp3067
(dp3068
g60
(dp3069
sg69
g3054
sg62
(lp3070
g55
(g56
g57
NtRp3071
(dp3072
g60
(dp3073
g68
I3
ssg69
g3067
sg62
(lp3074
g1567
asbasbasbag55
(g71
g57
NtRp3075
(dp3076
g60
(dp3077
sg69
g2924
sg62
(lp3078
g55
(g76
g57
NtRp3079
(dp3080
g60
(dp3081
g80
g81
ssg69
g3075
sg62
(lp3082
S'HTTP_HOST'
p3083
asbag55
(g76
g57
NtRp3084
(dp3085
g60
(dp3086
g87
g88
ssg69
g3075
sg62
(lp3087
S':'
asbag55
(g76
g57
NtRp3088
(dp3089
g60
(dp3090
sg69
g3075
sg62
(lp3091
g55
(g56
g57
NtRp3092
(dp3093
g60
(dp3094
g68
I3
ssg69
g3088
sg62
(lp3095
g1589
asbasbasbag55
(g71
g57
NtRp3096
(dp3097
g60
(dp3098
sg69
g2924
sg62
(lp3099
g55
(g76
g57
NtRp3100
(dp3101
g60
(dp3102
g80
g81
ssg69
g3096
sg62
(lp3103
S'HTTP_REFERER'
p3104
asbag55
(g76
g57
NtRp3105
(dp3106
g60
(dp3107
g87
g88
ssg69
g3096
sg62
(lp3108
S':'
asbag55
(g76
g57
NtRp3109
(dp3110
g60
(dp3111
sg69
g3096
sg62
(lp3112
g55
(g56
g57
NtRp3113
(dp3114
g60
(dp3115
g68
I3
ssg69
g3109
sg62
(lp3116
g1611
asbasbasbag55
(g71
g57
NtRp3117
(dp3118
g60
(dp3119
sg69
g2924
sg62
(lp3120
g55
(g76
g57
NtRp3121
(dp3122
g60
(dp3123
g80
g81
ssg69
g3117
sg62
(lp3124
S'HTTP_USER_AGENT'
p3125
asbag55
(g76
g57
NtRp3126
(dp3127
g60
(dp3128
g87
g88
ssg69
g3117
sg62
(lp3129
S':'
asbag55
(g76
g57
NtRp3130
(dp3131
g60
(dp3132
sg69
g3117
sg62
(lp3133
g55
(g56
g57
NtRp3134
(dp3135
g60
(dp3136
g68
I3
ssg69
g3130
sg62
(lp3137
g1633
asbasbasbag55
(g71
g57
NtRp3138
(dp3139
g60
(dp3140
sg69
g2924
sg62
(lp3141
g55
(g76
g57
NtRp3142
(dp3143
g60
(dp3144
g80
g81
ssg69
g3138
sg62
(lp3145
S'PATH_INFO'
p3146
asbag55
(g76
g57
NtRp3147
(dp3148
g60
(dp3149
g87
g88
ssg69
g3138
sg62
(lp3150
S':'
asbag55
(g76
g57
NtRp3151
(dp3152
g60
(dp3153
sg69
g3138
sg62
(lp3154
g55
(g56
g57
NtRp3155
(dp3156
g60
(dp3157
g68
I3
ssg69
g3151
sg62
(lp3158
g1697
asbasbasbag55
(g71
g57
NtRp3159
(dp3160
g60
(dp3161
sg69
g2924
sg62
(lp3162
g55
(g76
g57
NtRp3163
(dp3164
g60
(dp3165
g80
g81
ssg69
g3159
sg62
(lp3166
S'QUERY_STRING'
p3167
asbag55
(g76
g57
NtRp3168
(dp3169
g60
(dp3170
g87
g88
ssg69
g3159
sg62
(lp3171
S':'
asbag55
(g76
g57
NtRp3172
(dp3173
g60
(dp3174
sg69
g3159
sg62
(lp3175
g55
(g56
g57
NtRp3176
(dp3177
g60
(dp3178
g68
I3
ssg69
g3172
sg62
(lp3179
g1719
asbasbasbag55
(g71
g57
NtRp3180
(dp3181
g60
(dp3182
sg69
g2924
sg62
(lp3183
g55
(g76
g57
NtRp3184
(dp3185
g60
(dp3186
g80
g81
ssg69
g3180
sg62
(lp3187
S'REMOTE_ADDR'
p3188
asbag55
(g76
g57
NtRp3189
(dp3190
g60
(dp3191
g87
g88
ssg69
g3180
sg62
(lp3192
S':'
asbag55
(g76
g57
NtRp3193
(dp3194
g60
(dp3195
sg69
g3180
sg62
(lp3196
g55
(g56
g57
NtRp3197
(dp3198
g60
(dp3199
g68
I3
ssg69
g3193
sg62
(lp3200
g188
asbasbasbag55
(g71
g57
NtRp3201
(dp3202
g60
(dp3203
sg69
g2924
sg62
(lp3204
g55
(g76
g57
NtRp3205
(dp3206
g60
(dp3207
g80
g81
ssg69
g3201
sg62
(lp3208
S'REMOTE_PORT'
p3209
asbag55
(g76
g57
NtRp3210
(dp3211
g60
(dp3212
g87
g88
ssg69
g3201
sg62
(lp3213
S':'
asbag55
(g76
g57
NtRp3214
(dp3215
g60
(dp3216
sg69
g3201
sg62
(lp3217
g55
(g56
g57
NtRp3218
(dp3219
g60
(dp3220
g68
I3
ssg69
g3214
sg62
(lp3221
g1762
asbasbasbag55
(g71
g57
NtRp3222
(dp3223
g60
(dp3224
sg69
g2924
sg62
(lp3225
g55
(g76
g57
NtRp3226
(dp3227
g60
(dp3228
g80
g81
ssg69
g3222
sg62
(lp3229
S'REQUEST_METHOD'
p3230
asbag55
(g76
g57
NtRp3231
(dp3232
g60
(dp3233
g87
g88
ssg69
g3222
sg62
(lp3234
S':'
asbag55
(g76
g57
NtRp3235
(dp3236
g60
(dp3237
sg69
g3222
sg62
(lp3238
g55
(g56
g57
NtRp3239
(dp3240
g60
(dp3241
g68
I3
ssg69
g3235
sg62
(lp3242
g1784
asbasbasbag55
(g71
g57
NtRp3243
(dp3244
g60
(dp3245
sg69
g2924
sg62
(lp3246
g55
(g76
g57
NtRp3247
(dp3248
g60
(dp3249
g80
g81
ssg69
g3243
sg62
(lp3250
S'SCRIPT_NAME'
p3251
asbag55
(g76
g57
NtRp3252
(dp3253
g60
(dp3254
g87
g88
ssg69
g3243
sg62
(lp3255
S':'
asbag55
(g76
g57
NtRp3256
(dp3257
g60
(dp3258
sg69
g3243
sg62
(lp3259
g55
(g56
g57
NtRp3260
(dp3261
g60
(dp3262
g68
I3
ssg69
g3256
sg62
(lp3263
S''
asbasbasbag55
(g71
g57
NtRp3264
(dp3265
g60
(dp3266
sg69
g2924
sg62
(lp3267
g55
(g76
g57
NtRp3268
(dp3269
g60
(dp3270
g80
g81
ssg69
g3264
sg62
(lp3271
S'SERVER_NAME'
p3272
asbag55
(g76
g57
NtRp3273
(dp3274
g60
(dp3275
g87
g88
ssg69
g3264
sg62
(lp3276
S':'
asbag55
(g76
g57
NtRp3277
(dp3278
g60
(dp3279
sg69
g3264
sg62
(lp3280
g55
(g56
g57
NtRp3281
(dp3282
g60
(dp3283
g68
I3
ssg69
g3277
sg62
(lp3284
g1827
asbasbasbag55
(g71
g57
NtRp3285
(dp3286
g60
(dp3287
sg69
g2924
sg62
(lp3288
g55
(g76
g57
NtRp3289
(dp3290
g60
(dp3291
g80
g81
ssg69
g3285
sg62
(lp3292
S'SERVER_PORT'
p3293
asbag55
(g76
g57
NtRp3294
(dp3295
g60
(dp3296
g87
g88
ssg69
g3285
sg62
(lp3297
S':'
asbag55
(g76
g57
NtRp3298
(dp3299
g60
(dp3300
sg69
g3285
sg62
(lp3301
g55
(g56
g57
NtRp3302
(dp3303
g60
(dp3304
g68
I3
ssg69
g3298
sg62
(lp3305
g1849
asbasbasbag55
(g71
g57
NtRp3306
(dp3307
g60
(dp3308
sg69
g2924
sg62
(lp3309
g55
(g76
g57
NtRp3310
(dp3311
g60
(dp3312
g80
g81
ssg69
g3306
sg62
(lp3313
S'SERVER_PROTOCOL'
p3314
asbag55
(g76
g57
NtRp3315
(dp3316
g60
(dp3317
g87
g88
ssg69
g3306
sg62
(lp3318
S':'
asbag55
(g76
g57
NtRp3319
(dp3320
g60
(dp3321
sg69
g3306
sg62
(lp3322
g55
(g56
g57
NtRp3323
(dp3324
g60
(dp3325
g68
I3
ssg69
g3319
sg62
(lp3326
g1871
asbasbasbag55
(g71
g57
NtRp3327
(dp3328
g60
(dp3329
sg69
g2924
sg62
(lp3330
g55
(g76
g57
NtRp3331
(dp3332
g60
(dp3333
g80
g81
ssg69
g3327
sg62
(lp3334
S'SERVER_SOFTWARE'
p3335
asbag55
(g76
g57
NtRp3336
(dp3337
g60
(dp3338
g87
g88
ssg69
g3327
sg62
(lp3339
S':'
asbag55
(g76
g57
NtRp3340
(dp3341
g60
(dp3342
sg69
g3327
sg62
(lp3343
g55
(g56
g57
NtRp3344
(dp3345
g60
(dp3346
g68
I3
ssg69
g3340
sg62
(lp3347
g1893
asbasbasbag55
(g71
g57
NtRp3348
(dp3349
g60
(dp3350
sg69
g2924
sg62
(lp3351
g55
(g76
g57
NtRp3352
(dp3353
g60
(dp3354
g80
g81
ssg69
g3348
sg62
(lp3355
S'wsgi.errors'
p3356
asbag55
(g76
g57
NtRp3357
(dp3358
g60
(dp3359
g87
g88
ssg69
g3348
sg62
(lp3360
S':'
asbag55
(g76
g57
NtRp3361
(dp3362
g60
(dp3363
sg69
g3348
sg62
(lp3364
g55
(g56
g57
NtRp3365
(dp3366
g60
(dp3367
g68
I3
ssg69
g3361
sg62
(lp3368
S"<open file '<stderr>', mode 'w' at 0x1620b0>"
p3369
asbasbasbag55
(g71
g57
NtRp3370
(dp3371
g60
(dp3372
sg69
g2924
sg62
(lp3373
g55
(g76
g57
NtRp3374
(dp3375
g60
(dp3376
g80
g81
ssg69
g3370
sg62
(lp3377
S'wsgi.file_wrapper'
p3378
asbag55
(g76
g57
NtRp3379
(dp3380
g60
(dp3381
g87
g88
ssg69
g3370
sg62
(lp3382
S':'
asbag55
(g76
g57
NtRp3383
(dp3384
g60
(dp3385
sg69
g3370
sg62
(lp3386
g55
(g56
g57
NtRp3387
(dp3388
g60
(dp3389
g68
I3
ssg69
g3383
sg62
(lp3390
S'<class wsgiref.util.FileWrapper at 0x7c2840>'
p3391
asbasbasbag55
(g71
g57
NtRp3392
(dp3393
g60
(dp3394
sg69
g2924
sg62
(lp3395
g55
(g76
g57
NtRp3396
(dp3397
g60
(dp3398
g80
g81
ssg69
g3392
sg62
(lp3399
S'wsgi.input'
p3400
asbag55
(g76
g57
NtRp3401
(dp3402
g60
(dp3403
g87
g88
ssg69
g3392
sg62
(lp3404
S':'
asbag55
(g76
g57
NtRp3405
(dp3406
g60
(dp3407
sg69
g3392
sg62
(lp3408
g55
(g56
g57
NtRp3409
(dp3410
g60
(dp3411
g68
I3
ssg69
g3405
sg62
(lp3412
S'<cStringIO.StringO object at 0x1144f80>'
p3413
asbasbasbag55
(g71
g57
NtRp3414
(dp3415
g60
(dp3416
sg69
g2924
sg62
(lp3417
g55
(g76
g57
NtRp3418
(dp3419
g60
(dp3420
g80
g81
ssg69
g3414
sg62
(lp3421
S'wsgi.multiprocess'
p3422
asbag55
(g76
g57
NtRp3423
(dp3424
g60
(dp3425
g87
g88
ssg69
g3414
sg62
(lp3426
S':'
asbag55
(g76
g57
NtRp3427
(dp3428
g60
(dp3429
sg69
g3414
sg62
(lp3430
g55
(g56
g57
NtRp3431
(dp3432
g60
(dp3433
g68
I3
ssg69
g3427
sg62
(lp3434
g98
asbasbasbag55
(g71
g57
NtRp3435
(dp3436
g60
(dp3437
sg69
g2924
sg62
(lp3438
g55
(g76
g57
NtRp3439
(dp3440
g60
(dp3441
g80
g81
ssg69
g3435
sg62
(lp3442
S'wsgi.multithread'
p3443
asbag55
(g76
g57
NtRp3444
(dp3445
g60
(dp3446
g87
g88
ssg69
g3435
sg62
(lp3447
S':'
asbag55
(g76
g57
NtRp3448
(dp3449
g60
(dp3450
sg69
g3435
sg62
(lp3451
g55
(g56
g57
NtRp3452
(dp3453
g60
(dp3454
g68
I3
ssg69
g3448
sg62
(lp3455
g2133
asbasbasbag55
(g71
g57
NtRp3456
(dp3457
g60
(dp3458
sg69
g2924
sg62
(lp3459
g55
(g76
g57
NtRp3460
(dp3461
g60
(dp3462
g80
g81
ssg69
g3456
sg62
(lp3463
S'wsgi.run_once'
p3464
asbag55
(g76
g57
NtRp3465
(dp3466
g60
(dp3467
g87
g88
ssg69
g3456
sg62
(lp3468
S':'
asbag55
(g76
g57
NtRp3469
(dp3470
g60
(dp3471
sg69
g3456
sg62
(lp3472
g55
(g56
g57
NtRp3473
(dp3474
g60
(dp3475
g68
I3
ssg69
g3469
sg62
(lp3476
g98
asbasbasbag55
(g71
g57
NtRp3477
(dp3478
g60
(dp3479
sg69
g2924
sg62
(lp3480
g55
(g76
g57
NtRp3481
(dp3482
g60
(dp3483
g80
g81
ssg69
g3477
sg62
(lp3484
S'wsgi.url_scheme'
p3485
asbag55
(g76
g57
NtRp3486
(dp3487
g60
(dp3488
g87
g88
ssg69
g3477
sg62
(lp3489
S':'
asbag55
(g76
g57
NtRp3490
(dp3491
g60
(dp3492
sg69
g3477
sg62
(lp3493
g55
(g56
g57
NtRp3494
(dp3495
g60
(dp3496
g68
I3
ssg69
g3490
sg62
(lp3497
g2176
asbasbasbag55
(g71
g57
NtRp3498
(dp3499
g60
(dp3500
sg69
g2924
sg62
(lp3501
g55
(g76
g57
NtRp3502
(dp3503
g60
(dp3504
g80
g81
ssg69
g3498
sg62
(lp3505
S'wsgi.version'
p3506
asbag55
(g76
g57
NtRp3507
(dp3508
g60
(dp3509
g87
g88
ssg69
g3498
sg62
(lp3510
S':'
asbag55
(g76
g57
NtRp3511
(dp3512
g60
(dp3513
sg69
g3498
sg62
(lp3514
g55
(g56
g57
NtRp3515
(dp3516
g60
(dp3517
g68
I3
ssg69
g3511
sg62
(lp3518
S'1'
asbasbasbasbasbasbasbasbasbasbasbasbasbsS'frames'
p3519
(lp3520
(dp3521
S'file'
p3522
S'/Users/mdipierro/Dropbox/web2py/gluon/restricted.py'
p3523
sS'dump'
p3524
(dp3525
S'environment'
p3526
S"{'A': <class 'gluon.html.A'>, 'B': <class 'gluon.html.B'>, 'BEAUTIFY': <class 'gluon.html.BEAUTIFY'>, 'BODY': <class 'gluon.html.BODY'>, 'BR': <class 'gluon.html.BR'>, 'BUTTON': <class 'gluon.html.BUTTON'>, 'CAT': <class 'gluon.html.CAT'>, 'CENTER': <class 'gluon.html.CENTER'>, 'CLEANUP': <class 'gluon.validators.CLEANUP'>, 'CODE': <class 'gluon.html.CODE'>, ...}"
p3527
sS'ccode'
p3528
S'<code object <module> at 0x109c728, file "/Users...ications/inplace/controllers/default.py", line 4>'
p3529
ssS'lnum'
p3530
I204
sS'lines'
p3531
(dp3532
I199
S'    try:'
p3533
sI200
S'        if type(code) == types.CodeType:'
p3534
sI201
S'            ccode = code'
p3535
sI202
S'        else:'
p3536
sI203
S'            ccode = compile2(code,layer)'
p3537
sI204
S'        exec ccode in environment'
p3538
sI205
S'    except HTTP:'
p3539
sI206
S'        raise'
p3540
sI207
S'    except RestrictedError:'
p3541
sI208
S'        # do not encapsulate (obfuscate) the original RestrictedError'
p3542
ssS'call'
p3543
S"(code='# -*- coding: utf-8 -*-\\n# this file is released ...new_html\\n\\n\\nresponse._vars=response._caller(edit)\\n', environment={'A': <class 'gluon.html.A'>, 'B': <class 'gluon.html.B'>, 'BEAUTIFY': <class 'gluon.html.BEAUTIFY'>, 'BODY': <class 'gluon.html.BODY'>, 'BR': <class 'gluon.html.BR'>, 'BUTTON': <class 'gluon.html.BUTTON'>, 'CAT': <class 'gluon.html.CAT'>, 'CENTER': <class 'gluon.html.CENTER'>, 'CLEANUP': <class 'gluon.validators.CLEANUP'>, 'CODE': <class 'gluon.html.CODE'>, ...}, layer='/Users/mdipierro/Dropbox/web2py/applications/inplace/controllers/default.py')"
p3544
sS'func'
p3545
S'restricted'
p3546
sa(dp3547
g3522
S'/Users/mdipierro/Dropbox/web2py/applications/inplace/controllers/default.py'
p3548
sg3524
(dp3549
sg3530
I40
sg3531
(dp3550
I32
S'    inject = \'<script src="%s" language="javascript"></script>\' % URL(\'static\',\'js/inject.js\')'
p3551
sI33
S"    html = html.replace('</head>',inject+'</head>')"
p3552
sI34
S'    return html'
p3553
sI35
S''
sI36
S'def page():'
p3554
sI37
S'    return session.new_html'
p3555
sI38
S''
sI29
S'    html = re.sub(\'(href|HREF)\\s*=\\s*"(?!(/|http))\',\'href="\'+\'/\'.join(url.split(\'/\'))+\'/\',html)'
p3556
sI30
S"    html = re.sub('url\\(/(?!/)','url('+'/'.join(url.split('/')[:3])+'/',html)"
p3557
sI31
S"    html = re.sub('url\\((?!(/|http))','url('+'/'.join(url.split('/'))+'/',html)"
p3558
ssg3543
S'()'
p3559
sg3545
S'<module>'
p3560
sa(dp3561
g3522
S'/Users/mdipierro/Dropbox/web2py/gluon/globals.py'
p3562
sg3524
(dp3563
S'self'
p3564
S'undefined'
p3565
sS'f'
S'<function edit at 0x1f80230>'
p3566
ssg3530
I172
sg3531
(dp3567
I167
S'        self.meta = Storage()      # used by web2py_ajax.html'
p3568
sI168
S'        self.menu = []             # used by the default view layout'
p3569
sI169
S'        self.files = []            # used by web2py_ajax.html'
p3570
sI170
S'        self.generic_patterns = [] # patterns to allow generic views'
p3571
sI171
S'        self._vars = None'
p3572
sI172
S'        self._caller = lambda f: f()'
p3573
sI173
S'        self._view_environment = None'
p3574
sI174
S'        self._custom_commit = None'
p3575
sI175
S'        self._custom_rollback = None'
p3576
sI176
S''
ssg3543
S'(f=<function edit at 0x1f80230>)'
p3577
sg3545
S'<lambda>'
p3578
sa(dp3579
g3522
S'/Users/mdipierro/Dropbox/web2py/applications/inplace/controllers/default.py'
p3580
sg3524
(dp3581
S'url'
p3582
S"'http://django.com'"
p3583
sS').read'
p3584
g3565
sS'html'
p3585
g3565
sS'urllib'
p3586
S"<module 'urllib' from '/System/Library/Framework....framework/Versions/2.5/lib/python2.5/urllib.py'>"
p3587
sS'urllib.urlopen'
p3588
S'<function urlopen at 0x44d2b0>'
p3589
ssg3530
I22
sg3531
(dp3590
I17
S"        return request.vars.value or ''"
p3591
sI18
S"    if request.args(0)=='store':"
p3592
sI19
S"        session.new_html = session.html.split('<body>')[0]+'<body>'+request.vars.html+'</body></html>'"
p3593
sI20
S"        return 'ok'"
p3594
sI21
S'    url = request.vars.url'
p3595
sI22
S'    html = urllib.urlopen(url).read()'
p3596
sI23
S'    session.html = html'
p3597
sI24
S"    html = re.sub('\\s+[\\n]','\\n',html)"
p3598
sI25
S"    html = re.sub('>[ \\t]+<','> <',html)"
p3599
sI26
S'    html = re.sub(\'(src|SRC)\\s*=\\s*"/(?!/)\',\'src="\'+\'/\'.join(url.split(\'/\')[:3])+\'/\',html)'
p3600
ssg3543
S'()'
p3601
sg3545
S'edit'
p3602
sa(dp3603
g3522
S'/System/Library/Frameworks/Python.framework/Versions/2.5/lib/python2.5/urllib.py'
p3604
sg3524
(dp3605
S'url'
p3606
S"'http://django.com'"
p3607
sS'opener'
p3608
S'<urllib.FancyURLopener instance at 0x1125a80>'
p3609
sS'opener.open'
p3610
S'<bound method FancyURLopener.open of <urllib.FancyURLopener instance at 0x1125a80>>'
p3611
ssg3530
I82
sg3531
(dp3612
I77
S'        opener = FancyURLopener()'
p3613
sI78
S'        _urlopener = opener'
p3614
sI79
S'    else:'
p3615
sI80
S'        opener = _urlopener'
p3616
sI81
S'    if data is None:'
p3617
sI82
S'        return opener.open(url)'
p3618
sI83
S'    else:'
p3619
sI84
S'        return opener.open(url, data)'
p3620
sI85
S'def urlretrieve(url, filename=None, reporthook=None, data=None):'
p3621
sI86
S'    global _urlopener'
p3622
ssg3543
S"(url='http://django.com', data=None, proxies=None)"
p3623
sg3545
S'urlopen'
p3624
sa(dp3625
g3522
S'/System/Library/Frameworks/Python.framework/Versions/2.5/lib/python2.5/urllib.py'
p3626
sg3524
(dp3627
S'url'
p3628
S"'//django.com'"
p3629
sS'self'
p3630
S'<urllib.FancyURLopener instance at 0x1125a80>'
p3631
sS'builtingetattr'
p3632
S'<built-in function getattr>'
p3633
sS'name'
p3634
S"'open_http'"
p3635
ssg3530
I190
sg3531
(dp3636
I192
S'                return getattr(self, name)(url, data)'
p3637
sI193
S'        except socket.error, msg:'
p3638
sI194
S"            raise IOError, ('socket error', msg), sys.exc_info()[2]"
p3639
sI185
S'                return self.open_unknown_proxy(proxy, fullurl, data)'
p3640
sI186
S'            else:'
p3641
sI187
S'                return self.open_unknown(fullurl, data)'
p3642
sI188
S'        try:'
p3643
sI189
S'            if data is None:'
p3644
sI190
S'                return getattr(self, name)(url)'
p3645
sI191
S'            else:'
p3646
ssg3543
S"(self=<urllib.FancyURLopener instance at 0x1125a80>, fullurl='http://django.com', data=None)"
p3647
sg3545
S'open'
p3648
sa(dp3649
g3522
S'/System/Library/Frameworks/Python.framework/Versions/2.5/lib/python2.5/urllib.py'
p3650
sg3524
(dp3651
S'h'
S'<httplib.HTTP instance at 0x1f90d00>'
p3652
sS'h.endheaders'
p3653
S'<bound method HTTPConnection.endheaders of <httplib.HTTPConnection instance at 0x1f90878>>'
p3654
ssg3530
I325
sg3531
(dp3655
I320
S"            h.putrequest('GET', selector)"
p3656
sI321
S"        if proxy_auth: h.putheader('Proxy-Authorization', 'Basic %s' % proxy_auth)"
p3657
sI322
S"        if auth: h.putheader('Authorization', 'Basic %s' % auth)"
p3658
sI323
S"        if realhost: h.putheader('Host', realhost)"
p3659
sI324
S'        for args in self.addheaders: h.putheader(*args)'
p3660
sI325
S'        h.endheaders()'
p3661
sI326
S'        if data is not None:'
p3662
sI327
S'            h.send(data)'
p3663
sI328
S'        errcode, errmsg, headers = h.getreply()'
p3664
sI329
S'        if errcode == -1:'
p3665
ssg3543
S"(self=<urllib.FancyURLopener instance at 0x1125a80>, url='//django.com', data=None)"
p3666
sg3545
S'open_http'
p3667
sa(dp3668
g3522
S'/System/Library/Frameworks/Python.framework/Versions/2.5/lib/python2.5/httplib.py'
p3669
sg3524
(dp3670
S'self'
p3671
S'<httplib.HTTPConnection instance at 0x1f90878>'
p3672
sS'self._send_output'
p3673
S'<bound method HTTPConnection._send_output of <httplib.HTTPConnection instance at 0x1f90878>>'
p3674
ssg3530
I860
sg3531
(dp3675
I864
S''
sI855
S'        if self.__state == _CS_REQ_STARTED:'
p3676
sI856
S'            self.__state = _CS_REQ_SENT'
p3677
sI857
S'        else:'
p3678
sI858
S'            raise CannotSendHeader()'
p3679
sI859
S''
sI860
S'        self._send_output()'
p3680
sI861
S''
sI862
S'    def request(self, method, url, body=None, headers={}):'
p3681
sI863
S'        """Send a complete request to the server."""'
p3682
ssg3543
S'(self=<httplib.HTTPConnection instance at 0x1f90878>)'
p3683
sg3545
S'endheaders'
p3684
sa(dp3685
g3522
S'/System/Library/Frameworks/Python.framework/Versions/2.5/lib/python2.5/httplib.py'
p3686
sg3524
(dp3687
S'msg'
p3688
S"'GET / HTTP/1.0\\r\\nHost: django.com\\r\\nUser-Agent: Python-urllib/1.17\\r\\n\\r\\n'"
p3689
sS'self'
p3690
S'<httplib.HTTPConnection instance at 0x1f90878>'
p3691
sS'self.send'
p3692
S'<bound method HTTPConnection.send of <httplib.HTTPConnection instance at 0x1f90878>>'
p3693
ssg3530
I732
sg3531
(dp3694
I736
S''
sI727
S'        Appends an extra \\\\r\\\\n to the buffer.'
p3695
sI728
S'        """'
p3696
sI729
S'        self._buffer.extend(("", ""))'
p3697
sI730
S'        msg = "\\r\\n".join(self._buffer)'
p3698
sI731
S'        del self._buffer[:]'
p3699
sI732
S'        self.send(msg)'
p3700
sI733
S''
sI734
S'    def putrequest(self, method, url, skip_host=0, skip_accept_encoding=0):'
p3701
sI735
S'        """Send a request to the server.'
p3702
ssg3543
S'(self=<httplib.HTTPConnection instance at 0x1f90878>)'
p3703
sg3545
S'_send_output'
p3704
sa(dp3705
g3522
S'/System/Library/Frameworks/Python.framework/Versions/2.5/lib/python2.5/httplib.py'
p3706
sg3524
(dp3707
S'self'
p3708
S'<httplib.HTTPConnection instance at 0x1f90878>'
p3709
sS'self.connect'
p3710
S'<bound method HTTPConnection.connect of <httplib.HTTPConnection instance at 0x1f90878>>'
p3711
ssg3530
I699
sg3531
(dp3712
I694
S''
sI695
S'    def send(self, str):'
p3713
sI696
S'        """Send `str\' to the server."""'
p3714
sI697
S'        if self.sock is None:'
p3715
sI698
S'            if self.auto_open:'
p3716
sI699
S'                self.connect()'
p3717
sI700
S'            else:'
p3718
sI701
S'                raise NotConnected()'
p3719
sI702
S''
sI703
S'        # send the data to the server. if we get a broken pipe, then close'
p3720
ssg3543
S"(self=<httplib.HTTPConnection instance at 0x1f90878>, str='GET / HTTP/1.0\\r\\nHost: django.com\\r\\nUser-Agent: Python-urllib/1.17\\r\\n\\r\\n')"
p3721
sg3545
S'send'
p3722
sa(dp3723
g3522
S'/System/Library/Frameworks/Python.framework/Versions/2.5/lib/python2.5/httplib.py'
p3724
sg3524
(dp3725
S'socket.SOCK_STREAM'
p3726
S'1'
sS'global socket'
p3727
S"<module 'socket' from '/System/Library/Framework....framework/Versions/2.5/lib/python2.5/socket.py'>"
p3728
ssg3530
I667
sg3531
(dp3729
I662
S''
sI663
S'    def connect(self):'
p3730
sI664
S'        """Connect to the host and port specified in __init__."""'
p3731
sI665
S'        msg = "getaddrinfo returns an empty list"'
p3732
sI666
S'        for res in socket.getaddrinfo(self.host, self.port, 0,'
p3733
sI667
S'                                      socket.SOCK_STREAM):'
p3734
sI668
S'            af, socktype, proto, canonname, sa = res'
p3735
sI669
S'            try:'
p3736
sI670
S'                self.sock = socket.socket(af, socktype, proto)'
p3737
sI671
S'                if self.debuglevel > 0:'
p3738
ssg3543
S'(self=<httplib.HTTPConnection instance at 0x1f90878>)'
p3739
sg3545
S'connect'
p3740
sasS'pyver'
p3741
S'Python 2.5.4: /usr/bin/python2.5'
p3742
sS'session'
p3743
g55
(g56
g57
NtRp3744
(dp3745
g60
(dp3746
sg62
(lp3747
g55
(g64
g57
NtRp3748
(dp3749
g60
(dp3750
g68
I5
ssg69
Nsg62
(lp3751
g55
(g71
g57
NtRp3752
(dp3753
g60
(dp3754
sg69
g3748
sg62
(lp3755
g55
(g76
g57
NtRp3756
(dp3757
g60
(dp3758
g80
g81
ssg69
g3752
sg62
(lp3759
S'html'
p3760
asbag55
(g76
g57
NtRp3761
(dp3762
g60
(dp3763
g87
g88
ssg69
g3752
sg62
(lp3764
S':'
asbag55
(g76
g57
NtRp3765
(dp3766
g60
(dp3767
sg69
g3752
sg62
(lp3768
g55
(g56
g57
NtRp3769
(dp3770
g60
(dp3771
g68
I5
ssg69
g3765
sg62
(lp3772
S'<!DOCTYPE html PUBLIC "-//W3C//DTD XHTML 1.0 Strict//EN" "http://www.w3.org/TR/xhtml1/DTD/xhtml1-strict.dtd">\n<html xmlns="http://www.w3.org/1999/xhtml" xml:lang="en-US" lang="en-US">\n<head>\n<meta content="text/html; charset=UTF-8" http-equiv="Content-Type" />\n<link href="http://purl.org/DC/elements/1.0/" rel="schema.DC" />\n<link href="//www.ibm.com/favicon.ico" rel="SHORTCUT ICON" />\n<link href="http://www.ibm.com/us/en/" rel="canonical" />\n<meta content="v17 ECM/ibm.com - S734638V15397V06 - 12/06/2011 12:45:00 PM" name="Source" />\n<meta content="public" name="Security" />\n<meta content="IBM Corporation" name="DC.Publisher" />\n<meta content="The IBM corporate home page, entry point to information about IBM products and services." name="Description" />\n<meta content="The IBM corporate home page, entry point to information about IBM products and services." name="Abstract" />\n<meta content="US" name="IBM.Country" />\n<meta content="The IBM corporate home page, entry point to information about IBM products and services" name="Keywords" />\n<meta content="Joan Renner/Armonk/IBM" name="Owner" />\n<meta content="index,follow" name="Robots" />\n<meta content="2011-12-06" scheme="W3CDTF" name="IBM.Effective" />\n<meta content="en-US" scheme="rfc1766" name="DC.Language" />\n<meta content="2011-12-06" scheme="iso8601" name="DC.Date" />\n<meta content="\xc2\xa9 Copyright IBM Corp. 2008, 2011" name="DC.Rights" />\n<meta content="IBM101" scheme="IBM_SubjectTaxonomy" name="DC.Subject" />\n<meta content="CT002" scheme="IBM_ContentClassTaxonomy" name="DC.Type" />\n<meta content="" scheme="IBM_IndustryTaxonomy" name="IBM.Industry" />\n<title>IBM - United States</title>\n<link href="//1.www.s81c.com/common/v17/css/www.css" rel="stylesheet" title="www" type="text/css" />\n<script src="//1.www.s81c.com/common/js/dojo/www.js" type="text/javascript">//</script>\n<link type="text/css" title="www" rel="stylesheet" href="//1.www.s81c.com/common/v17/css/homepage.css" />\n<script type="text/javascript">\nibmweb.config.set({ sbs: { enabled: false }, easyaccess: { enabled: true }  });\t\t\t\t\n\t\t\t\t\t\ndojo.require(\'ibmweb.homepage\');\n\t\t\t\t\n</script>\n<style type="text/css">\n.ibm-home-page #ibm-lead-1 { background: url(/images/portal/D875407S68200N35/12052011hp_education_bg.jpg) repeat-x 50% 0px; }\n.ibm-home-page #ibm-leadspace-head .ibm-lead-thumb-1 { background: url(/images/portal/P716002M26800R96/12052011hp_education_thumbnail_60x60.jpg) no-repeat 0px 0px; }\n.ibm-home-page #ibm-lead-2 { background: url(/images/portal/F715507D15996F21/12052011hp_bao_bg.jpg) repeat-x 50% 0px; }\n.ibm-home-page #ibm-leadspace-head .ibm-lead-thumb-2 { background: url(/images/portal/B068216O82519Q44/12052011hp_bao_60x60.jpg) no-repeat 0px 0px; }\n.ibm-home-page #ibm-lead-3 { background: url(/images/portal/C176264A80238G55/120511hp_applying_insights_bg.png) repeat-x 50% 0px; }\n.ibm-home-page #ibm-leadspace-head .ibm-lead-thumb-3 { background: url(/images/portal/X845832J22179R66/120511hp_applying_insights_thumb.png) no-repeat 0px 0px; }\n</style>\n</head>\n<body id="ibm-com">\n<div class="ibm-home-page" id="ibm-top">\n<!-- MASTHEAD_BEGIN -->\n<div id="ibm-masthead">\n<div id="ibm-mast-options">\n<ul>\n<li id="ibm-geo"><a href="http://www.ibm.com/planetwide/select/selector.html"><span class="ibm-access">Select a country/region: </span>United States</a></li>\n</ul>\n</div>\n<div id="ibm-universal-nav">\n<ul id="ibm-unav-links">\n<li id="ibm-home"><a href="http://www.ibm.com/us/en/">IBM\xc2\xae</a></li>\n</ul>\n<ul id="ibm-menu-links">\n<li><a href="http://www.ibm.com/sitemap/us/en/">Site map</a></li>\n</ul>\n<div id="ibm-search-module">\n<form id="ibm-search-form" action="http://www.ibm.com/Search/" method="get">\n<p>\n<label for="q"><span class="ibm-access">Search</span></label>\n<input type="text" maxlength="100" value="" name="q" id="q" />\n<input type="hidden" value="17" name="v" />\n<input type="hidden" value="utf" name="en" />\n<input type="hidden" value="en" name="lang" />\n<input type="hidden" value="us" name="cc" />\n<input type="submit" id="ibm-search" class="ibm-btn-search" value="Submit" />\n</p>\n</form>\n</div>\n</div>\n</div>\n<!-- MASTHEAD_END -->\n\n<!-- LEADSPACE_BEGIN -->\n<div class="ibm-container" id="ibm-leadspace-head">\n<div class="ibm-container-body" id="ibm-leadspace-body">\n<div class="ibm-columns ibm-alternate" id="ibm-lead-1">\n<div class="ibm-col-1-1">\n<h1><a href="http://www.ibm.com/smarterplanet/us/en/education_technology/ideas/index.html"><img alt="Learning to succeed" height="297" width="578" src="/images/portal/S963102A12288P45/12052011hp_education_text.png" class="ibm-no-mobile" /><img alt="Learning to succeed" height="98" width="318" src="/images/portal/S963102A12288P45/12052011hp_education_csm_318x98.jpg" class="ibm-mobile" /></a></h1>\n<p class="ibm-access"><em>Education systems have to get smarter to stay ahead in a changing world</em></p></div></div>\n<div class="ibm-columns" id="ibm-lead-2">\n<div class="ibm-col-1-1">\n<h2><a href="http://www.ibm.com/financing/us/bao/"><img alt="Get a wealth of information without a wealthy investment" height="297" width="578" src="/images/portal/G292189Y49691R38/12052011hp_bao_text.png" class="ibm-no-mobile" /><img alt="Get a wealth of information without a wealthy investment" height="98" width="318" src="/images/portal/G292189Y49691R38/12052011hp_bao_mobile.png" class="ibm-mobile" /></a></h2>\n<p class="ibm-access"><em>\n<br />IBM Global Financing can help you finance analytics solutions</em></p></div></div>\n<div class="ibm-columns" id="ibm-lead-3">\n<div class="ibm-col-1-1">\n<h2><a href="http://www.ibm.com/smarterplanet/us/en/overview/examples/index.html"><img alt="Put a smarter planet into practice" height="297" width="578" src="/images/portal/E575905X86085I49/120511hp_applying_insights_text.png" class="ibm-no-mobile" /><img alt="Put a smarter planet into practice" height="98" width="318" src="/images/portal/E575905X86085I49/120511hp_applying_insights_mobile.png" class="ibm-mobile" /></a></h2>\n<p class="ibm-access"><em>Choose your industry to assess the real benefits now</em></p></div></div>\n</div>\n</div>\n<!-- LEADSPACE_END -->\n<div id="ibm-pcon">\n<div id="ibm-content">\n<div id="ibm-content-body">\n<div id="ibm-content-main">\n<div id="ibm-news-feed">\n<div id="ibm-news-feed-inner">\n<p>@IBM: <a class="ibm-rss-link ibm-no-mobile" href="/common/twitter/ibm.xml">Twitter</a><a class="ibm-rss-link ibm-mobile" href="/news/us/en">News</a></p>\n</div>\n</div>\n<!-- PROMOTION_BEGIN -->\n<div class="ibm-container" id="ibm-promotion-module">\n<div class="ibm-container-body">\n<div class="ibm-columns">\n<!-- ibm-col-6-2 ibm-expand-section: Z725354V02338R50 -->\n<div class="ibm-col-6-2 ibm-expand-section">\n<!-- image: B302493F36942F04 -->\n<a href="http://www.ibm.com/smarterplanet/us/en?link=ibmhpcs1/corp/smarterplanet/menu"><img alt="Let\'s build a smarter planet. Explore by smarter industry or topic." height="98" width="318" src="/images/portal/E218132V80256Q16/csm1_09192011hp_smarter_planet03.png" /></a>\n<div class="ibm-expand-overlay">\n<div class="ibm-expand-head">\n<p>\n<!-- text: P184488Y05808D03 -->\n<a href="http://www.ibm.com/smarterplanet/us/en/?re=CS1">Let\'s build a smarter planet</a>\n</p>\n<div class="ibm-sp-icons">\n</div>\n</div>\n<div class="ibm-expand-body">\n<div class="ibm-expand-body-1">\n<!-- list: N946533F31089V16 -->\n\n<h2>Industry</h2>\n<ul>\n<li><a class="ibm-sp-overview" href="http://www.ibm.com/smarterplanet/us/en/overview/ideas/index.html?re=CS1">Overview</a></li>\n<li><a class="ibm-sp-analytics" href="http://www.ibm.com/smarterplanet/us/en/business_analytics/ideas/index.html?re=CS1">Analytics</a></li>\n<li><a class="ibm-sp-banking" href="http://www.ibm.com/smarterplanet/us/en/banking_technology/ideas/index.html?re=CS1">Banking</a></li>\n<li><a class="ibm-sp-buildings" href="http://www.ibm.com/smarterplanet/us/en/green_buildings/overview/index.html?re=CS1">Buildings</a></li>\n<li><a class="ibm-sp-work" href="http://www.ibm.com/smarterplanet/us/en/productivity_management/ideas/index.html?re=CS1">Business agility</a></li>\n<li><a class="ibm-sp-cities" href="http://www.ibm.com/smarterplanet/us/en/sustainable_cities/ideas/index.html?re=CS1">Cities</a></li>\n</ul>\n</div>\n<div class="ibm-expand-body-2"><h2>Topic</h2><ul class="ibm-first">\n<li><a class="ibm-sp-commerce" href="http://www.ibm.com/smarterplanet/us/en/smarter_commerce/overview/index.html?re=CS1">Commerce</a></li>\n<li><a class="ibm-sp-computing" href="http://www.ibm.com/smarterplanet/us/en/smarter_computing/overview/index.html?re=CS1">Computing</a></li>\n<li><a class="ibm-sp-education" href="http://www.ibm.com/smarterplanet/us/en/education_technology/ideas/index.html?re=CS1">Education</a></li>\n<li><a class="ibm-sp-energy" href="http://www.ibm.com/smarterplanet/us/en/smart_grid/ideas/index.html?re=CS1">Energy</a></li>\n<li><a class="ibm-sp-government" href="http://www.ibm.com/smarterplanet/us/en/government/ideas/index.html?re=CS1">Government</a></li>\n<li><a class="ibm-sp-healthcare" href="http://www.ibm.com/smarterplanet/us/en/healthcare_solutions/ideas/index.html?re=CS1">Healthcare</a></li></ul><ul class="ibm-second">\n<li><a class="ibm-sp-products" href="http://www.ibm.com/smarterplanet/us/en/embedded_systems/overview/index.html">Products and services</a></li>\n<li><a class="ibm-sp-security" href="http://www.ibm.com/smarterplanet/us/en/business_resilience_management/overview/index.html?re=CS1">Security and resilience</a></li>\n<li><a class="ibm-sp-sustainability" href="http://www.ibm.com/smarterplanet/us/en/green_and_sustainability/overview/index.html?re=CS1">Sustainability</a></li>\n<li><a class="ibm-sp-telecom" href="http://www.ibm.com/smarterplanet/us/en/communication_technology/ideas/index.html?re=CS1">Telecom</a></li>\n<li><a class="ibm-sp-transportation" href="http://www.ibm.com/smarterplanet/us/en/transportation_systems/overview/index.html?re=CS1">Transportation</a></li>\n<li><a class="ibm-sp-water" href="http://www.ibm.com/smarterplanet/us/en/water_management/ideas/index.html?re=CS1">Water</a></li></ul>\n</div></div>\n<ul class="ibm-sp-tools">\n<li><a title="Facebook" class="ibm-share-facebook" href="http://www.facebook.com/peopleforasmarterplanet?re=CS1">\n</a></li>\n<li><a title="Twitter" class="ibm-share-twitter" href="http://www.twitter.com/smarterplanet?re=CS1">\n</a></li>\n</ul>\n</div>\n</div>\n</div>\n<div class="ibm-columns">\n<!-- ibm-col-6-2 : L573732B85674Y66 -->\n<div class="ibm-col-6-2 ">\n<!-- image: L488184C65800F32 -->\n<a href="http://www.ibm.com/systems/data/flash/smartercomputing/simulator.html"><img alt="Test drive your future data center. The workload simulator is fast, informative and free." height="98" width="318" src="/images/portal/M935844G93301I26/120511_simulator_CSM.png" /></a>\n</div>\n</div>\n<div class="ibm-columns">\n<!-- ibm-col-6-2 : A971563S06120D85 -->\n<div class="ibm-col-6-2 ">\n<!-- image: P351419J34279N73 -->\n<a href="http://www.ibm.com/developerworks/techtrendsreport"><img alt="Mobile. BA. Cloud. Social Business. 4000 IT pros predict the future. Read the Tech Report." height="98" width="318" src="/images/portal/E068084A60456S91/12052011_ba_cloud.png" /></a>\n</div>\n</div>\n<div class="ibm-columns">\n<!-- ibm-col-6-2 : E156367Y86492H34 -->\n<div class="ibm-col-6-2 ">\n<!-- image: N568931Q76017I54 -->\n<a href="http://www.redbooks.ibm.com/"><img alt="Hands on and step-by-step. Download thousands of IBM Readbooks -- Free." height="98" width="318" src="/images/portal/X793998X98785J28/08152011_Redbooks.png" /></a>\n</div>\n</div>\n</div>\n</div>\n<!-- PROMOTION_END -->\n</div>\n<div id="ibm-content-sidebar">\n<div id="ibm-contact-module">\n</div>\n<div id="ibm-merchandising-module">\n</div>\n</div>\n</div>\n</div>\n<div id="ibm-navigation">\n</div>\n</div>\n<div id="ibm-related-content">\n</div>\n<!-- FOOTER_BEGIN -->\n<div id="ibm-footer-module">\n</div>\n<div id="ibm-footer">\n<h2 class="ibm-access">Footer links\n</h2>\n<ul>\n<li><a href="http://www.ibm.com/contact/us/en/">Contact</a></li>\n<li><a href="http://www.ibm.com/privacy/us/en/">Privacy</a></li>\n<li><a href="http://www.ibm.com/legal/us/en/">Terms of use</a></li>\n<li><a href="http://www.ibm.com/accessibility/us/en/">Accessibility</a></li>\n</ul>\n</div>\n<!-- FOOTER_END -->\n</div>\n<div id="ibm-metrics">\n<script src="//www.ibm.com/common/stats/stats.js" type="text/javascript">//</script>\n</div>\n</body>\n</html>\n'
p3773
asbasbasbag55
(g71
g57
NtRp3774
(dp3775
g60
(dp3776
sg69
g3748
sg62
(lp3777
g55
(g76
g57
NtRp3778
(dp3779
g60
(dp3780
g80
g81
ssg69
g3774
sg62
(lp3781
S'new_html'
p3782
asbag55
(g76
g57
NtRp3783
(dp3784
g60
(dp3785
g87
g88
ssg69
g3774
sg62
(lp3786
S':'
asbag55
(g76
g57
NtRp3787
(dp3788
g60
(dp3789
sg69
g3774
sg62
(lp3790
g55
(g56
g57
NtRp3791
(dp3792
g60
(dp3793
g68
I5
ssg69
g3787
sg62
(lp3794
S'\n<!DOCTYPE html>\n<!-- paulirish.com/2008/conditional-stylesheets-vs-css-hacks-answer-neither/ -->\n<!--[if lt IE 7]><html class="ie ie6 ie-lte9 ie-lte8 ie-lte7 no-js" lang="en"> <![endif]-->\n<!--[if IE 7]><html class="ie ie7 ie-lte9 ie-lte8 ie-lte7 no-js" lang="en"> <![endif]-->\n<!--[if IE 8]><html class="ie ie8 ie-lte9 ie-lte8 no-js" lang="en"> <![endif]-->\n<!--[if IE 9]><html class="ie9 ie-lte9 no-js" lang="en"> <![endif]-->\n<!--[if (gt IE 9)|!(IE)]><!--> <html class="no-js" lang="en"> <!--<![endif]-->\n<head>\n  <meta charset="utf-8" />\n  <!-- www.phpied.com/conditional-comments-block-downloads/ -->\n  <!-- Always force latest IE rendering engine\n\t   (even in intranet) & Chrome Frame\n\t   Remove this if you use the .htaccess -->\n  <!--[if IE]>\n    <meta http-equiv="X-UA-Compatible" content="IE=edge">\n  <![endif]-->\n  \n  <title>web2py Web Framework</title>\n  \n  <!-- http://dev.w3.org/html5/markup/meta.name.html -->\n  <meta name="application-name" content="examples" />\n  \n  <!-- Speaking of Google, don\'t forget to set your site up:\n\t   http://google.com/webmasters -->\n  <meta name="google-site-verification" content="" />\n\n  <!--  Mobile Viewport Fix\n\t  j.mp/mobileviewport & davidbcalhoun.com/2010/viewport-metatag\n\t  device-width: Occupy full width of the screen in its current orientation\n\t  initial-scale = 1.0 retains dimensions instead of zooming out if page height > device height\n\t  user-scalable = yes allows the user to zoom in -->\n  <meta name="viewport" content="width=device-width, initial-scale=1.0, user-scalable=yes">\n  \n  <!-- Place favicon.ico and apple-touch-icon.png in the root of your domain and delete these references -->\n  <link rel="shortcut icon" href="/examples/static/favicon.ico" type="image/x-icon">\n  <link rel="apple-touch-icon" href="/examples/static/favicon.png">\n\n  <!-- All JavaScript at the bottom, except for Modernizr which enables \n\t   HTML5 elements & feature detects -->\n  <script src="/examples/static/js/modernizr.custom.js"></script>  \n\n  <!-- include stylesheets -->\n  \n\n  <script type="text/javascript"><!--\n    // These variables are used by the web2py_ajax_init function in web2py_ajax.js (which is loaded below).\n    var w2p_ajax_confirm_message = "Are you sure you want to delete this object?";\n    var w2p_ajax_date_format = "%Y-%m-%d";\n    var w2p_ajax_datetime_format = "%Y-%m-%d %H:%M:%S";\n    //--></script>\n<script src="/examples/static/js/jquery.js" type="text/javascript"></script><link href="/examples/static/css/calendar.css" rel="stylesheet" type="text/css" /><script src="/examples/static/js/calendar.js" type="text/javascript"></script><script src="/examples/static/js/web2py.js" type="text/javascript"></script><link href="/examples/static/css/skeleton.css" rel="stylesheet" type="text/css" /><link href="/examples/static/css/web2py.css" rel="stylesheet" type="text/css" /><link href="/examples/static/css/examples.css" rel="stylesheet" type="text/css" /><link href="/examples/static/css/superfish.css" rel="stylesheet" type="text/css" /><script src="/examples/static/js/superfish.js" type="text/javascript"></script>\n\n\n  <script type="text/javascript">\n    jQuery(function(){jQuery(\'.sf-menu\').superfish();});\n  </script>\n\n  \n\n  <!-- uncomment here to load jquery-ui\n  <link rel="stylesheet" href="http://ajax.googleapis.com/ajax/libs/jqueryui/1.8.16/themes/base/jquery-ui.css" type="text/css" media="all" />\n  <script src="http://ajax.googleapis.com/ajax/libs/jqueryui/1.8.16/jquery-ui.min.js" type="text/javascript"></script>\n  uncomment to load jquery-ui //-->\n  </style>\n</head>\n<body><div style="padding: 5px 20px 5px 20px; font-size: 1.5em; text-align:right;background:black;color:white;height:30px;"><a style="color:white" href="javascript:history.go(-1)">back</a> | <a style="color:white" href="page">next</a></div><iframe id="a2apage_sm_ifr" height="1" width="1" style="border-top-width: 0px; border-right-width: 0px; border-bottom-width: 0px; border-left-width: 0px; border-style: initial; border-color: initial; border-image: initial; left: 0px; top: 0px; position: absolute; z-index: 100000; display: none; " transparency="true" allowtransparency="true" frameborder="0" src="http://static.addtoany.com/menu/sm7.html#type=page&amp;event=load&amp;url=http%3A%2F%2F127.0.0.1%3A8000%2Finplace%2Fdefault%2Fedit%3Furl%3Dhttp%253A%252F%252Fweb2py.com&amp;referrer=http%3A%2F%2F127.0.0.1%3A8000%2Finplace"></iframe><div style="position: static; "><div id="a2apage_dropdown" class="a2a_menu" onmouseover="a2a.onMouseOver_stay()" onmouseout="a2a.onMouseOut_delay()"><div class="a2a_menu_inside"><div id="a2apage_title_container" class="a2a_menu_title_container" style="display: none; "><input id="a2apage_title" class="a2a_menu_title"></div><div class="a2apage_wide a2a_wide"><div class="a2a_tabs a2a_tabs_default"><div id="a2apage_DEFAULT" class="a2a_tab_selected" style="margin-right: 1px; " onclick="return a2a.tabs.open(\'DEFAULT\')"><span class="a2a_i_share">Share</span></div></div><div class="a2a_tabs"><div title="Share via email" id="a2apage_EMAIL" style="margin-right: 1px; " onclick="return a2a.tabs.open(\'EMAIL\')"><span class="a2a_i_email"></span></div></div><div class="a2a_tabs"><div onclick="a2a.bmBrowser()" title="Bookmark in your browser" id="a2apage_BROWSER" style="margin-left: 1px; "><span class="a2a_i_bookmark"></span></div></div></div><div class="a2a_clear"></div><div id="a2apage_find_container" class="a2a_menu_find_container" style=""><input id="a2apage_find" class="a2a_menu_find" type="text" onclick="a2a.focus_find()" onkeyup="a2a.do_find()" autocomplete="off" onfocus="a2a[\'page\'].find_focused=true;a2a.onMouseOver_stay()" title="Instantly find any service"><span id="a2apage_find_icon" class="a2a_i_find" onclick="a2a.focus_find()"></span></div><div id="a2apage_cols_container" class="a2a_cols_container"><div class="a2a_col1" id="a2apage_col1" style=""><a id="a2apage_live" rel="nofollow" class="a2a_i a2a_sss" href="/" target="_blank"><span class="a2a_i_live">Messenger</span></a><a id="a2apage_facebook" rel="nofollow" class="a2a_i" href="/" target="_blank"><span class="a2a_i_facebook">Facebook</span></a><a id="a2apage_twitter" rel="nofollow" class="a2a_i" href="/" target="_blank"><span class="a2a_i_twitter">Twitter</span></a><a id="a2apage_google_plus" rel="nofollow" class="a2a_i" href="/" target="_blank"><span class="a2a_i_google">Google </span></a><a id="a2apage_delicious" rel="nofollow" class="a2a_i" href="/" target="_blank"><span class="a2a_i_delicious">Delicious</span></a><a id="a2apage_digg" rel="nofollow" class="a2a_i" href="/" target="_blank"><span class="a2a_i_digg">Digg</span></a><a id="a2apage_google_bookmarks" rel="nofollow" class="a2a_i" href="/" target="_blank"><span class="a2a_i_google">Google Bookmarks</span></a><a id="a2apage_myspace" rel="nofollow" class="a2a_i" href="/" target="_blank"><span class="a2a_i_myspace">MySpace</span></a><a id="a2apage_stumbleupon" rel="nofollow" class="a2a_i" href="/" target="_blank"><span class="a2a_i_stumbleupon">StumbleUpon</span></a><a id="a2apage_reddit" rel="nofollow" class="a2a_i" href="/" target="_blank"><span class="a2a_i_reddit">Reddit</span></a><a id="a2apage_vodpod" rel="nofollow" class="a2a_i" href="/" target="_blank" style="display: none; "><span class="a2a_i_vodpod">Vodpod</span></a><a id="a2apage_yahoo_bookmarks" rel="nofollow" class="a2a_i" href="/" target="_blank" style="display: none; "><span class="a2a_i_yahoo">Yahoo Bookmarks</span></a><a id="a2apage_bebo" rel="nofollow" class="a2a_i" href="/" target="_blank" style="display: none; "><span class="a2a_i_bebo">Bebo</span></a><a id="a2apage_mister_wong" rel="nofollow" class="a2a_i" href="/" target="_blank" style="display: none; "><span class="a2a_i_mister-wong">Mister-Wong</span></a><a id="a2apage_wordpress" rel="nofollow" class="a2a_i" href="/" target="_blank" style="display: none; "><span class="a2a_i_wordpress">WordPress</span></a><a id="a2apage_google_reader" rel="nofollow" class="a2a_i" href="/" target="_blank" style="display: none; "><span class="a2a_i_reader">Google Reader</span></a><a id="a2apage_orkut" rel="nofollow" class="a2a_i" href="/" target="_blank" style="display: none; "><span class="a2a_i_orkut">Orkut</span></a><a id="a2apage_xing" rel="nofollow" class="a2a_i" href="/" target="_blank" style="display: none; "><span class="a2a_i_xing">XING</span></a><a id="a2apage_evernote" rel="nofollow" class="a2a_i" href="/" target="_blank" style="display: none; "><span class="a2a_i_evernote">Evernote</span></a><a id="a2apage_netvibes_share" rel="nofollow" class="a2a_i" href="/" target="_blank" style="display: none; "><span class="a2a_i_netvibes">Netvibes Share</span></a><a id="a2apage_strands" rel="nofollow" class="a2a_i" href="/" target="_blank" style="display: none; "><span class="a2a_i_strands">Strands</span></a><a id="a2apage_posterous" rel="nofollow" class="a2a_i" href="/" target="_blank" style="display: none; "><span class="a2a_i_posterous">Posterous</span></a><a id="a2apage_business_exchange" rel="nofollow" class="a2a_i" href="/" target="_blank" style="display: none; "><span class="a2a_i_business_exchange">Business Exchange</span></a><a id="a2apage_arto" rel="nofollow" class="a2a_i" href="/" target="_blank" style="display: none; "><span class="a2a_i_arto">Arto</span></a><a id="a2apage_tipd" rel="nofollow" class="a2a_i" href="/" target="_blank" style="display: none; "><span class="a2a_i_tipd">Tipd</span></a><a id="a2apage_smaknews" rel="nofollow" class="a2a_i" href="/" target="_blank" style="display: none; "><span class="a2a_i_smaknews">SmakNews</span></a><a id="a2apage_plurk" rel="nofollow" class="a2a_i" href="/" target="_blank" style="display: none; "><span class="a2a_i_plurk">Plurk</span></a><a id="a2apage_aim" rel="nofollow" class="a2a_i" href="/" target="_blank" style="display: none; "><span class="a2a_i_aim">AIM</span></a><a id="a2apage_yahoo_messenger" rel="nofollow" class="a2a_i" href="/" target="_blank" style="display: none; "><span class="a2a_i_yim">Yahoo Messenger</span></a><a id="a2apage_identi_ca" rel="nofollow" class="a2a_i" href="/" target="_blank" style="display: none; "><span class="a2a_i_identica">Identi.ca</span></a><a id="a2apage_mozillaca" rel="nofollow" class="a2a_i" href="/" target="_blank" style="display: none; "><span class="a2a_i_mozillaca">Mozillaca</span></a><a id="a2apage_blogger_post" rel="nofollow" class="a2a_i" href="/" target="_blank" style="display: none; "><span class="a2a_i_blogger">Blogger Post</span></a><a id="a2apage_typepad_post" rel="nofollow" class="a2a_i" href="/" target="_blank" style="display: none; "><span class="a2a_i_typepad">TypePad Post</span></a><a id="a2apage_box_net" rel="nofollow" class="a2a_i" href="/" target="_blank" style="display: none; "><span class="a2a_i_box">Box.net</span></a><a id="a2apage_netlog" rel="nofollow" class="a2a_i" href="/" target="_blank" style="display: none; "><span class="a2a_i_netlog">Netlog</span></a><a id="a2apage_technorati_favorites" rel="nofollow" class="a2a_i" href="/" target="_blank" style="display: none; "><span class="a2a_i_technorati">Technorati Favorites</span></a><a id="a2apage_citeulike" rel="nofollow" class="a2a_i" href="/" target="_blank" style="display: none; "><span class="a2a_i_citeulike">CiteULike</span></a><a id="a2apage_jumptags" rel="nofollow" class="a2a_i" href="/" target="_blank" style="display: none; "><span class="a2a_i_jumptags">Jumptags</span></a><a id="a2apage_hemidemi" rel="nofollow" class="a2a_i" href="/" target="_blank" style="display: none; "><span class="a2a_i_hemidemi">Hemidemi</span></a><a id="a2apage_funp" rel="nofollow" class="a2a_i" href="/" target="_blank" style="display: none; "><span class="a2a_i_funp">FunP</span></a><a id="a2apage_instapaper" rel="nofollow" class="a2a_i" href="/" target="_blank" style="display: none; "><span class="a2a_i_instapaper">Instapaper</span></a><a id="a2apage_phonefavs" rel="nofollow" class="a2a_i" href="/" target="_blank" style="display: none; "><span class="a2a_i_phonefavs">PhoneFavs</span></a><a id="a2apage_xerpi" rel="nofollow" class="a2a_i" href="/" target="_blank" style="display: none; "><span class="a2a_i_xerpi">Xerpi</span></a><a id="a2apage_netvouz" rel="nofollow" class="a2a_i" href="/" target="_blank" style="display: none; "><span class="a2a_i_netvouz">Netvouz</span></a><a id="a2apage_wink" rel="nofollow" class="a2a_i" href="/" target="_blank" style="display: none; "><span class="a2a_i_wink">Wink</span></a><a id="a2apage_diigo" rel="nofollow" class="a2a_i" href="/" target="_blank" style="display: none; "><span class="a2a_i_diigo">Diigo</span></a><a id="a2apage_bibsonomy" rel="nofollow" class="a2a_i" href="/" target="_blank" style="display: none; "><span class="a2a_i_bibsonomy">BibSonomy</span></a><a id="a2apage_blogmarks" rel="nofollow" class="a2a_i" href="/" target="_blank" style="display: none; "><span class="a2a_i_blogmarks">BlogMarks</span></a><a id="a2apage_tailrank" rel="nofollow" class="a2a_i" href="/" target="_blank" style="display: none; "><span class="a2a_i_tailrank">Tailrank</span></a><a id="a2apage_startaid" rel="nofollow" class="a2a_i" href="/" target="_blank" style="display: none; "><span class="a2a_i_startaid">StartAid</span></a><a id="a2apage_kledy" rel="nofollow" class="a2a_i" href="/" target="_blank" style="display: none; "><span class="a2a_i_kledy">Kledy</span></a><a id="a2apage_khabbr" rel="nofollow" class="a2a_i" href="/" target="_blank" style="display: none; "><span class="a2a_i_khabbr">Khabbr</span></a><a id="a2apage_meneame" rel="nofollow" class="a2a_i" href="/" target="_blank" style="display: none; "><span class="a2a_i_meneame">Meneame</span></a><a id="a2apage_yoolink" rel="nofollow" class="a2a_i" href="/" target="_blank" style="display: none; "><span class="a2a_i_yoolink">Yoolink</span></a><a id="a2apage_bookmarks_fr" rel="nofollow" class="a2a_i" href="/" target="_blank" style="display: none; "><span class="a2a_i_bookmarks_fr">Bookmarks.fr</span></a><a id="a2apage_technotizie" rel="nofollow" class="a2a_i" href="/" target="_blank" style="display: none; "><span class="a2a_i_technotizie">Technotizie</span></a><a id="a2apage_newsvine" rel="nofollow" class="a2a_i" href="/" target="_blank" style="display: none; "><span class="a2a_i_newsvine">NewsVine</span></a><a id="a2apage_multiply" rel="nofollow" class="a2a_i" href="/" target="_blank" style="display: none; "><span class="a2a_i_multiply">Multiply</span></a><a id="a2apage_friendfeed" rel="nofollow" class="a2a_i" href="/" target="_blank" style="display: none; "><span class="a2a_i_friendfeed">FriendFeed</span></a><a id="a2apage_plaxo_pulse" rel="nofollow" class="a2a_i" href="/" target="_blank" style="display: none; "><span class="a2a_i_plaxo">Plaxo Pulse</span></a><a id="a2apage_ping" rel="nofollow" class="a2a_i" href="/" target="_blank" style="display: none; "><span class="a2a_i_ping">Ping</span></a><a id="a2apage_squidoo" rel="nofollow" class="a2a_i" href="/" target="_blank" style="display: none; "><span class="a2a_i_squidoo">Squidoo</span></a><a id="a2apage_protopage_bookmarks" rel="nofollow" class="a2a_i" href="/" target="_blank" style="display: none; "><span class="a2a_i_protopage">Protopage Bookmarks</span></a><a id="a2apage_blinklist" rel="nofollow" class="a2a_i" href="/" target="_blank" style="display: none; "><span class="a2a_i_blinklist">Blinklist</span></a><a id="a2apage_faves" rel="nofollow" class="a2a_i" href="/" target="_blank" style="display: none; "><span class="a2a_i_faves">Faves</span></a><a id="a2apage_yigg" rel="nofollow" class="a2a_i" href="/" target="_blank" style="display: none; "><span class="a2a_i_yigg">YiGG</span></a><a id="a2apage_webnews" rel="nofollow" class="a2a_i" href="/" target="_blank" style="display: none; "><span class="a2a_i_webnews">Webnews</span></a><a id="a2apage_segnalo" rel="nofollow" class="a2a_i" href="/" target="_blank" style="display: none; "><span class="a2a_i_segnalo">Segnalo</span></a><a id="a2apage_pusha" rel="nofollow" class="a2a_i" href="/" target="_blank" style="display: none; "><span class="a2a_i_pusha">Pusha</span></a><a id="a2apage_youmob" rel="nofollow" class="a2a_i" href="/" target="_blank" style="display: none; "><span class="a2a_i_youmob">YouMob</span></a><a id="a2apage_slashdot" rel="nofollow" class="a2a_i" href="/" target="_blank" style="display: none; "><span class="a2a_i_slashdot">Slashdot</span></a><a id="a2apage_fark" rel="nofollow" class="a2a_i" href="/" target="_blank" style="display: none; "><span class="a2a_i_fark">Fark</span></a><a id="a2apage_allvoices" rel="nofollow" class="a2a_i" href="/" target="_blank" style="display: none; "><span class="a2a_i_allvoices">Allvoices</span></a><a id="a2apage_jamespot" rel="nofollow" class="a2a_i" href="/" target="_blank" style="display: none; "><span class="a2a_i_jamespot">Jamespot</span></a><a id="a2apage_imera_brazil" rel="nofollow" class="a2a_i" href="/" target="_blank" style="display: none; "><span class="a2a_i_imera">Imera Brazil</span></a><a id="a2apage_twiddla" rel="nofollow" class="a2a_i" href="/" target="_blank" style="display: none; "><span class="a2a_i_twiddla">Twiddla</span></a><a id="a2apage_linkagogo" rel="nofollow" class="a2a_i" href="/" target="_blank" style="display: none; "><span class="a2a_i_linkagogo">LinkaGoGo</span></a><a id="a2apage_unalog" rel="nofollow" class="a2a_i" href="/" target="_blank" style="display: none; "><span class="a2a_i_unalog">unalog</span></a><a id="a2apage_hugg" rel="nofollow" class="a2a_i" href="/" target="_blank" style="display: none; "><span class="a2a_i_hugg">Hugg</span></a><a id="a2apage_diglog" rel="nofollow" class="a2a_i" href="/" target="_blank" style="display: none; "><span class="a2a_i_diglog">Diglog</span></a><a id="a2apage_nowpublic" rel="nofollow" class="a2a_i" href="/" target="_blank" style="display: none; "><span class="a2a_i_nowpublic">NowPublic</span></a><a id="a2apage_tumblr" rel="nofollow" class="a2a_i" href="/" target="_blank" style="display: none; "><span class="a2a_i_tumblr">Tumblr</span></a><a id="a2apage_livejournal" rel="nofollow" class="a2a_i" href="/" target="_blank" style="display: none; "><span class="a2a_i_livejournal">LiveJournal</span></a><a id="a2apage_current" rel="nofollow" class="a2a_i" href="/" target="_blank" style="display: none; "><span class="a2a_i_current">Current</span></a><a id="a2apage_hellotxt" rel="nofollow" class="a2a_i" href="/" target="_blank" style="display: none; "><span class="a2a_i_hellotxt">HelloTxt</span></a><a id="a2apage_spurl" rel="nofollow" class="a2a_i" href="/" target="_blank" style="display: none; "><span class="a2a_i_spurl">Spurl</span></a><a id="a2apage_yample" rel="nofollow" class="a2a_i" href="/" target="_blank" style="display: none; "><span class="a2a_i_yample">Yample</span></a><a id="a2apage_oneview" rel="nofollow" class="a2a_i" href="/" target="_blank" style="display: none; "><span class="a2a_i_oneview">Oneview</span></a><a id="a2apage_linkatopia" rel="nofollow" class="a2a_i" href="/" target="_blank" style="display: none; "><span class="a2a_i_linkatopia">Linkatopia</span></a><a id="a2apage_simpy" rel="nofollow" class="a2a_i" href="/" target="_blank" style="display: none; "><span class="a2a_i_simpy">Simpy</span></a><a id="a2apage_linkedin" rel="nofollow" class="a2a_i" href="/" target="_blank" style="display: none; "><span class="a2a_i_linkedin">LinkedIn</span></a><a id="a2apage_buddymarks" rel="nofollow" class="a2a_i" href="/" target="_blank" style="display: none; "><span class="a2a_i_buddymarks">BuddyMarks</span></a><a id="a2apage_ask_com_mystuff" rel="nofollow" class="a2a_i" href="/" target="_blank" style="display: none; "><span class="a2a_i_ask">Ask.com MyStuff</span></a><a id="a2apage_viadeo" rel="nofollow" class="a2a_i" href="/" target="_blank" style="display: none; "><span class="a2a_i_viadeo">Viadeo</span></a><a id="a2apage_maple" rel="nofollow" class="a2a_i" href="/" target="_blank" style="display: none; "><span class="a2a_i_maple">Maple</span></a><a id="a2apage_wists" rel="nofollow" class="a2a_i" href="/" target="_blank" style="display: none; "><span class="a2a_i_wists">Wists</span></a><a id="a2apage_connotea" rel="nofollow" class="a2a_i" href="/" target="_blank" style="display: none; "><span class="a2a_i_connotea">Connotea</span></a><a id="a2apage_backflip" rel="nofollow" class="a2a_i" href="/" target="_blank" style="display: none; "><span class="a2a_i_backflip">Backflip</span></a><a id="a2apage_mylinkvault" rel="nofollow" class="a2a_i" href="/" target="_blank" style="display: none; "><span class="a2a_i_mylinkvault">MyLinkVault</span></a><a id="a2apage_sitejot" rel="nofollow" class="a2a_i" href="/" target="_blank" style="display: none; "><span class="a2a_i_sitejot">SiteJot</span></a><a id="a2apage_sphinn" rel="nofollow" class="a2a_i" href="/" target="_blank" style="display: none; "><span class="a2a_i_sphinn">Sphinn</span></a><a id="a2apage_dzone" rel="nofollow" class="a2a_i" href="/" target="_blank" style="display: none; "><span class="a2a_i_dzone">DZone</span></a><a id="a2apage_care2_news" rel="nofollow" class="a2a_i" href="/" target="_blank" style="display: none; "><span class="a2a_i_care2">Care2 News</span></a><a id="a2apage_hyves" rel="nofollow" class="a2a_i" href="/" target="_blank" style="display: none; "><span class="a2a_i_hyves">Hyves</span></a><a id="a2apage_sphere" rel="nofollow" class="a2a_i" href="/" target="_blank" style="display: none; "><span class="a2a_i_sphere">Sphere</span></a><a id="a2apage_bitty_browser" rel="nofollow" class="a2a_i" href="/" target="_blank" style="display: none; "><span class="a2a_i_bitty">Bitty Browser</span></a><a id="a2apage_gabbr" rel="nofollow" class="a2a_i" href="/" target="_blank" style="display: none; "><span class="a2a_i_gabbr">Gabbr</span></a><a id="a2apage_symbaloo_feeds" rel="nofollow" class="a2a_i" href="/" target="_blank" style="display: none; "><span class="a2a_i_symbaloo">Symbaloo Feeds</span></a><a id="a2apage_tagza" rel="nofollow" class="a2a_i" href="/" target="_blank" style="display: none; "><span class="a2a_i_tagza">Tagza</span></a><a id="a2apage_folkd" rel="nofollow" class="a2a_i" href="/" target="_blank" style="display: none; "><span class="a2a_i_folkd">Folkd</span></a><a id="a2apage_newstrust" rel="nofollow" class="a2a_i" href="/" target="_blank" style="display: none; "><span class="a2a_i_newstrust">NewsTrust</span></a><a id="a2apage_amazon_wish_list" rel="nofollow" class="a2a_i" href="/" target="_blank" style="display: none; "><span class="a2a_i_amazon">Amazon Wish List</span></a><a id="a2apage_printfriendly" rel="nofollow" class="a2a_i" href="/" target="_blank" style="display: none; "><span class="a2a_i_printfriendly">PrintFriendly</span></a><a id="a2apage_read_it_later" rel="nofollow" class="a2a_i" href="/" target="_blank" style="display: none; "><span class="a2a_i_read_it_later">Read It Later</span></a><a id="a2apage_tuenti" rel="nofollow" class="a2a_i" href="/" target="_blank" style="display: none; "><span class="a2a_i_tuenti">Tuenti</span></a><a id="a2apage_email" rel="nofollow" class="a2a_i" href="/" target="_blank" style="display: none; "><span class="a2a_i_email">Email</span></a><a id="a2apage_rediff" rel="nofollow" class="a2a_i" href="/" target="_blank" style="display: none; "><span class="a2a_i_rediff">Rediff MyPage</span></a></div><div id="a2apage_2_col1" style="display: none; "><a id="a2apage_google_gmail" rel="nofollow" class="a2a_i" href="/" target="_blank"><span class="a2a_i_gmail">Google Gmail</span></a><a id="a2apage_yahoo_mail" rel="nofollow" class="a2a_i" href="/" target="_blank"><span class="a2a_i_yahoo">Yahoo Mail</span></a><a id="a2apage_hotmail" rel="nofollow" class="a2a_i" href="/" target="_blank"><span class="a2a_i_live">Hotmail</span></a><a id="a2apage_aol_mail" rel="nofollow" class="a2a_i" href="/" target="_blank"><span class="a2a_i_aol">AOL Mail</span></a><a id="a2apage_any_email" rel="nofollow" class="a2a_i a2a_emailer" href="/" target="_blank"><span class="a2a_i_email">Any email</span></a><a id="a2apage_email_client" rel="nofollow" class="a2a_i a2a_emailer a2a_email_client" href="/" target=""><span class="a2a_i_outlook">&nbsp;</span><span class="a2a_i_windows_mail">&nbsp;</span><span class="a2a_i_apple_mail">&nbsp;</span><span class="a2a_i_thunderbird">&nbsp;</span></a></div><div class="a2a_clear"></div></div><div id="a2apage_note_BROWSER" class="a2a_note" style="display:none"></div><div class="a2apage_wide a2a_wide" style=""><a href="javascript:void(0)" id="a2apage_show_more_less" class="a2a_menu_show_more_less" onclick="return a2a.show_more_less(0)" onmouseover="img=this.firstChild;if(a2a.c.color_arrow_hover==\'fff\'){if(img.className.indexOf(\'_wt\')==-1)img.className =\'_wt\'}else img.className=img.className.replace(/_wt/,\'\')" onmouseout="img=this.firstChild;if(a2a.c.color_arrow==\'fff\'){if(img.className.indexOf(\'_wt\')==-1)img.className =\'_wt\'}else img.className=img.className.replace(/_wt/,\'\')" title="Show all"><span class="a2a_i_darr"></span></a></div><div class="a2a_menu_powered_by" id="a2apage_powered_by" onmouseover="if(this.innerHTML!=this.orig&amp;&amp;!window.opera)this.innerHTML=this.orig;this.style.textAlign=\'center\'" style="">By <a href="http://share.lockerz.com/" target="_blank" title="Share Buttons">Lockerz</a></div></div></div></div>\n  <div class="wrapper"><!-- for sticky footer -->\n    <div class="flash" style="display: none; "></div>\n    <div class="header">\n      <div class="container">\n        <div class="sixteen columns">\n\t  <img src="http://web2py.com/examples/static/images/web2py_logo.png">\n          <h5></h5>\n        </div>\n        <div class="sixteen columns statusbar">\n          <div id="menu"><ul class="sf-menu"><li><a href="http://web2py.com/examples/default/index">Home</a></li><li><a href="http://web2py.com/examples/default/what">About</a></li><li><a href="http://web2py.com/examples/default/download">Download</a></li><li><a href="http://web2py.com/examples/default/documentation">Docs &amp; Resources</a></li><li><a href="http://web2py.com/examples/default/support">Support</a></li><li><a href="http://web2py.com/examples/default/who">Contributors</a></li></ul>\n            <!-- AddToAny BEGIN -->\n            <div style="float:right;padding-top:6px;" class="a2a_kit a2a_default_style">\n            <a class="a2a_dd" href="http://www.addtoany.com/share_save#url=http%3A%2F%2F127.0.0.1%3A8000%2Finplace%2Fdefault%2Fedit%3Furl%3Dhttp%253A%252F%252Fweb2py.com&amp;title=web2py%20Web%20Framework&amp;description="><span class="a2a_img a2a_img_text a2a_i_a2a"></span>Share</a><div style="clear: both; "></div></div>\n            <script type="text/javascript" src="http://static.addtoany.com/menu/page.js"></script>\n            <!-- AddToAny END -->\n          </div>\n\t  <div class="sixteen columns announce">\n\t    <a href="http://www.infoworld.com/d/open-source-software/bossie-awards-2011-the-best-open-source-application-development-software-171759-0&amp;current=10&amp;last=1#slideshowTop">2011 BOSSIE AWARD FOR OPEN SOURCE DEVELOPMENT SOFTWARE</a>\n          </div>\n\t</div>\n      </div>\n    </div>\n    <div class="main">\n      <div class="container mainbody">\n        <div class="sixteen columns">\n          <div class="ten columns center">\n<center>\n  <img src="http://web2py.com/examples/static/images/tag-cloud-color-small.png">\n</center>\n<h3>WEB2PY<sup>TM</sup> WEB FRAMEWORK</h3>\n<p>This is a test</p>\n          </div>\n          <div class="five columns">\n<div style="text-align:center">\n  <a href="http://web2py.com/book"><img src="http://web2py.com/examples/static/images/tablet.png" alt="Tablet"></a><br>\n  <a href="http://www.lulu.com/product/paperback/web2py-book-(4th-edition)/18738286"><img src="http://static.lulu.com/images/services/buy_now_buttons/us/book.gif?20111206124946" border="0" alt="Support independent publishing: Buy this book on Lulu."></a><br>\n  <a class="button" href="http://web2py.com/examples/default/download" style="width:90%">DOWNLOAD NOW</a><br>\n  <a class="button" href="http://web2py.com/demo_admin" style="width:90%">ONLINE DEMO</a><br>\n  <a class="button" href="http://web2py.com/poweredby" style="width:90%">SITES POWERED</a>\n</div>\n          </div>\n        </div>\n      </div><!-- container -->\n<div class="container">\n  <div class="sixteen columns">\n    <div class="five columns">\n      <h3><a href="http://web2py.com/examples/default/about">BATTERIES INCLUDED</a></h3>\n      <p>Everything you need in one package including fast multi-threaded web server, SQL database and web-based interface. No third party dependencies but works with <a href="/examples/default/what">third party tools</a>.</p>\n    </div>\n    <div class="five columns">\n      <h3><a href="http://web2py.com/demo_admin">WEB-BASED IDE</a></h3>\n      <p>Create, modify, deploy and manage application from anywhere using your browser. One web2py instance can run multiple web sites using different databases. Try the <a href="http://web2py.com/demo_admin">interactive demo</a>.</p>\n    </div>\n    <div class="five columns">\n      <h3><a href="http://web2py.com/examples/default/documentation">EXTENSIVE DOCS</a></h3>\n      <p>Start with some <a href="http://web2py.com/examples/default/examples">quick examples</a>, then read the <a href="http://web2py.com/book">reference manual</a>, watch <a href="http://vimeo.com/album/178500">videos</a>, and join a <a href="http://web2py.com/examples/default/usergroups">user group</a> for discussion. Take advantage of the <a href="http://web2py.com/layouts">layouts</a>, <a href="http://dev.s-cubism.com/web2py_plugins">plugins</a>, and <a href="http://web2pyslices.com">recipes</a>.</p>\n    </div>\n  </div>\n</div>\n<div class="container">\n  <div class="sixteen columns">\n    <img src="http://web2py.com/examples/static/images/shadow-bottom.png" width="100%">\n    <div class="five columns">\n      <em>\n\t<p>Please use www.web2py.com when using MVC , no PHP/SQL stuff please...its 2011 not 1999</p>\n      </em>\n      <span class="right">\n\t<a href="http://twitter.com/#!/rabblesoft/status/79189028431343616"><em>rabblesoft</em></a>\n      </span>\n    </div>\n    <div class="five columns">\n      <em>\n\t<p>web2py was the life saver today for me, my blog post: Standalone Usage of web2py\'s</p>\n      </em>\n      <span class="right">\n\t<a href="http://twitter.com/#!/caglartoklu/status/84292131707031553"><em>caglartoklu</em></a>\n      </span>\n    </div>\n    <div class="five columns">\n      <em>\n\t<p>web2py it is. Compatible with everything under the sun and great interfaces to googleappengine</p>\n      </em>\n      <span class="right">\n\t<a href="http://twitter.com/#!/comamitc/status/51744719071477760"><em>comamitc</em></a>\n      </span>\n    </div>\n  </div>\n</div>\n    </div><!-- main -->\n    <div class="push"></div>\n  </div><!-- wrapper -->\n  <div class="footer">\n    <div class="container header">\n      <div class="sixteen columns">\n         <!-- this is default footer -->\n        <div class="footer-content">\n          Copyright \xa9 2011\n\t  - User communities in <a href="https://groups.google.com/forum/?fromgroups#!forum/web2py" target="_blank">English</a><a>, </a><a href="https://groups.google.com/forum/?fromgroups#!forum/web2py-fr" target="_blank">French</a>, <a href="https://groups.google.com/forum/?fromgroups#!forum/web2py-japan" target="_blank">Japanese</a>, <a href="https://groups.google.com/forum/?fromgroups#!forum/web2py-users-brazil" target="_blank">Portuguese</a>, and <a href="https://groups.google.com/forum/?fromgroups#!forum/web2py-usuarios" target="_blank">Spanish</a>.\n          <div style="float: right;">\n            <a href="http://www.web2py.com/" style="float: left; padding-right: 6px;">\n            <img style="padding-bottom: 0;" src="http://web2py.com/examples/static/images/poweredby.png">\n            </a>\n          </div>\n        </div>\n      </div>\n    </div><!-- container -->\n  </div><!-- footer -->\n  <!--[if lt IE 7 ]>\n\t<script src="http://web2py.com/examples/static/js/dd_belatedpng.js"></script>\n\t<script> DD_belatedPNG.fix(\'img, .png_bg\'); //fix any <img> or .png_bg background-images </script>\n\t<![endif]-->\n\n\n</body></html>'
p3795
asbasbasbasbasbsS'etype'
p3796
S"<type 'exceptions.IOError'>"
p3797
sS'date'
p3798
S'Sat Dec 10 01:07:54 2011'
p3799
sS'response'
p3800
g55
(g56
g57
NtRp3801
(dp3802
g60
(dp3803
sg62
(lp3804
g55
(g64
g57
NtRp3805
(dp3806
g60
(dp3807
g68
I5
ssg69
Nsg62
(lp3808
g55
(g71
g57
NtRp3809
(dp3810
g60
(dp3811
sg69
g3805
sg62
(lp3812
g55
(g76
g57
NtRp3813
(dp3814
g60
(dp3815
g80
g81
ssg69
g3809
sg62
(lp3816
g153
asbag55
(g76
g57
NtRp3817
(dp3818
g60
(dp3819
g87
g88
ssg69
g3809
sg62
(lp3820
S':'
asbag55
(g76
g57
NtRp3821
(dp3822
g60
(dp3823
sg69
g3809
sg62
(lp3824
g55
(g56
g57
NtRp3825
(dp3826
g60
(dp3827
g68
I5
ssg69
g3821
sg62
(lp3828
S'<cStringIO.StringO object at 0x1143e20>'
p3829
asbasbasbag55
(g71
g57
NtRp3830
(dp3831
g60
(dp3832
sg69
g3805
sg62
(lp3833
g55
(g76
g57
NtRp3834
(dp3835
g60
(dp3836
g80
g81
ssg69
g3830
sg62
(lp3837
g219
asbag55
(g76
g57
NtRp3838
(dp3839
g60
(dp3840
g87
g88
ssg69
g3830
sg62
(lp3841
S':'
asbag55
(g76
g57
NtRp3842
(dp3843
g60
(dp3844
sg69
g3830
sg62
(lp3845
g55
(g56
g57
NtRp3846
(dp3847
g60
(dp3848
g68
I5
ssg69
g3842
sg62
(lp3849
g55
(g64
g57
NtRp3850
(dp3851
g60
(dp3852
g68
I4
ssg69
Nsg62
(lp3853
g55
(g71
g57
NtRp3854
(dp3855
g60
(dp3856
sg69
g3850
sg62
(lp3857
g55
(g76
g57
NtRp3858
(dp3859
g60
(dp3860
g80
g81
ssg69
g3854
sg62
(lp3861
S'session_id_inplace'
p3862
asbag55
(g76
g57
NtRp3863
(dp3864
g60
(dp3865
g87
g88
ssg69
g3854
sg62
(lp3866
S':'
asbag55
(g76
g57
NtRp3867
(dp3868
g60
(dp3869
sg69
g3854
sg62
(lp3870
g55
(g56
g57
NtRp3871
(dp3872
g60
(dp3873
g68
I4
ssg69
g3867
sg62
(lp3874
g55
(g64
g57
NtRp3875
(dp3876
g60
(dp3877
g68
I3
ssg69
Nsg62
(lp3878
g55
(g71
g57
NtRp3879
(dp3880
g60
(dp3881
sg69
g3875
sg62
(lp3882
g55
(g76
g57
NtRp3883
(dp3884
g60
(dp3885
g80
g81
ssg69
g3879
sg62
(lp3886
g269
asbag55
(g76
g57
NtRp3887
(dp3888
g60
(dp3889
g87
g88
ssg69
g3879
sg62
(lp3890
S':'
asbag55
(g76
g57
NtRp3891
(dp3892
g60
(dp3893
sg69
g3879
sg62
(lp3894
g55
(g56
g57
NtRp3895
(dp3896
g60
(dp3897
g68
I3
ssg69
g3891
sg62
(lp3898
S''
asbasbasbag55
(g71
g57
NtRp3899
(dp3900
g60
(dp3901
sg69
g3875
sg62
(lp3902
g55
(g76
g57
NtRp3903
(dp3904
g60
(dp3905
g80
g81
ssg69
g3899
sg62
(lp3906
g290
asbag55
(g76
g57
NtRp3907
(dp3908
g60
(dp3909
g87
g88
ssg69
g3899
sg62
(lp3910
S':'
asbag55
(g76
g57
NtRp3911
(dp3912
g60
(dp3913
sg69
g3899
sg62
(lp3914
g55
(g56
g57
NtRp3915
(dp3916
g60
(dp3917
g68
I3
ssg69
g3911
sg62
(lp3918
S''
asbasbasbag55
(g71
g57
NtRp3919
(dp3920
g60
(dp3921
sg69
g3875
sg62
(lp3922
g55
(g76
g57
NtRp3923
(dp3924
g60
(dp3925
g80
g81
ssg69
g3919
sg62
(lp3926
g311
asbag55
(g76
g57
NtRp3927
(dp3928
g60
(dp3929
g87
g88
ssg69
g3919
sg62
(lp3930
S':'
asbag55
(g76
g57
NtRp3931
(dp3932
g60
(dp3933
sg69
g3919
sg62
(lp3934
g55
(g56
g57
NtRp3935
(dp3936
g60
(dp3937
g68
I3
ssg69
g3931
sg62
(lp3938
S''
asbasbasbag55
(g71
g57
NtRp3939
(dp3940
g60
(dp3941
sg69
g3875
sg62
(lp3942
g55
(g76
g57
NtRp3943
(dp3944
g60
(dp3945
g80
g81
ssg69
g3939
sg62
(lp3946
g332
asbag55
(g76
g57
NtRp3947
(dp3948
g60
(dp3949
g87
g88
ssg69
g3939
sg62
(lp3950
S':'
asbag55
(g76
g57
NtRp3951
(dp3952
g60
(dp3953
sg69
g3939
sg62
(lp3954
g55
(g56
g57
NtRp3955
(dp3956
g60
(dp3957
g68
I3
ssg69
g3951
sg62
(lp3958
S''
asbasbasbag55
(g71
g57
NtRp3959
(dp3960
g60
(dp3961
sg69
g3875
sg62
(lp3962
g55
(g76
g57
NtRp3963
(dp3964
g60
(dp3965
g80
g81
ssg69
g3959
sg62
(lp3966
g353
asbag55
(g76
g57
NtRp3967
(dp3968
g60
(dp3969
g87
g88
ssg69
g3959
sg62
(lp3970
S':'
asbag55
(g76
g57
NtRp3971
(dp3972
g60
(dp3973
sg69
g3959
sg62
(lp3974
g55
(g56
g57
NtRp3975
(dp3976
g60
(dp3977
g68
I3
ssg69
g3971
sg62
(lp3978
S'/'
asbasbasbag55
(g71
g57
NtRp3979
(dp3980
g60
(dp3981
sg69
g3875
sg62
(lp3982
g55
(g76
g57
NtRp3983
(dp3984
g60
(dp3985
g80
g81
ssg69
g3979
sg62
(lp3986
g374
asbag55
(g76
g57
NtRp3987
(dp3988
g60
(dp3989
g87
g88
ssg69
g3979
sg62
(lp3990
S':'
asbag55
(g76
g57
NtRp3991
(dp3992
g60
(dp3993
sg69
g3979
sg62
(lp3994
g55
(g56
g57
NtRp3995
(dp3996
g60
(dp3997
g68
I3
ssg69
g3991
sg62
(lp3998
S''
asbasbasbag55
(g71
g57
NtRp3999
(dp4000
g60
(dp4001
sg69
g3875
sg62
(lp4002
g55
(g76
g57
NtRp4003
(dp4004
g60
(dp4005
g80
g81
ssg69
g3999
sg62
(lp4006
g395
asbag55
(g76
g57
NtRp4007
(dp4008
g60
(dp4009
g87
g88
ssg69
g3999
sg62
(lp4010
S':'
asbag55
(g76
g57
NtRp4011
(dp4012
g60
(dp4013
sg69
g3999
sg62
(lp4014
g55
(g56
g57
NtRp4015
(dp4016
g60
(dp4017
g68
I3
ssg69
g4011
sg62
(lp4018
S''
asbasbasbasbasbasbasbasbasbasbasbag55
(g71
g57
NtRp4019
(dp4020
g60
(dp4021
sg69
g3805
sg62
(lp4022
g55
(g76
g57
NtRp4023
(dp4024
g60
(dp4025
g80
g81
ssg69
g4019
sg62
(lp4026
S'files'
p4027
asbag55
(g76
g57
NtRp4028
(dp4029
g60
(dp4030
g87
g88
ssg69
g4019
sg62
(lp4031
S':'
asbag55
(g76
g57
NtRp4032
(dp4033
g60
(dp4034
sg69
g4019
sg62
(lp4035
g55
(g56
g57
NtRp4036
(dp4037
g60
(dp4038
g68
I5
ssg69
g4032
sg62
(lp4039
g55
(g64
g57
NtRp4040
(dp4041
g60
(dp4042
g68
I4
ssg69
Nsg62
(lp4043
sbasbasbasbag55
(g71
g57
NtRp4044
(dp4045
g60
(dp4046
sg69
g3805
sg62
(lp4047
g55
(g76
g57
NtRp4048
(dp4049
g60
(dp4050
g80
g81
ssg69
g4044
sg62
(lp4051
S'flash'
p4052
asbag55
(g76
g57
NtRp4053
(dp4054
g60
(dp4055
g87
g88
ssg69
g4044
sg62
(lp4056
S':'
asbag55
(g76
g57
NtRp4057
(dp4058
g60
(dp4059
sg69
g4044
sg62
(lp4060
g55
(g56
g57
NtRp4061
(dp4062
g60
(dp4063
g68
I5
ssg69
g4057
sg62
(lp4064
S''
asbasbasbag55
(g71
g57
NtRp4065
(dp4066
g60
(dp4067
sg69
g3805
sg62
(lp4068
g55
(g76
g57
NtRp4069
(dp4070
g60
(dp4071
g80
g81
ssg69
g4065
sg62
(lp4072
S'generic_patterns'
p4073
asbag55
(g76
g57
NtRp4074
(dp4075
g60
(dp4076
g87
g88
ssg69
g4065
sg62
(lp4077
S':'
asbag55
(g76
g57
NtRp4078
(dp4079
g60
(dp4080
sg69
g4065
sg62
(lp4081
g55
(g56
g57
NtRp4082
(dp4083
g60
(dp4084
g68
I5
ssg69
g4078
sg62
(lp4085
g55
(g64
g57
NtRp4086
(dp4087
g60
(dp4088
g68
I4
ssg69
Nsg62
(lp4089
sbasbasbasbag55
(g71
g57
NtRp4090
(dp4091
g60
(dp4092
sg69
g3805
sg62
(lp4093
g55
(g76
g57
NtRp4094
(dp4095
g60
(dp4096
g80
g81
ssg69
g4090
sg62
(lp4097
S'headers'
p4098
asbag55
(g76
g57
NtRp4099
(dp4100
g60
(dp4101
g87
g88
ssg69
g4090
sg62
(lp4102
S':'
asbag55
(g76
g57
NtRp4103
(dp4104
g60
(dp4105
sg69
g4090
sg62
(lp4106
g55
(g56
g57
NtRp4107
(dp4108
g60
(dp4109
g68
I5
ssg69
g4103
sg62
(lp4110
g55
(g64
g57
NtRp4111
(dp4112
g60
(dp4113
g68
I4
ssg69
Nsg62
(lp4114
g55
(g71
g57
NtRp4115
(dp4116
g60
(dp4117
sg69
g4111
sg62
(lp4118
g55
(g76
g57
NtRp4119
(dp4120
g60
(dp4121
g80
g81
ssg69
g4115
sg62
(lp4122
S'Cache-Control'
p4123
asbag55
(g76
g57
NtRp4124
(dp4125
g60
(dp4126
g87
g88
ssg69
g4115
sg62
(lp4127
S':'
asbag55
(g76
g57
NtRp4128
(dp4129
g60
(dp4130
sg69
g4115
sg62
(lp4131
g55
(g56
g57
NtRp4132
(dp4133
g60
(dp4134
g68
I4
ssg69
g4128
sg62
(lp4135
S'no-store, no-cache, must-revalidate, post-check=0, pre-check=0'
p4136
asbasbasbag55
(g71
g57
NtRp4137
(dp4138
g60
(dp4139
sg69
g4111
sg62
(lp4140
g55
(g76
g57
NtRp4141
(dp4142
g60
(dp4143
g80
g81
ssg69
g4137
sg62
(lp4144
S'Content-Type'
p4145
asbag55
(g76
g57
NtRp4146
(dp4147
g60
(dp4148
g87
g88
ssg69
g4137
sg62
(lp4149
S':'
asbag55
(g76
g57
NtRp4150
(dp4151
g60
(dp4152
sg69
g4137
sg62
(lp4153
g55
(g56
g57
NtRp4154
(dp4155
g60
(dp4156
g68
I4
ssg69
g4150
sg62
(lp4157
S'text/html; charset=utf-8'
p4158
asbasbasbag55
(g71
g57
NtRp4159
(dp4160
g60
(dp4161
sg69
g4111
sg62
(lp4162
g55
(g76
g57
NtRp4163
(dp4164
g60
(dp4165
g80
g81
ssg69
g4159
sg62
(lp4166
S'Expires'
p4167
asbag55
(g76
g57
NtRp4168
(dp4169
g60
(dp4170
g87
g88
ssg69
g4159
sg62
(lp4171
S':'
asbag55
(g76
g57
NtRp4172
(dp4173
g60
(dp4174
sg69
g4159
sg62
(lp4175
g55
(g56
g57
NtRp4176
(dp4177
g60
(dp4178
g68
I4
ssg69
g4172
sg62
(lp4179
S'Sat, 10 Dec 2011 07:07:54 GMT'
p4180
asbasbasbag55
(g71
g57
NtRp4181
(dp4182
g60
(dp4183
sg69
g4111
sg62
(lp4184
g55
(g76
g57
NtRp4185
(dp4186
g60
(dp4187
g80
g81
ssg69
g4181
sg62
(lp4188
S'Pragma'
p4189
asbag55
(g76
g57
NtRp4190
(dp4191
g60
(dp4192
g87
g88
ssg69
g4181
sg62
(lp4193
S':'
asbag55
(g76
g57
NtRp4194
(dp4195
g60
(dp4196
sg69
g4181
sg62
(lp4197
g55
(g56
g57
NtRp4198
(dp4199
g60
(dp4200
g68
I4
ssg69
g4194
sg62
(lp4201
S'no-cache'
p4202
asbasbasbag55
(g71
g57
NtRp4203
(dp4204
g60
(dp4205
sg69
g4111
sg62
(lp4206
g55
(g76
g57
NtRp4207
(dp4208
g60
(dp4209
g80
g81
ssg69
g4203
sg62
(lp4210
S'X-Powered-By'
p4211
asbag55
(g76
g57
NtRp4212
(dp4213
g60
(dp4214
g87
g88
ssg69
g4203
sg62
(lp4215
S':'
asbag55
(g76
g57
NtRp4216
(dp4217
g60
(dp4218
sg69
g4203
sg62
(lp4219
g55
(g56
g57
NtRp4220
(dp4221
g60
(dp4222
g68
I4
ssg69
g4216
sg62
(lp4223
S'web2py'
p4224
asbasbasbasbasbasbasbag55
(g71
g57
NtRp4225
(dp4226
g60
(dp4227
sg69
g3805
sg62
(lp4228
g55
(g76
g57
NtRp4229
(dp4230
g60
(dp4231
g80
g81
ssg69
g4225
sg62
(lp4232
S'menu'
p4233
asbag55
(g76
g57
NtRp4234
(dp4235
g60
(dp4236
g87
g88
ssg69
g4225
sg62
(lp4237
S':'
asbag55
(g76
g57
NtRp4238
(dp4239
g60
(dp4240
sg69
g4225
sg62
(lp4241
g55
(g56
g57
NtRp4242
(dp4243
g60
(dp4244
g68
I5
ssg69
g4238
sg62
(lp4245
g55
(g64
g57
NtRp4246
(dp4247
g60
(dp4248
g68
I4
ssg69
Nsg62
(lp4249
sbasbasbasbag55
(g71
g57
NtRp4250
(dp4251
g60
(dp4252
sg69
g3805
sg62
(lp4253
g55
(g76
g57
NtRp4254
(dp4255
g60
(dp4256
g80
g81
ssg69
g4250
sg62
(lp4257
S'meta'
p4258
asbag55
(g76
g57
NtRp4259
(dp4260
g60
(dp4261
g87
g88
ssg69
g4250
sg62
(lp4262
S':'
asbag55
(g76
g57
NtRp4263
(dp4264
g60
(dp4265
sg69
g4250
sg62
(lp4266
g55
(g56
g57
NtRp4267
(dp4268
g60
(dp4269
g68
I5
ssg69
g4263
sg62
(lp4270
g55
(g64
g57
NtRp4271
(dp4272
g60
(dp4273
g68
I4
ssg69
Nsg62
(lp4274
sbasbasbasbag55
(g71
g57
NtRp4275
(dp4276
g60
(dp4277
sg69
g3805
sg62
(lp4278
g55
(g76
g57
NtRp4279
(dp4280
g60
(dp4281
g80
g81
ssg69
g4275
sg62
(lp4282
S'postprocessing'
p4283
asbag55
(g76
g57
NtRp4284
(dp4285
g60
(dp4286
g87
g88
ssg69
g4275
sg62
(lp4287
S':'
asbag55
(g76
g57
NtRp4288
(dp4289
g60
(dp4290
sg69
g4275
sg62
(lp4291
g55
(g56
g57
NtRp4292
(dp4293
g60
(dp4294
g68
I5
ssg69
g4288
sg62
(lp4295
g55
(g64
g57
NtRp4296
(dp4297
g60
(dp4298
g68
I4
ssg69
Nsg62
(lp4299
sbasbasbasbag55
(g71
g57
NtRp4300
(dp4301
g60
(dp4302
sg69
g3805
sg62
(lp4303
g55
(g76
g57
NtRp4304
(dp4305
g60
(dp4306
g80
g81
ssg69
g4300
sg62
(lp4307
S'session_file'
p4308
asbag55
(g76
g57
NtRp4309
(dp4310
g60
(dp4311
g87
g88
ssg69
g4300
sg62
(lp4312
S':'
asbag55
(g76
g57
NtRp4313
(dp4314
g60
(dp4315
sg69
g4300
sg62
(lp4316
g55
(g56
g57
NtRp4317
(dp4318
g60
(dp4319
g68
I5
ssg69
g4313
sg62
(lp4320
S"<open file '/Users/mdipierro/Dropbox/web2py/applications/inplace/sessions/127.0.0.1-b67af904-b8cf-469d-95b3-18285a004db1', mode 'rb+' at 0x109c968>"
p4321
asbasbasbag55
(g71
g57
NtRp4322
(dp4323
g60
(dp4324
sg69
g3805
sg62
(lp4325
g55
(g76
g57
NtRp4326
(dp4327
g60
(dp4328
g80
g81
ssg69
g4322
sg62
(lp4329
S'session_filename'
p4330
asbag55
(g76
g57
NtRp4331
(dp4332
g60
(dp4333
g87
g88
ssg69
g4322
sg62
(lp4334
S':'
asbag55
(g76
g57
NtRp4335
(dp4336
g60
(dp4337
sg69
g4322
sg62
(lp4338
g55
(g56
g57
NtRp4339
(dp4340
g60
(dp4341
g68
I5
ssg69
g4335
sg62
(lp4342
S'/Users/mdipierro/Dropbox/web2py/applications/inplace/sessions/127.0.0.1-b67af904-b8cf-469d-95b3-18285a004db1'
p4343
asbasbasbag55
(g71
g57
NtRp4344
(dp4345
g60
(dp4346
sg69
g3805
sg62
(lp4347
g55
(g76
g57
NtRp4348
(dp4349
g60
(dp4350
g80
g81
ssg69
g4344
sg62
(lp4351
S'session_id'
p4352
asbag55
(g76
g57
NtRp4353
(dp4354
g60
(dp4355
g87
g88
ssg69
g4344
sg62
(lp4356
S':'
asbag55
(g76
g57
NtRp4357
(dp4358
g60
(dp4359
sg69
g4344
sg62
(lp4360
g55
(g56
g57
NtRp4361
(dp4362
g60
(dp4363
g68
I5
ssg69
g4357
sg62
(lp4364
S'127.0.0.1-b67af904-b8cf-469d-95b3-18285a004db1'
p4365
asbasbasbag55
(g71
g57
NtRp4366
(dp4367
g60
(dp4368
sg69
g3805
sg62
(lp4369
g55
(g76
g57
NtRp4370
(dp4371
g60
(dp4372
g80
g81
ssg69
g4366
sg62
(lp4373
S'session_id_name'
p4374
asbag55
(g76
g57
NtRp4375
(dp4376
g60
(dp4377
g87
g88
ssg69
g4366
sg62
(lp4378
S':'
asbag55
(g76
g57
NtRp4379
(dp4380
g60
(dp4381
sg69
g4366
sg62
(lp4382
g55
(g56
g57
NtRp4383
(dp4384
g60
(dp4385
g68
I5
ssg69
g4379
sg62
(lp4386
g3862
asbasbasbag55
(g71
g57
NtRp4387
(dp4388
g60
(dp4389
sg69
g3805
sg62
(lp4390
g55
(g76
g57
NtRp4391
(dp4392
g60
(dp4393
g80
g81
ssg69
g4387
sg62
(lp4394
S'session_locked'
p4395
asbag55
(g76
g57
NtRp4396
(dp4397
g60
(dp4398
g87
g88
ssg69
g4387
sg62
(lp4399
S':'
asbag55
(g76
g57
NtRp4400
(dp4401
g60
(dp4402
sg69
g4387
sg62
(lp4403
g55
(g56
g57
NtRp4404
(dp4405
g60
(dp4406
g68
I5
ssg69
g4400
sg62
(lp4407
g2133
asbasbasbag55
(g71
g57
NtRp4408
(dp4409
g60
(dp4410
sg69
g3805
sg62
(lp4411
g55
(g76
g57
NtRp4412
(dp4413
g60
(dp4414
g80
g81
ssg69
g4408
sg62
(lp4415
S'session_new'
p4416
asbag55
(g76
g57
NtRp4417
(dp4418
g60
(dp4419
g87
g88
ssg69
g4408
sg62
(lp4420
S':'
asbag55
(g76
g57
NtRp4421
(dp4422
g60
(dp4423
sg69
g4408
sg62
(lp4424
g55
(g56
g57
NtRp4425
(dp4426
g60
(dp4427
g68
I5
ssg69
g4421
sg62
(lp4428
g98
asbasbasbag55
(g71
g57
NtRp4429
(dp4430
g60
(dp4431
sg69
g3805
sg62
(lp4432
g55
(g76
g57
NtRp4433
(dp4434
g60
(dp4435
g80
g81
ssg69
g4429
sg62
(lp4436
S'status'
p4437
asbag55
(g76
g57
NtRp4438
(dp4439
g60
(dp4440
g87
g88
ssg69
g4429
sg62
(lp4441
S':'
asbag55
(g76
g57
NtRp4442
(dp4443
g60
(dp4444
sg69
g4429
sg62
(lp4445
g55
(g56
g57
NtRp4446
(dp4447
g60
(dp4448
g68
I5
ssg69
g4442
sg62
(lp4449
S'200'
p4450
asbasbasbag55
(g71
g57
NtRp4451
(dp4452
g60
(dp4453
sg69
g3805
sg62
(lp4454
g55
(g76
g57
NtRp4455
(dp4456
g60
(dp4457
g80
g81
ssg69
g4451
sg62
(lp4458
S'subtitle'
p4459
asbag55
(g76
g57
NtRp4460
(dp4461
g60
(dp4462
g87
g88
ssg69
g4451
sg62
(lp4463
S':'
asbag55
(g76
g57
NtRp4464
(dp4465
g60
(dp4466
sg69
g4451
sg62
(lp4467
g55
(g56
g57
NtRp4468
(dp4469
g60
(dp4470
g68
I5
ssg69
g4464
sg62
(lp4471
S'experimental!'
p4472
asbasbasbag55
(g71
g57
NtRp4473
(dp4474
g60
(dp4475
sg69
g3805
sg62
(lp4476
g55
(g76
g57
NtRp4477
(dp4478
g60
(dp4479
g80
g81
ssg69
g4473
sg62
(lp4480
S'title'
p4481
asbag55
(g76
g57
NtRp4482
(dp4483
g60
(dp4484
g87
g88
ssg69
g4473
sg62
(lp4485
S':'
asbag55
(g76
g57
NtRp4486
(dp4487
g60
(dp4488
sg69
g4473
sg62
(lp4489
g55
(g56
g57
NtRp4490
(dp4491
g60
(dp4492
g68
I5
ssg69
g4486
sg62
(lp4493
S'Inplace Web Page Editor'
p4494
asbasbasbag55
(g71
g57
NtRp4495
(dp4496
g60
(dp4497
sg69
g3805
sg62
(lp4498
g55
(g76
g57
NtRp4499
(dp4500
g60
(dp4501
g80
g81
ssg69
g4495
sg62
(lp4502
g2819
asbag55
(g76
g57
NtRp4503
(dp4504
g60
(dp4505
g87
g88
ssg69
g4495
sg62
(lp4506
S':'
asbag55
(g76
g57
NtRp4507
(dp4508
g60
(dp4509
sg69
g4495
sg62
(lp4510
g55
(g56
g57
NtRp4511
(dp4512
g60
(dp4513
g68
I5
ssg69
g4507
sg62
(lp4514
g2832
asbasbasbag55
(g71
g57
NtRp4515
(dp4516
g60
(dp4517
sg69
g3805
sg62
(lp4518
g55
(g76
g57
NtRp4519
(dp4520
g60
(dp4521
g80
g81
ssg69
g4515
sg62
(lp4522
S'view'
p4523
asbag55
(g76
g57
NtRp4524
(dp4525
g60
(dp4526
g87
g88
ssg69
g4515
sg62
(lp4527
S':'
asbag55
(g76
g57
NtRp4528
(dp4529
g60
(dp4530
sg69
g4515
sg62
(lp4531
g55
(g56
g57
NtRp4532
(dp4533
g60
(dp4534
g68
I5
ssg69
g4528
sg62
(lp4535
S'default/edit.html'
p4536
asbasbasbasbasbsS'locals'
p4537
(dp4538
S'msg'
p4539
S"'getaddrinfo returns an empty list'"
p4540
sS'self'
p4541
S'<httplib.HTTPConnection instance at 0x1f90878>'
p4542
sssS'traceback'
p4543
S'Traceback (most recent call last):\n  File "/Users/mdipierro/Dropbox/web2py/gluon/restricted.py", line 204, in restricted\n    exec ccode in environment\n  File "/Users/mdipierro/Dropbox/web2py/applications/inplace/controllers/default.py", line 40, in <module>\n  File "/Users/mdipierro/Dropbox/web2py/gluon/globals.py", line 172, in <lambda>\n    self._caller = lambda f: f()\n  File "/Users/mdipierro/Dropbox/web2py/applications/inplace/controllers/default.py", line 22, in edit\n    html = urllib.urlopen(url).read()\n  File "/System/Library/Frameworks/Python.framework/Versions/2.5/lib/python2.5/urllib.py", line 82, in urlopen\n    return opener.open(url)\n  File "/System/Library/Frameworks/Python.framework/Versions/2.5/lib/python2.5/urllib.py", line 190, in open\n    return getattr(self, name)(url)\n  File "/System/Library/Frameworks/Python.framework/Versions/2.5/lib/python2.5/urllib.py", line 325, in open_http\n    h.endheaders()\n  File "/System/Library/Frameworks/Python.framework/Versions/2.5/lib/python2.5/httplib.py", line 860, in endheaders\n    self._send_output()\n  File "/System/Library/Frameworks/Python.framework/Versions/2.5/lib/python2.5/httplib.py", line 732, in _send_output\n    self.send(msg)\n  File "/System/Library/Frameworks/Python.framework/Versions/2.5/lib/python2.5/httplib.py", line 699, in send\n    self.connect()\n  File "/System/Library/Frameworks/Python.framework/Versions/2.5/lib/python2.5/httplib.py", line 667, in connect\n    socket.SOCK_STREAM):\nIOError: [Errno socket error] (8, \'nodename nor servname provided, or not known\')\n'
p4544
s.