(dp1
S'output'
p2
S"<type 'exceptions.SyntaxError'> invalid syntax (index.html, line 55)"
p3
sS'layer'
p4
S'/Users/mdipierro/Dropbox/web2py/applications/inplace/views/default/index.html'
p5
sS'code'
p6
S'response.write(\'<!DOCTYPE html>\\n<!-- paulirish.com/2008/conditional-stylesheets-vs-css-hacks-answer-neither/ -->\\n<!--[if lt IE 7]><html class="ie ie6 ie-lte9 ie-lte8 ie-lte7 no-js" lang="\', escape=False)\nresponse.write(T.accepted_language or \'en\')\nresponse.write(\'"> <![endif]-->\\n<!--[if IE 7]><html class="ie ie7 ie-lte9 ie-lte8 ie-lte7 no-js" lang="\', escape=False)\nresponse.write(T.accepted_language or \'en\')\nresponse.write(\'"> <![endif]-->\\n<!--[if IE 8]><html class="ie ie8 ie-lte9 ie-lte8 no-js" lang="\', escape=False)\nresponse.write(T.accepted_language or \'en\')\nresponse.write(\'"> <![endif]-->\\n<!--[if IE 9]><html class="ie9 ie-lte9 no-js" lang="\', escape=False)\nresponse.write(T.accepted_language or \'en\')\nresponse.write(\'"> <![endif]-->\\n<!--[if (gt IE 9)|!(IE)]><!--> <html class="no-js" lang="\', escape=False)\nresponse.write(T.accepted_language or \'en\')\nresponse.write(\'"> <!--<![endif]-->\\n<head>\\n  <meta charset="utf-8" />\\n  <!-- www.phpied.com/conditional-comments-block-downloads/ -->\\n  <!-- Always force latest IE rendering engine\\n\\t   (even in intranet) & Chrome Frame\\n\\t   Remove this if you use the .htaccess -->\\n  <!--[if IE]>\\n    <meta http-equiv="X-UA-Compatible" content="IE=edge\', escape=False)\nresponse.write(not request.is_local and \',chrome=1\' or \'\')\nresponse.write(\'">\\n  <![endif]-->\\n  \\n  <title>\', escape=False)\nresponse.write(response.title or request.application)\nresponse.write(\'</title>\\n  \\n  <!-- http://dev.w3.org/html5/markup/meta.name.html -->\\n  <meta name="application-name" content="\', escape=False)\nresponse.write(request.application)\nresponse.write(\'" />\\n  \\n  <!-- Speaking of Google, don\\\'t forget to set your site up:\\n\\t   http://google.com/webmasters -->\\n  <meta name="google-site-verification" content="" />\\n\\n  <!--  Mobile Viewport Fix\\n\\t  j.mp/mobileviewport & davidbcalhoun.com/2010/viewport-metatag\\n\\t  device-width: Occupy full width of the screen in its current orientation\\n\\t  initial-scale = 1.0 retains dimensions instead of zooming out if page height > device height\\n\\t  user-scalable = yes allows the user to zoom in -->\\n  <meta name="viewport" content="width=device-width, initial-scale=1.0, user-scalable=yes">\\n  \\n  <!-- Place favicon.ico and apple-touch-icon.png in the root of your domain and delete these references -->\\n  <link rel="shortcut icon" href="\', escape=False)\nresponse.write(URL(\'static\',\'favicon.ico\'))\nresponse.write(\'" type="image/x-icon">\\n  <link rel="apple-touch-icon" href="\', escape=False)\nresponse.write(URL(\'static\',\'favicon.png\'))\nresponse.write(\'">\\n\\n  <!-- All JavaScript at the bottom, except for Modernizr which enables \\n\\t   HTML5 elements & feature detects -->\\n  <script src="\', escape=False)\nresponse.write(URL(\'static\',\'js/modernizr.custom.js\'))\nresponse.write(\'"></script>  \\n\\n  <!-- include stylesheets -->\\n  \', escape=False)\nresponse.files.append(URL(\'static\',\'css/skeleton.css\'))\nresponse.files.append(URL(\'static\',\'css/web2py.css\'))\nresponse.files.append(URL(\'static\',\'css/superfish.css\'))\nresponse.files.append(URL(\'static\',\'js/superfish.js\'))\nresponse.write(\'\\n\\n  \', escape=False)\nresponse.write(\'<script type="text/javascript"><!--\\n    // These variables are used by the web2py_ajax_init function in web2py_ajax.js (which is loaded below).\\n    var w2p_ajax_confirm_message = "\', escape=False)\nresponse.write(T(\'Are you sure you want to delete this object?\'))\nresponse.write(\'";\\n    var w2p_ajax_date_format = "\', escape=False)\nresponse.write(T(\'%Y-%m-%d\'))\nresponse.write(\'";\\n    var w2p_ajax_datetime_format = "\', escape=False)\nresponse.write(T(\'%Y-%m-%d %H:%M:%S\'))\nresponse.write(\'";\\n    //--></script>\\n\', escape=False)\nresponse.files.insert(0,URL(\'static\',\'js/jquery.js\'))\nresponse.files.insert(1,URL(\'static\',\'css/calendar.css\'))\nresponse.files.insert(2,URL(\'static\',\'js/calendar.js\'))\nresponse.files.insert(3,URL(\'static\',\'js/web2py.js\'))\nresponse.include_meta()\nresponse.include_files()\nresponse.write(\'\\n\', escape=False)\nresponse.write(\'\\n\\n  <script type="text/javascript">\\n    jQuery(function(){ jQuery(\\\'ul.sf-menu\\\').supersubs({minWidth:12,maxWidth:30,extraWidth:3}).superfish(); });\\n  </script>\\n\\n  \', escape=False)\n# using sidebars need to know what sidebar you want to use\nleft_sidebar_enabled = globals().get(\'left_sidebar_enabled\',False)\nright_sidebar_enabled = globals().get(\'right_sidebar_enabled\',False)\nmiddle_columns = {0:\'sixteen\',1:\'twelve\',2:\'eight\'}[\n(left_sidebar_enabled and 1 or 0)+(right_sidebar_enabled and 1 or 0)]\nresponse.write(\'\\n\\n  <!-- uncomment here to load jquery-ui\\n  <link rel="stylesheet" href="http://ajax.googleapis.com/ajax/libs/jqueryui/1.8.16/themes/base/jquery-ui.css" type="text/css" media="all" />\\n  <script src="http://ajax.googleapis.com/ajax/libs/jqueryui/1.8.16/jquery-ui.min.js" type="text/javascript"></script>\\n  uncomment to load jquery-ui //-->\\n</head>\\n<body>\\n\\n\\n  <div class="wrapper"><!-- for sticky footer -->\\n\\n    <div class="topbar">\\n      <div class="container">\\n        <div class="sixteen columns">\\n          <div id="navbar">\', escape=False)\nresponse.write(\'auth\' in globals() and auth.navbar(separators=(\' \',\' | \',\'\')))\nresponse.write(\'</div>\\n          \', escape=False)\nis_mobile=request.user_agent().is_mobile\nresponse.write(\'\\n          <div id="menu">\', escape=False)\nresponse.write(MENU(response.menu, _class=\'mobile-menu\' if is_mobile else \'sf-menu\',mob\\\nile=is_mobile))\nresponse.write(\'\\n          </div>\\n        </div>\\n      </div>\\n    </div><!-- topbar -->\\n  \\n    <div class="flash">\', escape=False)\nresponse.write(response.flash or \'\')\nresponse.write(\'</div>\\n    \\n    <div class="header">\\n      <div class="container">         \\n        <div class="sixteen columns">\\n          <h1 class="remove-bottom" style="margin-top: .5em;">\\n          \', escape=False)\nresponse.write(response.title or request.application)\nresponse.write(\'\\n          </h1>\\n          <h5>\', escape=False)\nresponse.write(response.subtitle or \'\')\nresponse.write(\'</h5>\\n        </div>\\n      </div>\\n    </div>\\n\\n    <div class="main">\\n      <div class="container">                 \\n        \', escape=False)\nif left_sidebar_enabled:\n    response.write(\'\\n        <div class="four columns left-sidebar">\\n          \', escape=False)\n    response.write(\'\\n          <h3>Left Sidebar</h3>\\n          <p></p>\\n          \', escape=False)\n    response.write(\'\\n        </div>\\n        \', escape=False)\n    pass\nresponse.write(\'\\n        \\n        <div class="\', escape=False)\nresponse.write(middle_columns)\nresponse.write(\' columns center">\\n          \', escape=False)\nresponse.write(\'\\n          \', escape=False)\nresponse.write(\'\\n\\n<h4>1. Insert the URL of a web page that you want to edit</h4>\\n<h4>2. In the next page double click on text to edit, then [next] on topbar when done</h4>\\n\\n\', escape=False)\nresponse.write(form)\nresponse.write(\'\\n\\n<h4>Pages you created</h4>\\n\\n<table>\\n  \', escape=False)\nfor clone in clones:\n    response.write(\'\\n  <tr>\\n    <td>\\n      \', escape=False)\n    response.write(clone.url)\n    response.write(\'\\n    </td>\\n    <td>&gt;</td>\\n    <td>\\n      \', escape=False)\n    url = URL(\'page\',args=clone.id,scheme=True,host=True)\n    response.write(\'\\n      \', escape=False)\n    response.write(A(url,_href=url))\n    response.write(\'\\n    </td>\\n    <td>&gt;</td>\\n    <td>\\n      [\', escape=False)\n    response.write(A(\'delete\',_href=URL(\'delete\',args=clone.id)))\n    response.write(\']\\n      [\', escape=False)\n    response.write(A(\'clone\',_href=URL(\'edit\',vars=dict(url=url))))\n    response.write(\']\\n    </td>\\n  </tr>\\n  \', escape=False)\n    pass\nresponse.write(\'\\n</table>\\n\', escape=False)\nresponse.write(\'\\n          \', escape=False)\nresponse.write(\'\\n        </div>\\n        \\n        \', escape=False)\nif right_sidebar_enabled:\n    response.write(\'\\n        <div class="four columns">\\n          \', escape=False)\n    response.write(\'\\n          <h3>Right Sidebar</h3>\\n          <p></p>\\n          \', escape=False)\n    response.write(\'\\n        </div>    \\n        \', escape=False)\n    pass\nresponse.write(\'\\n        \\n      </div><!-- container -->\\n    </div><!-- main -->\\n    \\n    <div class="push"></div>\\n  </div><!-- wrapper -->\\n\\n  <div class="footer">\\n    <div class="container">    \\n      <div class="sixteen columns">\\n        \', escape=False)\nresponse.write(\' <!-- this is default footer -->\\n        <div class="footer-content clearfix">\\n          <div class="copyright">\', escape=False)\nresponse.write(T(\'Copyright\'))\nresponse.write(\' &#169; 2011</div>\\n          <div style="float: right;">\\n            <a href="http://www.web2py.com/">\\n            <img style="padding-bottom: 0;" src="\', escape=False)\nresponse.write(URL(\'static\',\'images/poweredby.png\'))\nresponse.write(\'"/>\\n            </a>\\n          </div>\\n        </div>\\n        \', escape=False)\nresponse.write(\'\\t\\n      </div>\\n    </div><!-- container -->\\n  </div><!-- footer -->\\n  \\n  <!--[if lt IE 7 ]>\\n\\t<script src="\', escape=False)\nresponse.write(URL(\'static\',\'js/dd_belatedpng.js\'))\nresponse.write(\'"></script>\\n\\t<script> DD_belatedPNG.fix(\\\'img, .png_bg\\\'); //fix any <img> or .png_bg background-images </script>\\n\\t<![endif]-->\\n  \', escape=False)\nif response.google_analytics_id:\n    response.write(\'<script type="text/javascript"> var _gaq = _gaq || []; _gaq.push([\\\'_setAccount\\\', \\\'\', escape=False)\n    response.write(response.google_analytics_id)\n    response.write("\']); _gaq.push([\'_trackPageview\']); (function() { var ga = document.createElement(\'script\'); ga.type = \'text/javascript\'; ga.async = true; ga.src = (\'https:\' == document.location.protocol ? \'https://ssl\' : \'http://www\') + \'.google-analytics.com/ga.js\'; var s = document.getElementsByTagName(\'script\')[0]; s.parentNode.insertBefore(ga, s); })(); </script> ", escape=False)\n    pass\nresponse.write(\'\\n</body>\\n</html>\\n\', escape=False)'
p7
sS'snapshot'
p8
(dp9
S'exception'
p10
(dp11
S'__getslice__'
p12
S"<method-wrapper '__getslice__' of exceptions.SyntaxError object at 0x1ed7a30>"
p13
sS'text'
p14
S"'ile=is_mobile))\\n'"
p15
sS'__str__'
p16
S"<method-wrapper '__str__' of exceptions.SyntaxError object at 0x1ed7a30>"
p17
sS'__reduce__'
p18
S'<built-in method __reduce__ of exceptions.SyntaxError object at 0x1ed7a30>'
p19
sS'__dict__'
p20
S'{}'
p21
sS'__init__'
p22
S"<method-wrapper '__init__' of exceptions.SyntaxError object at 0x1ed7a30>"
p23
sS'__setattr__'
p24
S"<method-wrapper '__setattr__' of exceptions.SyntaxError object at 0x1ed7a30>"
p25
sS'__reduce_ex__'
p26
S'<built-in method __reduce_ex__ of exceptions.SyntaxError object at 0x1ed7a30>'
p27
sS'__new__'
p28
S'<built-in method __new__ of type object at 0xdc200>'
p29
sS'__class__'
p30
S"<type 'exceptions.SyntaxError'>"
p31
sS'filename'
p32
S"'/Users/mdipierro/Dropbox/web2py/applications/inplace/views/default/index.html'"
p33
sS'lineno'
p34
S'55'
p35
sS'msg'
p36
S"'invalid syntax'"
p37
sS'__doc__'
p38
S"'Invalid syntax.'"
p39
sS'__getitem__'
p40
S"<method-wrapper '__getitem__' of exceptions.SyntaxError object at 0x1ed7a30>"
p41
sS'__setstate__'
p42
S'<built-in method __setstate__ of exceptions.SyntaxError object at 0x1ed7a30>'
p43
sS'__getattribute__'
p44
S"<method-wrapper '__getattribute__' of exceptions.SyntaxError object at 0x1ed7a30>"
p45
sS'print_file_and_line'
p46
S'None'
p47
sS'args'
p48
S"('invalid syntax', ('/Users/mdipierro/Dropbox/web2py/applications/inplace/views/default/index.html', 55, 3, 'ile=is_mobile))\\n'))"
p49
sS'offset'
p50
S'3'
sS'__delattr__'
p51
S"<method-wrapper '__delattr__' of exceptions.SyntaxError object at 0x1ed7a30>"
p52
sS'__repr__'
p53
S"<method-wrapper '__repr__' of exceptions.SyntaxError object at 0x1ed7a30>"
p54
sS'__hash__'
p55
S"<method-wrapper '__hash__' of exceptions.SyntaxError object at 0x1ed7a30>"
p56
ssS'evalue'
p57
S'invalid syntax (index.html, line 55)'
p58
sS'request'
p59
ccopy_reg
_reconstructor
p60
(cgluon.html
BEAUTIFY
p61
c__builtin__
object
p62
NtRp63
(dp64
S'attributes'
p65
(dp66
sS'components'
p67
(lp68
g60
(cgluon.html
TABLE
p69
g62
NtRp70
(dp71
g65
(dp72
S'level'
p73
I5
ssS'parent'
p74
Nsg67
(lp75
g60
(cgluon.html
TR
p76
g62
NtRp77
(dp78
g65
(dp79
sg74
g70
sg67
(lp80
g60
(cgluon.html
TD
p81
g62
NtRp82
(dp83
g65
(dp84
S'_style'
p85
S'font-weight:bold;vertical-align:top'
p86
ssg74
g77
sg67
(lp87
S'ajax'
p88
asbag60
(g81
g62
NtRp89
(dp90
g65
(dp91
S'_valign'
p92
S'top'
p93
ssg74
g77
sg67
(lp94
S':'
asbag60
(g81
g62
NtRp95
(dp96
g65
(dp97
sg74
g77
sg67
(lp98
g60
(g61
g62
NtRp99
(dp100
g65
(dp101
g73
I5
ssg74
g95
sg67
(lp102
S'False'
p103
asbasbasbag60
(g76
g62
NtRp104
(dp105
g65
(dp106
sg74
g70
sg67
(lp107
g60
(g81
g62
NtRp108
(dp109
g65
(dp110
g85
g86
ssg74
g104
sg67
(lp111
S'application'
p112
asbag60
(g81
g62
NtRp113
(dp114
g65
(dp115
g92
g93
ssg74
g104
sg67
(lp116
S':'
asbag60
(g81
g62
NtRp117
(dp118
g65
(dp119
sg74
g104
sg67
(lp120
g60
(g61
g62
NtRp121
(dp122
g65
(dp123
g73
I5
ssg74
g117
sg67
(lp124
S'inplace'
p125
asbasbasbag60
(g76
g62
NtRp126
(dp127
g65
(dp128
sg74
g70
sg67
(lp129
g60
(g81
g62
NtRp130
(dp131
g65
(dp132
g85
g86
ssg74
g126
sg67
(lp133
g48
asbag60
(g81
g62
NtRp134
(dp135
g65
(dp136
g92
g93
ssg74
g126
sg67
(lp137
S':'
asbag60
(g81
g62
NtRp138
(dp139
g65
(dp140
sg74
g126
sg67
(lp141
g60
(g61
g62
NtRp142
(dp143
g65
(dp144
g73
I5
ssg74
g138
sg67
(lp145
g60
(g69
g62
NtRp146
(dp147
g65
(dp148
g73
I4
ssg74
Nsg67
(lp149
sbasbasbasbag60
(g76
g62
NtRp150
(dp151
g65
(dp152
sg74
g70
sg67
(lp153
g60
(g81
g62
NtRp154
(dp155
g65
(dp156
g85
g86
ssg74
g150
sg67
(lp157
S'body'
p158
asbag60
(g81
g62
NtRp159
(dp160
g65
(dp161
g92
g93
ssg74
g150
sg67
(lp162
S':'
asbag60
(g81
g62
NtRp163
(dp164
g65
(dp165
sg74
g150
sg67
(lp166
g60
(g61
g62
NtRp167
(dp168
g65
(dp169
g73
I5
ssg74
g163
sg67
(lp170
S'<cStringIO.StringO object at 0x1e6d4a0>'
p171
asbasbasbag60
(g76
g62
NtRp172
(dp173
g65
(dp174
sg74
g70
sg67
(lp175
g60
(g81
g62
NtRp176
(dp177
g65
(dp178
g85
g86
ssg74
g172
sg67
(lp179
S'client'
p180
asbag60
(g81
g62
NtRp181
(dp182
g65
(dp183
g92
g93
ssg74
g172
sg67
(lp184
S':'
asbag60
(g81
g62
NtRp185
(dp186
g65
(dp187
sg74
g172
sg67
(lp188
g60
(g61
g62
NtRp189
(dp190
g65
(dp191
g73
I5
ssg74
g185
sg67
(lp192
S'127.0.0.1'
p193
asbasbasbag60
(g76
g62
NtRp194
(dp195
g65
(dp196
sg74
g70
sg67
(lp197
g60
(g81
g62
NtRp198
(dp199
g65
(dp200
g85
g86
ssg74
g194
sg67
(lp201
S'controller'
p202
asbag60
(g81
g62
NtRp203
(dp204
g65
(dp205
g92
g93
ssg74
g194
sg67
(lp206
S':'
asbag60
(g81
g62
NtRp207
(dp208
g65
(dp209
sg74
g194
sg67
(lp210
g60
(g61
g62
NtRp211
(dp212
g65
(dp213
g73
I5
ssg74
g207
sg67
(lp214
S'default'
p215
asbasbasbag60
(g76
g62
NtRp216
(dp217
g65
(dp218
sg74
g70
sg67
(lp219
g60
(g81
g62
NtRp220
(dp221
g65
(dp222
g85
g86
ssg74
g216
sg67
(lp223
S'cookies'
p224
asbag60
(g81
g62
NtRp225
(dp226
g65
(dp227
g92
g93
ssg74
g216
sg67
(lp228
S':'
asbag60
(g81
g62
NtRp229
(dp230
g65
(dp231
sg74
g216
sg67
(lp232
g60
(g61
g62
NtRp233
(dp234
g65
(dp235
g73
I5
ssg74
g229
sg67
(lp236
g60
(g69
g62
NtRp237
(dp238
g65
(dp239
g73
I4
ssg74
Nsg67
(lp240
g60
(g76
g62
NtRp241
(dp242
g65
(dp243
sg74
g237
sg67
(lp244
g60
(g81
g62
NtRp245
(dp246
g65
(dp247
g85
g86
ssg74
g241
sg67
(lp248
S'el-finder-last-finder'
p249
asbag60
(g81
g62
NtRp250
(dp251
g65
(dp252
g92
g93
ssg74
g241
sg67
(lp253
S':'
asbag60
(g81
g62
NtRp254
(dp255
g65
(dp256
sg74
g241
sg67
(lp257
g60
(g61
g62
NtRp258
(dp259
g65
(dp260
g73
I4
ssg74
g254
sg67
(lp261
g60
(g69
g62
NtRp262
(dp263
g65
(dp264
g73
I3
ssg74
Nsg67
(lp265
g60
(g76
g62
NtRp266
(dp267
g65
(dp268
sg74
g262
sg67
(lp269
g60
(g81
g62
NtRp270
(dp271
g65
(dp272
g85
g86
ssg74
g266
sg67
(lp273
S'comment'
p274
asbag60
(g81
g62
NtRp275
(dp276
g65
(dp277
g92
g93
ssg74
g266
sg67
(lp278
S':'
asbag60
(g81
g62
NtRp279
(dp280
g65
(dp281
sg74
g266
sg67
(lp282
g60
(g61
g62
NtRp283
(dp284
g65
(dp285
g73
I3
ssg74
g279
sg67
(lp286
S''
asbasbasbag60
(g76
g62
NtRp287
(dp288
g65
(dp289
sg74
g262
sg67
(lp290
g60
(g81
g62
NtRp291
(dp292
g65
(dp293
g85
g86
ssg74
g287
sg67
(lp294
S'domain'
p295
asbag60
(g81
g62
NtRp296
(dp297
g65
(dp298
g92
g93
ssg74
g287
sg67
(lp299
S':'
asbag60
(g81
g62
NtRp300
(dp301
g65
(dp302
sg74
g287
sg67
(lp303
g60
(g61
g62
NtRp304
(dp305
g65
(dp306
g73
I3
ssg74
g300
sg67
(lp307
S''
asbasbasbag60
(g76
g62
NtRp308
(dp309
g65
(dp310
sg74
g262
sg67
(lp311
g60
(g81
g62
NtRp312
(dp313
g65
(dp314
g85
g86
ssg74
g308
sg67
(lp315
S'expires'
p316
asbag60
(g81
g62
NtRp317
(dp318
g65
(dp319
g92
g93
ssg74
g308
sg67
(lp320
S':'
asbag60
(g81
g62
NtRp321
(dp322
g65
(dp323
sg74
g308
sg67
(lp324
g60
(g61
g62
NtRp325
(dp326
g65
(dp327
g73
I3
ssg74
g321
sg67
(lp328
S''
asbasbasbag60
(g76
g62
NtRp329
(dp330
g65
(dp331
sg74
g262
sg67
(lp332
g60
(g81
g62
NtRp333
(dp334
g65
(dp335
g85
g86
ssg74
g329
sg67
(lp336
S'max-age'
p337
asbag60
(g81
g62
NtRp338
(dp339
g65
(dp340
g92
g93
ssg74
g329
sg67
(lp341
S':'
asbag60
(g81
g62
NtRp342
(dp343
g65
(dp344
sg74
g329
sg67
(lp345
g60
(g61
g62
NtRp346
(dp347
g65
(dp348
g73
I3
ssg74
g342
sg67
(lp349
S''
asbasbasbag60
(g76
g62
NtRp350
(dp351
g65
(dp352
sg74
g262
sg67
(lp353
g60
(g81
g62
NtRp354
(dp355
g65
(dp356
g85
g86
ssg74
g350
sg67
(lp357
S'path'
p358
asbag60
(g81
g62
NtRp359
(dp360
g65
(dp361
g92
g93
ssg74
g350
sg67
(lp362
S':'
asbag60
(g81
g62
NtRp363
(dp364
g65
(dp365
sg74
g350
sg67
(lp366
g60
(g61
g62
NtRp367
(dp368
g65
(dp369
g73
I3
ssg74
g363
sg67
(lp370
S''
asbasbasbag60
(g76
g62
NtRp371
(dp372
g65
(dp373
sg74
g262
sg67
(lp374
g60
(g81
g62
NtRp375
(dp376
g65
(dp377
g85
g86
ssg74
g371
sg67
(lp378
S'secure'
p379
asbag60
(g81
g62
NtRp380
(dp381
g65
(dp382
g92
g93
ssg74
g371
sg67
(lp383
S':'
asbag60
(g81
g62
NtRp384
(dp385
g65
(dp386
sg74
g371
sg67
(lp387
g60
(g61
g62
NtRp388
(dp389
g65
(dp390
g73
I3
ssg74
g384
sg67
(lp391
S''
asbasbasbag60
(g76
g62
NtRp392
(dp393
g65
(dp394
sg74
g262
sg67
(lp395
g60
(g81
g62
NtRp396
(dp397
g65
(dp398
g85
g86
ssg74
g392
sg67
(lp399
S'version'
p400
asbag60
(g81
g62
NtRp401
(dp402
g65
(dp403
g92
g93
ssg74
g392
sg67
(lp404
S':'
asbag60
(g81
g62
NtRp405
(dp406
g65
(dp407
sg74
g392
sg67
(lp408
g60
(g61
g62
NtRp409
(dp410
g65
(dp411
g73
I3
ssg74
g405
sg67
(lp412
S''
asbasbasbasbasbasbasbag60
(g76
g62
NtRp413
(dp414
g65
(dp415
sg74
g237
sg67
(lp416
g60
(g81
g62
NtRp417
(dp418
g65
(dp419
g85
g86
ssg74
g413
sg67
(lp420
S'registered'
p421
asbag60
(g81
g62
NtRp422
(dp423
g65
(dp424
g92
g93
ssg74
g413
sg67
(lp425
S':'
asbag60
(g81
g62
NtRp426
(dp427
g65
(dp428
sg74
g413
sg67
(lp429
g60
(g61
g62
NtRp430
(dp431
g65
(dp432
g73
I4
ssg74
g426
sg67
(lp433
g60
(g69
g62
NtRp434
(dp435
g65
(dp436
g73
I3
ssg74
Nsg67
(lp437
g60
(g76
g62
NtRp438
(dp439
g65
(dp440
sg74
g434
sg67
(lp441
g60
(g81
g62
NtRp442
(dp443
g65
(dp444
g85
g86
ssg74
g438
sg67
(lp445
g274
asbag60
(g81
g62
NtRp446
(dp447
g65
(dp448
g92
g93
ssg74
g438
sg67
(lp449
S':'
asbag60
(g81
g62
NtRp450
(dp451
g65
(dp452
sg74
g438
sg67
(lp453
g60
(g61
g62
NtRp454
(dp455
g65
(dp456
g73
I3
ssg74
g450
sg67
(lp457
S''
asbasbasbag60
(g76
g62
NtRp458
(dp459
g65
(dp460
sg74
g434
sg67
(lp461
g60
(g81
g62
NtRp462
(dp463
g65
(dp464
g85
g86
ssg74
g458
sg67
(lp465
g295
asbag60
(g81
g62
NtRp466
(dp467
g65
(dp468
g92
g93
ssg74
g458
sg67
(lp469
S':'
asbag60
(g81
g62
NtRp470
(dp471
g65
(dp472
sg74
g458
sg67
(lp473
g60
(g61
g62
NtRp474
(dp475
g65
(dp476
g73
I3
ssg74
g470
sg67
(lp477
S''
asbasbasbag60
(g76
g62
NtRp478
(dp479
g65
(dp480
sg74
g434
sg67
(lp481
g60
(g81
g62
NtRp482
(dp483
g65
(dp484
g85
g86
ssg74
g478
sg67
(lp485
g316
asbag60
(g81
g62
NtRp486
(dp487
g65
(dp488
g92
g93
ssg74
g478
sg67
(lp489
S':'
asbag60
(g81
g62
NtRp490
(dp491
g65
(dp492
sg74
g478
sg67
(lp493
g60
(g61
g62
NtRp494
(dp495
g65
(dp496
g73
I3
ssg74
g490
sg67
(lp497
S''
asbasbasbag60
(g76
g62
NtRp498
(dp499
g65
(dp500
sg74
g434
sg67
(lp501
g60
(g81
g62
NtRp502
(dp503
g65
(dp504
g85
g86
ssg74
g498
sg67
(lp505
g337
asbag60
(g81
g62
NtRp506
(dp507
g65
(dp508
g92
g93
ssg74
g498
sg67
(lp509
S':'
asbag60
(g81
g62
NtRp510
(dp511
g65
(dp512
sg74
g498
sg67
(lp513
g60
(g61
g62
NtRp514
(dp515
g65
(dp516
g73
I3
ssg74
g510
sg67
(lp517
S''
asbasbasbag60
(g76
g62
NtRp518
(dp519
g65
(dp520
sg74
g434
sg67
(lp521
g60
(g81
g62
NtRp522
(dp523
g65
(dp524
g85
g86
ssg74
g518
sg67
(lp525
g358
asbag60
(g81
g62
NtRp526
(dp527
g65
(dp528
g92
g93
ssg74
g518
sg67
(lp529
S':'
asbag60
(g81
g62
NtRp530
(dp531
g65
(dp532
sg74
g518
sg67
(lp533
g60
(g61
g62
NtRp534
(dp535
g65
(dp536
g73
I3
ssg74
g530
sg67
(lp537
S''
asbasbasbag60
(g76
g62
NtRp538
(dp539
g65
(dp540
sg74
g434
sg67
(lp541
g60
(g81
g62
NtRp542
(dp543
g65
(dp544
g85
g86
ssg74
g538
sg67
(lp545
g379
asbag60
(g81
g62
NtRp546
(dp547
g65
(dp548
g92
g93
ssg74
g538
sg67
(lp549
S':'
asbag60
(g81
g62
NtRp550
(dp551
g65
(dp552
sg74
g538
sg67
(lp553
g60
(g61
g62
NtRp554
(dp555
g65
(dp556
g73
I3
ssg74
g550
sg67
(lp557
S''
asbasbasbag60
(g76
g62
NtRp558
(dp559
g65
(dp560
sg74
g434
sg67
(lp561
g60
(g81
g62
NtRp562
(dp563
g65
(dp564
g85
g86
ssg74
g558
sg67
(lp565
g400
asbag60
(g81
g62
NtRp566
(dp567
g65
(dp568
g92
g93
ssg74
g558
sg67
(lp569
S':'
asbag60
(g81
g62
NtRp570
(dp571
g65
(dp572
sg74
g558
sg67
(lp573
g60
(g61
g62
NtRp574
(dp575
g65
(dp576
g73
I3
ssg74
g570
sg67
(lp577
S''
asbasbasbasbasbasbasbag60
(g76
g62
NtRp578
(dp579
g65
(dp580
sg74
g237
sg67
(lp581
g60
(g81
g62
NtRp582
(dp583
g65
(dp584
g85
g86
ssg74
g578
sg67
(lp585
S's_nr'
p586
asbag60
(g81
g62
NtRp587
(dp588
g65
(dp589
g92
g93
ssg74
g578
sg67
(lp590
S':'
asbag60
(g81
g62
NtRp591
(dp592
g65
(dp593
sg74
g578
sg67
(lp594
g60
(g61
g62
NtRp595
(dp596
g65
(dp597
g73
I4
ssg74
g591
sg67
(lp598
g60
(g69
g62
NtRp599
(dp600
g65
(dp601
g73
I3
ssg74
Nsg67
(lp602
g60
(g76
g62
NtRp603
(dp604
g65
(dp605
sg74
g599
sg67
(lp606
g60
(g81
g62
NtRp607
(dp608
g65
(dp609
g85
g86
ssg74
g603
sg67
(lp610
g274
asbag60
(g81
g62
NtRp611
(dp612
g65
(dp613
g92
g93
ssg74
g603
sg67
(lp614
S':'
asbag60
(g81
g62
NtRp615
(dp616
g65
(dp617
sg74
g603
sg67
(lp618
g60
(g61
g62
NtRp619
(dp620
g65
(dp621
g73
I3
ssg74
g615
sg67
(lp622
S''
asbasbasbag60
(g76
g62
NtRp623
(dp624
g65
(dp625
sg74
g599
sg67
(lp626
g60
(g81
g62
NtRp627
(dp628
g65
(dp629
g85
g86
ssg74
g623
sg67
(lp630
g295
asbag60
(g81
g62
NtRp631
(dp632
g65
(dp633
g92
g93
ssg74
g623
sg67
(lp634
S':'
asbag60
(g81
g62
NtRp635
(dp636
g65
(dp637
sg74
g623
sg67
(lp638
g60
(g61
g62
NtRp639
(dp640
g65
(dp641
g73
I3
ssg74
g635
sg67
(lp642
S''
asbasbasbag60
(g76
g62
NtRp643
(dp644
g65
(dp645
sg74
g599
sg67
(lp646
g60
(g81
g62
NtRp647
(dp648
g65
(dp649
g85
g86
ssg74
g643
sg67
(lp650
g316
asbag60
(g81
g62
NtRp651
(dp652
g65
(dp653
g92
g93
ssg74
g643
sg67
(lp654
S':'
asbag60
(g81
g62
NtRp655
(dp656
g65
(dp657
sg74
g643
sg67
(lp658
g60
(g61
g62
NtRp659
(dp660
g65
(dp661
g73
I3
ssg74
g655
sg67
(lp662
S''
asbasbasbag60
(g76
g62
NtRp663
(dp664
g65
(dp665
sg74
g599
sg67
(lp666
g60
(g81
g62
NtRp667
(dp668
g65
(dp669
g85
g86
ssg74
g663
sg67
(lp670
g337
asbag60
(g81
g62
NtRp671
(dp672
g65
(dp673
g92
g93
ssg74
g663
sg67
(lp674
S':'
asbag60
(g81
g62
NtRp675
(dp676
g65
(dp677
sg74
g663
sg67
(lp678
g60
(g61
g62
NtRp679
(dp680
g65
(dp681
g73
I3
ssg74
g675
sg67
(lp682
S''
asbasbasbag60
(g76
g62
NtRp683
(dp684
g65
(dp685
sg74
g599
sg67
(lp686
g60
(g81
g62
NtRp687
(dp688
g65
(dp689
g85
g86
ssg74
g683
sg67
(lp690
g358
asbag60
(g81
g62
NtRp691
(dp692
g65
(dp693
g92
g93
ssg74
g683
sg67
(lp694
S':'
asbag60
(g81
g62
NtRp695
(dp696
g65
(dp697
sg74
g683
sg67
(lp698
g60
(g61
g62
NtRp699
(dp700
g65
(dp701
g73
I3
ssg74
g695
sg67
(lp702
S''
asbasbasbag60
(g76
g62
NtRp703
(dp704
g65
(dp705
sg74
g599
sg67
(lp706
g60
(g81
g62
NtRp707
(dp708
g65
(dp709
g85
g86
ssg74
g703
sg67
(lp710
g379
asbag60
(g81
g62
NtRp711
(dp712
g65
(dp713
g92
g93
ssg74
g703
sg67
(lp714
S':'
asbag60
(g81
g62
NtRp715
(dp716
g65
(dp717
sg74
g703
sg67
(lp718
g60
(g61
g62
NtRp719
(dp720
g65
(dp721
g73
I3
ssg74
g715
sg67
(lp722
S''
asbasbasbag60
(g76
g62
NtRp723
(dp724
g65
(dp725
sg74
g599
sg67
(lp726
g60
(g81
g62
NtRp727
(dp728
g65
(dp729
g85
g86
ssg74
g723
sg67
(lp730
g400
asbag60
(g81
g62
NtRp731
(dp732
g65
(dp733
g92
g93
ssg74
g723
sg67
(lp734
S':'
asbag60
(g81
g62
NtRp735
(dp736
g65
(dp737
sg74
g723
sg67
(lp738
g60
(g61
g62
NtRp739
(dp740
g65
(dp741
g73
I3
ssg74
g735
sg67
(lp742
S''
asbasbasbasbasbasbasbag60
(g76
g62
NtRp743
(dp744
g65
(dp745
sg74
g237
sg67
(lp746
g60
(g81
g62
NtRp747
(dp748
g65
(dp749
g85
g86
ssg74
g743
sg67
(lp750
S'session_id_admin'
p751
asbag60
(g81
g62
NtRp752
(dp753
g65
(dp754
g92
g93
ssg74
g743
sg67
(lp755
S':'
asbag60
(g81
g62
NtRp756
(dp757
g65
(dp758
sg74
g743
sg67
(lp759
g60
(g61
g62
NtRp760
(dp761
g65
(dp762
g73
I4
ssg74
g756
sg67
(lp763
g60
(g69
g62
NtRp764
(dp765
g65
(dp766
g73
I3
ssg74
Nsg67
(lp767
g60
(g76
g62
NtRp768
(dp769
g65
(dp770
sg74
g764
sg67
(lp771
g60
(g81
g62
NtRp772
(dp773
g65
(dp774
g85
g86
ssg74
g768
sg67
(lp775
g274
asbag60
(g81
g62
NtRp776
(dp777
g65
(dp778
g92
g93
ssg74
g768
sg67
(lp779
S':'
asbag60
(g81
g62
NtRp780
(dp781
g65
(dp782
sg74
g768
sg67
(lp783
g60
(g61
g62
NtRp784
(dp785
g65
(dp786
g73
I3
ssg74
g780
sg67
(lp787
S''
asbasbasbag60
(g76
g62
NtRp788
(dp789
g65
(dp790
sg74
g764
sg67
(lp791
g60
(g81
g62
NtRp792
(dp793
g65
(dp794
g85
g86
ssg74
g788
sg67
(lp795
g295
asbag60
(g81
g62
NtRp796
(dp797
g65
(dp798
g92
g93
ssg74
g788
sg67
(lp799
S':'
asbag60
(g81
g62
NtRp800
(dp801
g65
(dp802
sg74
g788
sg67
(lp803
g60
(g61
g62
NtRp804
(dp805
g65
(dp806
g73
I3
ssg74
g800
sg67
(lp807
S''
asbasbasbag60
(g76
g62
NtRp808
(dp809
g65
(dp810
sg74
g764
sg67
(lp811
g60
(g81
g62
NtRp812
(dp813
g65
(dp814
g85
g86
ssg74
g808
sg67
(lp815
g316
asbag60
(g81
g62
NtRp816
(dp817
g65
(dp818
g92
g93
ssg74
g808
sg67
(lp819
S':'
asbag60
(g81
g62
NtRp820
(dp821
g65
(dp822
sg74
g808
sg67
(lp823
g60
(g61
g62
NtRp824
(dp825
g65
(dp826
g73
I3
ssg74
g820
sg67
(lp827
S''
asbasbasbag60
(g76
g62
NtRp828
(dp829
g65
(dp830
sg74
g764
sg67
(lp831
g60
(g81
g62
NtRp832
(dp833
g65
(dp834
g85
g86
ssg74
g828
sg67
(lp835
g337
asbag60
(g81
g62
NtRp836
(dp837
g65
(dp838
g92
g93
ssg74
g828
sg67
(lp839
S':'
asbag60
(g81
g62
NtRp840
(dp841
g65
(dp842
sg74
g828
sg67
(lp843
g60
(g61
g62
NtRp844
(dp845
g65
(dp846
g73
I3
ssg74
g840
sg67
(lp847
S''
asbasbasbag60
(g76
g62
NtRp848
(dp849
g65
(dp850
sg74
g764
sg67
(lp851
g60
(g81
g62
NtRp852
(dp853
g65
(dp854
g85
g86
ssg74
g848
sg67
(lp855
g358
asbag60
(g81
g62
NtRp856
(dp857
g65
(dp858
g92
g93
ssg74
g848
sg67
(lp859
S':'
asbag60
(g81
g62
NtRp860
(dp861
g65
(dp862
sg74
g848
sg67
(lp863
g60
(g61
g62
NtRp864
(dp865
g65
(dp866
g73
I3
ssg74
g860
sg67
(lp867
S''
asbasbasbag60
(g76
g62
NtRp868
(dp869
g65
(dp870
sg74
g764
sg67
(lp871
g60
(g81
g62
NtRp872
(dp873
g65
(dp874
g85
g86
ssg74
g868
sg67
(lp875
g379
asbag60
(g81
g62
NtRp876
(dp877
g65
(dp878
g92
g93
ssg74
g868
sg67
(lp879
S':'
asbag60
(g81
g62
NtRp880
(dp881
g65
(dp882
sg74
g868
sg67
(lp883
g60
(g61
g62
NtRp884
(dp885
g65
(dp886
g73
I3
ssg74
g880
sg67
(lp887
S''
asbasbasbag60
(g76
g62
NtRp888
(dp889
g65
(dp890
sg74
g764
sg67
(lp891
g60
(g81
g62
NtRp892
(dp893
g65
(dp894
g85
g86
ssg74
g888
sg67
(lp895
g400
asbag60
(g81
g62
NtRp896
(dp897
g65
(dp898
g92
g93
ssg74
g888
sg67
(lp899
S':'
asbag60
(g81
g62
NtRp900
(dp901
g65
(dp902
sg74
g888
sg67
(lp903
g60
(g61
g62
NtRp904
(dp905
g65
(dp906
g73
I3
ssg74
g900
sg67
(lp907
S''
asbasbasbasbasbasbasbag60
(g76
g62
NtRp908
(dp909
g65
(dp910
sg74
g237
sg67
(lp911
g60
(g81
g62
NtRp912
(dp913
g65
(dp914
g85
g86
ssg74
g908
sg67
(lp915
S'session_id_cms'
p916
asbag60
(g81
g62
NtRp917
(dp918
g65
(dp919
g92
g93
ssg74
g908
sg67
(lp920
S':'
asbag60
(g81
g62
NtRp921
(dp922
g65
(dp923
sg74
g908
sg67
(lp924
g60
(g61
g62
NtRp925
(dp926
g65
(dp927
g73
I4
ssg74
g921
sg67
(lp928
g60
(g69
g62
NtRp929
(dp930
g65
(dp931
g73
I3
ssg74
Nsg67
(lp932
g60
(g76
g62
NtRp933
(dp934
g65
(dp935
sg74
g929
sg67
(lp936
g60
(g81
g62
NtRp937
(dp938
g65
(dp939
g85
g86
ssg74
g933
sg67
(lp940
g274
asbag60
(g81
g62
NtRp941
(dp942
g65
(dp943
g92
g93
ssg74
g933
sg67
(lp944
S':'
asbag60
(g81
g62
NtRp945
(dp946
g65
(dp947
sg74
g933
sg67
(lp948
g60
(g61
g62
NtRp949
(dp950
g65
(dp951
g73
I3
ssg74
g945
sg67
(lp952
S''
asbasbasbag60
(g76
g62
NtRp953
(dp954
g65
(dp955
sg74
g929
sg67
(lp956
g60
(g81
g62
NtRp957
(dp958
g65
(dp959
g85
g86
ssg74
g953
sg67
(lp960
g295
asbag60
(g81
g62
NtRp961
(dp962
g65
(dp963
g92
g93
ssg74
g953
sg67
(lp964
S':'
asbag60
(g81
g62
NtRp965
(dp966
g65
(dp967
sg74
g953
sg67
(lp968
g60
(g61
g62
NtRp969
(dp970
g65
(dp971
g73
I3
ssg74
g965
sg67
(lp972
S''
asbasbasbag60
(g76
g62
NtRp973
(dp974
g65
(dp975
sg74
g929
sg67
(lp976
g60
(g81
g62
NtRp977
(dp978
g65
(dp979
g85
g86
ssg74
g973
sg67
(lp980
g316
asbag60
(g81
g62
NtRp981
(dp982
g65
(dp983
g92
g93
ssg74
g973
sg67
(lp984
S':'
asbag60
(g81
g62
NtRp985
(dp986
g65
(dp987
sg74
g973
sg67
(lp988
g60
(g61
g62
NtRp989
(dp990
g65
(dp991
g73
I3
ssg74
g985
sg67
(lp992
S''
asbasbasbag60
(g76
g62
NtRp993
(dp994
g65
(dp995
sg74
g929
sg67
(lp996
g60
(g81
g62
NtRp997
(dp998
g65
(dp999
g85
g86
ssg74
g993
sg67
(lp1000
g337
asbag60
(g81
g62
NtRp1001
(dp1002
g65
(dp1003
g92
g93
ssg74
g993
sg67
(lp1004
S':'
asbag60
(g81
g62
NtRp1005
(dp1006
g65
(dp1007
sg74
g993
sg67
(lp1008
g60
(g61
g62
NtRp1009
(dp1010
g65
(dp1011
g73
I3
ssg74
g1005
sg67
(lp1012
S''
asbasbasbag60
(g76
g62
NtRp1013
(dp1014
g65
(dp1015
sg74
g929
sg67
(lp1016
g60
(g81
g62
NtRp1017
(dp1018
g65
(dp1019
g85
g86
ssg74
g1013
sg67
(lp1020
g358
asbag60
(g81
g62
NtRp1021
(dp1022
g65
(dp1023
g92
g93
ssg74
g1013
sg67
(lp1024
S':'
asbag60
(g81
g62
NtRp1025
(dp1026
g65
(dp1027
sg74
g1013
sg67
(lp1028
g60
(g61
g62
NtRp1029
(dp1030
g65
(dp1031
g73
I3
ssg74
g1025
sg67
(lp1032
S''
asbasbasbag60
(g76
g62
NtRp1033
(dp1034
g65
(dp1035
sg74
g929
sg67
(lp1036
g60
(g81
g62
NtRp1037
(dp1038
g65
(dp1039
g85
g86
ssg74
g1033
sg67
(lp1040
g379
asbag60
(g81
g62
NtRp1041
(dp1042
g65
(dp1043
g92
g93
ssg74
g1033
sg67
(lp1044
S':'
asbag60
(g81
g62
NtRp1045
(dp1046
g65
(dp1047
sg74
g1033
sg67
(lp1048
g60
(g61
g62
NtRp1049
(dp1050
g65
(dp1051
g73
I3
ssg74
g1045
sg67
(lp1052
S''
asbasbasbag60
(g76
g62
NtRp1053
(dp1054
g65
(dp1055
sg74
g929
sg67
(lp1056
g60
(g81
g62
NtRp1057
(dp1058
g65
(dp1059
g85
g86
ssg74
g1053
sg67
(lp1060
g400
asbag60
(g81
g62
NtRp1061
(dp1062
g65
(dp1063
g92
g93
ssg74
g1053
sg67
(lp1064
S':'
asbag60
(g81
g62
NtRp1065
(dp1066
g65
(dp1067
sg74
g1053
sg67
(lp1068
g60
(g61
g62
NtRp1069
(dp1070
g65
(dp1071
g73
I3
ssg74
g1065
sg67
(lp1072
S''
asbasbasbasbasbasbasbag60
(g76
g62
NtRp1073
(dp1074
g65
(dp1075
sg74
g237
sg67
(lp1076
g60
(g81
g62
NtRp1077
(dp1078
g65
(dp1079
g85
g86
ssg74
g1073
sg67
(lp1080
S'session_id_inplace'
p1081
asbag60
(g81
g62
NtRp1082
(dp1083
g65
(dp1084
g92
g93
ssg74
g1073
sg67
(lp1085
S':'
asbag60
(g81
g62
NtRp1086
(dp1087
g65
(dp1088
sg74
g1073
sg67
(lp1089
g60
(g61
g62
NtRp1090
(dp1091
g65
(dp1092
g73
I4
ssg74
g1086
sg67
(lp1093
g60
(g69
g62
NtRp1094
(dp1095
g65
(dp1096
g73
I3
ssg74
Nsg67
(lp1097
g60
(g76
g62
NtRp1098
(dp1099
g65
(dp1100
sg74
g1094
sg67
(lp1101
g60
(g81
g62
NtRp1102
(dp1103
g65
(dp1104
g85
g86
ssg74
g1098
sg67
(lp1105
g274
asbag60
(g81
g62
NtRp1106
(dp1107
g65
(dp1108
g92
g93
ssg74
g1098
sg67
(lp1109
S':'
asbag60
(g81
g62
NtRp1110
(dp1111
g65
(dp1112
sg74
g1098
sg67
(lp1113
g60
(g61
g62
NtRp1114
(dp1115
g65
(dp1116
g73
I3
ssg74
g1110
sg67
(lp1117
S''
asbasbasbag60
(g76
g62
NtRp1118
(dp1119
g65
(dp1120
sg74
g1094
sg67
(lp1121
g60
(g81
g62
NtRp1122
(dp1123
g65
(dp1124
g85
g86
ssg74
g1118
sg67
(lp1125
g295
asbag60
(g81
g62
NtRp1126
(dp1127
g65
(dp1128
g92
g93
ssg74
g1118
sg67
(lp1129
S':'
asbag60
(g81
g62
NtRp1130
(dp1131
g65
(dp1132
sg74
g1118
sg67
(lp1133
g60
(g61
g62
NtRp1134
(dp1135
g65
(dp1136
g73
I3
ssg74
g1130
sg67
(lp1137
S''
asbasbasbag60
(g76
g62
NtRp1138
(dp1139
g65
(dp1140
sg74
g1094
sg67
(lp1141
g60
(g81
g62
NtRp1142
(dp1143
g65
(dp1144
g85
g86
ssg74
g1138
sg67
(lp1145
g316
asbag60
(g81
g62
NtRp1146
(dp1147
g65
(dp1148
g92
g93
ssg74
g1138
sg67
(lp1149
S':'
asbag60
(g81
g62
NtRp1150
(dp1151
g65
(dp1152
sg74
g1138
sg67
(lp1153
g60
(g61
g62
NtRp1154
(dp1155
g65
(dp1156
g73
I3
ssg74
g1150
sg67
(lp1157
S''
asbasbasbag60
(g76
g62
NtRp1158
(dp1159
g65
(dp1160
sg74
g1094
sg67
(lp1161
g60
(g81
g62
NtRp1162
(dp1163
g65
(dp1164
g85
g86
ssg74
g1158
sg67
(lp1165
g337
asbag60
(g81
g62
NtRp1166
(dp1167
g65
(dp1168
g92
g93
ssg74
g1158
sg67
(lp1169
S':'
asbag60
(g81
g62
NtRp1170
(dp1171
g65
(dp1172
sg74
g1158
sg67
(lp1173
g60
(g61
g62
NtRp1174
(dp1175
g65
(dp1176
g73
I3
ssg74
g1170
sg67
(lp1177
S''
asbasbasbag60
(g76
g62
NtRp1178
(dp1179
g65
(dp1180
sg74
g1094
sg67
(lp1181
g60
(g81
g62
NtRp1182
(dp1183
g65
(dp1184
g85
g86
ssg74
g1178
sg67
(lp1185
g358
asbag60
(g81
g62
NtRp1186
(dp1187
g65
(dp1188
g92
g93
ssg74
g1178
sg67
(lp1189
S':'
asbag60
(g81
g62
NtRp1190
(dp1191
g65
(dp1192
sg74
g1178
sg67
(lp1193
g60
(g61
g62
NtRp1194
(dp1195
g65
(dp1196
g73
I3
ssg74
g1190
sg67
(lp1197
S''
asbasbasbag60
(g76
g62
NtRp1198
(dp1199
g65
(dp1200
sg74
g1094
sg67
(lp1201
g60
(g81
g62
NtRp1202
(dp1203
g65
(dp1204
g85
g86
ssg74
g1198
sg67
(lp1205
g379
asbag60
(g81
g62
NtRp1206
(dp1207
g65
(dp1208
g92
g93
ssg74
g1198
sg67
(lp1209
S':'
asbag60
(g81
g62
NtRp1210
(dp1211
g65
(dp1212
sg74
g1198
sg67
(lp1213
g60
(g61
g62
NtRp1214
(dp1215
g65
(dp1216
g73
I3
ssg74
g1210
sg67
(lp1217
S''
asbasbasbag60
(g76
g62
NtRp1218
(dp1219
g65
(dp1220
sg74
g1094
sg67
(lp1221
g60
(g81
g62
NtRp1222
(dp1223
g65
(dp1224
g85
g86
ssg74
g1218
sg67
(lp1225
g400
asbag60
(g81
g62
NtRp1226
(dp1227
g65
(dp1228
g92
g93
ssg74
g1218
sg67
(lp1229
S':'
asbag60
(g81
g62
NtRp1230
(dp1231
g65
(dp1232
sg74
g1218
sg67
(lp1233
g60
(g61
g62
NtRp1234
(dp1235
g65
(dp1236
g73
I3
ssg74
g1230
sg67
(lp1237
S''
asbasbasbasbasbasbasbasbasbasbasbag60
(g76
g62
NtRp1238
(dp1239
g65
(dp1240
sg74
g70
sg67
(lp1241
g60
(g81
g62
NtRp1242
(dp1243
g65
(dp1244
g85
g86
ssg74
g1238
sg67
(lp1245
S'env'
p1246
asbag60
(g81
g62
NtRp1247
(dp1248
g65
(dp1249
g92
g93
ssg74
g1238
sg67
(lp1250
S':'
asbag60
(g81
g62
NtRp1251
(dp1252
g65
(dp1253
sg74
g1238
sg67
(lp1254
g60
(g61
g62
NtRp1255
(dp1256
g65
(dp1257
g73
I5
ssg74
g1251
sg67
(lp1258
g60
(g69
g62
NtRp1259
(dp1260
g65
(dp1261
g73
I4
ssg74
Nsg67
(lp1262
g60
(g76
g62
NtRp1263
(dp1264
g65
(dp1265
sg74
g1259
sg67
(lp1266
g60
(g81
g62
NtRp1267
(dp1268
g65
(dp1269
g85
g86
ssg74
g1263
sg67
(lp1270
S'app_folders'
p1271
asbag60
(g81
g62
NtRp1272
(dp1273
g65
(dp1274
g92
g93
ssg74
g1263
sg67
(lp1275
S':'
asbag60
(g81
g62
NtRp1276
(dp1277
g65
(dp1278
sg74
g1263
sg67
(lp1279
g60
(g61
g62
NtRp1280
(dp1281
g65
(dp1282
g73
I4
ssg74
g1276
sg67
(lp1283
S"set(['/Users/mdipierro/Dropbox/web2py/applications/inplace/', '/Users/mdipierro/Dropbox/web2py/applications/cms/', '/Users/mdipierro/Dropbox/web2py/applications/admin/'])"
p1284
asbasbasbag60
(g76
g62
NtRp1285
(dp1286
g65
(dp1287
sg74
g1259
sg67
(lp1288
g60
(g81
g62
NtRp1289
(dp1290
g65
(dp1291
g85
g86
ssg74
g1285
sg67
(lp1292
S'applications_parent'
p1293
asbag60
(g81
g62
NtRp1294
(dp1295
g65
(dp1296
g92
g93
ssg74
g1285
sg67
(lp1297
S':'
asbag60
(g81
g62
NtRp1298
(dp1299
g65
(dp1300
sg74
g1285
sg67
(lp1301
g60
(g61
g62
NtRp1302
(dp1303
g65
(dp1304
g73
I4
ssg74
g1298
sg67
(lp1305
S'/Users/mdipierro/Dropbox/web2py'
p1306
asbasbasbag60
(g76
g62
NtRp1307
(dp1308
g65
(dp1309
sg74
g1259
sg67
(lp1310
g60
(g81
g62
NtRp1311
(dp1312
g65
(dp1313
g85
g86
ssg74
g1307
sg67
(lp1314
S'cmd_args'
p1315
asbag60
(g81
g62
NtRp1316
(dp1317
g65
(dp1318
g92
g93
ssg74
g1307
sg67
(lp1319
S':'
asbag60
(g81
g62
NtRp1320
(dp1321
g65
(dp1322
sg74
g1307
sg67
(lp1323
g60
(g61
g62
NtRp1324
(dp1325
g65
(dp1326
g73
I4
ssg74
g1320
sg67
(lp1327
g60
(g69
g62
NtRp1328
(dp1329
g65
(dp1330
g73
I3
ssg74
Nsg67
(lp1331
sbasbasbasbag60
(g76
g62
NtRp1332
(dp1333
g65
(dp1334
sg74
g1259
sg67
(lp1335
g60
(g81
g62
NtRp1336
(dp1337
g65
(dp1338
g85
g86
ssg74
g1332
sg67
(lp1339
S'cmd_options'
p1340
asbag60
(g81
g62
NtRp1341
(dp1342
g65
(dp1343
g92
g93
ssg74
g1332
sg67
(lp1344
S':'
asbag60
(g81
g62
NtRp1345
(dp1346
g65
(dp1347
sg74
g1332
sg67
(lp1348
g60
(g61
g62
NtRp1349
(dp1350
g65
(dp1351
g73
I4
ssg74
g1345
sg67
(lp1352
S"<Values at 0x153a378: {'verbose': False, 'ip': '127.0.0.1', 'shutdown_timeout': 5, 'taskbar': False, 'nocron': False, 'pid_filename': 'httpserver.pid', 'maxthreads': None, 'softcron': False, 'server_name': 'massimo-di-pierros-macbook-2.local', 'bpython': False, 'nogui': False, 'port': 8000, 'extcron': False, 'debuglevel': 30, 'test': None, 'folder': '/Users/mdipierro/Dropbox/web2py', 'config': '', 'import_models': False, 'winservice': '', 'shell': None, 'run': '', 'log_filename': 'httpserver.log', 'args': [''], 'socket_timeout': 1, 'ssl_ca_certificate': None, 'scheduler': None, 'profiler_filename': None, 'ssl_private_key': '', 'password': 'hello', 'request_queue_size': 5, 'ssl_certificate': '', 'cronjob': False, 'numthreads': None, 'quiet': False, 'interfaces': None, 'minthreads': None, 'timeout': 10, 'plain': False, 'nobanner': False}>"
p1353
asbasbasbag60
(g76
g62
NtRp1354
(dp1355
g65
(dp1356
sg74
g1259
sg67
(lp1357
g60
(g81
g62
NtRp1358
(dp1359
g65
(dp1360
g85
g86
ssg74
g1354
sg67
(lp1361
S'db_sessions'
p1362
asbag60
(g81
g62
NtRp1363
(dp1364
g65
(dp1365
g92
g93
ssg74
g1354
sg67
(lp1366
S':'
asbag60
(g81
g62
NtRp1367
(dp1368
g65
(dp1369
sg74
g1354
sg67
(lp1370
g60
(g61
g62
NtRp1371
(dp1372
g65
(dp1373
g73
I4
ssg74
g1367
sg67
(lp1374
S'set([])'
p1375
asbasbasbag60
(g76
g62
NtRp1376
(dp1377
g65
(dp1378
sg74
g1259
sg67
(lp1379
g60
(g81
g62
NtRp1380
(dp1381
g65
(dp1382
g85
g86
ssg74
g1376
sg67
(lp1383
S'debugging'
p1384
asbag60
(g81
g62
NtRp1385
(dp1386
g65
(dp1387
g92
g93
ssg74
g1376
sg67
(lp1388
S':'
asbag60
(g81
g62
NtRp1389
(dp1390
g65
(dp1391
sg74
g1376
sg67
(lp1392
g60
(g61
g62
NtRp1393
(dp1394
g65
(dp1395
g73
I4
ssg74
g1389
sg67
(lp1396
g103
asbasbasbag60
(g76
g62
NtRp1397
(dp1398
g65
(dp1399
sg74
g1259
sg67
(lp1400
g60
(g81
g62
NtRp1401
(dp1402
g65
(dp1403
g85
g86
ssg74
g1397
sg67
(lp1404
S'gluon_parent'
p1405
asbag60
(g81
g62
NtRp1406
(dp1407
g65
(dp1408
g92
g93
ssg74
g1397
sg67
(lp1409
S':'
asbag60
(g81
g62
NtRp1410
(dp1411
g65
(dp1412
sg74
g1397
sg67
(lp1413
g60
(g61
g62
NtRp1414
(dp1415
g65
(dp1416
g73
I4
ssg74
g1410
sg67
(lp1417
S'/Users/mdipierro/Dropbox/web2py'
p1418
asbasbasbag60
(g76
g62
NtRp1419
(dp1420
g65
(dp1421
sg74
g1259
sg67
(lp1422
g60
(g81
g62
NtRp1423
(dp1424
g65
(dp1425
g85
g86
ssg74
g1419
sg67
(lp1426
S'http_accept'
p1427
asbag60
(g81
g62
NtRp1428
(dp1429
g65
(dp1430
g92
g93
ssg74
g1419
sg67
(lp1431
S':'
asbag60
(g81
g62
NtRp1432
(dp1433
g65
(dp1434
sg74
g1419
sg67
(lp1435
g60
(g61
g62
NtRp1436
(dp1437
g65
(dp1438
g73
I4
ssg74
g1432
sg67
(lp1439
S'text/html,application/xhtml+xml,application/xml;q=0.9,*/*;q=0.8'
p1440
asbasbasbag60
(g76
g62
NtRp1441
(dp1442
g65
(dp1443
sg74
g1259
sg67
(lp1444
g60
(g81
g62
NtRp1445
(dp1446
g65
(dp1447
g85
g86
ssg74
g1441
sg67
(lp1448
S'http_accept_charset'
p1449
asbag60
(g81
g62
NtRp1450
(dp1451
g65
(dp1452
g92
g93
ssg74
g1441
sg67
(lp1453
S':'
asbag60
(g81
g62
NtRp1454
(dp1455
g65
(dp1456
sg74
g1441
sg67
(lp1457
g60
(g61
g62
NtRp1458
(dp1459
g65
(dp1460
g73
I4
ssg74
g1454
sg67
(lp1461
S'ISO-8859-1,utf-8;q=0.7,*;q=0.3'
p1462
asbasbasbag60
(g76
g62
NtRp1463
(dp1464
g65
(dp1465
sg74
g1259
sg67
(lp1466
g60
(g81
g62
NtRp1467
(dp1468
g65
(dp1469
g85
g86
ssg74
g1463
sg67
(lp1470
S'http_accept_encoding'
p1471
asbag60
(g81
g62
NtRp1472
(dp1473
g65
(dp1474
g92
g93
ssg74
g1463
sg67
(lp1475
S':'
asbag60
(g81
g62
NtRp1476
(dp1477
g65
(dp1478
sg74
g1463
sg67
(lp1479
g60
(g61
g62
NtRp1480
(dp1481
g65
(dp1482
g73
I4
ssg74
g1476
sg67
(lp1483
S'gzip,deflate,sdch'
p1484
asbasbasbag60
(g76
g62
NtRp1485
(dp1486
g65
(dp1487
sg74
g1259
sg67
(lp1488
g60
(g81
g62
NtRp1489
(dp1490
g65
(dp1491
g85
g86
ssg74
g1485
sg67
(lp1492
S'http_accept_language'
p1493
asbag60
(g81
g62
NtRp1494
(dp1495
g65
(dp1496
g92
g93
ssg74
g1485
sg67
(lp1497
S':'
asbag60
(g81
g62
NtRp1498
(dp1499
g65
(dp1500
sg74
g1485
sg67
(lp1501
g60
(g61
g62
NtRp1502
(dp1503
g65
(dp1504
g73
I4
ssg74
g1498
sg67
(lp1505
S'en,en-US;q=0.8,de-DE;q=0.6,de;q=0.4,it-IT;q=0.2,it;q=0.2,ja;q=0.2'
p1506
asbasbasbag60
(g76
g62
NtRp1507
(dp1508
g65
(dp1509
sg74
g1259
sg67
(lp1510
g60
(g81
g62
NtRp1511
(dp1512
g65
(dp1513
g85
g86
ssg74
g1507
sg67
(lp1514
S'http_cache_control'
p1515
asbag60
(g81
g62
NtRp1516
(dp1517
g65
(dp1518
g92
g93
ssg74
g1507
sg67
(lp1519
S':'
asbag60
(g81
g62
NtRp1520
(dp1521
g65
(dp1522
sg74
g1507
sg67
(lp1523
g60
(g61
g62
NtRp1524
(dp1525
g65
(dp1526
g73
I4
ssg74
g1520
sg67
(lp1527
S'max-age=0'
p1528
asbasbasbag60
(g76
g62
NtRp1529
(dp1530
g65
(dp1531
sg74
g1259
sg67
(lp1532
g60
(g81
g62
NtRp1533
(dp1534
g65
(dp1535
g85
g86
ssg74
g1529
sg67
(lp1536
S'http_connection'
p1537
asbag60
(g81
g62
NtRp1538
(dp1539
g65
(dp1540
g92
g93
ssg74
g1529
sg67
(lp1541
S':'
asbag60
(g81
g62
NtRp1542
(dp1543
g65
(dp1544
sg74
g1529
sg67
(lp1545
g60
(g61
g62
NtRp1546
(dp1547
g65
(dp1548
g73
I4
ssg74
g1542
sg67
(lp1549
S'keep-alive'
p1550
asbasbasbag60
(g76
g62
NtRp1551
(dp1552
g65
(dp1553
sg74
g1259
sg67
(lp1554
g60
(g81
g62
NtRp1555
(dp1556
g65
(dp1557
g85
g86
ssg74
g1551
sg67
(lp1558
S'http_cookie'
p1559
asbag60
(g81
g62
NtRp1560
(dp1561
g65
(dp1562
g92
g93
ssg74
g1551
sg67
(lp1563
S':'
asbag60
(g81
g62
NtRp1564
(dp1565
g65
(dp1566
sg74
g1551
sg67
(lp1567
g60
(g61
g62
NtRp1568
(dp1569
g65
(dp1570
g73
I4
ssg74
g1564
sg67
(lp1571
S'registered=yes; __utma_a2a=1369166446.1335515545.1303958619.1316700181.1318215879.74; el-finder-last-finder=4f5a448a961f1931173928a6b6d9d4d2; s_nr=1323495907438-New; __qca=P0-1359637726-1323501662225; _chartbeat2=ha3n2egp47d2hmo0.1323501662417; __utma=96992031.1452952453.1313221394.1323533094.1323638999.6; __utmc=96992031; __utmz=96992031.1313221394.1.1.utmcsr=(direct)|utmccn=(direct)|utmcmd=(none); session_id_cms=127.0.0.1-f4c1e56e-4f4d-4936-aaf7-92fdd3a97f53; session_id_admin=127.0.0.1-6d70af03-6639-4a47-9ec3-7df3afc84ddd; session_id_inplace=127.0.0.1-b67af904-b8cf-469d-95b3-18285a004db1'
p1572
asbasbasbag60
(g76
g62
NtRp1573
(dp1574
g65
(dp1575
sg74
g1259
sg67
(lp1576
g60
(g81
g62
NtRp1577
(dp1578
g65
(dp1579
g85
g86
ssg74
g1573
sg67
(lp1580
S'http_host'
p1581
asbag60
(g81
g62
NtRp1582
(dp1583
g65
(dp1584
g92
g93
ssg74
g1573
sg67
(lp1585
S':'
asbag60
(g81
g62
NtRp1586
(dp1587
g65
(dp1588
sg74
g1573
sg67
(lp1589
g60
(g61
g62
NtRp1590
(dp1591
g65
(dp1592
g73
I4
ssg74
g1586
sg67
(lp1593
S'127.0.0.1:8000'
p1594
asbasbasbag60
(g76
g62
NtRp1595
(dp1596
g65
(dp1597
sg74
g1259
sg67
(lp1598
g60
(g81
g62
NtRp1599
(dp1600
g65
(dp1601
g85
g86
ssg74
g1595
sg67
(lp1602
S'http_user_agent'
p1603
asbag60
(g81
g62
NtRp1604
(dp1605
g65
(dp1606
g92
g93
ssg74
g1595
sg67
(lp1607
S':'
asbag60
(g81
g62
NtRp1608
(dp1609
g65
(dp1610
sg74
g1595
sg67
(lp1611
g60
(g61
g62
NtRp1612
(dp1613
g65
(dp1614
g73
I4
ssg74
g1608
sg67
(lp1615
S'Mozilla/5.0 (Macintosh; Intel Mac OS X 10_6_8) AppleWebKit/535.7 (KHTML, like Gecko) Chrome/16.0.912.63 Safari/535.7'
p1616
asbasbasbag60
(g76
g62
NtRp1617
(dp1618
g65
(dp1619
sg74
g1259
sg67
(lp1620
g60
(g81
g62
NtRp1621
(dp1622
g65
(dp1623
g85
g86
ssg74
g1617
sg67
(lp1624
S'is_jython'
p1625
asbag60
(g81
g62
NtRp1626
(dp1627
g65
(dp1628
g92
g93
ssg74
g1617
sg67
(lp1629
S':'
asbag60
(g81
g62
NtRp1630
(dp1631
g65
(dp1632
sg74
g1617
sg67
(lp1633
g60
(g61
g62
NtRp1634
(dp1635
g65
(dp1636
g73
I4
ssg74
g1630
sg67
(lp1637
g103
asbasbasbag60
(g76
g62
NtRp1638
(dp1639
g65
(dp1640
sg74
g1259
sg67
(lp1641
g60
(g81
g62
NtRp1642
(dp1643
g65
(dp1644
g85
g86
ssg74
g1638
sg67
(lp1645
S'is_pypy'
p1646
asbag60
(g81
g62
NtRp1647
(dp1648
g65
(dp1649
g92
g93
ssg74
g1638
sg67
(lp1650
S':'
asbag60
(g81
g62
NtRp1651
(dp1652
g65
(dp1653
sg74
g1638
sg67
(lp1654
g60
(g61
g62
NtRp1655
(dp1656
g65
(dp1657
g73
I4
ssg74
g1651
sg67
(lp1658
g103
asbasbasbag60
(g76
g62
NtRp1659
(dp1660
g65
(dp1661
sg74
g1259
sg67
(lp1662
g60
(g81
g62
NtRp1663
(dp1664
g65
(dp1665
g85
g86
ssg74
g1659
sg67
(lp1666
S'path_info'
p1667
asbag60
(g81
g62
NtRp1668
(dp1669
g65
(dp1670
g92
g93
ssg74
g1659
sg67
(lp1671
S':'
asbag60
(g81
g62
NtRp1672
(dp1673
g65
(dp1674
sg74
g1659
sg67
(lp1675
g60
(g61
g62
NtRp1676
(dp1677
g65
(dp1678
g73
I4
ssg74
g1672
sg67
(lp1679
S'/inplace/default'
p1680
asbasbasbag60
(g76
g62
NtRp1681
(dp1682
g65
(dp1683
sg74
g1259
sg67
(lp1684
g60
(g81
g62
NtRp1685
(dp1686
g65
(dp1687
g85
g86
ssg74
g1681
sg67
(lp1688
S'query_string'
p1689
asbag60
(g81
g62
NtRp1690
(dp1691
g65
(dp1692
g92
g93
ssg74
g1681
sg67
(lp1693
S':'
asbag60
(g81
g62
NtRp1694
(dp1695
g65
(dp1696
sg74
g1681
sg67
(lp1697
g60
(g61
g62
NtRp1698
(dp1699
g65
(dp1700
g73
I4
ssg74
g1694
sg67
(lp1701
S''
asbasbasbag60
(g76
g62
NtRp1702
(dp1703
g65
(dp1704
sg74
g1259
sg67
(lp1705
g60
(g81
g62
NtRp1706
(dp1707
g65
(dp1708
g85
g86
ssg74
g1702
sg67
(lp1709
S'remote_addr'
p1710
asbag60
(g81
g62
NtRp1711
(dp1712
g65
(dp1713
g92
g93
ssg74
g1702
sg67
(lp1714
S':'
asbag60
(g81
g62
NtRp1715
(dp1716
g65
(dp1717
sg74
g1702
sg67
(lp1718
g60
(g61
g62
NtRp1719
(dp1720
g65
(dp1721
g73
I4
ssg74
g1715
sg67
(lp1722
g193
asbasbasbag60
(g76
g62
NtRp1723
(dp1724
g65
(dp1725
sg74
g1259
sg67
(lp1726
g60
(g81
g62
NtRp1727
(dp1728
g65
(dp1729
g85
g86
ssg74
g1723
sg67
(lp1730
S'remote_port'
p1731
asbag60
(g81
g62
NtRp1732
(dp1733
g65
(dp1734
g92
g93
ssg74
g1723
sg67
(lp1735
S':'
asbag60
(g81
g62
NtRp1736
(dp1737
g65
(dp1738
sg74
g1723
sg67
(lp1739
g60
(g61
g62
NtRp1740
(dp1741
g65
(dp1742
g73
I4
ssg74
g1736
sg67
(lp1743
S'55318'
p1744
asbasbasbag60
(g76
g62
NtRp1745
(dp1746
g65
(dp1747
sg74
g1259
sg67
(lp1748
g60
(g81
g62
NtRp1749
(dp1750
g65
(dp1751
g85
g86
ssg74
g1745
sg67
(lp1752
S'request_method'
p1753
asbag60
(g81
g62
NtRp1754
(dp1755
g65
(dp1756
g92
g93
ssg74
g1745
sg67
(lp1757
S':'
asbag60
(g81
g62
NtRp1758
(dp1759
g65
(dp1760
sg74
g1745
sg67
(lp1761
g60
(g61
g62
NtRp1762
(dp1763
g65
(dp1764
g73
I4
ssg74
g1758
sg67
(lp1765
S'GET'
p1766
asbasbasbag60
(g76
g62
NtRp1767
(dp1768
g65
(dp1769
sg74
g1259
sg67
(lp1770
g60
(g81
g62
NtRp1771
(dp1772
g65
(dp1773
g85
g86
ssg74
g1767
sg67
(lp1774
S'script_name'
p1775
asbag60
(g81
g62
NtRp1776
(dp1777
g65
(dp1778
g92
g93
ssg74
g1767
sg67
(lp1779
S':'
asbag60
(g81
g62
NtRp1780
(dp1781
g65
(dp1782
sg74
g1767
sg67
(lp1783
g60
(g61
g62
NtRp1784
(dp1785
g65
(dp1786
g73
I4
ssg74
g1780
sg67
(lp1787
S''
asbasbasbag60
(g76
g62
NtRp1788
(dp1789
g65
(dp1790
sg74
g1259
sg67
(lp1791
g60
(g81
g62
NtRp1792
(dp1793
g65
(dp1794
g85
g86
ssg74
g1788
sg67
(lp1795
S'server_name'
p1796
asbag60
(g81
g62
NtRp1797
(dp1798
g65
(dp1799
g92
g93
ssg74
g1788
sg67
(lp1800
S':'
asbag60
(g81
g62
NtRp1801
(dp1802
g65
(dp1803
sg74
g1788
sg67
(lp1804
g60
(g61
g62
NtRp1805
(dp1806
g65
(dp1807
g73
I4
ssg74
g1801
sg67
(lp1808
S'massimo-di-pierros-macbook-2.local'
p1809
asbasbasbag60
(g76
g62
NtRp1810
(dp1811
g65
(dp1812
sg74
g1259
sg67
(lp1813
g60
(g81
g62
NtRp1814
(dp1815
g65
(dp1816
g85
g86
ssg74
g1810
sg67
(lp1817
S'server_port'
p1818
asbag60
(g81
g62
NtRp1819
(dp1820
g65
(dp1821
g92
g93
ssg74
g1810
sg67
(lp1822
S':'
asbag60
(g81
g62
NtRp1823
(dp1824
g65
(dp1825
sg74
g1810
sg67
(lp1826
g60
(g61
g62
NtRp1827
(dp1828
g65
(dp1829
g73
I4
ssg74
g1823
sg67
(lp1830
S'8000'
p1831
asbasbasbag60
(g76
g62
NtRp1832
(dp1833
g65
(dp1834
sg74
g1259
sg67
(lp1835
g60
(g81
g62
NtRp1836
(dp1837
g65
(dp1838
g85
g86
ssg74
g1832
sg67
(lp1839
S'server_protocol'
p1840
asbag60
(g81
g62
NtRp1841
(dp1842
g65
(dp1843
g92
g93
ssg74
g1832
sg67
(lp1844
S':'
asbag60
(g81
g62
NtRp1845
(dp1846
g65
(dp1847
sg74
g1832
sg67
(lp1848
g60
(g61
g62
NtRp1849
(dp1850
g65
(dp1851
g73
I4
ssg74
g1845
sg67
(lp1852
S'HTTP/1.1'
p1853
asbasbasbag60
(g76
g62
NtRp1854
(dp1855
g65
(dp1856
sg74
g1259
sg67
(lp1857
g60
(g81
g62
NtRp1858
(dp1859
g65
(dp1860
g85
g86
ssg74
g1854
sg67
(lp1861
S'server_software'
p1862
asbag60
(g81
g62
NtRp1863
(dp1864
g65
(dp1865
g92
g93
ssg74
g1854
sg67
(lp1866
S':'
asbag60
(g81
g62
NtRp1867
(dp1868
g65
(dp1869
sg74
g1854
sg67
(lp1870
g60
(g61
g62
NtRp1871
(dp1872
g65
(dp1873
g73
I4
ssg74
g1867
sg67
(lp1874
S'Rocket 1.2.4'
p1875
asbasbasbag60
(g76
g62
NtRp1876
(dp1877
g65
(dp1878
sg74
g1259
sg67
(lp1879
g60
(g81
g62
NtRp1880
(dp1881
g65
(dp1882
g85
g86
ssg74
g1876
sg67
(lp1883
S'web2py_crontype'
p1884
asbag60
(g81
g62
NtRp1885
(dp1886
g65
(dp1887
g92
g93
ssg74
g1876
sg67
(lp1888
S':'
asbag60
(g81
g62
NtRp1889
(dp1890
g65
(dp1891
sg74
g1876
sg67
(lp1892
g60
(g61
g62
NtRp1893
(dp1894
g65
(dp1895
g73
I4
ssg74
g1889
sg67
(lp1896
S'hard'
p1897
asbasbasbag60
(g76
g62
NtRp1898
(dp1899
g65
(dp1900
sg74
g1259
sg67
(lp1901
g60
(g81
g62
NtRp1902
(dp1903
g65
(dp1904
g85
g86
ssg74
g1898
sg67
(lp1905
S'web2py_path'
p1906
asbag60
(g81
g62
NtRp1907
(dp1908
g65
(dp1909
g92
g93
ssg74
g1898
sg67
(lp1910
S':'
asbag60
(g81
g62
NtRp1911
(dp1912
g65
(dp1913
sg74
g1898
sg67
(lp1914
g60
(g61
g62
NtRp1915
(dp1916
g65
(dp1917
g73
I4
ssg74
g1911
sg67
(lp1918
g1306
asbasbasbag60
(g76
g62
NtRp1919
(dp1920
g65
(dp1921
sg74
g1259
sg67
(lp1922
g60
(g81
g62
NtRp1923
(dp1924
g65
(dp1925
g85
g86
ssg74
g1919
sg67
(lp1926
S'web2py_version'
p1927
asbag60
(g81
g62
NtRp1928
(dp1929
g65
(dp1930
g92
g93
ssg74
g1919
sg67
(lp1931
S':'
asbag60
(g81
g62
NtRp1932
(dp1933
g65
(dp1934
sg74
g1919
sg67
(lp1935
g60
(g61
g62
NtRp1936
(dp1937
g65
(dp1938
g73
I4
ssg74
g1932
sg67
(lp1939
g60
(g69
g62
NtRp1940
(dp1941
g65
(dp1942
g73
I3
ssg74
Nsg67
(lp1943
g60
(g76
g62
NtRp1944
(dp1945
g65
(dp1946
sg74
g1940
sg67
(lp1947
g60
(g81
g62
NtRp1948
(dp1949
g65
(dp1950
sg74
g1944
sg67
(lp1951
g60
(g61
g62
NtRp1952
(dp1953
g65
(dp1954
g73
I3
ssg74
g1948
sg67
(lp1955
S'1'
asbasbasbag60
(g76
g62
NtRp1956
(dp1957
g65
(dp1958
sg74
g1940
sg67
(lp1959
g60
(g81
g62
NtRp1960
(dp1961
g65
(dp1962
sg74
g1956
sg67
(lp1963
g60
(g61
g62
NtRp1964
(dp1965
g65
(dp1966
g73
I3
ssg74
g1960
sg67
(lp1967
S'99'
p1968
asbasbasbag60
(g76
g62
NtRp1969
(dp1970
g65
(dp1971
sg74
g1940
sg67
(lp1972
g60
(g81
g62
NtRp1973
(dp1974
g65
(dp1975
sg74
g1969
sg67
(lp1976
g60
(g61
g62
NtRp1977
(dp1978
g65
(dp1979
g73
I3
ssg74
g1973
sg67
(lp1980
S'3'
asbasbasbag60
(g76
g62
NtRp1981
(dp1982
g65
(dp1983
sg74
g1940
sg67
(lp1984
g60
(g81
g62
NtRp1985
(dp1986
g65
(dp1987
sg74
g1981
sg67
(lp1988
g60
(g61
g62
NtRp1989
(dp1990
g65
(dp1991
g73
I3
ssg74
g1985
sg67
(lp1992
S'datetime.datetime(2011, 12, 9, 21, 5, 4)'
p1993
asbasbasbag60
(g76
g62
NtRp1994
(dp1995
g65
(dp1996
sg74
g1940
sg67
(lp1997
g60
(g81
g62
NtRp1998
(dp1999
g65
(dp2000
sg74
g1994
sg67
(lp2001
g60
(g61
g62
NtRp2002
(dp2003
g65
(dp2004
g73
I3
ssg74
g1998
sg67
(lp2005
S'stable'
p2006
asbasbasbasbasbasbasbag60
(g76
g62
NtRp2007
(dp2008
g65
(dp2009
sg74
g1259
sg67
(lp2010
g60
(g81
g62
NtRp2011
(dp2012
g65
(dp2013
g85
g86
ssg74
g2007
sg67
(lp2014
S'wsgi_errors'
p2015
asbag60
(g81
g62
NtRp2016
(dp2017
g65
(dp2018
g92
g93
ssg74
g2007
sg67
(lp2019
S':'
asbag60
(g81
g62
NtRp2020
(dp2021
g65
(dp2022
sg74
g2007
sg67
(lp2023
g60
(g61
g62
NtRp2024
(dp2025
g65
(dp2026
g73
I4
ssg74
g2020
sg67
(lp2027
S"<open file '<stderr>', mode 'w' at 0x1620b0>"
p2028
asbasbasbag60
(g76
g62
NtRp2029
(dp2030
g65
(dp2031
sg74
g1259
sg67
(lp2032
g60
(g81
g62
NtRp2033
(dp2034
g65
(dp2035
g85
g86
ssg74
g2029
sg67
(lp2036
S'wsgi_file_wrapper'
p2037
asbag60
(g81
g62
NtRp2038
(dp2039
g65
(dp2040
g92
g93
ssg74
g2029
sg67
(lp2041
S':'
asbag60
(g81
g62
NtRp2042
(dp2043
g65
(dp2044
sg74
g2029
sg67
(lp2045
g60
(g61
g62
NtRp2046
(dp2047
g65
(dp2048
g73
I4
ssg74
g2042
sg67
(lp2049
S'<class wsgiref.util.FileWrapper at 0x7c2840>'
p2050
asbasbasbag60
(g76
g62
NtRp2051
(dp2052
g65
(dp2053
sg74
g1259
sg67
(lp2054
g60
(g81
g62
NtRp2055
(dp2056
g65
(dp2057
g85
g86
ssg74
g2051
sg67
(lp2058
S'wsgi_input'
p2059
asbag60
(g81
g62
NtRp2060
(dp2061
g65
(dp2062
g92
g93
ssg74
g2051
sg67
(lp2063
S':'
asbag60
(g81
g62
NtRp2064
(dp2065
g65
(dp2066
sg74
g2051
sg67
(lp2067
g60
(g61
g62
NtRp2068
(dp2069
g65
(dp2070
g73
I4
ssg74
g2064
sg67
(lp2071
S'<socket._fileobject object at 0x290e4f0>'
p2072
asbasbasbag60
(g76
g62
NtRp2073
(dp2074
g65
(dp2075
sg74
g1259
sg67
(lp2076
g60
(g81
g62
NtRp2077
(dp2078
g65
(dp2079
g85
g86
ssg74
g2073
sg67
(lp2080
S'wsgi_multiprocess'
p2081
asbag60
(g81
g62
NtRp2082
(dp2083
g65
(dp2084
g92
g93
ssg74
g2073
sg67
(lp2085
S':'
asbag60
(g81
g62
NtRp2086
(dp2087
g65
(dp2088
sg74
g2073
sg67
(lp2089
g60
(g61
g62
NtRp2090
(dp2091
g65
(dp2092
g73
I4
ssg74
g2086
sg67
(lp2093
g103
asbasbasbag60
(g76
g62
NtRp2094
(dp2095
g65
(dp2096
sg74
g1259
sg67
(lp2097
g60
(g81
g62
NtRp2098
(dp2099
g65
(dp2100
g85
g86
ssg74
g2094
sg67
(lp2101
S'wsgi_multithread'
p2102
asbag60
(g81
g62
NtRp2103
(dp2104
g65
(dp2105
g92
g93
ssg74
g2094
sg67
(lp2106
S':'
asbag60
(g81
g62
NtRp2107
(dp2108
g65
(dp2109
sg74
g2094
sg67
(lp2110
g60
(g61
g62
NtRp2111
(dp2112
g65
(dp2113
g73
I4
ssg74
g2107
sg67
(lp2114
S'True'
p2115
asbasbasbag60
(g76
g62
NtRp2116
(dp2117
g65
(dp2118
sg74
g1259
sg67
(lp2119
g60
(g81
g62
NtRp2120
(dp2121
g65
(dp2122
g85
g86
ssg74
g2116
sg67
(lp2123
S'wsgi_run_once'
p2124
asbag60
(g81
g62
NtRp2125
(dp2126
g65
(dp2127
g92
g93
ssg74
g2116
sg67
(lp2128
S':'
asbag60
(g81
g62
NtRp2129
(dp2130
g65
(dp2131
sg74
g2116
sg67
(lp2132
g60
(g61
g62
NtRp2133
(dp2134
g65
(dp2135
g73
I4
ssg74
g2129
sg67
(lp2136
g103
asbasbasbag60
(g76
g62
NtRp2137
(dp2138
g65
(dp2139
sg74
g1259
sg67
(lp2140
g60
(g81
g62
NtRp2141
(dp2142
g65
(dp2143
g85
g86
ssg74
g2137
sg67
(lp2144
S'wsgi_url_scheme'
p2145
asbag60
(g81
g62
NtRp2146
(dp2147
g65
(dp2148
g92
g93
ssg74
g2137
sg67
(lp2149
S':'
asbag60
(g81
g62
NtRp2150
(dp2151
g65
(dp2152
sg74
g2137
sg67
(lp2153
g60
(g61
g62
NtRp2154
(dp2155
g65
(dp2156
g73
I4
ssg74
g2150
sg67
(lp2157
S'http'
p2158
asbasbasbag60
(g76
g62
NtRp2159
(dp2160
g65
(dp2161
sg74
g1259
sg67
(lp2162
g60
(g81
g62
NtRp2163
(dp2164
g65
(dp2165
g85
g86
ssg74
g2159
sg67
(lp2166
S'wsgi_version'
p2167
asbag60
(g81
g62
NtRp2168
(dp2169
g65
(dp2170
g92
g93
ssg74
g2159
sg67
(lp2171
S':'
asbag60
(g81
g62
NtRp2172
(dp2173
g65
(dp2174
sg74
g2159
sg67
(lp2175
g60
(g61
g62
NtRp2176
(dp2177
g65
(dp2178
g73
I4
ssg74
g2172
sg67
(lp2179
g60
(g69
g62
NtRp2180
(dp2181
g65
(dp2182
g73
I3
ssg74
Nsg67
(lp2183
g60
(g76
g62
NtRp2184
(dp2185
g65
(dp2186
sg74
g2180
sg67
(lp2187
g60
(g81
g62
NtRp2188
(dp2189
g65
(dp2190
sg74
g2184
sg67
(lp2191
g60
(g61
g62
NtRp2192
(dp2193
g65
(dp2194
g73
I3
ssg74
g2188
sg67
(lp2195
S'1'
asbasbasbag60
(g76
g62
NtRp2196
(dp2197
g65
(dp2198
sg74
g2180
sg67
(lp2199
g60
(g81
g62
NtRp2200
(dp2201
g65
(dp2202
sg74
g2196
sg67
(lp2203
g60
(g61
g62
NtRp2204
(dp2205
g65
(dp2206
g73
I3
ssg74
g2200
sg67
(lp2207
S'0'
asbasbasbasbasbasbasbasbasbasbasbag60
(g76
g62
NtRp2208
(dp2209
g65
(dp2210
sg74
g70
sg67
(lp2211
g60
(g81
g62
NtRp2212
(dp2213
g65
(dp2214
g85
g86
ssg74
g2208
sg67
(lp2215
S'extension'
p2216
asbag60
(g81
g62
NtRp2217
(dp2218
g65
(dp2219
g92
g93
ssg74
g2208
sg67
(lp2220
S':'
asbag60
(g81
g62
NtRp2221
(dp2222
g65
(dp2223
sg74
g2208
sg67
(lp2224
g60
(g61
g62
NtRp2225
(dp2226
g65
(dp2227
g73
I5
ssg74
g2221
sg67
(lp2228
S'html'
p2229
asbasbasbag60
(g76
g62
NtRp2230
(dp2231
g65
(dp2232
sg74
g70
sg67
(lp2233
g60
(g81
g62
NtRp2234
(dp2235
g65
(dp2236
g85
g86
ssg74
g2230
sg67
(lp2237
S'folder'
p2238
asbag60
(g81
g62
NtRp2239
(dp2240
g65
(dp2241
g92
g93
ssg74
g2230
sg67
(lp2242
S':'
asbag60
(g81
g62
NtRp2243
(dp2244
g65
(dp2245
sg74
g2230
sg67
(lp2246
g60
(g61
g62
NtRp2247
(dp2248
g65
(dp2249
g73
I5
ssg74
g2243
sg67
(lp2250
S'/Users/mdipierro/Dropbox/web2py/applications/inplace/'
p2251
asbasbasbag60
(g76
g62
NtRp2252
(dp2253
g65
(dp2254
sg74
g70
sg67
(lp2255
g60
(g81
g62
NtRp2256
(dp2257
g65
(dp2258
g85
g86
ssg74
g2252
sg67
(lp2259
S'function'
p2260
asbag60
(g81
g62
NtRp2261
(dp2262
g65
(dp2263
g92
g93
ssg74
g2252
sg67
(lp2264
S':'
asbag60
(g81
g62
NtRp2265
(dp2266
g65
(dp2267
sg74
g2252
sg67
(lp2268
g60
(g61
g62
NtRp2269
(dp2270
g65
(dp2271
g73
I5
ssg74
g2265
sg67
(lp2272
S'index'
p2273
asbasbasbag60
(g76
g62
NtRp2274
(dp2275
g65
(dp2276
sg74
g70
sg67
(lp2277
g60
(g81
g62
NtRp2278
(dp2279
g65
(dp2280
g85
g86
ssg74
g2274
sg67
(lp2281
S'get_vars'
p2282
asbag60
(g81
g62
NtRp2283
(dp2284
g65
(dp2285
g92
g93
ssg74
g2274
sg67
(lp2286
S':'
asbag60
(g81
g62
NtRp2287
(dp2288
g65
(dp2289
sg74
g2274
sg67
(lp2290
g60
(g61
g62
NtRp2291
(dp2292
g65
(dp2293
g73
I5
ssg74
g2287
sg67
(lp2294
g60
(g69
g62
NtRp2295
(dp2296
g65
(dp2297
g73
I4
ssg74
Nsg67
(lp2298
sbasbasbasbag60
(g76
g62
NtRp2299
(dp2300
g65
(dp2301
sg74
g70
sg67
(lp2302
g60
(g81
g62
NtRp2303
(dp2304
g65
(dp2305
g85
g86
ssg74
g2299
sg67
(lp2306
S'global_settings'
p2307
asbag60
(g81
g62
NtRp2308
(dp2309
g65
(dp2310
g92
g93
ssg74
g2299
sg67
(lp2311
S':'
asbag60
(g81
g62
NtRp2312
(dp2313
g65
(dp2314
sg74
g2299
sg67
(lp2315
g60
(g61
g62
NtRp2316
(dp2317
g65
(dp2318
g73
I5
ssg74
g2312
sg67
(lp2319
g60
(g69
g62
NtRp2320
(dp2321
g65
(dp2322
g73
I4
ssg74
Nsg67
(lp2323
g60
(g76
g62
NtRp2324
(dp2325
g65
(dp2326
sg74
g2320
sg67
(lp2327
g60
(g81
g62
NtRp2328
(dp2329
g65
(dp2330
g85
g86
ssg74
g2324
sg67
(lp2331
g1271
asbag60
(g81
g62
NtRp2332
(dp2333
g65
(dp2334
g92
g93
ssg74
g2324
sg67
(lp2335
S':'
asbag60
(g81
g62
NtRp2336
(dp2337
g65
(dp2338
sg74
g2324
sg67
(lp2339
g60
(g61
g62
NtRp2340
(dp2341
g65
(dp2342
g73
I4
ssg74
g2336
sg67
(lp2343
S"set(['/Users/mdipierro/Dropbox/web2py/applications/inplace/', '/Users/mdipierro/Dropbox/web2py/applications/cms/', '/Users/mdipierro/Dropbox/web2py/applications/admin/'])"
p2344
asbasbasbag60
(g76
g62
NtRp2345
(dp2346
g65
(dp2347
sg74
g2320
sg67
(lp2348
g60
(g81
g62
NtRp2349
(dp2350
g65
(dp2351
g85
g86
ssg74
g2345
sg67
(lp2352
g1293
asbag60
(g81
g62
NtRp2353
(dp2354
g65
(dp2355
g92
g93
ssg74
g2345
sg67
(lp2356
S':'
asbag60
(g81
g62
NtRp2357
(dp2358
g65
(dp2359
sg74
g2345
sg67
(lp2360
g60
(g61
g62
NtRp2361
(dp2362
g65
(dp2363
g73
I4
ssg74
g2357
sg67
(lp2364
g1306
asbasbasbag60
(g76
g62
NtRp2365
(dp2366
g65
(dp2367
sg74
g2320
sg67
(lp2368
g60
(g81
g62
NtRp2369
(dp2370
g65
(dp2371
g85
g86
ssg74
g2365
sg67
(lp2372
g1315
asbag60
(g81
g62
NtRp2373
(dp2374
g65
(dp2375
g92
g93
ssg74
g2365
sg67
(lp2376
S':'
asbag60
(g81
g62
NtRp2377
(dp2378
g65
(dp2379
sg74
g2365
sg67
(lp2380
g60
(g61
g62
NtRp2381
(dp2382
g65
(dp2383
g73
I4
ssg74
g2377
sg67
(lp2384
g60
(g69
g62
NtRp2385
(dp2386
g65
(dp2387
g73
I3
ssg74
Nsg67
(lp2388
sbasbasbasbag60
(g76
g62
NtRp2389
(dp2390
g65
(dp2391
sg74
g2320
sg67
(lp2392
g60
(g81
g62
NtRp2393
(dp2394
g65
(dp2395
g85
g86
ssg74
g2389
sg67
(lp2396
g1340
asbag60
(g81
g62
NtRp2397
(dp2398
g65
(dp2399
g92
g93
ssg74
g2389
sg67
(lp2400
S':'
asbag60
(g81
g62
NtRp2401
(dp2402
g65
(dp2403
sg74
g2389
sg67
(lp2404
g60
(g61
g62
NtRp2405
(dp2406
g65
(dp2407
g73
I4
ssg74
g2401
sg67
(lp2408
S"<Values at 0x153a378: {'verbose': False, 'ip': '127.0.0.1', 'shutdown_timeout': 5, 'taskbar': False, 'nocron': False, 'pid_filename': 'httpserver.pid', 'maxthreads': None, 'softcron': False, 'server_name': 'massimo-di-pierros-macbook-2.local', 'bpython': False, 'nogui': False, 'port': 8000, 'extcron': False, 'debuglevel': 30, 'test': None, 'folder': '/Users/mdipierro/Dropbox/web2py', 'config': '', 'import_models': False, 'winservice': '', 'shell': None, 'run': '', 'log_filename': 'httpserver.log', 'args': [''], 'socket_timeout': 1, 'ssl_ca_certificate': None, 'scheduler': None, 'profiler_filename': None, 'ssl_private_key': '', 'password': 'hello', 'request_queue_size': 5, 'ssl_certificate': '', 'cronjob': False, 'numthreads': None, 'quiet': False, 'interfaces': None, 'minthreads': None, 'timeout': 10, 'plain': False, 'nobanner': False}>"
p2409
asbasbasbag60
(g76
g62
NtRp2410
(dp2411
g65
(dp2412
sg74
g2320
sg67
(lp2413
g60
(g81
g62
NtRp2414
(dp2415
g65
(dp2416
g85
g86
ssg74
g2410
sg67
(lp2417
g1362
asbag60
(g81
g62
NtRp2418
(dp2419
g65
(dp2420
g92
g93
ssg74
g2410
sg67
(lp2421
S':'
asbag60
(g81
g62
NtRp2422
(dp2423
g65
(dp2424
sg74
g2410
sg67
(lp2425
g60
(g61
g62
NtRp2426
(dp2427
g65
(dp2428
g73
I4
ssg74
g2422
sg67
(lp2429
S'set([])'
p2430
asbasbasbag60
(g76
g62
NtRp2431
(dp2432
g65
(dp2433
sg74
g2320
sg67
(lp2434
g60
(g81
g62
NtRp2435
(dp2436
g65
(dp2437
g85
g86
ssg74
g2431
sg67
(lp2438
g1384
asbag60
(g81
g62
NtRp2439
(dp2440
g65
(dp2441
g92
g93
ssg74
g2431
sg67
(lp2442
S':'
asbag60
(g81
g62
NtRp2443
(dp2444
g65
(dp2445
sg74
g2431
sg67
(lp2446
g60
(g61
g62
NtRp2447
(dp2448
g65
(dp2449
g73
I4
ssg74
g2443
sg67
(lp2450
g103
asbasbasbag60
(g76
g62
NtRp2451
(dp2452
g65
(dp2453
sg74
g2320
sg67
(lp2454
g60
(g81
g62
NtRp2455
(dp2456
g65
(dp2457
g85
g86
ssg74
g2451
sg67
(lp2458
g1405
asbag60
(g81
g62
NtRp2459
(dp2460
g65
(dp2461
g92
g93
ssg74
g2451
sg67
(lp2462
S':'
asbag60
(g81
g62
NtRp2463
(dp2464
g65
(dp2465
sg74
g2451
sg67
(lp2466
g60
(g61
g62
NtRp2467
(dp2468
g65
(dp2469
g73
I4
ssg74
g2463
sg67
(lp2470
g1418
asbasbasbag60
(g76
g62
NtRp2471
(dp2472
g65
(dp2473
sg74
g2320
sg67
(lp2474
g60
(g81
g62
NtRp2475
(dp2476
g65
(dp2477
g85
g86
ssg74
g2471
sg67
(lp2478
g1625
asbag60
(g81
g62
NtRp2479
(dp2480
g65
(dp2481
g92
g93
ssg74
g2471
sg67
(lp2482
S':'
asbag60
(g81
g62
NtRp2483
(dp2484
g65
(dp2485
sg74
g2471
sg67
(lp2486
g60
(g61
g62
NtRp2487
(dp2488
g65
(dp2489
g73
I4
ssg74
g2483
sg67
(lp2490
g103
asbasbasbag60
(g76
g62
NtRp2491
(dp2492
g65
(dp2493
sg74
g2320
sg67
(lp2494
g60
(g81
g62
NtRp2495
(dp2496
g65
(dp2497
g85
g86
ssg74
g2491
sg67
(lp2498
g1646
asbag60
(g81
g62
NtRp2499
(dp2500
g65
(dp2501
g92
g93
ssg74
g2491
sg67
(lp2502
S':'
asbag60
(g81
g62
NtRp2503
(dp2504
g65
(dp2505
sg74
g2491
sg67
(lp2506
g60
(g61
g62
NtRp2507
(dp2508
g65
(dp2509
g73
I4
ssg74
g2503
sg67
(lp2510
g103
asbasbasbag60
(g76
g62
NtRp2511
(dp2512
g65
(dp2513
sg74
g2320
sg67
(lp2514
g60
(g81
g62
NtRp2515
(dp2516
g65
(dp2517
g85
g86
ssg74
g2511
sg67
(lp2518
g1884
asbag60
(g81
g62
NtRp2519
(dp2520
g65
(dp2521
g92
g93
ssg74
g2511
sg67
(lp2522
S':'
asbag60
(g81
g62
NtRp2523
(dp2524
g65
(dp2525
sg74
g2511
sg67
(lp2526
g60
(g61
g62
NtRp2527
(dp2528
g65
(dp2529
g73
I4
ssg74
g2523
sg67
(lp2530
g1897
asbasbasbag60
(g76
g62
NtRp2531
(dp2532
g65
(dp2533
sg74
g2320
sg67
(lp2534
g60
(g81
g62
NtRp2535
(dp2536
g65
(dp2537
g85
g86
ssg74
g2531
sg67
(lp2538
g1927
asbag60
(g81
g62
NtRp2539
(dp2540
g65
(dp2541
g92
g93
ssg74
g2531
sg67
(lp2542
S':'
asbag60
(g81
g62
NtRp2543
(dp2544
g65
(dp2545
sg74
g2531
sg67
(lp2546
g60
(g61
g62
NtRp2547
(dp2548
g65
(dp2549
g73
I4
ssg74
g2543
sg67
(lp2550
g60
(g69
g62
NtRp2551
(dp2552
g65
(dp2553
g73
I3
ssg74
Nsg67
(lp2554
g60
(g76
g62
NtRp2555
(dp2556
g65
(dp2557
sg74
g2551
sg67
(lp2558
g60
(g81
g62
NtRp2559
(dp2560
g65
(dp2561
sg74
g2555
sg67
(lp2562
g60
(g61
g62
NtRp2563
(dp2564
g65
(dp2565
g73
I3
ssg74
g2559
sg67
(lp2566
S'1'
asbasbasbag60
(g76
g62
NtRp2567
(dp2568
g65
(dp2569
sg74
g2551
sg67
(lp2570
g60
(g81
g62
NtRp2571
(dp2572
g65
(dp2573
sg74
g2567
sg67
(lp2574
g60
(g61
g62
NtRp2575
(dp2576
g65
(dp2577
g73
I3
ssg74
g2571
sg67
(lp2578
S'99'
p2579
asbasbasbag60
(g76
g62
NtRp2580
(dp2581
g65
(dp2582
sg74
g2551
sg67
(lp2583
g60
(g81
g62
NtRp2584
(dp2585
g65
(dp2586
sg74
g2580
sg67
(lp2587
g60
(g61
g62
NtRp2588
(dp2589
g65
(dp2590
g73
I3
ssg74
g2584
sg67
(lp2591
S'3'
asbasbasbag60
(g76
g62
NtRp2592
(dp2593
g65
(dp2594
sg74
g2551
sg67
(lp2595
g60
(g81
g62
NtRp2596
(dp2597
g65
(dp2598
sg74
g2592
sg67
(lp2599
g60
(g61
g62
NtRp2600
(dp2601
g65
(dp2602
g73
I3
ssg74
g2596
sg67
(lp2603
S'datetime.datetime(2011, 12, 9, 21, 5, 4)'
p2604
asbasbasbag60
(g76
g62
NtRp2605
(dp2606
g65
(dp2607
sg74
g2551
sg67
(lp2608
g60
(g81
g62
NtRp2609
(dp2610
g65
(dp2611
sg74
g2605
sg67
(lp2612
g60
(g61
g62
NtRp2613
(dp2614
g65
(dp2615
g73
I3
ssg74
g2609
sg67
(lp2616
g2006
asbasbasbasbasbasbasbasbasbasbasbag60
(g76
g62
NtRp2617
(dp2618
g65
(dp2619
sg74
g70
sg67
(lp2620
g60
(g81
g62
NtRp2621
(dp2622
g65
(dp2623
g85
g86
ssg74
g2617
sg67
(lp2624
S'is_https'
p2625
asbag60
(g81
g62
NtRp2626
(dp2627
g65
(dp2628
g92
g93
ssg74
g2617
sg67
(lp2629
S':'
asbag60
(g81
g62
NtRp2630
(dp2631
g65
(dp2632
sg74
g2617
sg67
(lp2633
g60
(g61
g62
NtRp2634
(dp2635
g65
(dp2636
g73
I5
ssg74
g2630
sg67
(lp2637
g103
asbasbasbag60
(g76
g62
NtRp2638
(dp2639
g65
(dp2640
sg74
g70
sg67
(lp2641
g60
(g81
g62
NtRp2642
(dp2643
g65
(dp2644
g85
g86
ssg74
g2638
sg67
(lp2645
S'is_local'
p2646
asbag60
(g81
g62
NtRp2647
(dp2648
g65
(dp2649
g92
g93
ssg74
g2638
sg67
(lp2650
S':'
asbag60
(g81
g62
NtRp2651
(dp2652
g65
(dp2653
sg74
g2638
sg67
(lp2654
g60
(g61
g62
NtRp2655
(dp2656
g65
(dp2657
g73
I5
ssg74
g2651
sg67
(lp2658
g2115
asbasbasbag60
(g76
g62
NtRp2659
(dp2660
g65
(dp2661
sg74
g70
sg67
(lp2662
g60
(g81
g62
NtRp2663
(dp2664
g65
(dp2665
g85
g86
ssg74
g2659
sg67
(lp2666
S'is_restful'
p2667
asbag60
(g81
g62
NtRp2668
(dp2669
g65
(dp2670
g92
g93
ssg74
g2659
sg67
(lp2671
S':'
asbag60
(g81
g62
NtRp2672
(dp2673
g65
(dp2674
sg74
g2659
sg67
(lp2675
g60
(g61
g62
NtRp2676
(dp2677
g65
(dp2678
g73
I5
ssg74
g2672
sg67
(lp2679
g103
asbasbasbag60
(g76
g62
NtRp2680
(dp2681
g65
(dp2682
sg74
g70
sg67
(lp2683
g60
(g81
g62
NtRp2684
(dp2685
g65
(dp2686
g85
g86
ssg74
g2680
sg67
(lp2687
S'now'
p2688
asbag60
(g81
g62
NtRp2689
(dp2690
g65
(dp2691
g92
g93
ssg74
g2680
sg67
(lp2692
S':'
asbag60
(g81
g62
NtRp2693
(dp2694
g65
(dp2695
sg74
g2680
sg67
(lp2696
g60
(g61
g62
NtRp2697
(dp2698
g65
(dp2699
g73
I5
ssg74
g2693
sg67
(lp2700
S'datetime.datetime(2011, 12, 11, 16, 27, 41, 370202)'
p2701
asbasbasbag60
(g76
g62
NtRp2702
(dp2703
g65
(dp2704
sg74
g70
sg67
(lp2705
g60
(g81
g62
NtRp2706
(dp2707
g65
(dp2708
g85
g86
ssg74
g2702
sg67
(lp2709
S'post_vars'
p2710
asbag60
(g81
g62
NtRp2711
(dp2712
g65
(dp2713
g92
g93
ssg74
g2702
sg67
(lp2714
S':'
asbag60
(g81
g62
NtRp2715
(dp2716
g65
(dp2717
sg74
g2702
sg67
(lp2718
g60
(g61
g62
NtRp2719
(dp2720
g65
(dp2721
g73
I5
ssg74
g2715
sg67
(lp2722
g60
(g69
g62
NtRp2723
(dp2724
g65
(dp2725
g73
I4
ssg74
Nsg67
(lp2726
sbasbasbasbag60
(g76
g62
NtRp2727
(dp2728
g65
(dp2729
sg74
g70
sg67
(lp2730
g60
(g81
g62
NtRp2731
(dp2732
g65
(dp2733
g85
g86
ssg74
g2727
sg67
(lp2734
S'url'
p2735
asbag60
(g81
g62
NtRp2736
(dp2737
g65
(dp2738
g92
g93
ssg74
g2727
sg67
(lp2739
S':'
asbag60
(g81
g62
NtRp2740
(dp2741
g65
(dp2742
sg74
g2727
sg67
(lp2743
g60
(g61
g62
NtRp2744
(dp2745
g65
(dp2746
g73
I5
ssg74
g2740
sg67
(lp2747
S'/inplace/default/index'
p2748
asbasbasbag60
(g76
g62
NtRp2749
(dp2750
g65
(dp2751
sg74
g70
sg67
(lp2752
g60
(g81
g62
NtRp2753
(dp2754
g65
(dp2755
g85
g86
ssg74
g2749
sg67
(lp2756
S'utcnow'
p2757
asbag60
(g81
g62
NtRp2758
(dp2759
g65
(dp2760
g92
g93
ssg74
g2749
sg67
(lp2761
S':'
asbag60
(g81
g62
NtRp2762
(dp2763
g65
(dp2764
sg74
g2749
sg67
(lp2765
g60
(g61
g62
NtRp2766
(dp2767
g65
(dp2768
g73
I5
ssg74
g2762
sg67
(lp2769
S'datetime.datetime(2011, 12, 11, 22, 27, 41, 370213)'
p2770
asbasbasbag60
(g76
g62
NtRp2771
(dp2772
g65
(dp2773
sg74
g70
sg67
(lp2774
g60
(g81
g62
NtRp2775
(dp2776
g65
(dp2777
g85
g86
ssg74
g2771
sg67
(lp2778
S'uuid'
p2779
asbag60
(g81
g62
NtRp2780
(dp2781
g65
(dp2782
g92
g93
ssg74
g2771
sg67
(lp2783
S':'
asbag60
(g81
g62
NtRp2784
(dp2785
g65
(dp2786
sg74
g2771
sg67
(lp2787
g60
(g61
g62
NtRp2788
(dp2789
g65
(dp2790
g73
I5
ssg74
g2784
sg67
(lp2791
S'inplace/127.0.0.1.2011-12-11.16-27-41.9c3ea024-02ae-492f-b2ea-41d7d1bfc3ef'
p2792
asbasbasbag60
(g76
g62
NtRp2793
(dp2794
g65
(dp2795
sg74
g70
sg67
(lp2796
g60
(g81
g62
NtRp2797
(dp2798
g65
(dp2799
g85
g86
ssg74
g2793
sg67
(lp2800
S'vars'
p2801
asbag60
(g81
g62
NtRp2802
(dp2803
g65
(dp2804
g92
g93
ssg74
g2793
sg67
(lp2805
S':'
asbag60
(g81
g62
NtRp2806
(dp2807
g65
(dp2808
sg74
g2793
sg67
(lp2809
g60
(g61
g62
NtRp2810
(dp2811
g65
(dp2812
g73
I5
ssg74
g2806
sg67
(lp2813
g60
(g69
g62
NtRp2814
(dp2815
g65
(dp2816
g73
I4
ssg74
Nsg67
(lp2817
sbasbasbasbag60
(g76
g62
NtRp2818
(dp2819
g65
(dp2820
sg74
g70
sg67
(lp2821
g60
(g81
g62
NtRp2822
(dp2823
g65
(dp2824
g85
g86
ssg74
g2818
sg67
(lp2825
S'wsgi'
p2826
asbag60
(g81
g62
NtRp2827
(dp2828
g65
(dp2829
g92
g93
ssg74
g2818
sg67
(lp2830
S':'
asbag60
(g81
g62
NtRp2831
(dp2832
g65
(dp2833
sg74
g2818
sg67
(lp2834
g60
(g61
g62
NtRp2835
(dp2836
g65
(dp2837
g73
I5
ssg74
g2831
sg67
(lp2838
g60
(g69
g62
NtRp2839
(dp2840
g65
(dp2841
g73
I4
ssg74
Nsg67
(lp2842
g60
(g76
g62
NtRp2843
(dp2844
g65
(dp2845
sg74
g2839
sg67
(lp2846
g60
(g81
g62
NtRp2847
(dp2848
g65
(dp2849
g85
g86
ssg74
g2843
sg67
(lp2850
S'environ'
p2851
asbag60
(g81
g62
NtRp2852
(dp2853
g65
(dp2854
g92
g93
ssg74
g2843
sg67
(lp2855
S':'
asbag60
(g81
g62
NtRp2856
(dp2857
g65
(dp2858
sg74
g2843
sg67
(lp2859
g60
(g61
g62
NtRp2860
(dp2861
g65
(dp2862
g73
I4
ssg74
g2856
sg67
(lp2863
g60
(g69
g62
NtRp2864
(dp2865
g65
(dp2866
g73
I3
ssg74
Nsg67
(lp2867
g60
(g76
g62
NtRp2868
(dp2869
g65
(dp2870
sg74
g2864
sg67
(lp2871
g60
(g81
g62
NtRp2872
(dp2873
g65
(dp2874
g85
g86
ssg74
g2868
sg67
(lp2875
S'HTTP_ACCEPT'
p2876
asbag60
(g81
g62
NtRp2877
(dp2878
g65
(dp2879
g92
g93
ssg74
g2868
sg67
(lp2880
S':'
asbag60
(g81
g62
NtRp2881
(dp2882
g65
(dp2883
sg74
g2868
sg67
(lp2884
g60
(g61
g62
NtRp2885
(dp2886
g65
(dp2887
g73
I3
ssg74
g2881
sg67
(lp2888
g1440
asbasbasbag60
(g76
g62
NtRp2889
(dp2890
g65
(dp2891
sg74
g2864
sg67
(lp2892
g60
(g81
g62
NtRp2893
(dp2894
g65
(dp2895
g85
g86
ssg74
g2889
sg67
(lp2896
S'HTTP_ACCEPT_CHARSET'
p2897
asbag60
(g81
g62
NtRp2898
(dp2899
g65
(dp2900
g92
g93
ssg74
g2889
sg67
(lp2901
S':'
asbag60
(g81
g62
NtRp2902
(dp2903
g65
(dp2904
sg74
g2889
sg67
(lp2905
g60
(g61
g62
NtRp2906
(dp2907
g65
(dp2908
g73
I3
ssg74
g2902
sg67
(lp2909
g1462
asbasbasbag60
(g76
g62
NtRp2910
(dp2911
g65
(dp2912
sg74
g2864
sg67
(lp2913
g60
(g81
g62
NtRp2914
(dp2915
g65
(dp2916
g85
g86
ssg74
g2910
sg67
(lp2917
S'HTTP_ACCEPT_ENCODING'
p2918
asbag60
(g81
g62
NtRp2919
(dp2920
g65
(dp2921
g92
g93
ssg74
g2910
sg67
(lp2922
S':'
asbag60
(g81
g62
NtRp2923
(dp2924
g65
(dp2925
sg74
g2910
sg67
(lp2926
g60
(g61
g62
NtRp2927
(dp2928
g65
(dp2929
g73
I3
ssg74
g2923
sg67
(lp2930
g1484
asbasbasbag60
(g76
g62
NtRp2931
(dp2932
g65
(dp2933
sg74
g2864
sg67
(lp2934
g60
(g81
g62
NtRp2935
(dp2936
g65
(dp2937
g85
g86
ssg74
g2931
sg67
(lp2938
S'HTTP_ACCEPT_LANGUAGE'
p2939
asbag60
(g81
g62
NtRp2940
(dp2941
g65
(dp2942
g92
g93
ssg74
g2931
sg67
(lp2943
S':'
asbag60
(g81
g62
NtRp2944
(dp2945
g65
(dp2946
sg74
g2931
sg67
(lp2947
g60
(g61
g62
NtRp2948
(dp2949
g65
(dp2950
g73
I3
ssg74
g2944
sg67
(lp2951
g1506
asbasbasbag60
(g76
g62
NtRp2952
(dp2953
g65
(dp2954
sg74
g2864
sg67
(lp2955
g60
(g81
g62
NtRp2956
(dp2957
g65
(dp2958
g85
g86
ssg74
g2952
sg67
(lp2959
S'HTTP_CACHE_CONTROL'
p2960
asbag60
(g81
g62
NtRp2961
(dp2962
g65
(dp2963
g92
g93
ssg74
g2952
sg67
(lp2964
S':'
asbag60
(g81
g62
NtRp2965
(dp2966
g65
(dp2967
sg74
g2952
sg67
(lp2968
g60
(g61
g62
NtRp2969
(dp2970
g65
(dp2971
g73
I3
ssg74
g2965
sg67
(lp2972
g1528
asbasbasbag60
(g76
g62
NtRp2973
(dp2974
g65
(dp2975
sg74
g2864
sg67
(lp2976
g60
(g81
g62
NtRp2977
(dp2978
g65
(dp2979
g85
g86
ssg74
g2973
sg67
(lp2980
S'HTTP_CONNECTION'
p2981
asbag60
(g81
g62
NtRp2982
(dp2983
g65
(dp2984
g92
g93
ssg74
g2973
sg67
(lp2985
S':'
asbag60
(g81
g62
NtRp2986
(dp2987
g65
(dp2988
sg74
g2973
sg67
(lp2989
g60
(g61
g62
NtRp2990
(dp2991
g65
(dp2992
g73
I3
ssg74
g2986
sg67
(lp2993
g1550
asbasbasbag60
(g76
g62
NtRp2994
(dp2995
g65
(dp2996
sg74
g2864
sg67
(lp2997
g60
(g81
g62
NtRp2998
(dp2999
g65
(dp3000
g85
g86
ssg74
g2994
sg67
(lp3001
S'HTTP_COOKIE'
p3002
asbag60
(g81
g62
NtRp3003
(dp3004
g65
(dp3005
g92
g93
ssg74
g2994
sg67
(lp3006
S':'
asbag60
(g81
g62
NtRp3007
(dp3008
g65
(dp3009
sg74
g2994
sg67
(lp3010
g60
(g61
g62
NtRp3011
(dp3012
g65
(dp3013
g73
I3
ssg74
g3007
sg67
(lp3014
g1572
asbasbasbag60
(g76
g62
NtRp3015
(dp3016
g65
(dp3017
sg74
g2864
sg67
(lp3018
g60
(g81
g62
NtRp3019
(dp3020
g65
(dp3021
g85
g86
ssg74
g3015
sg67
(lp3022
S'HTTP_HOST'
p3023
asbag60
(g81
g62
NtRp3024
(dp3025
g65
(dp3026
g92
g93
ssg74
g3015
sg67
(lp3027
S':'
asbag60
(g81
g62
NtRp3028
(dp3029
g65
(dp3030
sg74
g3015
sg67
(lp3031
g60
(g61
g62
NtRp3032
(dp3033
g65
(dp3034
g73
I3
ssg74
g3028
sg67
(lp3035
g1594
asbasbasbag60
(g76
g62
NtRp3036
(dp3037
g65
(dp3038
sg74
g2864
sg67
(lp3039
g60
(g81
g62
NtRp3040
(dp3041
g65
(dp3042
g85
g86
ssg74
g3036
sg67
(lp3043
S'HTTP_USER_AGENT'
p3044
asbag60
(g81
g62
NtRp3045
(dp3046
g65
(dp3047
g92
g93
ssg74
g3036
sg67
(lp3048
S':'
asbag60
(g81
g62
NtRp3049
(dp3050
g65
(dp3051
sg74
g3036
sg67
(lp3052
g60
(g61
g62
NtRp3053
(dp3054
g65
(dp3055
g73
I3
ssg74
g3049
sg67
(lp3056
g1616
asbasbasbag60
(g76
g62
NtRp3057
(dp3058
g65
(dp3059
sg74
g2864
sg67
(lp3060
g60
(g81
g62
NtRp3061
(dp3062
g65
(dp3063
g85
g86
ssg74
g3057
sg67
(lp3064
S'PATH_INFO'
p3065
asbag60
(g81
g62
NtRp3066
(dp3067
g65
(dp3068
g92
g93
ssg74
g3057
sg67
(lp3069
S':'
asbag60
(g81
g62
NtRp3070
(dp3071
g65
(dp3072
sg74
g3057
sg67
(lp3073
g60
(g61
g62
NtRp3074
(dp3075
g65
(dp3076
g73
I3
ssg74
g3070
sg67
(lp3077
g1680
asbasbasbag60
(g76
g62
NtRp3078
(dp3079
g65
(dp3080
sg74
g2864
sg67
(lp3081
g60
(g81
g62
NtRp3082
(dp3083
g65
(dp3084
g85
g86
ssg74
g3078
sg67
(lp3085
S'QUERY_STRING'
p3086
asbag60
(g81
g62
NtRp3087
(dp3088
g65
(dp3089
g92
g93
ssg74
g3078
sg67
(lp3090
S':'
asbag60
(g81
g62
NtRp3091
(dp3092
g65
(dp3093
sg74
g3078
sg67
(lp3094
g60
(g61
g62
NtRp3095
(dp3096
g65
(dp3097
g73
I3
ssg74
g3091
sg67
(lp3098
S''
asbasbasbag60
(g76
g62
NtRp3099
(dp3100
g65
(dp3101
sg74
g2864
sg67
(lp3102
g60
(g81
g62
NtRp3103
(dp3104
g65
(dp3105
g85
g86
ssg74
g3099
sg67
(lp3106
S'REMOTE_ADDR'
p3107
asbag60
(g81
g62
NtRp3108
(dp3109
g65
(dp3110
g92
g93
ssg74
g3099
sg67
(lp3111
S':'
asbag60
(g81
g62
NtRp3112
(dp3113
g65
(dp3114
sg74
g3099
sg67
(lp3115
g60
(g61
g62
NtRp3116
(dp3117
g65
(dp3118
g73
I3
ssg74
g3112
sg67
(lp3119
g193
asbasbasbag60
(g76
g62
NtRp3120
(dp3121
g65
(dp3122
sg74
g2864
sg67
(lp3123
g60
(g81
g62
NtRp3124
(dp3125
g65
(dp3126
g85
g86
ssg74
g3120
sg67
(lp3127
S'REMOTE_PORT'
p3128
asbag60
(g81
g62
NtRp3129
(dp3130
g65
(dp3131
g92
g93
ssg74
g3120
sg67
(lp3132
S':'
asbag60
(g81
g62
NtRp3133
(dp3134
g65
(dp3135
sg74
g3120
sg67
(lp3136
g60
(g61
g62
NtRp3137
(dp3138
g65
(dp3139
g73
I3
ssg74
g3133
sg67
(lp3140
g1744
asbasbasbag60
(g76
g62
NtRp3141
(dp3142
g65
(dp3143
sg74
g2864
sg67
(lp3144
g60
(g81
g62
NtRp3145
(dp3146
g65
(dp3147
g85
g86
ssg74
g3141
sg67
(lp3148
S'REQUEST_METHOD'
p3149
asbag60
(g81
g62
NtRp3150
(dp3151
g65
(dp3152
g92
g93
ssg74
g3141
sg67
(lp3153
S':'
asbag60
(g81
g62
NtRp3154
(dp3155
g65
(dp3156
sg74
g3141
sg67
(lp3157
g60
(g61
g62
NtRp3158
(dp3159
g65
(dp3160
g73
I3
ssg74
g3154
sg67
(lp3161
g1766
asbasbasbag60
(g76
g62
NtRp3162
(dp3163
g65
(dp3164
sg74
g2864
sg67
(lp3165
g60
(g81
g62
NtRp3166
(dp3167
g65
(dp3168
g85
g86
ssg74
g3162
sg67
(lp3169
S'SCRIPT_NAME'
p3170
asbag60
(g81
g62
NtRp3171
(dp3172
g65
(dp3173
g92
g93
ssg74
g3162
sg67
(lp3174
S':'
asbag60
(g81
g62
NtRp3175
(dp3176
g65
(dp3177
sg74
g3162
sg67
(lp3178
g60
(g61
g62
NtRp3179
(dp3180
g65
(dp3181
g73
I3
ssg74
g3175
sg67
(lp3182
S''
asbasbasbag60
(g76
g62
NtRp3183
(dp3184
g65
(dp3185
sg74
g2864
sg67
(lp3186
g60
(g81
g62
NtRp3187
(dp3188
g65
(dp3189
g85
g86
ssg74
g3183
sg67
(lp3190
S'SERVER_NAME'
p3191
asbag60
(g81
g62
NtRp3192
(dp3193
g65
(dp3194
g92
g93
ssg74
g3183
sg67
(lp3195
S':'
asbag60
(g81
g62
NtRp3196
(dp3197
g65
(dp3198
sg74
g3183
sg67
(lp3199
g60
(g61
g62
NtRp3200
(dp3201
g65
(dp3202
g73
I3
ssg74
g3196
sg67
(lp3203
g1809
asbasbasbag60
(g76
g62
NtRp3204
(dp3205
g65
(dp3206
sg74
g2864
sg67
(lp3207
g60
(g81
g62
NtRp3208
(dp3209
g65
(dp3210
g85
g86
ssg74
g3204
sg67
(lp3211
S'SERVER_PORT'
p3212
asbag60
(g81
g62
NtRp3213
(dp3214
g65
(dp3215
g92
g93
ssg74
g3204
sg67
(lp3216
S':'
asbag60
(g81
g62
NtRp3217
(dp3218
g65
(dp3219
sg74
g3204
sg67
(lp3220
g60
(g61
g62
NtRp3221
(dp3222
g65
(dp3223
g73
I3
ssg74
g3217
sg67
(lp3224
g1831
asbasbasbag60
(g76
g62
NtRp3225
(dp3226
g65
(dp3227
sg74
g2864
sg67
(lp3228
g60
(g81
g62
NtRp3229
(dp3230
g65
(dp3231
g85
g86
ssg74
g3225
sg67
(lp3232
S'SERVER_PROTOCOL'
p3233
asbag60
(g81
g62
NtRp3234
(dp3235
g65
(dp3236
g92
g93
ssg74
g3225
sg67
(lp3237
S':'
asbag60
(g81
g62
NtRp3238
(dp3239
g65
(dp3240
sg74
g3225
sg67
(lp3241
g60
(g61
g62
NtRp3242
(dp3243
g65
(dp3244
g73
I3
ssg74
g3238
sg67
(lp3245
g1853
asbasbasbag60
(g76
g62
NtRp3246
(dp3247
g65
(dp3248
sg74
g2864
sg67
(lp3249
g60
(g81
g62
NtRp3250
(dp3251
g65
(dp3252
g85
g86
ssg74
g3246
sg67
(lp3253
S'SERVER_SOFTWARE'
p3254
asbag60
(g81
g62
NtRp3255
(dp3256
g65
(dp3257
g92
g93
ssg74
g3246
sg67
(lp3258
S':'
asbag60
(g81
g62
NtRp3259
(dp3260
g65
(dp3261
sg74
g3246
sg67
(lp3262
g60
(g61
g62
NtRp3263
(dp3264
g65
(dp3265
g73
I3
ssg74
g3259
sg67
(lp3266
g1875
asbasbasbag60
(g76
g62
NtRp3267
(dp3268
g65
(dp3269
sg74
g2864
sg67
(lp3270
g60
(g81
g62
NtRp3271
(dp3272
g65
(dp3273
g85
g86
ssg74
g3267
sg67
(lp3274
S'wsgi.errors'
p3275
asbag60
(g81
g62
NtRp3276
(dp3277
g65
(dp3278
g92
g93
ssg74
g3267
sg67
(lp3279
S':'
asbag60
(g81
g62
NtRp3280
(dp3281
g65
(dp3282
sg74
g3267
sg67
(lp3283
g60
(g61
g62
NtRp3284
(dp3285
g65
(dp3286
g73
I3
ssg74
g3280
sg67
(lp3287
S"<open file '<stderr>', mode 'w' at 0x1620b0>"
p3288
asbasbasbag60
(g76
g62
NtRp3289
(dp3290
g65
(dp3291
sg74
g2864
sg67
(lp3292
g60
(g81
g62
NtRp3293
(dp3294
g65
(dp3295
g85
g86
ssg74
g3289
sg67
(lp3296
S'wsgi.file_wrapper'
p3297
asbag60
(g81
g62
NtRp3298
(dp3299
g65
(dp3300
g92
g93
ssg74
g3289
sg67
(lp3301
S':'
asbag60
(g81
g62
NtRp3302
(dp3303
g65
(dp3304
sg74
g3289
sg67
(lp3305
g60
(g61
g62
NtRp3306
(dp3307
g65
(dp3308
g73
I3
ssg74
g3302
sg67
(lp3309
S'<class wsgiref.util.FileWrapper at 0x7c2840>'
p3310
asbasbasbag60
(g76
g62
NtRp3311
(dp3312
g65
(dp3313
sg74
g2864
sg67
(lp3314
g60
(g81
g62
NtRp3315
(dp3316
g65
(dp3317
g85
g86
ssg74
g3311
sg67
(lp3318
S'wsgi.input'
p3319
asbag60
(g81
g62
NtRp3320
(dp3321
g65
(dp3322
g92
g93
ssg74
g3311
sg67
(lp3323
S':'
asbag60
(g81
g62
NtRp3324
(dp3325
g65
(dp3326
sg74
g3311
sg67
(lp3327
g60
(g61
g62
NtRp3328
(dp3329
g65
(dp3330
g73
I3
ssg74
g3324
sg67
(lp3331
S'<cStringIO.StringO object at 0x1e6d4a0>'
p3332
asbasbasbag60
(g76
g62
NtRp3333
(dp3334
g65
(dp3335
sg74
g2864
sg67
(lp3336
g60
(g81
g62
NtRp3337
(dp3338
g65
(dp3339
g85
g86
ssg74
g3333
sg67
(lp3340
S'wsgi.multiprocess'
p3341
asbag60
(g81
g62
NtRp3342
(dp3343
g65
(dp3344
g92
g93
ssg74
g3333
sg67
(lp3345
S':'
asbag60
(g81
g62
NtRp3346
(dp3347
g65
(dp3348
sg74
g3333
sg67
(lp3349
g60
(g61
g62
NtRp3350
(dp3351
g65
(dp3352
g73
I3
ssg74
g3346
sg67
(lp3353
g103
asbasbasbag60
(g76
g62
NtRp3354
(dp3355
g65
(dp3356
sg74
g2864
sg67
(lp3357
g60
(g81
g62
NtRp3358
(dp3359
g65
(dp3360
g85
g86
ssg74
g3354
sg67
(lp3361
S'wsgi.multithread'
p3362
asbag60
(g81
g62
NtRp3363
(dp3364
g65
(dp3365
g92
g93
ssg74
g3354
sg67
(lp3366
S':'
asbag60
(g81
g62
NtRp3367
(dp3368
g65
(dp3369
sg74
g3354
sg67
(lp3370
g60
(g61
g62
NtRp3371
(dp3372
g65
(dp3373
g73
I3
ssg74
g3367
sg67
(lp3374
g2115
asbasbasbag60
(g76
g62
NtRp3375
(dp3376
g65
(dp3377
sg74
g2864
sg67
(lp3378
g60
(g81
g62
NtRp3379
(dp3380
g65
(dp3381
g85
g86
ssg74
g3375
sg67
(lp3382
S'wsgi.run_once'
p3383
asbag60
(g81
g62
NtRp3384
(dp3385
g65
(dp3386
g92
g93
ssg74
g3375
sg67
(lp3387
S':'
asbag60
(g81
g62
NtRp3388
(dp3389
g65
(dp3390
sg74
g3375
sg67
(lp3391
g60
(g61
g62
NtRp3392
(dp3393
g65
(dp3394
g73
I3
ssg74
g3388
sg67
(lp3395
g103
asbasbasbag60
(g76
g62
NtRp3396
(dp3397
g65
(dp3398
sg74
g2864
sg67
(lp3399
g60
(g81
g62
NtRp3400
(dp3401
g65
(dp3402
g85
g86
ssg74
g3396
sg67
(lp3403
S'wsgi.url_scheme'
p3404
asbag60
(g81
g62
NtRp3405
(dp3406
g65
(dp3407
g92
g93
ssg74
g3396
sg67
(lp3408
S':'
asbag60
(g81
g62
NtRp3409
(dp3410
g65
(dp3411
sg74
g3396
sg67
(lp3412
g60
(g61
g62
NtRp3413
(dp3414
g65
(dp3415
g73
I3
ssg74
g3409
sg67
(lp3416
g2158
asbasbasbag60
(g76
g62
NtRp3417
(dp3418
g65
(dp3419
sg74
g2864
sg67
(lp3420
g60
(g81
g62
NtRp3421
(dp3422
g65
(dp3423
g85
g86
ssg74
g3417
sg67
(lp3424
S'wsgi.version'
p3425
asbag60
(g81
g62
NtRp3426
(dp3427
g65
(dp3428
g92
g93
ssg74
g3417
sg67
(lp3429
S':'
asbag60
(g81
g62
NtRp3430
(dp3431
g65
(dp3432
sg74
g3417
sg67
(lp3433
g60
(g61
g62
NtRp3434
(dp3435
g65
(dp3436
g73
I3
ssg74
g3430
sg67
(lp3437
S'1'
asbasbasbasbasbasbasbasbasbasbasbasbasbsS'frames'
p3438
(lp3439
(dp3440
S'file'
p3441
S'/Users/mdipierro/Dropbox/web2py/gluon/restricted.py'
p3442
sS'dump'
p3443
(dp3444
S'code'
p3445
S'r"response.write(\'<!DOCTYPE html>\\n<!-- paulirish....ponse.write(\'\\n</body>\\n</html>\\n\', escape=False)"'
p3446
sS'layer'
p3447
S"'/Users/mdipierro/Dropbox/web2py/applications/inplace/views/default/index.html'"
p3448
sS'global compile2'
p3449
S'<function compile2 at 0x51f3f0>'
p3450
sS'ccode'
p3451
S'undefined'
p3452
ssS'lnum'
p3453
I203
sS'lines'
p3454
(dp3455
I198
S"    environment['__file__'] = layer"
p3456
sI199
S'    try:'
p3457
sI200
S'        if type(code) == types.CodeType:'
p3458
sI201
S'            ccode = code'
p3459
sI202
S'        else:'
p3460
sI203
S'            ccode = compile2(code,layer)'
p3461
sI204
S'        exec ccode in environment'
p3462
sI205
S'    except HTTP:'
p3463
sI206
S'        raise'
p3464
sI207
S'    except RestrictedError:'
p3465
ssS'call'
p3466
S'(code=r"response.write(\'<!DOCTYPE html>\\n<!-- paulirish....ponse.write(\'\\n</body>\\n</html>\\n\', escape=False)", environment={\'A\': <class \'gluon.html.A\'>, \'Auth\': <class \'gluon.tools.Auth\'>, \'B\': <class \'gluon.html.B\'>, \'BEAUTIFY\': <class \'gluon.html.BEAUTIFY\'>, \'BODY\': <class \'gluon.html.BODY\'>, \'BR\': <class \'gluon.html.BR\'>, \'BUTTON\': <class \'gluon.html.BUTTON\'>, \'CAT\': <class \'gluon.html.CAT\'>, \'CENTER\': <class \'gluon.html.CENTER\'>, \'CLEANUP\': <class \'gluon.validators.CLEANUP\'>, ...}, layer=\'/Users/mdipierro/Dropbox/web2py/applications/inplace/views/default/index.html\')'
p3467
sS'func'
p3468
S'restricted'
p3469
sa(dp3470
g3441
S'/Users/mdipierro/Dropbox/web2py/gluon/restricted.py'
p3471
sg3443
(dp3472
S'builtincompile'
p3473
S'<built-in function compile>'
p3474
sS'code'
p3475
S'r"response.write(\'<!DOCTYPE html>\\n<!-- paulirish....ponse.write(\'\\n</body>\\n</html>\\n\', escape=False)"'
p3476
sS'code.rstrip'
p3477
S'<built-in method rstrip of str object at 0x9cf000>'
p3478
sS').replace'
p3479
g3452
sS'layer'
p3480
S"'/Users/mdipierro/Dropbox/web2py/applications/inplace/views/default/index.html'"
p3481
ssg3453
I189
sg3454
(dp3482
I192
S'    """'
p3483
sI193
S'    runs code in environment and returns the output. if an exception occurs'
p3484
sI184
S''
sI185
S'def compile2(code,layer):'
p3485
sI186
S'    """'
p3486
sI187
S"    The +'\\n' is necessary else compile fails when code ends in a comment."
p3487
sI188
S'    """'
p3488
sI189
S"    return compile(code.rstrip().replace('\\r\\n','\\n')+'\\n', layer, 'exec')"
p3489
sI190
S''
sI191
S"def restricted(code, environment=None, layer='Unknown'):"
p3490
ssg3466
S'(code=r"response.write(\'<!DOCTYPE html>\\n<!-- paulirish....ponse.write(\'\\n</body>\\n</html>\\n\', escape=False)", layer=\'/Users/mdipierro/Dropbox/web2py/applications/inplace/views/default/index.html\')'
p3491
sg3468
S'compile2'
p3492
sasS'pyver'
p3493
S'Python 2.5.4: /usr/bin/python2.5'
p3494
sS'session'
p3495
g60
(g61
g62
NtRp3496
(dp3497
g65
(dp3498
sg67
(lp3499
g60
(g69
g62
NtRp3500
(dp3501
g65
(dp3502
g73
I5
ssg74
Nsg67
(lp3503
g60
(g76
g62
NtRp3504
(dp3505
g65
(dp3506
sg74
g3500
sg67
(lp3507
g60
(g81
g62
NtRp3508
(dp3509
g65
(dp3510
g85
g86
ssg74
g3504
sg67
(lp3511
S'auth'
p3512
asbag60
(g81
g62
NtRp3513
(dp3514
g65
(dp3515
g92
g93
ssg74
g3504
sg67
(lp3516
S':'
asbag60
(g81
g62
NtRp3517
(dp3518
g65
(dp3519
sg74
g3504
sg67
(lp3520
g60
(g61
g62
NtRp3521
(dp3522
g65
(dp3523
g73
I5
ssg74
g3517
sg67
(lp3524
g60
(g69
g62
NtRp3525
(dp3526
g65
(dp3527
g73
I4
ssg74
Nsg67
(lp3528
g60
(g76
g62
NtRp3529
(dp3530
g65
(dp3531
sg74
g3525
sg67
(lp3532
g60
(g81
g62
NtRp3533
(dp3534
g65
(dp3535
g85
g86
ssg74
g3529
sg67
(lp3536
S'expiration'
p3537
asbag60
(g81
g62
NtRp3538
(dp3539
g65
(dp3540
g92
g93
ssg74
g3529
sg67
(lp3541
S':'
asbag60
(g81
g62
NtRp3542
(dp3543
g65
(dp3544
sg74
g3529
sg67
(lp3545
g60
(g61
g62
NtRp3546
(dp3547
g65
(dp3548
g73
I4
ssg74
g3542
sg67
(lp3549
S'3600'
p3550
asbasbasbag60
(g76
g62
NtRp3551
(dp3552
g65
(dp3553
sg74
g3525
sg67
(lp3554
g60
(g81
g62
NtRp3555
(dp3556
g65
(dp3557
g85
g86
ssg74
g3551
sg67
(lp3558
S'hmac_key'
p3559
asbag60
(g81
g62
NtRp3560
(dp3561
g65
(dp3562
g92
g93
ssg74
g3551
sg67
(lp3563
S':'
asbag60
(g81
g62
NtRp3564
(dp3565
g65
(dp3566
sg74
g3551
sg67
(lp3567
g60
(g61
g62
NtRp3568
(dp3569
g65
(dp3570
g73
I4
ssg74
g3564
sg67
(lp3571
S'0b48d067-c8d0-4f2e-9c3d-d54e1884cecf'
p3572
asbasbasbag60
(g76
g62
NtRp3573
(dp3574
g65
(dp3575
sg74
g3525
sg67
(lp3576
g60
(g81
g62
NtRp3577
(dp3578
g65
(dp3579
g85
g86
ssg74
g3573
sg67
(lp3580
S'last_visit'
p3581
asbag60
(g81
g62
NtRp3582
(dp3583
g65
(dp3584
g92
g93
ssg74
g3573
sg67
(lp3585
S':'
asbag60
(g81
g62
NtRp3586
(dp3587
g65
(dp3588
sg74
g3573
sg67
(lp3589
g60
(g61
g62
NtRp3590
(dp3591
g65
(dp3592
g73
I4
ssg74
g3586
sg67
(lp3593
S'datetime.datetime(2011, 12, 11, 16, 21, 59, 755656)'
p3594
asbasbasbag60
(g76
g62
NtRp3595
(dp3596
g65
(dp3597
sg74
g3525
sg67
(lp3598
g60
(g81
g62
NtRp3599
(dp3600
g65
(dp3601
g85
g86
ssg74
g3595
sg67
(lp3602
S'user'
p3603
asbag60
(g81
g62
NtRp3604
(dp3605
g65
(dp3606
g92
g93
ssg74
g3595
sg67
(lp3607
S':'
asbag60
(g81
g62
NtRp3608
(dp3609
g65
(dp3610
sg74
g3595
sg67
(lp3611
g60
(g61
g62
NtRp3612
(dp3613
g65
(dp3614
g73
I4
ssg74
g3608
sg67
(lp3615
g60
(g69
g62
NtRp3616
(dp3617
g65
(dp3618
g73
I3
ssg74
Nsg67
(lp3619
g60
(g76
g62
NtRp3620
(dp3621
g65
(dp3622
sg74
g3616
sg67
(lp3623
g60
(g81
g62
NtRp3624
(dp3625
g65
(dp3626
g85
g86
ssg74
g3620
sg67
(lp3627
S'email'
p3628
asbag60
(g81
g62
NtRp3629
(dp3630
g65
(dp3631
g92
g93
ssg74
g3620
sg67
(lp3632
S':'
asbag60
(g81
g62
NtRp3633
(dp3634
g65
(dp3635
sg74
g3620
sg67
(lp3636
g60
(g61
g62
NtRp3637
(dp3638
g65
(dp3639
g73
I3
ssg74
g3633
sg67
(lp3640
S'mdipierro@cs.depaul.edu'
p3641
asbasbasbag60
(g76
g62
NtRp3642
(dp3643
g65
(dp3644
sg74
g3616
sg67
(lp3645
g60
(g81
g62
NtRp3646
(dp3647
g65
(dp3648
g85
g86
ssg74
g3642
sg67
(lp3649
S'first_name'
p3650
asbag60
(g81
g62
NtRp3651
(dp3652
g65
(dp3653
g92
g93
ssg74
g3642
sg67
(lp3654
S':'
asbag60
(g81
g62
NtRp3655
(dp3656
g65
(dp3657
sg74
g3642
sg67
(lp3658
g60
(g61
g62
NtRp3659
(dp3660
g65
(dp3661
g73
I3
ssg74
g3655
sg67
(lp3662
S'Massimo'
p3663
asbasbasbag60
(g76
g62
NtRp3664
(dp3665
g65
(dp3666
sg74
g3616
sg67
(lp3667
g60
(g81
g62
NtRp3668
(dp3669
g65
(dp3670
g85
g86
ssg74
g3664
sg67
(lp3671
S'id'
p3672
asbag60
(g81
g62
NtRp3673
(dp3674
g65
(dp3675
g92
g93
ssg74
g3664
sg67
(lp3676
S':'
asbag60
(g81
g62
NtRp3677
(dp3678
g65
(dp3679
sg74
g3664
sg67
(lp3680
g60
(g61
g62
NtRp3681
(dp3682
g65
(dp3683
g73
I3
ssg74
g3677
sg67
(lp3684
S'1'
asbasbasbag60
(g76
g62
NtRp3685
(dp3686
g65
(dp3687
sg74
g3616
sg67
(lp3688
g60
(g81
g62
NtRp3689
(dp3690
g65
(dp3691
g85
g86
ssg74
g3685
sg67
(lp3692
S'last_name'
p3693
asbag60
(g81
g62
NtRp3694
(dp3695
g65
(dp3696
g92
g93
ssg74
g3685
sg67
(lp3697
S':'
asbag60
(g81
g62
NtRp3698
(dp3699
g65
(dp3700
sg74
g3685
sg67
(lp3701
g60
(g61
g62
NtRp3702
(dp3703
g65
(dp3704
g73
I3
ssg74
g3698
sg67
(lp3705
S'Di Pierro'
p3706
asbasbasbag60
(g76
g62
NtRp3707
(dp3708
g65
(dp3709
sg74
g3616
sg67
(lp3710
g60
(g81
g62
NtRp3711
(dp3712
g65
(dp3713
g85
g86
ssg74
g3707
sg67
(lp3714
S'password'
p3715
asbag60
(g81
g62
NtRp3716
(dp3717
g65
(dp3718
g92
g93
ssg74
g3707
sg67
(lp3719
S':'
asbag60
(g81
g62
NtRp3720
(dp3721
g65
(dp3722
sg74
g3707
sg67
(lp3723
g60
(g61
g62
NtRp3724
(dp3725
g65
(dp3726
g73
I3
ssg74
g3720
sg67
(lp3727
S'12923092f4d9e86e56018b9cdd790947'
p3728
asbasbasbag60
(g76
g62
NtRp3729
(dp3730
g65
(dp3731
sg74
g3616
sg67
(lp3732
g60
(g81
g62
NtRp3733
(dp3734
g65
(dp3735
g85
g86
ssg74
g3729
sg67
(lp3736
S'registration_id'
p3737
asbag60
(g81
g62
NtRp3738
(dp3739
g65
(dp3740
g92
g93
ssg74
g3729
sg67
(lp3741
S':'
asbag60
(g81
g62
NtRp3742
(dp3743
g65
(dp3744
sg74
g3729
sg67
(lp3745
g60
(g61
g62
NtRp3746
(dp3747
g65
(dp3748
g73
I3
ssg74
g3742
sg67
(lp3749
S''
asbasbasbag60
(g76
g62
NtRp3750
(dp3751
g65
(dp3752
sg74
g3616
sg67
(lp3753
g60
(g81
g62
NtRp3754
(dp3755
g65
(dp3756
g85
g86
ssg74
g3750
sg67
(lp3757
S'registration_key'
p3758
asbag60
(g81
g62
NtRp3759
(dp3760
g65
(dp3761
g92
g93
ssg74
g3750
sg67
(lp3762
S':'
asbag60
(g81
g62
NtRp3763
(dp3764
g65
(dp3765
sg74
g3750
sg67
(lp3766
g60
(g61
g62
NtRp3767
(dp3768
g65
(dp3769
g73
I3
ssg74
g3763
sg67
(lp3770
S''
asbasbasbag60
(g76
g62
NtRp3771
(dp3772
g65
(dp3773
sg74
g3616
sg67
(lp3774
g60
(g81
g62
NtRp3775
(dp3776
g65
(dp3777
g85
g86
ssg74
g3771
sg67
(lp3778
S'reset_password_key'
p3779
asbag60
(g81
g62
NtRp3780
(dp3781
g65
(dp3782
g92
g93
ssg74
g3771
sg67
(lp3783
S':'
asbag60
(g81
g62
NtRp3784
(dp3785
g65
(dp3786
sg74
g3771
sg67
(lp3787
g60
(g61
g62
NtRp3788
(dp3789
g65
(dp3790
g73
I3
ssg74
g3784
sg67
(lp3791
S''
asbasbasbasbasbasbasbasbasbasbasbag60
(g76
g62
NtRp3792
(dp3793
g65
(dp3794
sg74
g3500
sg67
(lp3795
g60
(g81
g62
NtRp3796
(dp3797
g65
(dp3798
g85
g86
ssg74
g3792
sg67
(lp3799
S'html'
p3800
asbag60
(g81
g62
NtRp3801
(dp3802
g65
(dp3803
g92
g93
ssg74
g3792
sg67
(lp3804
S':'
asbag60
(g81
g62
NtRp3805
(dp3806
g65
(dp3807
sg74
g3792
sg67
(lp3808
g60
(g61
g62
NtRp3809
(dp3810
g65
(dp3811
g73
I5
ssg74
g3805
sg67
(lp3812
S'\n<!DOCTYPE html>\n<!-- paulirish.com/2008/conditional-stylesheets-vs-css-hacks-answer-neither/ -->\n<!--[if lt IE 7]><html class="ie ie6 ie-lte9 ie-lte8 ie-lte7 no-js" lang="en"> <![endif]-->\n<!--[if IE 7]><html class="ie ie7 ie-lte9 ie-lte8 ie-lte7 no-js" lang="en"> <![endif]-->\n<!--[if IE 8]><html class="ie ie8 ie-lte9 ie-lte8 no-js" lang="en"> <![endif]-->\n<!--[if IE 9]><html class="ie9 ie-lte9 no-js" lang="en"> <![endif]-->\n<!--[if (gt IE 9)|!(IE)]><!--> <html class="no-js" lang="en"> <!--<![endif]-->\n<head>\n  <meta charset="utf-8" />\n  <!-- www.phpied.com/conditional-comments-block-downloads/ -->\n  <!-- Always force latest IE rendering engine\n\t   (even in intranet) & Chrome Frame\n\t   Remove this if you use the .htaccess -->\n  <!--[if IE]>\n    <meta http-equiv="X-UA-Compatible" content="IE=edge">\n  <![endif]-->\n  \n  <title>web2py Web Framework</title>\n  \n  <!-- http://dev.w3.org/html5/markup/meta.name.html -->\n  <meta name="application-name" content="examples" />\n  \n  <!-- Speaking of Google, don\'t forget to set your site up:\n\t   http://google.com/webmasters -->\n  <meta name="google-site-verification" content="" />\n\n  <!--  Mobile Viewport Fix\n\t  j.mp/mobileviewport & davidbcalhoun.com/2010/viewport-metatag\n\t  device-width: Occupy full width of the screen in its current orientation\n\t  initial-scale = 1.0 retains dimensions instead of zooming out if page height > device height\n\t  user-scalable = yes allows the user to zoom in -->\n  <meta name="viewport" content="width=device-width, initial-scale=1.0, user-scalable=yes">\n  \n  <!-- Place favicon.ico and apple-touch-icon.png in the root of your domain and delete these references -->\n  <link rel="shortcut icon" href="/examples/static/favicon.ico" type="image/x-icon">\n  <link rel="apple-touch-icon" href="/examples/static/favicon.png">\n\n  <!-- All JavaScript at the bottom, except for Modernizr which enables \n\t   HTML5 elements & feature detects -->\n  <script src="/examples/static/js/modernizr.custom.js"></script>  \n\n  <!-- include stylesheets -->\n  \n\n  <script type="text/javascript"><!--\n    // These variables are used by the web2py_ajax_init function in web2py_ajax.js (which is loaded below).\n    var w2p_ajax_confirm_message = "Are you sure you want to delete this object?";\n    var w2p_ajax_date_format = "%Y-%m-%d";\n    var w2p_ajax_datetime_format = "%Y-%m-%d %H:%M:%S";\n    //--></script>\n<script src="/examples/static/js/jquery.js" type="text/javascript"></script><link href="/examples/static/css/calendar.css" rel="stylesheet" type="text/css" /><script src="/examples/static/js/calendar.js" type="text/javascript"></script><script src="/examples/static/js/web2py.js" type="text/javascript"></script><link href="/examples/static/css/skeleton.css" rel="stylesheet" type="text/css" /><link href="/examples/static/css/web2py.css" rel="stylesheet" type="text/css" /><link href="/examples/static/css/examples.css" rel="stylesheet" type="text/css" /><link href="/examples/static/css/superfish.css" rel="stylesheet" type="text/css" /><script src="/examples/static/js/superfish.js" type="text/javascript"></script>\n\n\n  <script type="text/javascript">\n    jQuery(function(){jQuery(\'.sf-menu\').superfish();});\n  </script>\n\n  \n\n  <!-- uncomment here to load jquery-ui\n  <link rel="stylesheet" href="http://ajax.googleapis.com/ajax/libs/jqueryui/1.8.16/themes/base/jquery-ui.css" type="text/css" media="all" />\n  <script src="http://ajax.googleapis.com/ajax/libs/jqueryui/1.8.16/jquery-ui.min.js" type="text/javascript"></script>\n  uncomment to load jquery-ui //-->\n  </style>\n</head>\n<body>\n  <div class="wrapper"><!-- for sticky footer -->    \n    <div class="flash"></div>    \n    <div class="header">\n      <div class="container">\n        <div class="sixteen columns">\n\t  <img src="/examples/static/images/web2py_logo.png" />\n          <h5></h5>\n        </div>\n        \n        <div class="sixteen columns statusbar">\n\t  \n\t  \n          <div id="menu"><ul class="sf-menu"><li><a href="/examples/default/index">Home</a></li><li><a href="/examples/default/what">About</a></li><li><a href="/examples/default/download">Download</a></li><li><a href="/examples/default/documentation">Docs &amp; Resources</a></li><li><a href="/examples/default/support">Support</a></li><li><a href="/examples/default/who">Contributors</a></li></ul>\n\t    \n            <!-- AddToAny BEGIN -->\n            <div style="float:right;padding-top:6px;" class="a2a_kit a2a_default_style">\n            <a class="a2a_dd" href="http://www.addtoany.com/share_save">Share</a></div>\n            <script type="text/javascript" src="http://static.addtoany.com/menu/page.js"></script>\n            <!-- AddToAny END -->\n          </div>\n\t  \n\t  <div class="sixteen columns announce">\n\t    <a href="http://www.infoworld.com/d/open-source-software/bossie-awards-2011-the-best-open-source-application-development-software-171759-0&current=10&last=1#slideshowTop">2011 BOSSIE AWARD FOR OPEN SOURCE DEVELOPMENT SOFTWARE</a>\n          </div>\n\t</div>\n      </div>\n    </div>\n    <div class="main">\n      <div class="container mainbody">\t\n        <div class="sixteen columns">\n          <div class="ten columns center">\n            \n            \n\n<center>\n  <img src="/examples/static/images/tag-cloud-color-small.png"/>\n</center>\n\n<h3>WEB2PY<sup>TM</sup> WEB FRAMEWORK</h3>\n<p>Free open source full-stack framework for rapid development of fast, scalable, <a href="http://www.web2py.com/book/default/chapter/01#security" target="_blank">secure</a> and portable database-driven web-based applications. Written and programmable in <a href="http://www.python.org" target="_blank">Python</a>. <a href="http://www.gnu.org/licenses/lgpl.html">LGPLv3 License</a>.\nCurrent version: 1.99.3 (2011-12-09 16:18:03) stable</p>\n\n\n\n\n\n\n            \n          </div>\n          \n          \n          <div class="five columns">\n            \n<div style="text-align:center">\n  <a href="http://web2py.com/book"><img src="/examples/static/images/tablet.png" alt="Tablet" /></a><br/>\n  <a href="http://www.lulu.com/product/paperback/web2py-book-(4th-edition)/18738286"><img src="http://static.lulu.com/images/services/buy_now_buttons/us/book.gif?20111206124946" border="0" alt="Support independent publishing: Buy this book on Lulu."></a><br/>\n  <a class="button" href="/examples/default/download" style="width:90%">DOWNLOAD NOW</a><br/>\n  <a class="button" href="http://web2py.com/demo_admin" style="width:90%">ONLINE DEMO</a><br/>\n  <a class="button" href="http://web2py.com/poweredby" style="width:90%">SITES POWERED</a>\n</div>\n\n          </div>    \n          \n        </div>\n      </div><!-- container -->\n      \n<div class="container">\n  <div class="sixteen columns">\n    <div class="five columns">\n      <h3><a href="/examples/default/about">BATTERIES INCLUDED</a></h3>\n      <p>Everything you need in one package including fast multi-threaded web server, SQL database and web-based interface. No third party dependencies but works with <a href=/examples/default/what>third party tools</a>.</p>\n    </div>\n    <div class="five columns">\n      <h3><a href="http://web2py.com/demo_admin">WEB-BASED IDE</a></h3>\n      <p>Create, modify, deploy and manage application from anywhere using your browser. One web2py instance can run multiple web sites using different databases. Try the <a href="http://web2py.com/demo_admin">interactive demo</a>.</p>\n    </div>\n    <div class="five columns">\n      <h3><a href="/examples/default/documentation">EXTENSIVE DOCS</a></h3>\n      <p>Start with some <a href="/examples/default/examples">quick examples</a>, then read the <a href="http://web2py.com/book">reference manual</a>, watch <a href="http://vimeo.com/album/178500">videos</a>, and join a <a href="/examples/default/usergroups">user group</a> for discussion. Take advantage of the <a href="http://web2py.com/layouts">layouts</a>, <a href="http://dev.s-cubism.com/web2py_plugins">plugins</a>, and <a href="http://web2pyslices.com">recipes</a>.</p>\n    </div>\n  </div>\n</div>\n<div class="container">\n  <div class="sixteen columns">\n    <img src="/examples/static/images/shadow-bottom.png" width="100%"/>\n    \n    <div class="five columns">\n      <em>\n\t<p>Please use www.web2py.com when using MVC , no PHP/SQL stuff please...its 2011 not 1999</p>\n      </em>\n      <span class="right">\n\t<a href="http://twitter.com/#!/rabblesoft/status/79189028431343616"><em>rabblesoft</em></a>\n      </span>\n    </div>\n    \n    <div class="five columns">\n      <em>\n\t<p>web2py was the life saver today for me, my blog post: Standalone Usage of web2py&#x27;s</p>\n      </em>\n      <span class="right">\n\t<a href="http://twitter.com/#!/caglartoklu/status/84292131707031553"><em>caglartoklu</em></a>\n      </span>\n    </div>\n    \n    <div class="five columns">\n      <em>\n\t<p>web2py it is. Compatible with everything under the sun and great interfaces to googleappengine</p>\n      </em>\n      <span class="right">\n\t<a href="http://twitter.com/#!/comamitc/status/51744719071477760"><em>comamitc</em></a>\n      </span>\n    </div>\n    \n  </div>\n</div>\n      \n      \n    </div><!-- main -->\n    \n    <div class="push"></div>\n  </div><!-- wrapper -->\n\n  <div class="footer">\n    <div class="container header">    \n      <div class="sixteen columns">\n         <!-- this is default footer -->\n        <div class="footer-content" >\n          Copyright &#169; 2011\n\t  - User communities in <a href="https://groups.google.com/forum/?fromgroups#!forum/web2py" target="_blank">English<a>, <a href="https://groups.google.com/forum/?fromgroups#!forum/web2py-fr" target="_blank">French</a>, <a href="https://groups.google.com/forum/?fromgroups#!forum/web2py-japan" target="_blank">Japanese</a>, <a href="https://groups.google.com/forum/?fromgroups#!forum/web2py-users-brazil" target="_blank">Portuguese</a>, and <a href="https://groups.google.com/forum/?fromgroups#!forum/web2py-usuarios" target="_blank">Spanish</a>.\n          <div style="float: right;">\n            <a href="http://www.web2py.com/" style="float: left; padding-right: 6px;">\n            <img style="padding-bottom: 0;" src="/examples/static/images/poweredby.png"/>\n            </a>\n          </div>\n        </div>\n        \t\n      </div>\n    </div><!-- container -->\n  </div><!-- footer -->\n  \n  <!--[if lt IE 7 ]>\n\t<script src="/examples/static/js/dd_belatedpng.js"></script>\n\t<script> DD_belatedPNG.fix(\'img, .png_bg\'); //fix any <img> or .png_bg background-images </script>\n\t<![endif]-->\n  \n</body>\n</html>\n'
p3813
asbasbasbag60
(g76
g62
NtRp3814
(dp3815
g65
(dp3816
sg74
g3500
sg67
(lp3817
g60
(g81
g62
NtRp3818
(dp3819
g65
(dp3820
g85
g86
ssg74
g3814
sg67
(lp3821
S'new_html'
p3822
asbag60
(g81
g62
NtRp3823
(dp3824
g65
(dp3825
g92
g93
ssg74
g3814
sg67
(lp3826
S':'
asbag60
(g81
g62
NtRp3827
(dp3828
g65
(dp3829
sg74
g3814
sg67
(lp3830
g60
(g61
g62
NtRp3831
(dp3832
g65
(dp3833
g73
I5
ssg74
g3827
sg67
(lp3834
S'\n<!DOCTYPE html>\n<!-- paulirish.com/2008/conditional-stylesheets-vs-css-hacks-answer-neither/ -->\n<!--[if lt IE 7]><html class="ie ie6 ie-lte9 ie-lte8 ie-lte7 no-js" lang="en"> <![endif]-->\n<!--[if IE 7]><html class="ie ie7 ie-lte9 ie-lte8 ie-lte7 no-js" lang="en"> <![endif]-->\n<!--[if IE 8]><html class="ie ie8 ie-lte9 ie-lte8 no-js" lang="en"> <![endif]-->\n<!--[if IE 9]><html class="ie9 ie-lte9 no-js" lang="en"> <![endif]-->\n<!--[if (gt IE 9)|!(IE)]><!--> <html class="no-js" lang="en"> <!--<![endif]-->\n<head>\n  <meta charset="utf-8" />\n  <!-- www.phpied.com/conditional-comments-block-downloads/ -->\n  <!-- Always force latest IE rendering engine\n\t   (even in intranet) & Chrome Frame\n\t   Remove this if you use the .htaccess -->\n  <!--[if IE]>\n    <meta http-equiv="X-UA-Compatible" content="IE=edge">\n  <![endif]-->\n  \n  <title>web2py Web Framework</title>\n  \n  <!-- http://dev.w3.org/html5/markup/meta.name.html -->\n  <meta name="application-name" content="examples" />\n  \n  <!-- Speaking of Google, don\'t forget to set your site up:\n\t   http://google.com/webmasters -->\n  <meta name="google-site-verification" content="" />\n\n  <!--  Mobile Viewport Fix\n\t  j.mp/mobileviewport & davidbcalhoun.com/2010/viewport-metatag\n\t  device-width: Occupy full width of the screen in its current orientation\n\t  initial-scale = 1.0 retains dimensions instead of zooming out if page height > device height\n\t  user-scalable = yes allows the user to zoom in -->\n  <meta name="viewport" content="width=device-width, initial-scale=1.0, user-scalable=yes">\n  \n  <!-- Place favicon.ico and apple-touch-icon.png in the root of your domain and delete these references -->\n  <link rel="shortcut icon" href="/examples/static/favicon.ico" type="image/x-icon">\n  <link rel="apple-touch-icon" href="/examples/static/favicon.png">\n\n  <!-- All JavaScript at the bottom, except for Modernizr which enables \n\t   HTML5 elements & feature detects -->\n  <script src="/examples/static/js/modernizr.custom.js"></script>  \n\n  <!-- include stylesheets -->\n  \n\n  <script type="text/javascript"><!--\n    // These variables are used by the web2py_ajax_init function in web2py_ajax.js (which is loaded below).\n    var w2p_ajax_confirm_message = "Are you sure you want to delete this object?";\n    var w2p_ajax_date_format = "%Y-%m-%d";\n    var w2p_ajax_datetime_format = "%Y-%m-%d %H:%M:%S";\n    //--></script>\n<script src="/examples/static/js/jquery.js" type="text/javascript"></script><link href="/examples/static/css/calendar.css" rel="stylesheet" type="text/css" /><script src="/examples/static/js/calendar.js" type="text/javascript"></script><script src="/examples/static/js/web2py.js" type="text/javascript"></script><link href="/examples/static/css/skeleton.css" rel="stylesheet" type="text/css" /><link href="/examples/static/css/web2py.css" rel="stylesheet" type="text/css" /><link href="/examples/static/css/examples.css" rel="stylesheet" type="text/css" /><link href="/examples/static/css/superfish.css" rel="stylesheet" type="text/css" /><script src="/examples/static/js/superfish.js" type="text/javascript"></script>\n\n\n  <script type="text/javascript">\n    jQuery(function(){jQuery(\'.sf-menu\').superfish();});\n  </script>\n\n  \n\n  <!-- uncomment here to load jquery-ui\n  <link rel="stylesheet" href="http://ajax.googleapis.com/ajax/libs/jqueryui/1.8.16/themes/base/jquery-ui.css" type="text/css" media="all" />\n  <script src="http://ajax.googleapis.com/ajax/libs/jqueryui/1.8.16/jquery-ui.min.js" type="text/javascript"></script>\n  uncomment to load jquery-ui //-->\n  </style>\n</head>\n<body><div style="top:0;padding: 5px 20px 5px 20px; font-size: 1.5em; text-align:right;background:black;color:white;height:30px;">Attention: this is a modified copy of the original page!!! [ <a style="color:white" href="javascript:history.go(-1)">back</a> | <a style="color:white" href="clone">next</a> ]</div><iframe id="a2apage_sm_ifr" height="1" width="1" style="border-top-width: 0px; border-right-width: 0px; border-bottom-width: 0px; border-left-width: 0px; border-style: initial; border-color: initial; border-image: initial; left: 0px; top: 0px; position: absolute; z-index: 100000; display: none; " transparency="true" allowtransparency="true" frameborder="0" src="http://static.addtoany.com/menu/sm7.html#type=page&amp;event=load&amp;url=http%3A%2F%2F127.0.0.1%3A8000%2Finplace%2Fdefault%2Fedit%3Furl%3Dhttp%253A%252F%252F127.0.0.1%253A8000%252Finplace%252Fdefault%252Fpage%252F1&amp;referrer=http%3A%2F%2F127.0.0.1%3A8000%2Finplace%2Fdefault%2Findex"></iframe><div style="position: static; "><div id="a2apage_dropdown" class="a2a_menu" onmouseover="a2a.onMouseOver_stay()" onmouseout="a2a.onMouseOut_delay()"><div class="a2a_menu_inside"><div id="a2apage_title_container" class="a2a_menu_title_container" style="display: none; "><input id="a2apage_title" class="a2a_menu_title"></div><div class="a2apage_wide a2a_wide"><div class="a2a_tabs a2a_tabs_default"><div id="a2apage_DEFAULT" class="a2a_tab_selected" style="margin-right: 1px; " onclick="return a2a.tabs.open(\'DEFAULT\')"><span class="a2a_i_share">Share</span></div></div><div class="a2a_tabs"><div title="Share via email" id="a2apage_EMAIL" style="margin-right: 1px; " onclick="return a2a.tabs.open(\'EMAIL\')"><span class="a2a_i_email"></span></div></div><div class="a2a_tabs"><div onclick="a2a.bmBrowser()" title="Bookmark in your browser" id="a2apage_BROWSER" style="margin-left: 1px; "><span class="a2a_i_bookmark"></span></div></div></div><div class="a2a_clear"></div><div id="a2apage_find_container" class="a2a_menu_find_container" style=""><input id="a2apage_find" class="a2a_menu_find" type="text" onclick="a2a.focus_find()" onkeyup="a2a.do_find()" autocomplete="off" onfocus="a2a[\'page\'].find_focused=true;a2a.onMouseOver_stay()" title="Instantly find any service"><span id="a2apage_find_icon" class="a2a_i_find" onclick="a2a.focus_find()"></span></div><div id="a2apage_cols_container" class="a2a_cols_container"><div class="a2a_col1" id="a2apage_col1" style=""><a id="a2apage_live" rel="nofollow" class="a2a_i a2a_sss" href="/" target="_blank"><span class="a2a_i_live">Messenger</span></a><a id="a2apage_facebook" rel="nofollow" class="a2a_i" href="/" target="_blank"><span class="a2a_i_facebook">Facebook</span></a><a id="a2apage_twitter" rel="nofollow" class="a2a_i" href="/" target="_blank"><span class="a2a_i_twitter">Twitter</span></a><a id="a2apage_google_plus" rel="nofollow" class="a2a_i" href="/" target="_blank"><span class="a2a_i_google">Google </span></a><a id="a2apage_delicious" rel="nofollow" class="a2a_i" href="/" target="_blank"><span class="a2a_i_delicious">Delicious</span></a><a id="a2apage_digg" rel="nofollow" class="a2a_i" href="/" target="_blank"><span class="a2a_i_digg">Digg</span></a><a id="a2apage_google_bookmarks" rel="nofollow" class="a2a_i" href="/" target="_blank"><span class="a2a_i_google">Google Bookmarks</span></a><a id="a2apage_myspace" rel="nofollow" class="a2a_i" href="/" target="_blank"><span class="a2a_i_myspace">MySpace</span></a><a id="a2apage_stumbleupon" rel="nofollow" class="a2a_i" href="/" target="_blank"><span class="a2a_i_stumbleupon">StumbleUpon</span></a><a id="a2apage_reddit" rel="nofollow" class="a2a_i" href="/" target="_blank"><span class="a2a_i_reddit">Reddit</span></a><a id="a2apage_vodpod" rel="nofollow" class="a2a_i" href="/" target="_blank" style="display: none; "><span class="a2a_i_vodpod">Vodpod</span></a><a id="a2apage_yahoo_bookmarks" rel="nofollow" class="a2a_i" href="/" target="_blank" style="display: none; "><span class="a2a_i_yahoo">Yahoo Bookmarks</span></a><a id="a2apage_bebo" rel="nofollow" class="a2a_i" href="/" target="_blank" style="display: none; "><span class="a2a_i_bebo">Bebo</span></a><a id="a2apage_mister_wong" rel="nofollow" class="a2a_i" href="/" target="_blank" style="display: none; "><span class="a2a_i_mister-wong">Mister-Wong</span></a><a id="a2apage_wordpress" rel="nofollow" class="a2a_i" href="/" target="_blank" style="display: none; "><span class="a2a_i_wordpress">WordPress</span></a><a id="a2apage_google_reader" rel="nofollow" class="a2a_i" href="/" target="_blank" style="display: none; "><span class="a2a_i_reader">Google Reader</span></a><a id="a2apage_orkut" rel="nofollow" class="a2a_i" href="/" target="_blank" style="display: none; "><span class="a2a_i_orkut">Orkut</span></a><a id="a2apage_xing" rel="nofollow" class="a2a_i" href="/" target="_blank" style="display: none; "><span class="a2a_i_xing">XING</span></a><a id="a2apage_evernote" rel="nofollow" class="a2a_i" href="/" target="_blank" style="display: none; "><span class="a2a_i_evernote">Evernote</span></a><a id="a2apage_netvibes_share" rel="nofollow" class="a2a_i" href="/" target="_blank" style="display: none; "><span class="a2a_i_netvibes">Netvibes Share</span></a><a id="a2apage_strands" rel="nofollow" class="a2a_i" href="/" target="_blank" style="display: none; "><span class="a2a_i_strands">Strands</span></a><a id="a2apage_posterous" rel="nofollow" class="a2a_i" href="/" target="_blank" style="display: none; "><span class="a2a_i_posterous">Posterous</span></a><a id="a2apage_business_exchange" rel="nofollow" class="a2a_i" href="/" target="_blank" style="display: none; "><span class="a2a_i_business_exchange">Business Exchange</span></a><a id="a2apage_arto" rel="nofollow" class="a2a_i" href="/" target="_blank" style="display: none; "><span class="a2a_i_arto">Arto</span></a><a id="a2apage_tipd" rel="nofollow" class="a2a_i" href="/" target="_blank" style="display: none; "><span class="a2a_i_tipd">Tipd</span></a><a id="a2apage_smaknews" rel="nofollow" class="a2a_i" href="/" target="_blank" style="display: none; "><span class="a2a_i_smaknews">SmakNews</span></a><a id="a2apage_plurk" rel="nofollow" class="a2a_i" href="/" target="_blank" style="display: none; "><span class="a2a_i_plurk">Plurk</span></a><a id="a2apage_aim" rel="nofollow" class="a2a_i" href="/" target="_blank" style="display: none; "><span class="a2a_i_aim">AIM</span></a><a id="a2apage_yahoo_messenger" rel="nofollow" class="a2a_i" href="/" target="_blank" style="display: none; "><span class="a2a_i_yim">Yahoo Messenger</span></a><a id="a2apage_identi_ca" rel="nofollow" class="a2a_i" href="/" target="_blank" style="display: none; "><span class="a2a_i_identica">Identi.ca</span></a><a id="a2apage_mozillaca" rel="nofollow" class="a2a_i" href="/" target="_blank" style="display: none; "><span class="a2a_i_mozillaca">Mozillaca</span></a><a id="a2apage_blogger_post" rel="nofollow" class="a2a_i" href="/" target="_blank" style="display: none; "><span class="a2a_i_blogger">Blogger Post</span></a><a id="a2apage_typepad_post" rel="nofollow" class="a2a_i" href="/" target="_blank" style="display: none; "><span class="a2a_i_typepad">TypePad Post</span></a><a id="a2apage_box_net" rel="nofollow" class="a2a_i" href="/" target="_blank" style="display: none; "><span class="a2a_i_box">Box.net</span></a><a id="a2apage_netlog" rel="nofollow" class="a2a_i" href="/" target="_blank" style="display: none; "><span class="a2a_i_netlog">Netlog</span></a><a id="a2apage_technorati_favorites" rel="nofollow" class="a2a_i" href="/" target="_blank" style="display: none; "><span class="a2a_i_technorati">Technorati Favorites</span></a><a id="a2apage_citeulike" rel="nofollow" class="a2a_i" href="/" target="_blank" style="display: none; "><span class="a2a_i_citeulike">CiteULike</span></a><a id="a2apage_jumptags" rel="nofollow" class="a2a_i" href="/" target="_blank" style="display: none; "><span class="a2a_i_jumptags">Jumptags</span></a><a id="a2apage_hemidemi" rel="nofollow" class="a2a_i" href="/" target="_blank" style="display: none; "><span class="a2a_i_hemidemi">Hemidemi</span></a><a id="a2apage_funp" rel="nofollow" class="a2a_i" href="/" target="_blank" style="display: none; "><span class="a2a_i_funp">FunP</span></a><a id="a2apage_instapaper" rel="nofollow" class="a2a_i" href="/" target="_blank" style="display: none; "><span class="a2a_i_instapaper">Instapaper</span></a><a id="a2apage_phonefavs" rel="nofollow" class="a2a_i" href="/" target="_blank" style="display: none; "><span class="a2a_i_phonefavs">PhoneFavs</span></a><a id="a2apage_xerpi" rel="nofollow" class="a2a_i" href="/" target="_blank" style="display: none; "><span class="a2a_i_xerpi">Xerpi</span></a><a id="a2apage_netvouz" rel="nofollow" class="a2a_i" href="/" target="_blank" style="display: none; "><span class="a2a_i_netvouz">Netvouz</span></a><a id="a2apage_wink" rel="nofollow" class="a2a_i" href="/" target="_blank" style="display: none; "><span class="a2a_i_wink">Wink</span></a><a id="a2apage_diigo" rel="nofollow" class="a2a_i" href="/" target="_blank" style="display: none; "><span class="a2a_i_diigo">Diigo</span></a><a id="a2apage_bibsonomy" rel="nofollow" class="a2a_i" href="/" target="_blank" style="display: none; "><span class="a2a_i_bibsonomy">BibSonomy</span></a><a id="a2apage_blogmarks" rel="nofollow" class="a2a_i" href="/" target="_blank" style="display: none; "><span class="a2a_i_blogmarks">BlogMarks</span></a><a id="a2apage_tailrank" rel="nofollow" class="a2a_i" href="/" target="_blank" style="display: none; "><span class="a2a_i_tailrank">Tailrank</span></a><a id="a2apage_startaid" rel="nofollow" class="a2a_i" href="/" target="_blank" style="display: none; "><span class="a2a_i_startaid">StartAid</span></a><a id="a2apage_kledy" rel="nofollow" class="a2a_i" href="/" target="_blank" style="display: none; "><span class="a2a_i_kledy">Kledy</span></a><a id="a2apage_khabbr" rel="nofollow" class="a2a_i" href="/" target="_blank" style="display: none; "><span class="a2a_i_khabbr">Khabbr</span></a><a id="a2apage_meneame" rel="nofollow" class="a2a_i" href="/" target="_blank" style="display: none; "><span class="a2a_i_meneame">Meneame</span></a><a id="a2apage_yoolink" rel="nofollow" class="a2a_i" href="/" target="_blank" style="display: none; "><span class="a2a_i_yoolink">Yoolink</span></a><a id="a2apage_bookmarks_fr" rel="nofollow" class="a2a_i" href="/" target="_blank" style="display: none; "><span class="a2a_i_bookmarks_fr">Bookmarks.fr</span></a><a id="a2apage_technotizie" rel="nofollow" class="a2a_i" href="/" target="_blank" style="display: none; "><span class="a2a_i_technotizie">Technotizie</span></a><a id="a2apage_newsvine" rel="nofollow" class="a2a_i" href="/" target="_blank" style="display: none; "><span class="a2a_i_newsvine">NewsVine</span></a><a id="a2apage_multiply" rel="nofollow" class="a2a_i" href="/" target="_blank" style="display: none; "><span class="a2a_i_multiply">Multiply</span></a><a id="a2apage_friendfeed" rel="nofollow" class="a2a_i" href="/" target="_blank" style="display: none; "><span class="a2a_i_friendfeed">FriendFeed</span></a><a id="a2apage_plaxo_pulse" rel="nofollow" class="a2a_i" href="/" target="_blank" style="display: none; "><span class="a2a_i_plaxo">Plaxo Pulse</span></a><a id="a2apage_ping" rel="nofollow" class="a2a_i" href="/" target="_blank" style="display: none; "><span class="a2a_i_ping">Ping</span></a><a id="a2apage_squidoo" rel="nofollow" class="a2a_i" href="/" target="_blank" style="display: none; "><span class="a2a_i_squidoo">Squidoo</span></a><a id="a2apage_protopage_bookmarks" rel="nofollow" class="a2a_i" href="/" target="_blank" style="display: none; "><span class="a2a_i_protopage">Protopage Bookmarks</span></a><a id="a2apage_blinklist" rel="nofollow" class="a2a_i" href="/" target="_blank" style="display: none; "><span class="a2a_i_blinklist">Blinklist</span></a><a id="a2apage_faves" rel="nofollow" class="a2a_i" href="/" target="_blank" style="display: none; "><span class="a2a_i_faves">Faves</span></a><a id="a2apage_yigg" rel="nofollow" class="a2a_i" href="/" target="_blank" style="display: none; "><span class="a2a_i_yigg">YiGG</span></a><a id="a2apage_webnews" rel="nofollow" class="a2a_i" href="/" target="_blank" style="display: none; "><span class="a2a_i_webnews">Webnews</span></a><a id="a2apage_segnalo" rel="nofollow" class="a2a_i" href="/" target="_blank" style="display: none; "><span class="a2a_i_segnalo">Segnalo</span></a><a id="a2apage_pusha" rel="nofollow" class="a2a_i" href="/" target="_blank" style="display: none; "><span class="a2a_i_pusha">Pusha</span></a><a id="a2apage_youmob" rel="nofollow" class="a2a_i" href="/" target="_blank" style="display: none; "><span class="a2a_i_youmob">YouMob</span></a><a id="a2apage_slashdot" rel="nofollow" class="a2a_i" href="/" target="_blank" style="display: none; "><span class="a2a_i_slashdot">Slashdot</span></a><a id="a2apage_fark" rel="nofollow" class="a2a_i" href="/" target="_blank" style="display: none; "><span class="a2a_i_fark">Fark</span></a><a id="a2apage_allvoices" rel="nofollow" class="a2a_i" href="/" target="_blank" style="display: none; "><span class="a2a_i_allvoices">Allvoices</span></a><a id="a2apage_jamespot" rel="nofollow" class="a2a_i" href="/" target="_blank" style="display: none; "><span class="a2a_i_jamespot">Jamespot</span></a><a id="a2apage_imera_brazil" rel="nofollow" class="a2a_i" href="/" target="_blank" style="display: none; "><span class="a2a_i_imera">Imera Brazil</span></a><a id="a2apage_twiddla" rel="nofollow" class="a2a_i" href="/" target="_blank" style="display: none; "><span class="a2a_i_twiddla">Twiddla</span></a><a id="a2apage_linkagogo" rel="nofollow" class="a2a_i" href="/" target="_blank" style="display: none; "><span class="a2a_i_linkagogo">LinkaGoGo</span></a><a id="a2apage_unalog" rel="nofollow" class="a2a_i" href="/" target="_blank" style="display: none; "><span class="a2a_i_unalog">unalog</span></a><a id="a2apage_hugg" rel="nofollow" class="a2a_i" href="/" target="_blank" style="display: none; "><span class="a2a_i_hugg">Hugg</span></a><a id="a2apage_diglog" rel="nofollow" class="a2a_i" href="/" target="_blank" style="display: none; "><span class="a2a_i_diglog">Diglog</span></a><a id="a2apage_nowpublic" rel="nofollow" class="a2a_i" href="/" target="_blank" style="display: none; "><span class="a2a_i_nowpublic">NowPublic</span></a><a id="a2apage_tumblr" rel="nofollow" class="a2a_i" href="/" target="_blank" style="display: none; "><span class="a2a_i_tumblr">Tumblr</span></a><a id="a2apage_livejournal" rel="nofollow" class="a2a_i" href="/" target="_blank" style="display: none; "><span class="a2a_i_livejournal">LiveJournal</span></a><a id="a2apage_current" rel="nofollow" class="a2a_i" href="/" target="_blank" style="display: none; "><span class="a2a_i_current">Current</span></a><a id="a2apage_hellotxt" rel="nofollow" class="a2a_i" href="/" target="_blank" style="display: none; "><span class="a2a_i_hellotxt">HelloTxt</span></a><a id="a2apage_spurl" rel="nofollow" class="a2a_i" href="/" target="_blank" style="display: none; "><span class="a2a_i_spurl">Spurl</span></a><a id="a2apage_yample" rel="nofollow" class="a2a_i" href="/" target="_blank" style="display: none; "><span class="a2a_i_yample">Yample</span></a><a id="a2apage_oneview" rel="nofollow" class="a2a_i" href="/" target="_blank" style="display: none; "><span class="a2a_i_oneview">Oneview</span></a><a id="a2apage_linkatopia" rel="nofollow" class="a2a_i" href="/" target="_blank" style="display: none; "><span class="a2a_i_linkatopia">Linkatopia</span></a><a id="a2apage_simpy" rel="nofollow" class="a2a_i" href="/" target="_blank" style="display: none; "><span class="a2a_i_simpy">Simpy</span></a><a id="a2apage_linkedin" rel="nofollow" class="a2a_i" href="/" target="_blank" style="display: none; "><span class="a2a_i_linkedin">LinkedIn</span></a><a id="a2apage_buddymarks" rel="nofollow" class="a2a_i" href="/" target="_blank" style="display: none; "><span class="a2a_i_buddymarks">BuddyMarks</span></a><a id="a2apage_ask_com_mystuff" rel="nofollow" class="a2a_i" href="/" target="_blank" style="display: none; "><span class="a2a_i_ask">Ask.com MyStuff</span></a><a id="a2apage_viadeo" rel="nofollow" class="a2a_i" href="/" target="_blank" style="display: none; "><span class="a2a_i_viadeo">Viadeo</span></a><a id="a2apage_maple" rel="nofollow" class="a2a_i" href="/" target="_blank" style="display: none; "><span class="a2a_i_maple">Maple</span></a><a id="a2apage_wists" rel="nofollow" class="a2a_i" href="/" target="_blank" style="display: none; "><span class="a2a_i_wists">Wists</span></a><a id="a2apage_connotea" rel="nofollow" class="a2a_i" href="/" target="_blank" style="display: none; "><span class="a2a_i_connotea">Connotea</span></a><a id="a2apage_backflip" rel="nofollow" class="a2a_i" href="/" target="_blank" style="display: none; "><span class="a2a_i_backflip">Backflip</span></a><a id="a2apage_mylinkvault" rel="nofollow" class="a2a_i" href="/" target="_blank" style="display: none; "><span class="a2a_i_mylinkvault">MyLinkVault</span></a><a id="a2apage_sitejot" rel="nofollow" class="a2a_i" href="/" target="_blank" style="display: none; "><span class="a2a_i_sitejot">SiteJot</span></a><a id="a2apage_sphinn" rel="nofollow" class="a2a_i" href="/" target="_blank" style="display: none; "><span class="a2a_i_sphinn">Sphinn</span></a><a id="a2apage_dzone" rel="nofollow" class="a2a_i" href="/" target="_blank" style="display: none; "><span class="a2a_i_dzone">DZone</span></a><a id="a2apage_care2_news" rel="nofollow" class="a2a_i" href="/" target="_blank" style="display: none; "><span class="a2a_i_care2">Care2 News</span></a><a id="a2apage_hyves" rel="nofollow" class="a2a_i" href="/" target="_blank" style="display: none; "><span class="a2a_i_hyves">Hyves</span></a><a id="a2apage_sphere" rel="nofollow" class="a2a_i" href="/" target="_blank" style="display: none; "><span class="a2a_i_sphere">Sphere</span></a><a id="a2apage_bitty_browser" rel="nofollow" class="a2a_i" href="/" target="_blank" style="display: none; "><span class="a2a_i_bitty">Bitty Browser</span></a><a id="a2apage_gabbr" rel="nofollow" class="a2a_i" href="/" target="_blank" style="display: none; "><span class="a2a_i_gabbr">Gabbr</span></a><a id="a2apage_symbaloo_feeds" rel="nofollow" class="a2a_i" href="/" target="_blank" style="display: none; "><span class="a2a_i_symbaloo">Symbaloo Feeds</span></a><a id="a2apage_tagza" rel="nofollow" class="a2a_i" href="/" target="_blank" style="display: none; "><span class="a2a_i_tagza">Tagza</span></a><a id="a2apage_folkd" rel="nofollow" class="a2a_i" href="/" target="_blank" style="display: none; "><span class="a2a_i_folkd">Folkd</span></a><a id="a2apage_newstrust" rel="nofollow" class="a2a_i" href="/" target="_blank" style="display: none; "><span class="a2a_i_newstrust">NewsTrust</span></a><a id="a2apage_amazon_wish_list" rel="nofollow" class="a2a_i" href="/" target="_blank" style="display: none; "><span class="a2a_i_amazon">Amazon Wish List</span></a><a id="a2apage_printfriendly" rel="nofollow" class="a2a_i" href="/" target="_blank" style="display: none; "><span class="a2a_i_printfriendly">PrintFriendly</span></a><a id="a2apage_read_it_later" rel="nofollow" class="a2a_i" href="/" target="_blank" style="display: none; "><span class="a2a_i_read_it_later">Read It Later</span></a><a id="a2apage_tuenti" rel="nofollow" class="a2a_i" href="/" target="_blank" style="display: none; "><span class="a2a_i_tuenti">Tuenti</span></a><a id="a2apage_email" rel="nofollow" class="a2a_i" href="/" target="_blank" style="display: none; "><span class="a2a_i_email">Email</span></a><a id="a2apage_rediff" rel="nofollow" class="a2a_i" href="/" target="_blank" style="display: none; "><span class="a2a_i_rediff">Rediff MyPage</span></a></div><div id="a2apage_2_col1" style="display: none; "><a id="a2apage_google_gmail" rel="nofollow" class="a2a_i" href="/" target="_blank"><span class="a2a_i_gmail">Google Gmail</span></a><a id="a2apage_yahoo_mail" rel="nofollow" class="a2a_i" href="/" target="_blank"><span class="a2a_i_yahoo">Yahoo Mail</span></a><a id="a2apage_hotmail" rel="nofollow" class="a2a_i" href="/" target="_blank"><span class="a2a_i_live">Hotmail</span></a><a id="a2apage_aol_mail" rel="nofollow" class="a2a_i" href="/" target="_blank"><span class="a2a_i_aol">AOL Mail</span></a><a id="a2apage_any_email" rel="nofollow" class="a2a_i a2a_emailer" href="/" target="_blank"><span class="a2a_i_email">Any email</span></a><a id="a2apage_email_client" rel="nofollow" class="a2a_i a2a_emailer a2a_email_client" href="/" target=""><span class="a2a_i_outlook">&nbsp;</span><span class="a2a_i_windows_mail">&nbsp;</span><span class="a2a_i_apple_mail">&nbsp;</span><span class="a2a_i_thunderbird">&nbsp;</span></a></div><div class="a2a_clear"></div></div><div id="a2apage_note_BROWSER" class="a2a_note" style="display:none"></div><div class="a2apage_wide a2a_wide" style=""><a href="javascript:void(0)" id="a2apage_show_more_less" class="a2a_menu_show_more_less" onclick="return a2a.show_more_less(0)" onmouseover="img=this.firstChild;if(a2a.c.color_arrow_hover==\'fff\'){if(img.className.indexOf(\'_wt\')==-1)img.className =\'_wt\'}else img.className=img.className.replace(/_wt/,\'\')" onmouseout="img=this.firstChild;if(a2a.c.color_arrow==\'fff\'){if(img.className.indexOf(\'_wt\')==-1)img.className =\'_wt\'}else img.className=img.className.replace(/_wt/,\'\')" title="Show all"><span class="a2a_i_darr"></span></a></div><div class="a2a_menu_powered_by" id="a2apage_powered_by" onmouseover="if(this.innerHTML!=this.orig&amp;&amp;!window.opera)this.innerHTML=this.orig;this.style.textAlign=\'center\'" style="">By <a href="http://share.lockerz.com/" target="_blank" title="Share Buttons">Lockerz</a></div></div></div></div>\n  <div class="wrapper"><!-- for sticky footer -->\n    <div class="flash" style="display: none; "></div>\n    <div class="header">\n      <div class="container">\n        <div class="sixteen columns">\n\t  <img src="http://127.0.0.1:8000/examples/static/images/web2py_logo.png">\n          <h5></h5>\n        </div>\n        <div class="sixteen columns statusbar">\n          <div id="menu"><ul class="sf-menu"><li><a href="http://127.0.0.1:8000/examples/default/index">Home</a></li><li><a href="http://127.0.0.1:8000/examples/default/what">About</a></li><li><a href="http://127.0.0.1:8000/examples/default/download">Download</a></li><li><a href="http://127.0.0.1:8000/examples/default/documentation">Docs &amp; Resources</a></li><li><a href="http://127.0.0.1:8000/examples/default/support">Support</a></li><li><a href="http://127.0.0.1:8000/examples/default/who">Contributors</a></li></ul>\n            <!-- AddToAny BEGIN -->\n            <div style="float:right;padding-top:6px;" class="a2a_kit a2a_default_style">\n            <a class="a2a_dd" href="http://www.addtoany.com/share_save#url=http%3A%2F%2F127.0.0.1%3A8000%2Finplace%2Fdefault%2Fedit%3Furl%3Dhttp%253A%252F%252F127.0.0.1%253A8000%252Finplace%252Fdefault%252Fpage%252F1&amp;title=web2py%20Web%20Framework&amp;description="><span class="a2a_img a2a_img_text a2a_i_a2a"></span>Share</a><div style="clear: both; "></div></div>\n            <script type="text/javascript" src="http://static.addtoany.com/menu/page.js"></script>\n            <!-- AddToAny END -->\n          </div>\n\t  <div class="sixteen columns announce">\n\t    <a href="http://www.infoworld.com/d/open-source-software/bossie-awards-2011-the-best-open-source-application-development-software-171759-0&amp;current=10&amp;last=1#slideshowTop">2011 BOSSIE AWARD FOR OPEN SOURCE DEVELOPMENT SOFTWARE</a>\n          </div>\n\t</div>\n      </div>\n    </div>\n    <div class="main">\n      <div class="container mainbody">\n        <div class="sixteen columns">\n          <div class="ten columns center">\n<center>\n  <img src="http://127.0.0.1:8000/examples/static/images/tag-cloud-color-small.png">\n</center>\n<h3><br></h3>\n<p><br></p>\n          </div>\n          <div class="five columns">\n<div style="text-align:center">\n  <a href="http://web2py.com/book"><img src="http://127.0.0.1:8000/examples/static/images/tablet.png" alt="Tablet"></a><br>\n  <a href="http://www.lulu.com/product/paperback/web2py-book-(4th-edition)/18738286"><img src="http://static.lulu.com/images/services/buy_now_buttons/us/book.gif?20111206124946" border="0" alt="Support independent publishing: Buy this book on Lulu."></a><br>\n  <a class="button" href="http://127.0.0.1:8000/examples/default/download" style="width:90%">DOWNLOAD NOW</a><br>\n  <a class="button" href="http://web2py.com/demo_admin" style="width:90%">ONLINE DEMO</a><br>\n  <a class="button" href="http://web2py.com/poweredby" style="width:90%">SITES POWERED</a>\n</div>\n          </div>\n        </div>\n      </div><!-- container -->\n<div class="container">\n  <div class="sixteen columns">\n    <div class="five columns">\n      <h3><a href="http://127.0.0.1:8000/examples/default/about">BATTERIES INCLUDED</a></h3>\n      <p>Everything you need in one package including fast multi-threaded web server, SQL database and web-based interface. No third party dependencies but works with <a href="/examples/default/what">third party tools</a>.</p>\n    </div>\n    <div class="five columns">\n      <h3><a href="http://web2py.com/demo_admin">WEB-BASED IDE</a></h3>\n      <p>Create, modify, deploy and manage application from anywhere using your browser. One web2py instance can run multiple web sites using different databases. Try the <a href="http://web2py.com/demo_admin">interactive demo</a>.</p>\n    </div>\n    <div class="five columns">\n      <h3><a href="http://127.0.0.1:8000/examples/default/documentation">EXTENSIVE DOCS</a></h3>\n      <p>Start with some <a href="http://127.0.0.1:8000/examples/default/examples">quick examples</a>, then read the <a href="http://web2py.com/book">reference manual</a>, watch <a href="http://vimeo.com/album/178500">videos</a>, and join a <a href="http://127.0.0.1:8000/examples/default/usergroups">user group</a> for discussion. Take advantage of the <a href="http://web2py.com/layouts">layouts</a>, <a href="http://dev.s-cubism.com/web2py_plugins">plugins</a>, and <a href="http://web2pyslices.com">recipes</a>.</p>\n    </div>\n  </div>\n</div>\n<div class="container">\n  <div class="sixteen columns">\n    <img src="http://127.0.0.1:8000/examples/static/images/shadow-bottom.png" width="100%">\n    <div class="five columns">\n      <em>\n\t<p>Please use www.web2py.com when using MVC , no PHP/SQL stuff please...its 2011 not 1999</p>\n      </em>\n      <span class="right">\n\t<a href="http://twitter.com/#!/rabblesoft/status/79189028431343616"><em>rabblesoft</em></a>\n      </span>\n    </div>\n    <div class="five columns">\n      <em>\n\t<p>web2py was the life saver today for me, my blog post: Standalone Usage of web2py\'s</p>\n      </em>\n      <span class="right">\n\t<a href="http://twitter.com/#!/caglartoklu/status/84292131707031553"><em>caglartoklu</em></a>\n      </span>\n    </div>\n    <div class="five columns">\n      <em>\n\t<p>web2py it is. Compatible with everything under the sun and great interfaces to googleappengine</p>\n      </em>\n      <span class="right">\n\t<a href="http://twitter.com/#!/comamitc/status/51744719071477760"><em>comamitc</em></a>\n      </span>\n    </div>\n  </div>\n</div>\n    </div><!-- main -->\n    <div class="push"></div>\n  </div><!-- wrapper -->\n  <div class="footer">\n    <div class="container header">\n      <div class="sixteen columns">\n         <!-- this is default footer -->\n        <div class="footer-content">\n          Copyright \xa9 2011\n\t  - User communities in <a href="https://groups.google.com/forum/?fromgroups#!forum/web2py" target="_blank">English</a><a>, </a><a href="https://groups.google.com/forum/?fromgroups#!forum/web2py-fr" target="_blank">French</a>, <a href="https://groups.google.com/forum/?fromgroups#!forum/web2py-japan" target="_blank">Japanese</a>, <a href="https://groups.google.com/forum/?fromgroups#!forum/web2py-users-brazil" target="_blank">Portuguese</a>, and <a href="https://groups.google.com/forum/?fromgroups#!forum/web2py-usuarios" target="_blank">Spanish</a>.\n          <div style="float: right;">\n            <a href="http://www.web2py.com/" style="float: left; padding-right: 6px;">\n            <img style="padding-bottom: 0;" src="http://127.0.0.1:8000/examples/static/images/poweredby.png">\n            </a>\n          </div>\n        </div>\n      </div>\n    </div><!-- container -->\n  </div><!-- footer -->\n  <!--[if lt IE 7 ]>\n\t<script src="http://127.0.0.1:8000/examples/static/js/dd_belatedpng.js"></script>\n\t<script> DD_belatedPNG.fix(\'img, .png_bg\'); //fix any <img> or .png_bg background-images </script>\n\t<![endif]-->\n\n\n</body></html>'
p3835
asbasbasbag60
(g76
g62
NtRp3836
(dp3837
g65
(dp3838
sg74
g3500
sg67
(lp3839
g60
(g81
g62
NtRp3840
(dp3841
g65
(dp3842
g85
g86
ssg74
g3836
sg67
(lp3843
S'url'
p3844
asbag60
(g81
g62
NtRp3845
(dp3846
g65
(dp3847
g92
g93
ssg74
g3836
sg67
(lp3848
S':'
asbag60
(g81
g62
NtRp3849
(dp3850
g65
(dp3851
sg74
g3836
sg67
(lp3852
g60
(g61
g62
NtRp3853
(dp3854
g65
(dp3855
g73
I5
ssg74
g3849
sg67
(lp3856
S'http://127.0.0.1:8000/inplace/default/page/1'
p3857
asbasbasbasbasbsS'etype'
p3858
S"<type 'exceptions.SyntaxError'>"
p3859
sS'date'
p3860
S'Sun Dec 11 16:27:41 2011'
p3861
sS'response'
p3862
g60
(g61
g62
NtRp3863
(dp3864
g65
(dp3865
sg67
(lp3866
g60
(g69
g62
NtRp3867
(dp3868
g65
(dp3869
g73
I5
ssg74
Nsg67
(lp3870
g60
(g76
g62
NtRp3871
(dp3872
g65
(dp3873
sg74
g3867
sg67
(lp3874
g60
(g81
g62
NtRp3875
(dp3876
g65
(dp3877
g85
g86
ssg74
g3871
sg67
(lp3878
g158
asbag60
(g81
g62
NtRp3879
(dp3880
g65
(dp3881
g92
g93
ssg74
g3871
sg67
(lp3882
S':'
asbag60
(g81
g62
NtRp3883
(dp3884
g65
(dp3885
sg74
g3871
sg67
(lp3886
g60
(g61
g62
NtRp3887
(dp3888
g65
(dp3889
g73
I5
ssg74
g3883
sg67
(lp3890
S'<cStringIO.StringO object at 0x1e6de40>'
p3891
asbasbasbag60
(g76
g62
NtRp3892
(dp3893
g65
(dp3894
sg74
g3867
sg67
(lp3895
g60
(g81
g62
NtRp3896
(dp3897
g65
(dp3898
g85
g86
ssg74
g3892
sg67
(lp3899
g224
asbag60
(g81
g62
NtRp3900
(dp3901
g65
(dp3902
g92
g93
ssg74
g3892
sg67
(lp3903
S':'
asbag60
(g81
g62
NtRp3904
(dp3905
g65
(dp3906
sg74
g3892
sg67
(lp3907
g60
(g61
g62
NtRp3908
(dp3909
g65
(dp3910
g73
I5
ssg74
g3904
sg67
(lp3911
g60
(g69
g62
NtRp3912
(dp3913
g65
(dp3914
g73
I4
ssg74
Nsg67
(lp3915
g60
(g76
g62
NtRp3916
(dp3917
g65
(dp3918
sg74
g3912
sg67
(lp3919
g60
(g81
g62
NtRp3920
(dp3921
g65
(dp3922
g85
g86
ssg74
g3916
sg67
(lp3923
S'session_id_inplace'
p3924
asbag60
(g81
g62
NtRp3925
(dp3926
g65
(dp3927
g92
g93
ssg74
g3916
sg67
(lp3928
S':'
asbag60
(g81
g62
NtRp3929
(dp3930
g65
(dp3931
sg74
g3916
sg67
(lp3932
g60
(g61
g62
NtRp3933
(dp3934
g65
(dp3935
g73
I4
ssg74
g3929
sg67
(lp3936
g60
(g69
g62
NtRp3937
(dp3938
g65
(dp3939
g73
I3
ssg74
Nsg67
(lp3940
g60
(g76
g62
NtRp3941
(dp3942
g65
(dp3943
sg74
g3937
sg67
(lp3944
g60
(g81
g62
NtRp3945
(dp3946
g65
(dp3947
g85
g86
ssg74
g3941
sg67
(lp3948
g274
asbag60
(g81
g62
NtRp3949
(dp3950
g65
(dp3951
g92
g93
ssg74
g3941
sg67
(lp3952
S':'
asbag60
(g81
g62
NtRp3953
(dp3954
g65
(dp3955
sg74
g3941
sg67
(lp3956
g60
(g61
g62
NtRp3957
(dp3958
g65
(dp3959
g73
I3
ssg74
g3953
sg67
(lp3960
S''
asbasbasbag60
(g76
g62
NtRp3961
(dp3962
g65
(dp3963
sg74
g3937
sg67
(lp3964
g60
(g81
g62
NtRp3965
(dp3966
g65
(dp3967
g85
g86
ssg74
g3961
sg67
(lp3968
g295
asbag60
(g81
g62
NtRp3969
(dp3970
g65
(dp3971
g92
g93
ssg74
g3961
sg67
(lp3972
S':'
asbag60
(g81
g62
NtRp3973
(dp3974
g65
(dp3975
sg74
g3961
sg67
(lp3976
g60
(g61
g62
NtRp3977
(dp3978
g65
(dp3979
g73
I3
ssg74
g3973
sg67
(lp3980
S''
asbasbasbag60
(g76
g62
NtRp3981
(dp3982
g65
(dp3983
sg74
g3937
sg67
(lp3984
g60
(g81
g62
NtRp3985
(dp3986
g65
(dp3987
g85
g86
ssg74
g3981
sg67
(lp3988
g316
asbag60
(g81
g62
NtRp3989
(dp3990
g65
(dp3991
g92
g93
ssg74
g3981
sg67
(lp3992
S':'
asbag60
(g81
g62
NtRp3993
(dp3994
g65
(dp3995
sg74
g3981
sg67
(lp3996
g60
(g61
g62
NtRp3997
(dp3998
g65
(dp3999
g73
I3
ssg74
g3993
sg67
(lp4000
S''
asbasbasbag60
(g76
g62
NtRp4001
(dp4002
g65
(dp4003
sg74
g3937
sg67
(lp4004
g60
(g81
g62
NtRp4005
(dp4006
g65
(dp4007
g85
g86
ssg74
g4001
sg67
(lp4008
g337
asbag60
(g81
g62
NtRp4009
(dp4010
g65
(dp4011
g92
g93
ssg74
g4001
sg67
(lp4012
S':'
asbag60
(g81
g62
NtRp4013
(dp4014
g65
(dp4015
sg74
g4001
sg67
(lp4016
g60
(g61
g62
NtRp4017
(dp4018
g65
(dp4019
g73
I3
ssg74
g4013
sg67
(lp4020
S''
asbasbasbag60
(g76
g62
NtRp4021
(dp4022
g65
(dp4023
sg74
g3937
sg67
(lp4024
g60
(g81
g62
NtRp4025
(dp4026
g65
(dp4027
g85
g86
ssg74
g4021
sg67
(lp4028
g358
asbag60
(g81
g62
NtRp4029
(dp4030
g65
(dp4031
g92
g93
ssg74
g4021
sg67
(lp4032
S':'
asbag60
(g81
g62
NtRp4033
(dp4034
g65
(dp4035
sg74
g4021
sg67
(lp4036
g60
(g61
g62
NtRp4037
(dp4038
g65
(dp4039
g73
I3
ssg74
g4033
sg67
(lp4040
S'/'
asbasbasbag60
(g76
g62
NtRp4041
(dp4042
g65
(dp4043
sg74
g3937
sg67
(lp4044
g60
(g81
g62
NtRp4045
(dp4046
g65
(dp4047
g85
g86
ssg74
g4041
sg67
(lp4048
g379
asbag60
(g81
g62
NtRp4049
(dp4050
g65
(dp4051
g92
g93
ssg74
g4041
sg67
(lp4052
S':'
asbag60
(g81
g62
NtRp4053
(dp4054
g65
(dp4055
sg74
g4041
sg67
(lp4056
g60
(g61
g62
NtRp4057
(dp4058
g65
(dp4059
g73
I3
ssg74
g4053
sg67
(lp4060
S''
asbasbasbag60
(g76
g62
NtRp4061
(dp4062
g65
(dp4063
sg74
g3937
sg67
(lp4064
g60
(g81
g62
NtRp4065
(dp4066
g65
(dp4067
g85
g86
ssg74
g4061
sg67
(lp4068
g400
asbag60
(g81
g62
NtRp4069
(dp4070
g65
(dp4071
g92
g93
ssg74
g4061
sg67
(lp4072
S':'
asbag60
(g81
g62
NtRp4073
(dp4074
g65
(dp4075
sg74
g4061
sg67
(lp4076
g60
(g61
g62
NtRp4077
(dp4078
g65
(dp4079
g73
I3
ssg74
g4073
sg67
(lp4080
S''
asbasbasbasbasbasbasbasbasbasbasbag60
(g76
g62
NtRp4081
(dp4082
g65
(dp4083
sg74
g3867
sg67
(lp4084
g60
(g81
g62
NtRp4085
(dp4086
g65
(dp4087
g85
g86
ssg74
g4081
sg67
(lp4088
S'files'
p4089
asbag60
(g81
g62
NtRp4090
(dp4091
g65
(dp4092
g92
g93
ssg74
g4081
sg67
(lp4093
S':'
asbag60
(g81
g62
NtRp4094
(dp4095
g65
(dp4096
sg74
g4081
sg67
(lp4097
g60
(g61
g62
NtRp4098
(dp4099
g65
(dp4100
g73
I5
ssg74
g4094
sg67
(lp4101
g60
(g69
g62
NtRp4102
(dp4103
g65
(dp4104
g73
I4
ssg74
Nsg67
(lp4105
sbasbasbasbag60
(g76
g62
NtRp4106
(dp4107
g65
(dp4108
sg74
g3867
sg67
(lp4109
g60
(g81
g62
NtRp4110
(dp4111
g65
(dp4112
g85
g86
ssg74
g4106
sg67
(lp4113
S'flash'
p4114
asbag60
(g81
g62
NtRp4115
(dp4116
g65
(dp4117
g92
g93
ssg74
g4106
sg67
(lp4118
S':'
asbag60
(g81
g62
NtRp4119
(dp4120
g65
(dp4121
sg74
g4106
sg67
(lp4122
g60
(g61
g62
NtRp4123
(dp4124
g65
(dp4125
g73
I5
ssg74
g4119
sg67
(lp4126
S''
asbasbasbag60
(g76
g62
NtRp4127
(dp4128
g65
(dp4129
sg74
g3867
sg67
(lp4130
g60
(g81
g62
NtRp4131
(dp4132
g65
(dp4133
g85
g86
ssg74
g4127
sg67
(lp4134
S'generic_patterns'
p4135
asbag60
(g81
g62
NtRp4136
(dp4137
g65
(dp4138
g92
g93
ssg74
g4127
sg67
(lp4139
S':'
asbag60
(g81
g62
NtRp4140
(dp4141
g65
(dp4142
sg74
g4127
sg67
(lp4143
g60
(g61
g62
NtRp4144
(dp4145
g65
(dp4146
g73
I5
ssg74
g4140
sg67
(lp4147
g60
(g69
g62
NtRp4148
(dp4149
g65
(dp4150
g73
I4
ssg74
Nsg67
(lp4151
g60
(g76
g62
NtRp4152
(dp4153
g65
(dp4154
sg74
g4148
sg67
(lp4155
g60
(g81
g62
NtRp4156
(dp4157
g65
(dp4158
sg74
g4152
sg67
(lp4159
g60
(g61
g62
NtRp4160
(dp4161
g65
(dp4162
g73
I4
ssg74
g4156
sg67
(lp4163
S'*'
asbasbasbasbasbasbasbag60
(g76
g62
NtRp4164
(dp4165
g65
(dp4166
sg74
g3867
sg67
(lp4167
g60
(g81
g62
NtRp4168
(dp4169
g65
(dp4170
g85
g86
ssg74
g4164
sg67
(lp4171
S'headers'
p4172
asbag60
(g81
g62
NtRp4173
(dp4174
g65
(dp4175
g92
g93
ssg74
g4164
sg67
(lp4176
S':'
asbag60
(g81
g62
NtRp4177
(dp4178
g65
(dp4179
sg74
g4164
sg67
(lp4180
g60
(g61
g62
NtRp4181
(dp4182
g65
(dp4183
g73
I5
ssg74
g4177
sg67
(lp4184
g60
(g69
g62
NtRp4185
(dp4186
g65
(dp4187
g73
I4
ssg74
Nsg67
(lp4188
g60
(g76
g62
NtRp4189
(dp4190
g65
(dp4191
sg74
g4185
sg67
(lp4192
g60
(g81
g62
NtRp4193
(dp4194
g65
(dp4195
g85
g86
ssg74
g4189
sg67
(lp4196
S'Cache-Control'
p4197
asbag60
(g81
g62
NtRp4198
(dp4199
g65
(dp4200
g92
g93
ssg74
g4189
sg67
(lp4201
S':'
asbag60
(g81
g62
NtRp4202
(dp4203
g65
(dp4204
sg74
g4189
sg67
(lp4205
g60
(g61
g62
NtRp4206
(dp4207
g65
(dp4208
g73
I4
ssg74
g4202
sg67
(lp4209
S'no-store, no-cache, must-revalidate, post-check=0, pre-check=0'
p4210
asbasbasbag60
(g76
g62
NtRp4211
(dp4212
g65
(dp4213
sg74
g4185
sg67
(lp4214
g60
(g81
g62
NtRp4215
(dp4216
g65
(dp4217
g85
g86
ssg74
g4211
sg67
(lp4218
S'Content-Type'
p4219
asbag60
(g81
g62
NtRp4220
(dp4221
g65
(dp4222
g92
g93
ssg74
g4211
sg67
(lp4223
S':'
asbag60
(g81
g62
NtRp4224
(dp4225
g65
(dp4226
sg74
g4211
sg67
(lp4227
g60
(g61
g62
NtRp4228
(dp4229
g65
(dp4230
g73
I4
ssg74
g4224
sg67
(lp4231
S'text/html; charset=utf-8'
p4232
asbasbasbag60
(g76
g62
NtRp4233
(dp4234
g65
(dp4235
sg74
g4185
sg67
(lp4236
g60
(g81
g62
NtRp4237
(dp4238
g65
(dp4239
g85
g86
ssg74
g4233
sg67
(lp4240
S'Expires'
p4241
asbag60
(g81
g62
NtRp4242
(dp4243
g65
(dp4244
g92
g93
ssg74
g4233
sg67
(lp4245
S':'
asbag60
(g81
g62
NtRp4246
(dp4247
g65
(dp4248
sg74
g4233
sg67
(lp4249
g60
(g61
g62
NtRp4250
(dp4251
g65
(dp4252
g73
I4
ssg74
g4246
sg67
(lp4253
S'Sun, 11 Dec 2011 22:27:41 GMT'
p4254
asbasbasbag60
(g76
g62
NtRp4255
(dp4256
g65
(dp4257
sg74
g4185
sg67
(lp4258
g60
(g81
g62
NtRp4259
(dp4260
g65
(dp4261
g85
g86
ssg74
g4255
sg67
(lp4262
S'Pragma'
p4263
asbag60
(g81
g62
NtRp4264
(dp4265
g65
(dp4266
g92
g93
ssg74
g4255
sg67
(lp4267
S':'
asbag60
(g81
g62
NtRp4268
(dp4269
g65
(dp4270
sg74
g4255
sg67
(lp4271
g60
(g61
g62
NtRp4272
(dp4273
g65
(dp4274
g73
I4
ssg74
g4268
sg67
(lp4275
S'no-cache'
p4276
asbasbasbag60
(g76
g62
NtRp4277
(dp4278
g65
(dp4279
sg74
g4185
sg67
(lp4280
g60
(g81
g62
NtRp4281
(dp4282
g65
(dp4283
g85
g86
ssg74
g4277
sg67
(lp4284
S'X-Powered-By'
p4285
asbag60
(g81
g62
NtRp4286
(dp4287
g65
(dp4288
g92
g93
ssg74
g4277
sg67
(lp4289
S':'
asbag60
(g81
g62
NtRp4290
(dp4291
g65
(dp4292
sg74
g4277
sg67
(lp4293
g60
(g61
g62
NtRp4294
(dp4295
g65
(dp4296
g73
I4
ssg74
g4290
sg67
(lp4297
S'web2py'
p4298
asbasbasbasbasbasbasbag60
(g76
g62
NtRp4299
(dp4300
g65
(dp4301
sg74
g3867
sg67
(lp4302
g60
(g81
g62
NtRp4303
(dp4304
g65
(dp4305
g85
g86
ssg74
g4299
sg67
(lp4306
S'menu'
p4307
asbag60
(g81
g62
NtRp4308
(dp4309
g65
(dp4310
g92
g93
ssg74
g4299
sg67
(lp4311
S':'
asbag60
(g81
g62
NtRp4312
(dp4313
g65
(dp4314
sg74
g4299
sg67
(lp4315
g60
(g61
g62
NtRp4316
(dp4317
g65
(dp4318
g73
I5
ssg74
g4312
sg67
(lp4319
g60
(g69
g62
NtRp4320
(dp4321
g65
(dp4322
g73
I4
ssg74
Nsg67
(lp4323
sbasbasbasbag60
(g76
g62
NtRp4324
(dp4325
g65
(dp4326
sg74
g3867
sg67
(lp4327
g60
(g81
g62
NtRp4328
(dp4329
g65
(dp4330
g85
g86
ssg74
g4324
sg67
(lp4331
S'meta'
p4332
asbag60
(g81
g62
NtRp4333
(dp4334
g65
(dp4335
g92
g93
ssg74
g4324
sg67
(lp4336
S':'
asbag60
(g81
g62
NtRp4337
(dp4338
g65
(dp4339
sg74
g4324
sg67
(lp4340
g60
(g61
g62
NtRp4341
(dp4342
g65
(dp4343
g73
I5
ssg74
g4337
sg67
(lp4344
g60
(g69
g62
NtRp4345
(dp4346
g65
(dp4347
g73
I4
ssg74
Nsg67
(lp4348
sbasbasbasbag60
(g76
g62
NtRp4349
(dp4350
g65
(dp4351
sg74
g3867
sg67
(lp4352
g60
(g81
g62
NtRp4353
(dp4354
g65
(dp4355
g85
g86
ssg74
g4349
sg67
(lp4356
S'postprocessing'
p4357
asbag60
(g81
g62
NtRp4358
(dp4359
g65
(dp4360
g92
g93
ssg74
g4349
sg67
(lp4361
S':'
asbag60
(g81
g62
NtRp4362
(dp4363
g65
(dp4364
sg74
g4349
sg67
(lp4365
g60
(g61
g62
NtRp4366
(dp4367
g65
(dp4368
g73
I5
ssg74
g4362
sg67
(lp4369
g60
(g69
g62
NtRp4370
(dp4371
g65
(dp4372
g73
I4
ssg74
Nsg67
(lp4373
sbasbasbasbag60
(g76
g62
NtRp4374
(dp4375
g65
(dp4376
sg74
g3867
sg67
(lp4377
g60
(g81
g62
NtRp4378
(dp4379
g65
(dp4380
g85
g86
ssg74
g4374
sg67
(lp4381
S'session_file'
p4382
asbag60
(g81
g62
NtRp4383
(dp4384
g65
(dp4385
g92
g93
ssg74
g4374
sg67
(lp4386
S':'
asbag60
(g81
g62
NtRp4387
(dp4388
g65
(dp4389
sg74
g4374
sg67
(lp4390
g60
(g61
g62
NtRp4391
(dp4392
g65
(dp4393
g73
I5
ssg74
g4387
sg67
(lp4394
S"<open file '/Users/mdipierro/Dropbox/web2py/applications/inplace/sessions/127.0.0.1-b67af904-b8cf-469d-95b3-18285a004db1', mode 'rb+' at 0x1eccf08>"
p4395
asbasbasbag60
(g76
g62
NtRp4396
(dp4397
g65
(dp4398
sg74
g3867
sg67
(lp4399
g60
(g81
g62
NtRp4400
(dp4401
g65
(dp4402
g85
g86
ssg74
g4396
sg67
(lp4403
S'session_filename'
p4404
asbag60
(g81
g62
NtRp4405
(dp4406
g65
(dp4407
g92
g93
ssg74
g4396
sg67
(lp4408
S':'
asbag60
(g81
g62
NtRp4409
(dp4410
g65
(dp4411
sg74
g4396
sg67
(lp4412
g60
(g61
g62
NtRp4413
(dp4414
g65
(dp4415
g73
I5
ssg74
g4409
sg67
(lp4416
S'/Users/mdipierro/Dropbox/web2py/applications/inplace/sessions/127.0.0.1-b67af904-b8cf-469d-95b3-18285a004db1'
p4417
asbasbasbag60
(g76
g62
NtRp4418
(dp4419
g65
(dp4420
sg74
g3867
sg67
(lp4421
g60
(g81
g62
NtRp4422
(dp4423
g65
(dp4424
g85
g86
ssg74
g4418
sg67
(lp4425
S'session_id'
p4426
asbag60
(g81
g62
NtRp4427
(dp4428
g65
(dp4429
g92
g93
ssg74
g4418
sg67
(lp4430
S':'
asbag60
(g81
g62
NtRp4431
(dp4432
g65
(dp4433
sg74
g4418
sg67
(lp4434
g60
(g61
g62
NtRp4435
(dp4436
g65
(dp4437
g73
I5
ssg74
g4431
sg67
(lp4438
S'127.0.0.1-b67af904-b8cf-469d-95b3-18285a004db1'
p4439
asbasbasbag60
(g76
g62
NtRp4440
(dp4441
g65
(dp4442
sg74
g3867
sg67
(lp4443
g60
(g81
g62
NtRp4444
(dp4445
g65
(dp4446
g85
g86
ssg74
g4440
sg67
(lp4447
S'session_id_name'
p4448
asbag60
(g81
g62
NtRp4449
(dp4450
g65
(dp4451
g92
g93
ssg74
g4440
sg67
(lp4452
S':'
asbag60
(g81
g62
NtRp4453
(dp4454
g65
(dp4455
sg74
g4440
sg67
(lp4456
g60
(g61
g62
NtRp4457
(dp4458
g65
(dp4459
g73
I5
ssg74
g4453
sg67
(lp4460
g3924
asbasbasbag60
(g76
g62
NtRp4461
(dp4462
g65
(dp4463
sg74
g3867
sg67
(lp4464
g60
(g81
g62
NtRp4465
(dp4466
g65
(dp4467
g85
g86
ssg74
g4461
sg67
(lp4468
S'session_locked'
p4469
asbag60
(g81
g62
NtRp4470
(dp4471
g65
(dp4472
g92
g93
ssg74
g4461
sg67
(lp4473
S':'
asbag60
(g81
g62
NtRp4474
(dp4475
g65
(dp4476
sg74
g4461
sg67
(lp4477
g60
(g61
g62
NtRp4478
(dp4479
g65
(dp4480
g73
I5
ssg74
g4474
sg67
(lp4481
g2115
asbasbasbag60
(g76
g62
NtRp4482
(dp4483
g65
(dp4484
sg74
g3867
sg67
(lp4485
g60
(g81
g62
NtRp4486
(dp4487
g65
(dp4488
g85
g86
ssg74
g4482
sg67
(lp4489
S'session_new'
p4490
asbag60
(g81
g62
NtRp4491
(dp4492
g65
(dp4493
g92
g93
ssg74
g4482
sg67
(lp4494
S':'
asbag60
(g81
g62
NtRp4495
(dp4496
g65
(dp4497
sg74
g4482
sg67
(lp4498
g60
(g61
g62
NtRp4499
(dp4500
g65
(dp4501
g73
I5
ssg74
g4495
sg67
(lp4502
g103
asbasbasbag60
(g76
g62
NtRp4503
(dp4504
g65
(dp4505
sg74
g3867
sg67
(lp4506
g60
(g81
g62
NtRp4507
(dp4508
g65
(dp4509
g85
g86
ssg74
g4503
sg67
(lp4510
S'status'
p4511
asbag60
(g81
g62
NtRp4512
(dp4513
g65
(dp4514
g92
g93
ssg74
g4503
sg67
(lp4515
S':'
asbag60
(g81
g62
NtRp4516
(dp4517
g65
(dp4518
sg74
g4503
sg67
(lp4519
g60
(g61
g62
NtRp4520
(dp4521
g65
(dp4522
g73
I5
ssg74
g4516
sg67
(lp4523
S'200'
p4524
asbasbasbag60
(g76
g62
NtRp4525
(dp4526
g65
(dp4527
sg74
g3867
sg67
(lp4528
g60
(g81
g62
NtRp4529
(dp4530
g65
(dp4531
g85
g86
ssg74
g4525
sg67
(lp4532
S'subtitle'
p4533
asbag60
(g81
g62
NtRp4534
(dp4535
g65
(dp4536
g92
g93
ssg74
g4525
sg67
(lp4537
S':'
asbag60
(g81
g62
NtRp4538
(dp4539
g65
(dp4540
sg74
g4525
sg67
(lp4541
g60
(g61
g62
NtRp4542
(dp4543
g65
(dp4544
g73
I5
ssg74
g4538
sg67
(lp4545
S'The revolutionary CMS'
p4546
asbasbasbag60
(g76
g62
NtRp4547
(dp4548
g65
(dp4549
sg74
g3867
sg67
(lp4550
g60
(g81
g62
NtRp4551
(dp4552
g65
(dp4553
g85
g86
ssg74
g4547
sg67
(lp4554
S'title'
p4555
asbag60
(g81
g62
NtRp4556
(dp4557
g65
(dp4558
g92
g93
ssg74
g4547
sg67
(lp4559
S':'
asbag60
(g81
g62
NtRp4560
(dp4561
g65
(dp4562
sg74
g4547
sg67
(lp4563
g60
(g61
g62
NtRp4564
(dp4565
g65
(dp4566
g73
I5
ssg74
g4560
sg67
(lp4567
S'InPlace'
p4568
asbasbasbag60
(g76
g62
NtRp4569
(dp4570
g65
(dp4571
sg74
g3867
sg67
(lp4572
g60
(g81
g62
NtRp4573
(dp4574
g65
(dp4575
g85
g86
ssg74
g4569
sg67
(lp4576
g2779
asbag60
(g81
g62
NtRp4577
(dp4578
g65
(dp4579
g92
g93
ssg74
g4569
sg67
(lp4580
S':'
asbag60
(g81
g62
NtRp4581
(dp4582
g65
(dp4583
sg74
g4569
sg67
(lp4584
g60
(g61
g62
NtRp4585
(dp4586
g65
(dp4587
g73
I5
ssg74
g4581
sg67
(lp4588
g2792
asbasbasbag60
(g76
g62
NtRp4589
(dp4590
g65
(dp4591
sg74
g3867
sg67
(lp4592
g60
(g81
g62
NtRp4593
(dp4594
g65
(dp4595
g85
g86
ssg74
g4589
sg67
(lp4596
S'view'
p4597
asbag60
(g81
g62
NtRp4598
(dp4599
g65
(dp4600
g92
g93
ssg74
g4589
sg67
(lp4601
S':'
asbag60
(g81
g62
NtRp4602
(dp4603
g65
(dp4604
sg74
g4589
sg67
(lp4605
g60
(g61
g62
NtRp4606
(dp4607
g65
(dp4608
g73
I5
ssg74
g4602
sg67
(lp4609
S'default/index.html'
p4610
asbasbasbasbasbsS'locals'
p4611
(dp4612
g4
S"'/Users/mdipierro/Dropbox/web2py/applications/inplace/views/default/index.html'"
p4613
sg6
S'r"response.write(\'<!DOCTYPE html>\\n<!-- paulirish....ponse.write(\'\\n</body>\\n</html>\\n\', escape=False)"'
p4614
sssS'traceback'
p4615
S'Traceback (most recent call last):\n  File "/Users/mdipierro/Dropbox/web2py/gluon/restricted.py", line 203, in restricted\n    ccode = compile2(code,layer)\n  File "/Users/mdipierro/Dropbox/web2py/gluon/restricted.py", line 189, in compile2\n    return compile(code.rstrip().replace(\'\\r\\n\',\'\\n\')+\'\\n\', layer, \'exec\')\n  File "/Users/mdipierro/Dropbox/web2py/applications/inplace/views/default/index.html", line 55\n    ile=is_mobile))\n      ^\nSyntaxError: invalid syntax\n'
p4616
s.