(dp1
S'output'
p2
S"<type 'exceptions.AttributeError'> 'NoneType' object has no attribute 'name'"
p3
sS'layer'
p4
S'/Users/mdipierro/Dropbox/web2py/applications/inplace/controllers/default.py'
p5
sS'code'
p6
S'# -*- coding: utf-8 -*-\n# developed by Massimo Di Pierro, BSD License\n\nresponse.title = \'InPlace\'\nresponse.subtitle = \'The revolutionary CMS\'\n\n@auth.requires_login()\ndef index():\n    form=SQLFORM.factory(Field(\'url\',requires=IS_URL(),default=\'http://web2py.com\'))\n    if form.process().accepted:\n        redirect(URL(\'edit\',vars=dict(url=form.vars.url)))\n    clones = db(db.clone).select()\n    return locals()\n\n@auth.requires_login()\ndef delete():\n    db(db.clone.id==request.args(0))(db.clone.created_by==auth.user.id).delete()\n    redirect(URL(\'index\'))\n\n@auth.requires_login()\ndef edit():\n    session._unlock(response)                    \n    import urllib,re\n    print request.args(0)\n    if request.args(0)==\'post\':\n        return request.vars.value or \'\'\n    elif request.args(0)==\'store\':\n        session.new_html = session.html.split(\'<body\')[0]+\'<body>\'+request.vars.html+\'</body></html>\'\n        return \'ok\'\n    \n    url = request.vars.url\n    try:\n        html = urllib.urlopen(url).read()\n    except IOError:\n        session.flash = \'web page does not exist!\'\n        redirect(URL(\'index\'))\n    session.url = url\n    session.new_html = session.html = html\n    html = re.sub(\'\\s+[\\n]\',\'\\n\',html)\n    html = re.sub(\'>[ \\t]+<\',\'> <\',html)\n    html = re.sub(\'(src|SRC)\\s*=\\s*"/(?!/)\',\'src="\'+\'/\'.join(url.split(\'/\')[:3])+\'/\',html)\n    html = re.sub(\'(src|SRC)\\s*=\\s*"(?!(/|http))\',\'src="\'+\'/\'.join(url.split(\'/\'))+\'/\',html)\n    html = re.sub(\'(href|HREF)\\s*=\\s*"/(?!/)\',\'href="\'+\'/\'.join(url.split(\'/\')[:3])+\'/\',html)\n    html = re.sub(\'(href|HREF)\\s*=\\s*"(?!(/|http))\',\'href="\'+\'/\'.join(url.split(\'/\'))+\'/\',html)\n    html = re.sub(\'url\\(/(?!/)\',\'url(\'+\'/\'.join(url.split(\'/\')[:3])+\'/\',html)\n    html = re.sub(\'url\\((?!(/|http))\',\'url(\'+\'/\'.join(url.split(\'/\'))+\'/\',html)\n    inject = \'<script src="%s" language="javascript"></script>\' % URL(\'static\',\'js/inject.js\')\n    html = html.replace(\'</head>\',inject+\'</head>\')\n    return html\n\n@auth.requires_login()\ndef clone():\n    id = db.clone.insert(url=session.url,html=session.new_html)\n    redirect(URL(\'page\',args=id))\n\ndef page():\n    if request.args(0)==\'clone\': redirect(URL(\'index\'))\n    return db.clone(request.args(0)).html\n\ndef user():\n    return dict(form=auth())\n\ndef folder():\n    folder = db.cms_folder(request.args(0))\n    folder.path, f = [folder.name], folder.parent_folder\n    while f: folder.path, f = [A(f.name,_href=URL(\'folder\',args=f))]+folder.path, f.parent_folder\n    files = db(db.cms_file.folder==folder.id).select(orderby=db.cms_file.name)\n    folders = db(db.cms_folder.parent_folder==folder.id).select(orderby=db.cms_folder.name)\n    return locals()\n\ndef edit_file():\n    folder = db.cms_folder(request.args(0))\n    db.cms_file.folder.default=folder.id\n    db.cms_file.name.requires=IS_NOT_IN_DB(\n        db(db.cms_file.folder==folder.id),\'cms_file.name\')\n    form = SQLFORM(db.cms_file,request.args(1),deletable=True)\\\n        .process(next=URL(\'folder\',args=folder.id))\n    return locals()\n\ndef edit_folder():\n    folder = db.cms_folder(request.args(0))\n    db.cms_folder.parent_folder.default=folder.id\n    db.cms_folder.name.requires=IS_NOT_IN_DB(\n        db(db.cms_folder.parent_folder==folder.id),\'cms_folder.name\')\n    form = SQLFORM(db.cms_folder,request.args(1),deletable=True)\\\n        .process(next=URL(\'folder\',args=folder.id))\n    return locals()\n\n\nresponse._vars=response._caller(folder)\n'
p7
sS'snapshot'
p8
(dp9
S'exception'
p10
(dp11
S'__hash__'
p12
S"<method-wrapper '__hash__' of exceptions.AttributeError object at 0x28c7fd0>"
p13
sS'__setattr__'
p14
S"<method-wrapper '__setattr__' of exceptions.AttributeError object at 0x28c7fd0>"
p15
sS'__reduce_ex__'
p16
S'<built-in method __reduce_ex__ of exceptions.AttributeError object at 0x28c7fd0>'
p17
sS'__getslice__'
p18
S"<method-wrapper '__getslice__' of exceptions.AttributeError object at 0x28c7fd0>"
p19
sS'__getitem__'
p20
S"<method-wrapper '__getitem__' of exceptions.AttributeError object at 0x28c7fd0>"
p21
sS'__setstate__'
p22
S'<built-in method __setstate__ of exceptions.AttributeError object at 0x28c7fd0>'
p23
sS'__reduce__'
p24
S'<built-in method __reduce__ of exceptions.AttributeError object at 0x28c7fd0>'
p25
sS'__str__'
p26
S"<method-wrapper '__str__' of exceptions.AttributeError object at 0x28c7fd0>"
p27
sS'args'
p28
S'("\'NoneType\' object has no attribute \'name\'",)'
p29
sS'__getattribute__'
p30
S"<method-wrapper '__getattribute__' of exceptions.AttributeError object at 0x28c7fd0>"
p31
sS'__class__'
p32
S"<type 'exceptions.AttributeError'>"
p33
sS'__delattr__'
p34
S"<method-wrapper '__delattr__' of exceptions.AttributeError object at 0x28c7fd0>"
p35
sS'__repr__'
p36
S"<method-wrapper '__repr__' of exceptions.AttributeError object at 0x28c7fd0>"
p37
sS'__dict__'
p38
S'{}'
p39
sS'__doc__'
p40
S"'Attribute not found.'"
p41
sS'__init__'
p42
S"<method-wrapper '__init__' of exceptions.AttributeError object at 0x28c7fd0>"
p43
sS'__new__'
p44
S'<built-in method __new__ of type object at 0xdc140>'
p45
ssS'evalue'
p46
S"'NoneType' object has no attribute 'name'"
p47
sS'request'
p48
ccopy_reg
_reconstructor
p49
(cgluon.html
BEAUTIFY
p50
c__builtin__
object
p51
NtRp52
(dp53
S'attributes'
p54
(dp55
sS'components'
p56
(lp57
g49
(cgluon.html
TABLE
p58
g51
NtRp59
(dp60
g54
(dp61
S'level'
p62
I5
ssS'parent'
p63
Nsg56
(lp64
g49
(cgluon.html
TR
p65
g51
NtRp66
(dp67
g54
(dp68
sg63
g59
sg56
(lp69
g49
(cgluon.html
TD
p70
g51
NtRp71
(dp72
g54
(dp73
S'_style'
p74
S'font-weight:bold;vertical-align:top'
p75
ssg63
g66
sg56
(lp76
S'ajax'
p77
asbag49
(g70
g51
NtRp78
(dp79
g54
(dp80
S'_valign'
p81
S'top'
p82
ssg63
g66
sg56
(lp83
S':'
asbag49
(g70
g51
NtRp84
(dp85
g54
(dp86
sg63
g66
sg56
(lp87
g49
(g50
g51
NtRp88
(dp89
g54
(dp90
g62
I5
ssg63
g84
sg56
(lp91
S'False'
p92
asbasbasbag49
(g65
g51
NtRp93
(dp94
g54
(dp95
sg63
g59
sg56
(lp96
g49
(g70
g51
NtRp97
(dp98
g54
(dp99
g74
g75
ssg63
g93
sg56
(lp100
S'application'
p101
asbag49
(g70
g51
NtRp102
(dp103
g54
(dp104
g81
g82
ssg63
g93
sg56
(lp105
S':'
asbag49
(g70
g51
NtRp106
(dp107
g54
(dp108
sg63
g93
sg56
(lp109
g49
(g50
g51
NtRp110
(dp111
g54
(dp112
g62
I5
ssg63
g106
sg56
(lp113
S'inplace'
p114
asbasbasbag49
(g65
g51
NtRp115
(dp116
g54
(dp117
sg63
g59
sg56
(lp118
g49
(g70
g51
NtRp119
(dp120
g54
(dp121
g74
g75
ssg63
g115
sg56
(lp122
g28
asbag49
(g70
g51
NtRp123
(dp124
g54
(dp125
g81
g82
ssg63
g115
sg56
(lp126
S':'
asbag49
(g70
g51
NtRp127
(dp128
g54
(dp129
sg63
g115
sg56
(lp130
g49
(g50
g51
NtRp131
(dp132
g54
(dp133
g62
I5
ssg63
g127
sg56
(lp134
g49
(g58
g51
NtRp135
(dp136
g54
(dp137
g62
I4
ssg63
Nsg56
(lp138
sbasbasbasbag49
(g65
g51
NtRp139
(dp140
g54
(dp141
sg63
g59
sg56
(lp142
g49
(g70
g51
NtRp143
(dp144
g54
(dp145
g74
g75
ssg63
g139
sg56
(lp146
S'body'
p147
asbag49
(g70
g51
NtRp148
(dp149
g54
(dp150
g81
g82
ssg63
g139
sg56
(lp151
S':'
asbag49
(g70
g51
NtRp152
(dp153
g54
(dp154
sg63
g139
sg56
(lp155
g49
(g50
g51
NtRp156
(dp157
g54
(dp158
g62
I5
ssg63
g152
sg56
(lp159
S'<cStringIO.StringO object at 0x29dda80>'
p160
asbasbasbag49
(g65
g51
NtRp161
(dp162
g54
(dp163
sg63
g59
sg56
(lp164
g49
(g70
g51
NtRp165
(dp166
g54
(dp167
g74
g75
ssg63
g161
sg56
(lp168
S'client'
p169
asbag49
(g70
g51
NtRp170
(dp171
g54
(dp172
g81
g82
ssg63
g161
sg56
(lp173
S':'
asbag49
(g70
g51
NtRp174
(dp175
g54
(dp176
sg63
g161
sg56
(lp177
g49
(g50
g51
NtRp178
(dp179
g54
(dp180
g62
I5
ssg63
g174
sg56
(lp181
S'127.0.0.1'
p182
asbasbasbag49
(g65
g51
NtRp183
(dp184
g54
(dp185
sg63
g59
sg56
(lp186
g49
(g70
g51
NtRp187
(dp188
g54
(dp189
g74
g75
ssg63
g183
sg56
(lp190
S'controller'
p191
asbag49
(g70
g51
NtRp192
(dp193
g54
(dp194
g81
g82
ssg63
g183
sg56
(lp195
S':'
asbag49
(g70
g51
NtRp196
(dp197
g54
(dp198
sg63
g183
sg56
(lp199
g49
(g50
g51
NtRp200
(dp201
g54
(dp202
g62
I5
ssg63
g196
sg56
(lp203
S'default'
p204
asbasbasbag49
(g65
g51
NtRp205
(dp206
g54
(dp207
sg63
g59
sg56
(lp208
g49
(g70
g51
NtRp209
(dp210
g54
(dp211
g74
g75
ssg63
g205
sg56
(lp212
S'cookies'
p213
asbag49
(g70
g51
NtRp214
(dp215
g54
(dp216
g81
g82
ssg63
g205
sg56
(lp217
S':'
asbag49
(g70
g51
NtRp218
(dp219
g54
(dp220
sg63
g205
sg56
(lp221
g49
(g50
g51
NtRp222
(dp223
g54
(dp224
g62
I5
ssg63
g218
sg56
(lp225
g49
(g58
g51
NtRp226
(dp227
g54
(dp228
g62
I4
ssg63
Nsg56
(lp229
g49
(g65
g51
NtRp230
(dp231
g54
(dp232
sg63
g226
sg56
(lp233
g49
(g70
g51
NtRp234
(dp235
g54
(dp236
g74
g75
ssg63
g230
sg56
(lp237
S'el-finder-last-finder'
p238
asbag49
(g70
g51
NtRp239
(dp240
g54
(dp241
g81
g82
ssg63
g230
sg56
(lp242
S':'
asbag49
(g70
g51
NtRp243
(dp244
g54
(dp245
sg63
g230
sg56
(lp246
g49
(g50
g51
NtRp247
(dp248
g54
(dp249
g62
I4
ssg63
g243
sg56
(lp250
g49
(g58
g51
NtRp251
(dp252
g54
(dp253
g62
I3
ssg63
Nsg56
(lp254
g49
(g65
g51
NtRp255
(dp256
g54
(dp257
sg63
g251
sg56
(lp258
g49
(g70
g51
NtRp259
(dp260
g54
(dp261
g74
g75
ssg63
g255
sg56
(lp262
S'comment'
p263
asbag49
(g70
g51
NtRp264
(dp265
g54
(dp266
g81
g82
ssg63
g255
sg56
(lp267
S':'
asbag49
(g70
g51
NtRp268
(dp269
g54
(dp270
sg63
g255
sg56
(lp271
g49
(g50
g51
NtRp272
(dp273
g54
(dp274
g62
I3
ssg63
g268
sg56
(lp275
S''
asbasbasbag49
(g65
g51
NtRp276
(dp277
g54
(dp278
sg63
g251
sg56
(lp279
g49
(g70
g51
NtRp280
(dp281
g54
(dp282
g74
g75
ssg63
g276
sg56
(lp283
S'domain'
p284
asbag49
(g70
g51
NtRp285
(dp286
g54
(dp287
g81
g82
ssg63
g276
sg56
(lp288
S':'
asbag49
(g70
g51
NtRp289
(dp290
g54
(dp291
sg63
g276
sg56
(lp292
g49
(g50
g51
NtRp293
(dp294
g54
(dp295
g62
I3
ssg63
g289
sg56
(lp296
S''
asbasbasbag49
(g65
g51
NtRp297
(dp298
g54
(dp299
sg63
g251
sg56
(lp300
g49
(g70
g51
NtRp301
(dp302
g54
(dp303
g74
g75
ssg63
g297
sg56
(lp304
S'expires'
p305
asbag49
(g70
g51
NtRp306
(dp307
g54
(dp308
g81
g82
ssg63
g297
sg56
(lp309
S':'
asbag49
(g70
g51
NtRp310
(dp311
g54
(dp312
sg63
g297
sg56
(lp313
g49
(g50
g51
NtRp314
(dp315
g54
(dp316
g62
I3
ssg63
g310
sg56
(lp317
S''
asbasbasbag49
(g65
g51
NtRp318
(dp319
g54
(dp320
sg63
g251
sg56
(lp321
g49
(g70
g51
NtRp322
(dp323
g54
(dp324
g74
g75
ssg63
g318
sg56
(lp325
S'max-age'
p326
asbag49
(g70
g51
NtRp327
(dp328
g54
(dp329
g81
g82
ssg63
g318
sg56
(lp330
S':'
asbag49
(g70
g51
NtRp331
(dp332
g54
(dp333
sg63
g318
sg56
(lp334
g49
(g50
g51
NtRp335
(dp336
g54
(dp337
g62
I3
ssg63
g331
sg56
(lp338
S''
asbasbasbag49
(g65
g51
NtRp339
(dp340
g54
(dp341
sg63
g251
sg56
(lp342
g49
(g70
g51
NtRp343
(dp344
g54
(dp345
g74
g75
ssg63
g339
sg56
(lp346
S'path'
p347
asbag49
(g70
g51
NtRp348
(dp349
g54
(dp350
g81
g82
ssg63
g339
sg56
(lp351
S':'
asbag49
(g70
g51
NtRp352
(dp353
g54
(dp354
sg63
g339
sg56
(lp355
g49
(g50
g51
NtRp356
(dp357
g54
(dp358
g62
I3
ssg63
g352
sg56
(lp359
S''
asbasbasbag49
(g65
g51
NtRp360
(dp361
g54
(dp362
sg63
g251
sg56
(lp363
g49
(g70
g51
NtRp364
(dp365
g54
(dp366
g74
g75
ssg63
g360
sg56
(lp367
S'secure'
p368
asbag49
(g70
g51
NtRp369
(dp370
g54
(dp371
g81
g82
ssg63
g360
sg56
(lp372
S':'
asbag49
(g70
g51
NtRp373
(dp374
g54
(dp375
sg63
g360
sg56
(lp376
g49
(g50
g51
NtRp377
(dp378
g54
(dp379
g62
I3
ssg63
g373
sg56
(lp380
S''
asbasbasbag49
(g65
g51
NtRp381
(dp382
g54
(dp383
sg63
g251
sg56
(lp384
g49
(g70
g51
NtRp385
(dp386
g54
(dp387
g74
g75
ssg63
g381
sg56
(lp388
S'version'
p389
asbag49
(g70
g51
NtRp390
(dp391
g54
(dp392
g81
g82
ssg63
g381
sg56
(lp393
S':'
asbag49
(g70
g51
NtRp394
(dp395
g54
(dp396
sg63
g381
sg56
(lp397
g49
(g50
g51
NtRp398
(dp399
g54
(dp400
g62
I3
ssg63
g394
sg56
(lp401
S''
asbasbasbasbasbasbasbag49
(g65
g51
NtRp402
(dp403
g54
(dp404
sg63
g226
sg56
(lp405
g49
(g70
g51
NtRp406
(dp407
g54
(dp408
g74
g75
ssg63
g402
sg56
(lp409
S'registered'
p410
asbag49
(g70
g51
NtRp411
(dp412
g54
(dp413
g81
g82
ssg63
g402
sg56
(lp414
S':'
asbag49
(g70
g51
NtRp415
(dp416
g54
(dp417
sg63
g402
sg56
(lp418
g49
(g50
g51
NtRp419
(dp420
g54
(dp421
g62
I4
ssg63
g415
sg56
(lp422
g49
(g58
g51
NtRp423
(dp424
g54
(dp425
g62
I3
ssg63
Nsg56
(lp426
g49
(g65
g51
NtRp427
(dp428
g54
(dp429
sg63
g423
sg56
(lp430
g49
(g70
g51
NtRp431
(dp432
g54
(dp433
g74
g75
ssg63
g427
sg56
(lp434
g263
asbag49
(g70
g51
NtRp435
(dp436
g54
(dp437
g81
g82
ssg63
g427
sg56
(lp438
S':'
asbag49
(g70
g51
NtRp439
(dp440
g54
(dp441
sg63
g427
sg56
(lp442
g49
(g50
g51
NtRp443
(dp444
g54
(dp445
g62
I3
ssg63
g439
sg56
(lp446
S''
asbasbasbag49
(g65
g51
NtRp447
(dp448
g54
(dp449
sg63
g423
sg56
(lp450
g49
(g70
g51
NtRp451
(dp452
g54
(dp453
g74
g75
ssg63
g447
sg56
(lp454
g284
asbag49
(g70
g51
NtRp455
(dp456
g54
(dp457
g81
g82
ssg63
g447
sg56
(lp458
S':'
asbag49
(g70
g51
NtRp459
(dp460
g54
(dp461
sg63
g447
sg56
(lp462
g49
(g50
g51
NtRp463
(dp464
g54
(dp465
g62
I3
ssg63
g459
sg56
(lp466
S''
asbasbasbag49
(g65
g51
NtRp467
(dp468
g54
(dp469
sg63
g423
sg56
(lp470
g49
(g70
g51
NtRp471
(dp472
g54
(dp473
g74
g75
ssg63
g467
sg56
(lp474
g305
asbag49
(g70
g51
NtRp475
(dp476
g54
(dp477
g81
g82
ssg63
g467
sg56
(lp478
S':'
asbag49
(g70
g51
NtRp479
(dp480
g54
(dp481
sg63
g467
sg56
(lp482
g49
(g50
g51
NtRp483
(dp484
g54
(dp485
g62
I3
ssg63
g479
sg56
(lp486
S''
asbasbasbag49
(g65
g51
NtRp487
(dp488
g54
(dp489
sg63
g423
sg56
(lp490
g49
(g70
g51
NtRp491
(dp492
g54
(dp493
g74
g75
ssg63
g487
sg56
(lp494
g326
asbag49
(g70
g51
NtRp495
(dp496
g54
(dp497
g81
g82
ssg63
g487
sg56
(lp498
S':'
asbag49
(g70
g51
NtRp499
(dp500
g54
(dp501
sg63
g487
sg56
(lp502
g49
(g50
g51
NtRp503
(dp504
g54
(dp505
g62
I3
ssg63
g499
sg56
(lp506
S''
asbasbasbag49
(g65
g51
NtRp507
(dp508
g54
(dp509
sg63
g423
sg56
(lp510
g49
(g70
g51
NtRp511
(dp512
g54
(dp513
g74
g75
ssg63
g507
sg56
(lp514
g347
asbag49
(g70
g51
NtRp515
(dp516
g54
(dp517
g81
g82
ssg63
g507
sg56
(lp518
S':'
asbag49
(g70
g51
NtRp519
(dp520
g54
(dp521
sg63
g507
sg56
(lp522
g49
(g50
g51
NtRp523
(dp524
g54
(dp525
g62
I3
ssg63
g519
sg56
(lp526
S''
asbasbasbag49
(g65
g51
NtRp527
(dp528
g54
(dp529
sg63
g423
sg56
(lp530
g49
(g70
g51
NtRp531
(dp532
g54
(dp533
g74
g75
ssg63
g527
sg56
(lp534
g368
asbag49
(g70
g51
NtRp535
(dp536
g54
(dp537
g81
g82
ssg63
g527
sg56
(lp538
S':'
asbag49
(g70
g51
NtRp539
(dp540
g54
(dp541
sg63
g527
sg56
(lp542
g49
(g50
g51
NtRp543
(dp544
g54
(dp545
g62
I3
ssg63
g539
sg56
(lp546
S''
asbasbasbag49
(g65
g51
NtRp547
(dp548
g54
(dp549
sg63
g423
sg56
(lp550
g49
(g70
g51
NtRp551
(dp552
g54
(dp553
g74
g75
ssg63
g547
sg56
(lp554
g389
asbag49
(g70
g51
NtRp555
(dp556
g54
(dp557
g81
g82
ssg63
g547
sg56
(lp558
S':'
asbag49
(g70
g51
NtRp559
(dp560
g54
(dp561
sg63
g547
sg56
(lp562
g49
(g50
g51
NtRp563
(dp564
g54
(dp565
g62
I3
ssg63
g559
sg56
(lp566
S''
asbasbasbasbasbasbasbag49
(g65
g51
NtRp567
(dp568
g54
(dp569
sg63
g226
sg56
(lp570
g49
(g70
g51
NtRp571
(dp572
g54
(dp573
g74
g75
ssg63
g567
sg56
(lp574
S's_nr'
p575
asbag49
(g70
g51
NtRp576
(dp577
g54
(dp578
g81
g82
ssg63
g567
sg56
(lp579
S':'
asbag49
(g70
g51
NtRp580
(dp581
g54
(dp582
sg63
g567
sg56
(lp583
g49
(g50
g51
NtRp584
(dp585
g54
(dp586
g62
I4
ssg63
g580
sg56
(lp587
g49
(g58
g51
NtRp588
(dp589
g54
(dp590
g62
I3
ssg63
Nsg56
(lp591
g49
(g65
g51
NtRp592
(dp593
g54
(dp594
sg63
g588
sg56
(lp595
g49
(g70
g51
NtRp596
(dp597
g54
(dp598
g74
g75
ssg63
g592
sg56
(lp599
g263
asbag49
(g70
g51
NtRp600
(dp601
g54
(dp602
g81
g82
ssg63
g592
sg56
(lp603
S':'
asbag49
(g70
g51
NtRp604
(dp605
g54
(dp606
sg63
g592
sg56
(lp607
g49
(g50
g51
NtRp608
(dp609
g54
(dp610
g62
I3
ssg63
g604
sg56
(lp611
S''
asbasbasbag49
(g65
g51
NtRp612
(dp613
g54
(dp614
sg63
g588
sg56
(lp615
g49
(g70
g51
NtRp616
(dp617
g54
(dp618
g74
g75
ssg63
g612
sg56
(lp619
g284
asbag49
(g70
g51
NtRp620
(dp621
g54
(dp622
g81
g82
ssg63
g612
sg56
(lp623
S':'
asbag49
(g70
g51
NtRp624
(dp625
g54
(dp626
sg63
g612
sg56
(lp627
g49
(g50
g51
NtRp628
(dp629
g54
(dp630
g62
I3
ssg63
g624
sg56
(lp631
S''
asbasbasbag49
(g65
g51
NtRp632
(dp633
g54
(dp634
sg63
g588
sg56
(lp635
g49
(g70
g51
NtRp636
(dp637
g54
(dp638
g74
g75
ssg63
g632
sg56
(lp639
g305
asbag49
(g70
g51
NtRp640
(dp641
g54
(dp642
g81
g82
ssg63
g632
sg56
(lp643
S':'
asbag49
(g70
g51
NtRp644
(dp645
g54
(dp646
sg63
g632
sg56
(lp647
g49
(g50
g51
NtRp648
(dp649
g54
(dp650
g62
I3
ssg63
g644
sg56
(lp651
S''
asbasbasbag49
(g65
g51
NtRp652
(dp653
g54
(dp654
sg63
g588
sg56
(lp655
g49
(g70
g51
NtRp656
(dp657
g54
(dp658
g74
g75
ssg63
g652
sg56
(lp659
g326
asbag49
(g70
g51
NtRp660
(dp661
g54
(dp662
g81
g82
ssg63
g652
sg56
(lp663
S':'
asbag49
(g70
g51
NtRp664
(dp665
g54
(dp666
sg63
g652
sg56
(lp667
g49
(g50
g51
NtRp668
(dp669
g54
(dp670
g62
I3
ssg63
g664
sg56
(lp671
S''
asbasbasbag49
(g65
g51
NtRp672
(dp673
g54
(dp674
sg63
g588
sg56
(lp675
g49
(g70
g51
NtRp676
(dp677
g54
(dp678
g74
g75
ssg63
g672
sg56
(lp679
g347
asbag49
(g70
g51
NtRp680
(dp681
g54
(dp682
g81
g82
ssg63
g672
sg56
(lp683
S':'
asbag49
(g70
g51
NtRp684
(dp685
g54
(dp686
sg63
g672
sg56
(lp687
g49
(g50
g51
NtRp688
(dp689
g54
(dp690
g62
I3
ssg63
g684
sg56
(lp691
S''
asbasbasbag49
(g65
g51
NtRp692
(dp693
g54
(dp694
sg63
g588
sg56
(lp695
g49
(g70
g51
NtRp696
(dp697
g54
(dp698
g74
g75
ssg63
g692
sg56
(lp699
g368
asbag49
(g70
g51
NtRp700
(dp701
g54
(dp702
g81
g82
ssg63
g692
sg56
(lp703
S':'
asbag49
(g70
g51
NtRp704
(dp705
g54
(dp706
sg63
g692
sg56
(lp707
g49
(g50
g51
NtRp708
(dp709
g54
(dp710
g62
I3
ssg63
g704
sg56
(lp711
S''
asbasbasbag49
(g65
g51
NtRp712
(dp713
g54
(dp714
sg63
g588
sg56
(lp715
g49
(g70
g51
NtRp716
(dp717
g54
(dp718
g74
g75
ssg63
g712
sg56
(lp719
g389
asbag49
(g70
g51
NtRp720
(dp721
g54
(dp722
g81
g82
ssg63
g712
sg56
(lp723
S':'
asbag49
(g70
g51
NtRp724
(dp725
g54
(dp726
sg63
g712
sg56
(lp727
g49
(g50
g51
NtRp728
(dp729
g54
(dp730
g62
I3
ssg63
g724
sg56
(lp731
S''
asbasbasbasbasbasbasbag49
(g65
g51
NtRp732
(dp733
g54
(dp734
sg63
g226
sg56
(lp735
g49
(g70
g51
NtRp736
(dp737
g54
(dp738
g74
g75
ssg63
g732
sg56
(lp739
S'session_id_admin'
p740
asbag49
(g70
g51
NtRp741
(dp742
g54
(dp743
g81
g82
ssg63
g732
sg56
(lp744
S':'
asbag49
(g70
g51
NtRp745
(dp746
g54
(dp747
sg63
g732
sg56
(lp748
g49
(g50
g51
NtRp749
(dp750
g54
(dp751
g62
I4
ssg63
g745
sg56
(lp752
g49
(g58
g51
NtRp753
(dp754
g54
(dp755
g62
I3
ssg63
Nsg56
(lp756
g49
(g65
g51
NtRp757
(dp758
g54
(dp759
sg63
g753
sg56
(lp760
g49
(g70
g51
NtRp761
(dp762
g54
(dp763
g74
g75
ssg63
g757
sg56
(lp764
g263
asbag49
(g70
g51
NtRp765
(dp766
g54
(dp767
g81
g82
ssg63
g757
sg56
(lp768
S':'
asbag49
(g70
g51
NtRp769
(dp770
g54
(dp771
sg63
g757
sg56
(lp772
g49
(g50
g51
NtRp773
(dp774
g54
(dp775
g62
I3
ssg63
g769
sg56
(lp776
S''
asbasbasbag49
(g65
g51
NtRp777
(dp778
g54
(dp779
sg63
g753
sg56
(lp780
g49
(g70
g51
NtRp781
(dp782
g54
(dp783
g74
g75
ssg63
g777
sg56
(lp784
g284
asbag49
(g70
g51
NtRp785
(dp786
g54
(dp787
g81
g82
ssg63
g777
sg56
(lp788
S':'
asbag49
(g70
g51
NtRp789
(dp790
g54
(dp791
sg63
g777
sg56
(lp792
g49
(g50
g51
NtRp793
(dp794
g54
(dp795
g62
I3
ssg63
g789
sg56
(lp796
S''
asbasbasbag49
(g65
g51
NtRp797
(dp798
g54
(dp799
sg63
g753
sg56
(lp800
g49
(g70
g51
NtRp801
(dp802
g54
(dp803
g74
g75
ssg63
g797
sg56
(lp804
g305
asbag49
(g70
g51
NtRp805
(dp806
g54
(dp807
g81
g82
ssg63
g797
sg56
(lp808
S':'
asbag49
(g70
g51
NtRp809
(dp810
g54
(dp811
sg63
g797
sg56
(lp812
g49
(g50
g51
NtRp813
(dp814
g54
(dp815
g62
I3
ssg63
g809
sg56
(lp816
S''
asbasbasbag49
(g65
g51
NtRp817
(dp818
g54
(dp819
sg63
g753
sg56
(lp820
g49
(g70
g51
NtRp821
(dp822
g54
(dp823
g74
g75
ssg63
g817
sg56
(lp824
g326
asbag49
(g70
g51
NtRp825
(dp826
g54
(dp827
g81
g82
ssg63
g817
sg56
(lp828
S':'
asbag49
(g70
g51
NtRp829
(dp830
g54
(dp831
sg63
g817
sg56
(lp832
g49
(g50
g51
NtRp833
(dp834
g54
(dp835
g62
I3
ssg63
g829
sg56
(lp836
S''
asbasbasbag49
(g65
g51
NtRp837
(dp838
g54
(dp839
sg63
g753
sg56
(lp840
g49
(g70
g51
NtRp841
(dp842
g54
(dp843
g74
g75
ssg63
g837
sg56
(lp844
g347
asbag49
(g70
g51
NtRp845
(dp846
g54
(dp847
g81
g82
ssg63
g837
sg56
(lp848
S':'
asbag49
(g70
g51
NtRp849
(dp850
g54
(dp851
sg63
g837
sg56
(lp852
g49
(g50
g51
NtRp853
(dp854
g54
(dp855
g62
I3
ssg63
g849
sg56
(lp856
S''
asbasbasbag49
(g65
g51
NtRp857
(dp858
g54
(dp859
sg63
g753
sg56
(lp860
g49
(g70
g51
NtRp861
(dp862
g54
(dp863
g74
g75
ssg63
g857
sg56
(lp864
g368
asbag49
(g70
g51
NtRp865
(dp866
g54
(dp867
g81
g82
ssg63
g857
sg56
(lp868
S':'
asbag49
(g70
g51
NtRp869
(dp870
g54
(dp871
sg63
g857
sg56
(lp872
g49
(g50
g51
NtRp873
(dp874
g54
(dp875
g62
I3
ssg63
g869
sg56
(lp876
S''
asbasbasbag49
(g65
g51
NtRp877
(dp878
g54
(dp879
sg63
g753
sg56
(lp880
g49
(g70
g51
NtRp881
(dp882
g54
(dp883
g74
g75
ssg63
g877
sg56
(lp884
g389
asbag49
(g70
g51
NtRp885
(dp886
g54
(dp887
g81
g82
ssg63
g877
sg56
(lp888
S':'
asbag49
(g70
g51
NtRp889
(dp890
g54
(dp891
sg63
g877
sg56
(lp892
g49
(g50
g51
NtRp893
(dp894
g54
(dp895
g62
I3
ssg63
g889
sg56
(lp896
S''
asbasbasbasbasbasbasbag49
(g65
g51
NtRp897
(dp898
g54
(dp899
sg63
g226
sg56
(lp900
g49
(g70
g51
NtRp901
(dp902
g54
(dp903
g74
g75
ssg63
g897
sg56
(lp904
S'session_id_cms'
p905
asbag49
(g70
g51
NtRp906
(dp907
g54
(dp908
g81
g82
ssg63
g897
sg56
(lp909
S':'
asbag49
(g70
g51
NtRp910
(dp911
g54
(dp912
sg63
g897
sg56
(lp913
g49
(g50
g51
NtRp914
(dp915
g54
(dp916
g62
I4
ssg63
g910
sg56
(lp917
g49
(g58
g51
NtRp918
(dp919
g54
(dp920
g62
I3
ssg63
Nsg56
(lp921
g49
(g65
g51
NtRp922
(dp923
g54
(dp924
sg63
g918
sg56
(lp925
g49
(g70
g51
NtRp926
(dp927
g54
(dp928
g74
g75
ssg63
g922
sg56
(lp929
g263
asbag49
(g70
g51
NtRp930
(dp931
g54
(dp932
g81
g82
ssg63
g922
sg56
(lp933
S':'
asbag49
(g70
g51
NtRp934
(dp935
g54
(dp936
sg63
g922
sg56
(lp937
g49
(g50
g51
NtRp938
(dp939
g54
(dp940
g62
I3
ssg63
g934
sg56
(lp941
S''
asbasbasbag49
(g65
g51
NtRp942
(dp943
g54
(dp944
sg63
g918
sg56
(lp945
g49
(g70
g51
NtRp946
(dp947
g54
(dp948
g74
g75
ssg63
g942
sg56
(lp949
g284
asbag49
(g70
g51
NtRp950
(dp951
g54
(dp952
g81
g82
ssg63
g942
sg56
(lp953
S':'
asbag49
(g70
g51
NtRp954
(dp955
g54
(dp956
sg63
g942
sg56
(lp957
g49
(g50
g51
NtRp958
(dp959
g54
(dp960
g62
I3
ssg63
g954
sg56
(lp961
S''
asbasbasbag49
(g65
g51
NtRp962
(dp963
g54
(dp964
sg63
g918
sg56
(lp965
g49
(g70
g51
NtRp966
(dp967
g54
(dp968
g74
g75
ssg63
g962
sg56
(lp969
g305
asbag49
(g70
g51
NtRp970
(dp971
g54
(dp972
g81
g82
ssg63
g962
sg56
(lp973
S':'
asbag49
(g70
g51
NtRp974
(dp975
g54
(dp976
sg63
g962
sg56
(lp977
g49
(g50
g51
NtRp978
(dp979
g54
(dp980
g62
I3
ssg63
g974
sg56
(lp981
S''
asbasbasbag49
(g65
g51
NtRp982
(dp983
g54
(dp984
sg63
g918
sg56
(lp985
g49
(g70
g51
NtRp986
(dp987
g54
(dp988
g74
g75
ssg63
g982
sg56
(lp989
g326
asbag49
(g70
g51
NtRp990
(dp991
g54
(dp992
g81
g82
ssg63
g982
sg56
(lp993
S':'
asbag49
(g70
g51
NtRp994
(dp995
g54
(dp996
sg63
g982
sg56
(lp997
g49
(g50
g51
NtRp998
(dp999
g54
(dp1000
g62
I3
ssg63
g994
sg56
(lp1001
S''
asbasbasbag49
(g65
g51
NtRp1002
(dp1003
g54
(dp1004
sg63
g918
sg56
(lp1005
g49
(g70
g51
NtRp1006
(dp1007
g54
(dp1008
g74
g75
ssg63
g1002
sg56
(lp1009
g347
asbag49
(g70
g51
NtRp1010
(dp1011
g54
(dp1012
g81
g82
ssg63
g1002
sg56
(lp1013
S':'
asbag49
(g70
g51
NtRp1014
(dp1015
g54
(dp1016
sg63
g1002
sg56
(lp1017
g49
(g50
g51
NtRp1018
(dp1019
g54
(dp1020
g62
I3
ssg63
g1014
sg56
(lp1021
S''
asbasbasbag49
(g65
g51
NtRp1022
(dp1023
g54
(dp1024
sg63
g918
sg56
(lp1025
g49
(g70
g51
NtRp1026
(dp1027
g54
(dp1028
g74
g75
ssg63
g1022
sg56
(lp1029
g368
asbag49
(g70
g51
NtRp1030
(dp1031
g54
(dp1032
g81
g82
ssg63
g1022
sg56
(lp1033
S':'
asbag49
(g70
g51
NtRp1034
(dp1035
g54
(dp1036
sg63
g1022
sg56
(lp1037
g49
(g50
g51
NtRp1038
(dp1039
g54
(dp1040
g62
I3
ssg63
g1034
sg56
(lp1041
S''
asbasbasbag49
(g65
g51
NtRp1042
(dp1043
g54
(dp1044
sg63
g918
sg56
(lp1045
g49
(g70
g51
NtRp1046
(dp1047
g54
(dp1048
g74
g75
ssg63
g1042
sg56
(lp1049
g389
asbag49
(g70
g51
NtRp1050
(dp1051
g54
(dp1052
g81
g82
ssg63
g1042
sg56
(lp1053
S':'
asbag49
(g70
g51
NtRp1054
(dp1055
g54
(dp1056
sg63
g1042
sg56
(lp1057
g49
(g50
g51
NtRp1058
(dp1059
g54
(dp1060
g62
I3
ssg63
g1054
sg56
(lp1061
S''
asbasbasbasbasbasbasbag49
(g65
g51
NtRp1062
(dp1063
g54
(dp1064
sg63
g226
sg56
(lp1065
g49
(g70
g51
NtRp1066
(dp1067
g54
(dp1068
g74
g75
ssg63
g1062
sg56
(lp1069
S'session_id_inplace'
p1070
asbag49
(g70
g51
NtRp1071
(dp1072
g54
(dp1073
g81
g82
ssg63
g1062
sg56
(lp1074
S':'
asbag49
(g70
g51
NtRp1075
(dp1076
g54
(dp1077
sg63
g1062
sg56
(lp1078
g49
(g50
g51
NtRp1079
(dp1080
g54
(dp1081
g62
I4
ssg63
g1075
sg56
(lp1082
g49
(g58
g51
NtRp1083
(dp1084
g54
(dp1085
g62
I3
ssg63
Nsg56
(lp1086
g49
(g65
g51
NtRp1087
(dp1088
g54
(dp1089
sg63
g1083
sg56
(lp1090
g49
(g70
g51
NtRp1091
(dp1092
g54
(dp1093
g74
g75
ssg63
g1087
sg56
(lp1094
g263
asbag49
(g70
g51
NtRp1095
(dp1096
g54
(dp1097
g81
g82
ssg63
g1087
sg56
(lp1098
S':'
asbag49
(g70
g51
NtRp1099
(dp1100
g54
(dp1101
sg63
g1087
sg56
(lp1102
g49
(g50
g51
NtRp1103
(dp1104
g54
(dp1105
g62
I3
ssg63
g1099
sg56
(lp1106
S''
asbasbasbag49
(g65
g51
NtRp1107
(dp1108
g54
(dp1109
sg63
g1083
sg56
(lp1110
g49
(g70
g51
NtRp1111
(dp1112
g54
(dp1113
g74
g75
ssg63
g1107
sg56
(lp1114
g284
asbag49
(g70
g51
NtRp1115
(dp1116
g54
(dp1117
g81
g82
ssg63
g1107
sg56
(lp1118
S':'
asbag49
(g70
g51
NtRp1119
(dp1120
g54
(dp1121
sg63
g1107
sg56
(lp1122
g49
(g50
g51
NtRp1123
(dp1124
g54
(dp1125
g62
I3
ssg63
g1119
sg56
(lp1126
S''
asbasbasbag49
(g65
g51
NtRp1127
(dp1128
g54
(dp1129
sg63
g1083
sg56
(lp1130
g49
(g70
g51
NtRp1131
(dp1132
g54
(dp1133
g74
g75
ssg63
g1127
sg56
(lp1134
g305
asbag49
(g70
g51
NtRp1135
(dp1136
g54
(dp1137
g81
g82
ssg63
g1127
sg56
(lp1138
S':'
asbag49
(g70
g51
NtRp1139
(dp1140
g54
(dp1141
sg63
g1127
sg56
(lp1142
g49
(g50
g51
NtRp1143
(dp1144
g54
(dp1145
g62
I3
ssg63
g1139
sg56
(lp1146
S''
asbasbasbag49
(g65
g51
NtRp1147
(dp1148
g54
(dp1149
sg63
g1083
sg56
(lp1150
g49
(g70
g51
NtRp1151
(dp1152
g54
(dp1153
g74
g75
ssg63
g1147
sg56
(lp1154
g326
asbag49
(g70
g51
NtRp1155
(dp1156
g54
(dp1157
g81
g82
ssg63
g1147
sg56
(lp1158
S':'
asbag49
(g70
g51
NtRp1159
(dp1160
g54
(dp1161
sg63
g1147
sg56
(lp1162
g49
(g50
g51
NtRp1163
(dp1164
g54
(dp1165
g62
I3
ssg63
g1159
sg56
(lp1166
S''
asbasbasbag49
(g65
g51
NtRp1167
(dp1168
g54
(dp1169
sg63
g1083
sg56
(lp1170
g49
(g70
g51
NtRp1171
(dp1172
g54
(dp1173
g74
g75
ssg63
g1167
sg56
(lp1174
g347
asbag49
(g70
g51
NtRp1175
(dp1176
g54
(dp1177
g81
g82
ssg63
g1167
sg56
(lp1178
S':'
asbag49
(g70
g51
NtRp1179
(dp1180
g54
(dp1181
sg63
g1167
sg56
(lp1182
g49
(g50
g51
NtRp1183
(dp1184
g54
(dp1185
g62
I3
ssg63
g1179
sg56
(lp1186
S''
asbasbasbag49
(g65
g51
NtRp1187
(dp1188
g54
(dp1189
sg63
g1083
sg56
(lp1190
g49
(g70
g51
NtRp1191
(dp1192
g54
(dp1193
g74
g75
ssg63
g1187
sg56
(lp1194
g368
asbag49
(g70
g51
NtRp1195
(dp1196
g54
(dp1197
g81
g82
ssg63
g1187
sg56
(lp1198
S':'
asbag49
(g70
g51
NtRp1199
(dp1200
g54
(dp1201
sg63
g1187
sg56
(lp1202
g49
(g50
g51
NtRp1203
(dp1204
g54
(dp1205
g62
I3
ssg63
g1199
sg56
(lp1206
S''
asbasbasbag49
(g65
g51
NtRp1207
(dp1208
g54
(dp1209
sg63
g1083
sg56
(lp1210
g49
(g70
g51
NtRp1211
(dp1212
g54
(dp1213
g74
g75
ssg63
g1207
sg56
(lp1214
g389
asbag49
(g70
g51
NtRp1215
(dp1216
g54
(dp1217
g81
g82
ssg63
g1207
sg56
(lp1218
S':'
asbag49
(g70
g51
NtRp1219
(dp1220
g54
(dp1221
sg63
g1207
sg56
(lp1222
g49
(g50
g51
NtRp1223
(dp1224
g54
(dp1225
g62
I3
ssg63
g1219
sg56
(lp1226
S''
asbasbasbasbasbasbasbasbasbasbasbag49
(g65
g51
NtRp1227
(dp1228
g54
(dp1229
sg63
g59
sg56
(lp1230
g49
(g70
g51
NtRp1231
(dp1232
g54
(dp1233
g74
g75
ssg63
g1227
sg56
(lp1234
S'env'
p1235
asbag49
(g70
g51
NtRp1236
(dp1237
g54
(dp1238
g81
g82
ssg63
g1227
sg56
(lp1239
S':'
asbag49
(g70
g51
NtRp1240
(dp1241
g54
(dp1242
sg63
g1227
sg56
(lp1243
g49
(g50
g51
NtRp1244
(dp1245
g54
(dp1246
g62
I5
ssg63
g1240
sg56
(lp1247
g49
(g58
g51
NtRp1248
(dp1249
g54
(dp1250
g62
I4
ssg63
Nsg56
(lp1251
g49
(g65
g51
NtRp1252
(dp1253
g54
(dp1254
sg63
g1248
sg56
(lp1255
g49
(g70
g51
NtRp1256
(dp1257
g54
(dp1258
g74
g75
ssg63
g1252
sg56
(lp1259
S'app_folders'
p1260
asbag49
(g70
g51
NtRp1261
(dp1262
g54
(dp1263
g81
g82
ssg63
g1252
sg56
(lp1264
S':'
asbag49
(g70
g51
NtRp1265
(dp1266
g54
(dp1267
sg63
g1252
sg56
(lp1268
g49
(g50
g51
NtRp1269
(dp1270
g54
(dp1271
g62
I4
ssg63
g1265
sg56
(lp1272
S"set(['/Users/mdipierro/Dropbox/web2py/applications/inplace/', '/Users/mdipierro/Dropbox/web2py/applications/cms/', '/Users/mdipierro/Dropbox/web2py/applications/admin/'])"
p1273
asbasbasbag49
(g65
g51
NtRp1274
(dp1275
g54
(dp1276
sg63
g1248
sg56
(lp1277
g49
(g70
g51
NtRp1278
(dp1279
g54
(dp1280
g74
g75
ssg63
g1274
sg56
(lp1281
S'applications_parent'
p1282
asbag49
(g70
g51
NtRp1283
(dp1284
g54
(dp1285
g81
g82
ssg63
g1274
sg56
(lp1286
S':'
asbag49
(g70
g51
NtRp1287
(dp1288
g54
(dp1289
sg63
g1274
sg56
(lp1290
g49
(g50
g51
NtRp1291
(dp1292
g54
(dp1293
g62
I4
ssg63
g1287
sg56
(lp1294
S'/Users/mdipierro/Dropbox/web2py'
p1295
asbasbasbag49
(g65
g51
NtRp1296
(dp1297
g54
(dp1298
sg63
g1248
sg56
(lp1299
g49
(g70
g51
NtRp1300
(dp1301
g54
(dp1302
g74
g75
ssg63
g1296
sg56
(lp1303
S'cmd_args'
p1304
asbag49
(g70
g51
NtRp1305
(dp1306
g54
(dp1307
g81
g82
ssg63
g1296
sg56
(lp1308
S':'
asbag49
(g70
g51
NtRp1309
(dp1310
g54
(dp1311
sg63
g1296
sg56
(lp1312
g49
(g50
g51
NtRp1313
(dp1314
g54
(dp1315
g62
I4
ssg63
g1309
sg56
(lp1316
g49
(g58
g51
NtRp1317
(dp1318
g54
(dp1319
g62
I3
ssg63
Nsg56
(lp1320
sbasbasbasbag49
(g65
g51
NtRp1321
(dp1322
g54
(dp1323
sg63
g1248
sg56
(lp1324
g49
(g70
g51
NtRp1325
(dp1326
g54
(dp1327
g74
g75
ssg63
g1321
sg56
(lp1328
S'cmd_options'
p1329
asbag49
(g70
g51
NtRp1330
(dp1331
g54
(dp1332
g81
g82
ssg63
g1321
sg56
(lp1333
S':'
asbag49
(g70
g51
NtRp1334
(dp1335
g54
(dp1336
sg63
g1321
sg56
(lp1337
g49
(g50
g51
NtRp1338
(dp1339
g54
(dp1340
g62
I4
ssg63
g1334
sg56
(lp1341
S"<Values at 0x153a378: {'verbose': False, 'ip': '127.0.0.1', 'shutdown_timeout': 5, 'taskbar': False, 'nocron': False, 'pid_filename': 'httpserver.pid', 'maxthreads': None, 'softcron': False, 'server_name': 'massimo-di-pierros-macbook-2.local', 'bpython': False, 'nogui': False, 'port': 8000, 'extcron': False, 'debuglevel': 30, 'test': None, 'folder': '/Users/mdipierro/Dropbox/web2py', 'config': '', 'import_models': False, 'winservice': '', 'shell': None, 'run': '', 'log_filename': 'httpserver.log', 'args': [''], 'socket_timeout': 1, 'ssl_ca_certificate': None, 'scheduler': None, 'profiler_filename': None, 'ssl_private_key': '', 'password': 'hello', 'request_queue_size': 5, 'ssl_certificate': '', 'cronjob': False, 'numthreads': None, 'quiet': False, 'interfaces': None, 'minthreads': None, 'timeout': 10, 'plain': False, 'nobanner': False}>"
p1342
asbasbasbag49
(g65
g51
NtRp1343
(dp1344
g54
(dp1345
sg63
g1248
sg56
(lp1346
g49
(g70
g51
NtRp1347
(dp1348
g54
(dp1349
g74
g75
ssg63
g1343
sg56
(lp1350
S'db_sessions'
p1351
asbag49
(g70
g51
NtRp1352
(dp1353
g54
(dp1354
g81
g82
ssg63
g1343
sg56
(lp1355
S':'
asbag49
(g70
g51
NtRp1356
(dp1357
g54
(dp1358
sg63
g1343
sg56
(lp1359
g49
(g50
g51
NtRp1360
(dp1361
g54
(dp1362
g62
I4
ssg63
g1356
sg56
(lp1363
S'set([])'
p1364
asbasbasbag49
(g65
g51
NtRp1365
(dp1366
g54
(dp1367
sg63
g1248
sg56
(lp1368
g49
(g70
g51
NtRp1369
(dp1370
g54
(dp1371
g74
g75
ssg63
g1365
sg56
(lp1372
S'debugging'
p1373
asbag49
(g70
g51
NtRp1374
(dp1375
g54
(dp1376
g81
g82
ssg63
g1365
sg56
(lp1377
S':'
asbag49
(g70
g51
NtRp1378
(dp1379
g54
(dp1380
sg63
g1365
sg56
(lp1381
g49
(g50
g51
NtRp1382
(dp1383
g54
(dp1384
g62
I4
ssg63
g1378
sg56
(lp1385
g92
asbasbasbag49
(g65
g51
NtRp1386
(dp1387
g54
(dp1388
sg63
g1248
sg56
(lp1389
g49
(g70
g51
NtRp1390
(dp1391
g54
(dp1392
g74
g75
ssg63
g1386
sg56
(lp1393
S'gluon_parent'
p1394
asbag49
(g70
g51
NtRp1395
(dp1396
g54
(dp1397
g81
g82
ssg63
g1386
sg56
(lp1398
S':'
asbag49
(g70
g51
NtRp1399
(dp1400
g54
(dp1401
sg63
g1386
sg56
(lp1402
g49
(g50
g51
NtRp1403
(dp1404
g54
(dp1405
g62
I4
ssg63
g1399
sg56
(lp1406
S'/Users/mdipierro/Dropbox/web2py'
p1407
asbasbasbag49
(g65
g51
NtRp1408
(dp1409
g54
(dp1410
sg63
g1248
sg56
(lp1411
g49
(g70
g51
NtRp1412
(dp1413
g54
(dp1414
g74
g75
ssg63
g1408
sg56
(lp1415
S'http_accept'
p1416
asbag49
(g70
g51
NtRp1417
(dp1418
g54
(dp1419
g81
g82
ssg63
g1408
sg56
(lp1420
S':'
asbag49
(g70
g51
NtRp1421
(dp1422
g54
(dp1423
sg63
g1408
sg56
(lp1424
g49
(g50
g51
NtRp1425
(dp1426
g54
(dp1427
g62
I4
ssg63
g1421
sg56
(lp1428
S'text/html,application/xhtml+xml,application/xml;q=0.9,*/*;q=0.8'
p1429
asbasbasbag49
(g65
g51
NtRp1430
(dp1431
g54
(dp1432
sg63
g1248
sg56
(lp1433
g49
(g70
g51
NtRp1434
(dp1435
g54
(dp1436
g74
g75
ssg63
g1430
sg56
(lp1437
S'http_accept_charset'
p1438
asbag49
(g70
g51
NtRp1439
(dp1440
g54
(dp1441
g81
g82
ssg63
g1430
sg56
(lp1442
S':'
asbag49
(g70
g51
NtRp1443
(dp1444
g54
(dp1445
sg63
g1430
sg56
(lp1446
g49
(g50
g51
NtRp1447
(dp1448
g54
(dp1449
g62
I4
ssg63
g1443
sg56
(lp1450
S'ISO-8859-1,utf-8;q=0.7,*;q=0.3'
p1451
asbasbasbag49
(g65
g51
NtRp1452
(dp1453
g54
(dp1454
sg63
g1248
sg56
(lp1455
g49
(g70
g51
NtRp1456
(dp1457
g54
(dp1458
g74
g75
ssg63
g1452
sg56
(lp1459
S'http_accept_encoding'
p1460
asbag49
(g70
g51
NtRp1461
(dp1462
g54
(dp1463
g81
g82
ssg63
g1452
sg56
(lp1464
S':'
asbag49
(g70
g51
NtRp1465
(dp1466
g54
(dp1467
sg63
g1452
sg56
(lp1468
g49
(g50
g51
NtRp1469
(dp1470
g54
(dp1471
g62
I4
ssg63
g1465
sg56
(lp1472
S'gzip,deflate,sdch'
p1473
asbasbasbag49
(g65
g51
NtRp1474
(dp1475
g54
(dp1476
sg63
g1248
sg56
(lp1477
g49
(g70
g51
NtRp1478
(dp1479
g54
(dp1480
g74
g75
ssg63
g1474
sg56
(lp1481
S'http_accept_language'
p1482
asbag49
(g70
g51
NtRp1483
(dp1484
g54
(dp1485
g81
g82
ssg63
g1474
sg56
(lp1486
S':'
asbag49
(g70
g51
NtRp1487
(dp1488
g54
(dp1489
sg63
g1474
sg56
(lp1490
g49
(g50
g51
NtRp1491
(dp1492
g54
(dp1493
g62
I4
ssg63
g1487
sg56
(lp1494
S'en,en-US;q=0.8,de-DE;q=0.6,de;q=0.4,it-IT;q=0.2,it;q=0.2,ja;q=0.2'
p1495
asbasbasbag49
(g65
g51
NtRp1496
(dp1497
g54
(dp1498
sg63
g1248
sg56
(lp1499
g49
(g70
g51
NtRp1500
(dp1501
g54
(dp1502
g74
g75
ssg63
g1496
sg56
(lp1503
S'http_cache_control'
p1504
asbag49
(g70
g51
NtRp1505
(dp1506
g54
(dp1507
g81
g82
ssg63
g1496
sg56
(lp1508
S':'
asbag49
(g70
g51
NtRp1509
(dp1510
g54
(dp1511
sg63
g1496
sg56
(lp1512
g49
(g50
g51
NtRp1513
(dp1514
g54
(dp1515
g62
I4
ssg63
g1509
sg56
(lp1516
S'max-age=0'
p1517
asbasbasbag49
(g65
g51
NtRp1518
(dp1519
g54
(dp1520
sg63
g1248
sg56
(lp1521
g49
(g70
g51
NtRp1522
(dp1523
g54
(dp1524
g74
g75
ssg63
g1518
sg56
(lp1525
S'http_connection'
p1526
asbag49
(g70
g51
NtRp1527
(dp1528
g54
(dp1529
g81
g82
ssg63
g1518
sg56
(lp1530
S':'
asbag49
(g70
g51
NtRp1531
(dp1532
g54
(dp1533
sg63
g1518
sg56
(lp1534
g49
(g50
g51
NtRp1535
(dp1536
g54
(dp1537
g62
I4
ssg63
g1531
sg56
(lp1538
S'keep-alive'
p1539
asbasbasbag49
(g65
g51
NtRp1540
(dp1541
g54
(dp1542
sg63
g1248
sg56
(lp1543
g49
(g70
g51
NtRp1544
(dp1545
g54
(dp1546
g74
g75
ssg63
g1540
sg56
(lp1547
S'http_cookie'
p1548
asbag49
(g70
g51
NtRp1549
(dp1550
g54
(dp1551
g81
g82
ssg63
g1540
sg56
(lp1552
S':'
asbag49
(g70
g51
NtRp1553
(dp1554
g54
(dp1555
sg63
g1540
sg56
(lp1556
g49
(g50
g51
NtRp1557
(dp1558
g54
(dp1559
g62
I4
ssg63
g1553
sg56
(lp1560
S'registered=yes; __utma_a2a=1369166446.1335515545.1303958619.1316700181.1318215879.74; el-finder-last-finder=4f5a448a961f1931173928a6b6d9d4d2; s_nr=1323495907438-New; __qca=P0-1359637726-1323501662225; _chartbeat2=ha3n2egp47d2hmo0.1323501662417; __utma=96992031.1452952453.1313221394.1323533094.1323638999.6; __utmc=96992031; __utmz=96992031.1313221394.1.1.utmcsr=(direct)|utmccn=(direct)|utmcmd=(none); session_id_cms=127.0.0.1-f4c1e56e-4f4d-4936-aaf7-92fdd3a97f53; session_id_inplace=127.0.0.1-b67af904-b8cf-469d-95b3-18285a004db1; session_id_admin=127.0.0.1-6d70af03-6639-4a47-9ec3-7df3afc84ddd'
p1561
asbasbasbag49
(g65
g51
NtRp1562
(dp1563
g54
(dp1564
sg63
g1248
sg56
(lp1565
g49
(g70
g51
NtRp1566
(dp1567
g54
(dp1568
g74
g75
ssg63
g1562
sg56
(lp1569
S'http_host'
p1570
asbag49
(g70
g51
NtRp1571
(dp1572
g54
(dp1573
g81
g82
ssg63
g1562
sg56
(lp1574
S':'
asbag49
(g70
g51
NtRp1575
(dp1576
g54
(dp1577
sg63
g1562
sg56
(lp1578
g49
(g50
g51
NtRp1579
(dp1580
g54
(dp1581
g62
I4
ssg63
g1575
sg56
(lp1582
S'127.0.0.1:8000'
p1583
asbasbasbag49
(g65
g51
NtRp1584
(dp1585
g54
(dp1586
sg63
g1248
sg56
(lp1587
g49
(g70
g51
NtRp1588
(dp1589
g54
(dp1590
g74
g75
ssg63
g1584
sg56
(lp1591
S'http_user_agent'
p1592
asbag49
(g70
g51
NtRp1593
(dp1594
g54
(dp1595
g81
g82
ssg63
g1584
sg56
(lp1596
S':'
asbag49
(g70
g51
NtRp1597
(dp1598
g54
(dp1599
sg63
g1584
sg56
(lp1600
g49
(g50
g51
NtRp1601
(dp1602
g54
(dp1603
g62
I4
ssg63
g1597
sg56
(lp1604
S'Mozilla/5.0 (Macintosh; Intel Mac OS X 10_6_8) AppleWebKit/535.7 (KHTML, like Gecko) Chrome/16.0.912.63 Safari/535.7'
p1605
asbasbasbag49
(g65
g51
NtRp1606
(dp1607
g54
(dp1608
sg63
g1248
sg56
(lp1609
g49
(g70
g51
NtRp1610
(dp1611
g54
(dp1612
g74
g75
ssg63
g1606
sg56
(lp1613
S'is_jython'
p1614
asbag49
(g70
g51
NtRp1615
(dp1616
g54
(dp1617
g81
g82
ssg63
g1606
sg56
(lp1618
S':'
asbag49
(g70
g51
NtRp1619
(dp1620
g54
(dp1621
sg63
g1606
sg56
(lp1622
g49
(g50
g51
NtRp1623
(dp1624
g54
(dp1625
g62
I4
ssg63
g1619
sg56
(lp1626
g92
asbasbasbag49
(g65
g51
NtRp1627
(dp1628
g54
(dp1629
sg63
g1248
sg56
(lp1630
g49
(g70
g51
NtRp1631
(dp1632
g54
(dp1633
g74
g75
ssg63
g1627
sg56
(lp1634
S'is_pypy'
p1635
asbag49
(g70
g51
NtRp1636
(dp1637
g54
(dp1638
g81
g82
ssg63
g1627
sg56
(lp1639
S':'
asbag49
(g70
g51
NtRp1640
(dp1641
g54
(dp1642
sg63
g1627
sg56
(lp1643
g49
(g50
g51
NtRp1644
(dp1645
g54
(dp1646
g62
I4
ssg63
g1640
sg56
(lp1647
g92
asbasbasbag49
(g65
g51
NtRp1648
(dp1649
g54
(dp1650
sg63
g1248
sg56
(lp1651
g49
(g70
g51
NtRp1652
(dp1653
g54
(dp1654
g74
g75
ssg63
g1648
sg56
(lp1655
S'path_info'
p1656
asbag49
(g70
g51
NtRp1657
(dp1658
g54
(dp1659
g81
g82
ssg63
g1648
sg56
(lp1660
S':'
asbag49
(g70
g51
NtRp1661
(dp1662
g54
(dp1663
sg63
g1648
sg56
(lp1664
g49
(g50
g51
NtRp1665
(dp1666
g54
(dp1667
g62
I4
ssg63
g1661
sg56
(lp1668
S'/inplace/default/folder'
p1669
asbasbasbag49
(g65
g51
NtRp1670
(dp1671
g54
(dp1672
sg63
g1248
sg56
(lp1673
g49
(g70
g51
NtRp1674
(dp1675
g54
(dp1676
g74
g75
ssg63
g1670
sg56
(lp1677
S'query_string'
p1678
asbag49
(g70
g51
NtRp1679
(dp1680
g54
(dp1681
g81
g82
ssg63
g1670
sg56
(lp1682
S':'
asbag49
(g70
g51
NtRp1683
(dp1684
g54
(dp1685
sg63
g1670
sg56
(lp1686
g49
(g50
g51
NtRp1687
(dp1688
g54
(dp1689
g62
I4
ssg63
g1683
sg56
(lp1690
S''
asbasbasbag49
(g65
g51
NtRp1691
(dp1692
g54
(dp1693
sg63
g1248
sg56
(lp1694
g49
(g70
g51
NtRp1695
(dp1696
g54
(dp1697
g74
g75
ssg63
g1691
sg56
(lp1698
S'remote_addr'
p1699
asbag49
(g70
g51
NtRp1700
(dp1701
g54
(dp1702
g81
g82
ssg63
g1691
sg56
(lp1703
S':'
asbag49
(g70
g51
NtRp1704
(dp1705
g54
(dp1706
sg63
g1691
sg56
(lp1707
g49
(g50
g51
NtRp1708
(dp1709
g54
(dp1710
g62
I4
ssg63
g1704
sg56
(lp1711
g182
asbasbasbag49
(g65
g51
NtRp1712
(dp1713
g54
(dp1714
sg63
g1248
sg56
(lp1715
g49
(g70
g51
NtRp1716
(dp1717
g54
(dp1718
g74
g75
ssg63
g1712
sg56
(lp1719
S'remote_port'
p1720
asbag49
(g70
g51
NtRp1721
(dp1722
g54
(dp1723
g81
g82
ssg63
g1712
sg56
(lp1724
S':'
asbag49
(g70
g51
NtRp1725
(dp1726
g54
(dp1727
sg63
g1712
sg56
(lp1728
g49
(g50
g51
NtRp1729
(dp1730
g54
(dp1731
g62
I4
ssg63
g1725
sg56
(lp1732
S'55270'
p1733
asbasbasbag49
(g65
g51
NtRp1734
(dp1735
g54
(dp1736
sg63
g1248
sg56
(lp1737
g49
(g70
g51
NtRp1738
(dp1739
g54
(dp1740
g74
g75
ssg63
g1734
sg56
(lp1741
S'request_method'
p1742
asbag49
(g70
g51
NtRp1743
(dp1744
g54
(dp1745
g81
g82
ssg63
g1734
sg56
(lp1746
S':'
asbag49
(g70
g51
NtRp1747
(dp1748
g54
(dp1749
sg63
g1734
sg56
(lp1750
g49
(g50
g51
NtRp1751
(dp1752
g54
(dp1753
g62
I4
ssg63
g1747
sg56
(lp1754
S'GET'
p1755
asbasbasbag49
(g65
g51
NtRp1756
(dp1757
g54
(dp1758
sg63
g1248
sg56
(lp1759
g49
(g70
g51
NtRp1760
(dp1761
g54
(dp1762
g74
g75
ssg63
g1756
sg56
(lp1763
S'script_name'
p1764
asbag49
(g70
g51
NtRp1765
(dp1766
g54
(dp1767
g81
g82
ssg63
g1756
sg56
(lp1768
S':'
asbag49
(g70
g51
NtRp1769
(dp1770
g54
(dp1771
sg63
g1756
sg56
(lp1772
g49
(g50
g51
NtRp1773
(dp1774
g54
(dp1775
g62
I4
ssg63
g1769
sg56
(lp1776
S''
asbasbasbag49
(g65
g51
NtRp1777
(dp1778
g54
(dp1779
sg63
g1248
sg56
(lp1780
g49
(g70
g51
NtRp1781
(dp1782
g54
(dp1783
g74
g75
ssg63
g1777
sg56
(lp1784
S'server_name'
p1785
asbag49
(g70
g51
NtRp1786
(dp1787
g54
(dp1788
g81
g82
ssg63
g1777
sg56
(lp1789
S':'
asbag49
(g70
g51
NtRp1790
(dp1791
g54
(dp1792
sg63
g1777
sg56
(lp1793
g49
(g50
g51
NtRp1794
(dp1795
g54
(dp1796
g62
I4
ssg63
g1790
sg56
(lp1797
S'massimo-di-pierros-macbook-2.local'
p1798
asbasbasbag49
(g65
g51
NtRp1799
(dp1800
g54
(dp1801
sg63
g1248
sg56
(lp1802
g49
(g70
g51
NtRp1803
(dp1804
g54
(dp1805
g74
g75
ssg63
g1799
sg56
(lp1806
S'server_port'
p1807
asbag49
(g70
g51
NtRp1808
(dp1809
g54
(dp1810
g81
g82
ssg63
g1799
sg56
(lp1811
S':'
asbag49
(g70
g51
NtRp1812
(dp1813
g54
(dp1814
sg63
g1799
sg56
(lp1815
g49
(g50
g51
NtRp1816
(dp1817
g54
(dp1818
g62
I4
ssg63
g1812
sg56
(lp1819
S'8000'
p1820
asbasbasbag49
(g65
g51
NtRp1821
(dp1822
g54
(dp1823
sg63
g1248
sg56
(lp1824
g49
(g70
g51
NtRp1825
(dp1826
g54
(dp1827
g74
g75
ssg63
g1821
sg56
(lp1828
S'server_protocol'
p1829
asbag49
(g70
g51
NtRp1830
(dp1831
g54
(dp1832
g81
g82
ssg63
g1821
sg56
(lp1833
S':'
asbag49
(g70
g51
NtRp1834
(dp1835
g54
(dp1836
sg63
g1821
sg56
(lp1837
g49
(g50
g51
NtRp1838
(dp1839
g54
(dp1840
g62
I4
ssg63
g1834
sg56
(lp1841
S'HTTP/1.1'
p1842
asbasbasbag49
(g65
g51
NtRp1843
(dp1844
g54
(dp1845
sg63
g1248
sg56
(lp1846
g49
(g70
g51
NtRp1847
(dp1848
g54
(dp1849
g74
g75
ssg63
g1843
sg56
(lp1850
S'server_software'
p1851
asbag49
(g70
g51
NtRp1852
(dp1853
g54
(dp1854
g81
g82
ssg63
g1843
sg56
(lp1855
S':'
asbag49
(g70
g51
NtRp1856
(dp1857
g54
(dp1858
sg63
g1843
sg56
(lp1859
g49
(g50
g51
NtRp1860
(dp1861
g54
(dp1862
g62
I4
ssg63
g1856
sg56
(lp1863
S'Rocket 1.2.4'
p1864
asbasbasbag49
(g65
g51
NtRp1865
(dp1866
g54
(dp1867
sg63
g1248
sg56
(lp1868
g49
(g70
g51
NtRp1869
(dp1870
g54
(dp1871
g74
g75
ssg63
g1865
sg56
(lp1872
S'web2py_crontype'
p1873
asbag49
(g70
g51
NtRp1874
(dp1875
g54
(dp1876
g81
g82
ssg63
g1865
sg56
(lp1877
S':'
asbag49
(g70
g51
NtRp1878
(dp1879
g54
(dp1880
sg63
g1865
sg56
(lp1881
g49
(g50
g51
NtRp1882
(dp1883
g54
(dp1884
g62
I4
ssg63
g1878
sg56
(lp1885
S'hard'
p1886
asbasbasbag49
(g65
g51
NtRp1887
(dp1888
g54
(dp1889
sg63
g1248
sg56
(lp1890
g49
(g70
g51
NtRp1891
(dp1892
g54
(dp1893
g74
g75
ssg63
g1887
sg56
(lp1894
S'web2py_path'
p1895
asbag49
(g70
g51
NtRp1896
(dp1897
g54
(dp1898
g81
g82
ssg63
g1887
sg56
(lp1899
S':'
asbag49
(g70
g51
NtRp1900
(dp1901
g54
(dp1902
sg63
g1887
sg56
(lp1903
g49
(g50
g51
NtRp1904
(dp1905
g54
(dp1906
g62
I4
ssg63
g1900
sg56
(lp1907
g1295
asbasbasbag49
(g65
g51
NtRp1908
(dp1909
g54
(dp1910
sg63
g1248
sg56
(lp1911
g49
(g70
g51
NtRp1912
(dp1913
g54
(dp1914
g74
g75
ssg63
g1908
sg56
(lp1915
S'web2py_version'
p1916
asbag49
(g70
g51
NtRp1917
(dp1918
g54
(dp1919
g81
g82
ssg63
g1908
sg56
(lp1920
S':'
asbag49
(g70
g51
NtRp1921
(dp1922
g54
(dp1923
sg63
g1908
sg56
(lp1924
g49
(g50
g51
NtRp1925
(dp1926
g54
(dp1927
g62
I4
ssg63
g1921
sg56
(lp1928
g49
(g58
g51
NtRp1929
(dp1930
g54
(dp1931
g62
I3
ssg63
Nsg56
(lp1932
g49
(g65
g51
NtRp1933
(dp1934
g54
(dp1935
sg63
g1929
sg56
(lp1936
g49
(g70
g51
NtRp1937
(dp1938
g54
(dp1939
sg63
g1933
sg56
(lp1940
g49
(g50
g51
NtRp1941
(dp1942
g54
(dp1943
g62
I3
ssg63
g1937
sg56
(lp1944
S'1'
asbasbasbag49
(g65
g51
NtRp1945
(dp1946
g54
(dp1947
sg63
g1929
sg56
(lp1948
g49
(g70
g51
NtRp1949
(dp1950
g54
(dp1951
sg63
g1945
sg56
(lp1952
g49
(g50
g51
NtRp1953
(dp1954
g54
(dp1955
g62
I3
ssg63
g1949
sg56
(lp1956
S'99'
p1957
asbasbasbag49
(g65
g51
NtRp1958
(dp1959
g54
(dp1960
sg63
g1929
sg56
(lp1961
g49
(g70
g51
NtRp1962
(dp1963
g54
(dp1964
sg63
g1958
sg56
(lp1965
g49
(g50
g51
NtRp1966
(dp1967
g54
(dp1968
g62
I3
ssg63
g1962
sg56
(lp1969
S'3'
asbasbasbag49
(g65
g51
NtRp1970
(dp1971
g54
(dp1972
sg63
g1929
sg56
(lp1973
g49
(g70
g51
NtRp1974
(dp1975
g54
(dp1976
sg63
g1970
sg56
(lp1977
g49
(g50
g51
NtRp1978
(dp1979
g54
(dp1980
g62
I3
ssg63
g1974
sg56
(lp1981
S'datetime.datetime(2011, 12, 9, 21, 5, 4)'
p1982
asbasbasbag49
(g65
g51
NtRp1983
(dp1984
g54
(dp1985
sg63
g1929
sg56
(lp1986
g49
(g70
g51
NtRp1987
(dp1988
g54
(dp1989
sg63
g1983
sg56
(lp1990
g49
(g50
g51
NtRp1991
(dp1992
g54
(dp1993
g62
I3
ssg63
g1987
sg56
(lp1994
S'stable'
p1995
asbasbasbasbasbasbasbag49
(g65
g51
NtRp1996
(dp1997
g54
(dp1998
sg63
g1248
sg56
(lp1999
g49
(g70
g51
NtRp2000
(dp2001
g54
(dp2002
g74
g75
ssg63
g1996
sg56
(lp2003
S'wsgi_errors'
p2004
asbag49
(g70
g51
NtRp2005
(dp2006
g54
(dp2007
g81
g82
ssg63
g1996
sg56
(lp2008
S':'
asbag49
(g70
g51
NtRp2009
(dp2010
g54
(dp2011
sg63
g1996
sg56
(lp2012
g49
(g50
g51
NtRp2013
(dp2014
g54
(dp2015
g62
I4
ssg63
g2009
sg56
(lp2016
S"<open file '<stderr>', mode 'w' at 0x1620b0>"
p2017
asbasbasbag49
(g65
g51
NtRp2018
(dp2019
g54
(dp2020
sg63
g1248
sg56
(lp2021
g49
(g70
g51
NtRp2022
(dp2023
g54
(dp2024
g74
g75
ssg63
g2018
sg56
(lp2025
S'wsgi_file_wrapper'
p2026
asbag49
(g70
g51
NtRp2027
(dp2028
g54
(dp2029
g81
g82
ssg63
g2018
sg56
(lp2030
S':'
asbag49
(g70
g51
NtRp2031
(dp2032
g54
(dp2033
sg63
g2018
sg56
(lp2034
g49
(g50
g51
NtRp2035
(dp2036
g54
(dp2037
g62
I4
ssg63
g2031
sg56
(lp2038
S'<class wsgiref.util.FileWrapper at 0x7c2840>'
p2039
asbasbasbag49
(g65
g51
NtRp2040
(dp2041
g54
(dp2042
sg63
g1248
sg56
(lp2043
g49
(g70
g51
NtRp2044
(dp2045
g54
(dp2046
g74
g75
ssg63
g2040
sg56
(lp2047
S'wsgi_input'
p2048
asbag49
(g70
g51
NtRp2049
(dp2050
g54
(dp2051
g81
g82
ssg63
g2040
sg56
(lp2052
S':'
asbag49
(g70
g51
NtRp2053
(dp2054
g54
(dp2055
sg63
g2040
sg56
(lp2056
g49
(g50
g51
NtRp2057
(dp2058
g54
(dp2059
g62
I4
ssg63
g2053
sg56
(lp2060
S'<socket._fileobject object at 0x1ed7030>'
p2061
asbasbasbag49
(g65
g51
NtRp2062
(dp2063
g54
(dp2064
sg63
g1248
sg56
(lp2065
g49
(g70
g51
NtRp2066
(dp2067
g54
(dp2068
g74
g75
ssg63
g2062
sg56
(lp2069
S'wsgi_multiprocess'
p2070
asbag49
(g70
g51
NtRp2071
(dp2072
g54
(dp2073
g81
g82
ssg63
g2062
sg56
(lp2074
S':'
asbag49
(g70
g51
NtRp2075
(dp2076
g54
(dp2077
sg63
g2062
sg56
(lp2078
g49
(g50
g51
NtRp2079
(dp2080
g54
(dp2081
g62
I4
ssg63
g2075
sg56
(lp2082
g92
asbasbasbag49
(g65
g51
NtRp2083
(dp2084
g54
(dp2085
sg63
g1248
sg56
(lp2086
g49
(g70
g51
NtRp2087
(dp2088
g54
(dp2089
g74
g75
ssg63
g2083
sg56
(lp2090
S'wsgi_multithread'
p2091
asbag49
(g70
g51
NtRp2092
(dp2093
g54
(dp2094
g81
g82
ssg63
g2083
sg56
(lp2095
S':'
asbag49
(g70
g51
NtRp2096
(dp2097
g54
(dp2098
sg63
g2083
sg56
(lp2099
g49
(g50
g51
NtRp2100
(dp2101
g54
(dp2102
g62
I4
ssg63
g2096
sg56
(lp2103
S'True'
p2104
asbasbasbag49
(g65
g51
NtRp2105
(dp2106
g54
(dp2107
sg63
g1248
sg56
(lp2108
g49
(g70
g51
NtRp2109
(dp2110
g54
(dp2111
g74
g75
ssg63
g2105
sg56
(lp2112
S'wsgi_run_once'
p2113
asbag49
(g70
g51
NtRp2114
(dp2115
g54
(dp2116
g81
g82
ssg63
g2105
sg56
(lp2117
S':'
asbag49
(g70
g51
NtRp2118
(dp2119
g54
(dp2120
sg63
g2105
sg56
(lp2121
g49
(g50
g51
NtRp2122
(dp2123
g54
(dp2124
g62
I4
ssg63
g2118
sg56
(lp2125
g92
asbasbasbag49
(g65
g51
NtRp2126
(dp2127
g54
(dp2128
sg63
g1248
sg56
(lp2129
g49
(g70
g51
NtRp2130
(dp2131
g54
(dp2132
g74
g75
ssg63
g2126
sg56
(lp2133
S'wsgi_url_scheme'
p2134
asbag49
(g70
g51
NtRp2135
(dp2136
g54
(dp2137
g81
g82
ssg63
g2126
sg56
(lp2138
S':'
asbag49
(g70
g51
NtRp2139
(dp2140
g54
(dp2141
sg63
g2126
sg56
(lp2142
g49
(g50
g51
NtRp2143
(dp2144
g54
(dp2145
g62
I4
ssg63
g2139
sg56
(lp2146
S'http'
p2147
asbasbasbag49
(g65
g51
NtRp2148
(dp2149
g54
(dp2150
sg63
g1248
sg56
(lp2151
g49
(g70
g51
NtRp2152
(dp2153
g54
(dp2154
g74
g75
ssg63
g2148
sg56
(lp2155
S'wsgi_version'
p2156
asbag49
(g70
g51
NtRp2157
(dp2158
g54
(dp2159
g81
g82
ssg63
g2148
sg56
(lp2160
S':'
asbag49
(g70
g51
NtRp2161
(dp2162
g54
(dp2163
sg63
g2148
sg56
(lp2164
g49
(g50
g51
NtRp2165
(dp2166
g54
(dp2167
g62
I4
ssg63
g2161
sg56
(lp2168
g49
(g58
g51
NtRp2169
(dp2170
g54
(dp2171
g62
I3
ssg63
Nsg56
(lp2172
g49
(g65
g51
NtRp2173
(dp2174
g54
(dp2175
sg63
g2169
sg56
(lp2176
g49
(g70
g51
NtRp2177
(dp2178
g54
(dp2179
sg63
g2173
sg56
(lp2180
g49
(g50
g51
NtRp2181
(dp2182
g54
(dp2183
g62
I3
ssg63
g2177
sg56
(lp2184
S'1'
asbasbasbag49
(g65
g51
NtRp2185
(dp2186
g54
(dp2187
sg63
g2169
sg56
(lp2188
g49
(g70
g51
NtRp2189
(dp2190
g54
(dp2191
sg63
g2185
sg56
(lp2192
g49
(g50
g51
NtRp2193
(dp2194
g54
(dp2195
g62
I3
ssg63
g2189
sg56
(lp2196
S'0'
asbasbasbasbasbasbasbasbasbasbasbag49
(g65
g51
NtRp2197
(dp2198
g54
(dp2199
sg63
g59
sg56
(lp2200
g49
(g70
g51
NtRp2201
(dp2202
g54
(dp2203
g74
g75
ssg63
g2197
sg56
(lp2204
S'extension'
p2205
asbag49
(g70
g51
NtRp2206
(dp2207
g54
(dp2208
g81
g82
ssg63
g2197
sg56
(lp2209
S':'
asbag49
(g70
g51
NtRp2210
(dp2211
g54
(dp2212
sg63
g2197
sg56
(lp2213
g49
(g50
g51
NtRp2214
(dp2215
g54
(dp2216
g62
I5
ssg63
g2210
sg56
(lp2217
S'html'
p2218
asbasbasbag49
(g65
g51
NtRp2219
(dp2220
g54
(dp2221
sg63
g59
sg56
(lp2222
g49
(g70
g51
NtRp2223
(dp2224
g54
(dp2225
g74
g75
ssg63
g2219
sg56
(lp2226
S'folder'
p2227
asbag49
(g70
g51
NtRp2228
(dp2229
g54
(dp2230
g81
g82
ssg63
g2219
sg56
(lp2231
S':'
asbag49
(g70
g51
NtRp2232
(dp2233
g54
(dp2234
sg63
g2219
sg56
(lp2235
g49
(g50
g51
NtRp2236
(dp2237
g54
(dp2238
g62
I5
ssg63
g2232
sg56
(lp2239
S'/Users/mdipierro/Dropbox/web2py/applications/inplace/'
p2240
asbasbasbag49
(g65
g51
NtRp2241
(dp2242
g54
(dp2243
sg63
g59
sg56
(lp2244
g49
(g70
g51
NtRp2245
(dp2246
g54
(dp2247
g74
g75
ssg63
g2241
sg56
(lp2248
S'function'
p2249
asbag49
(g70
g51
NtRp2250
(dp2251
g54
(dp2252
g81
g82
ssg63
g2241
sg56
(lp2253
S':'
asbag49
(g70
g51
NtRp2254
(dp2255
g54
(dp2256
sg63
g2241
sg56
(lp2257
g49
(g50
g51
NtRp2258
(dp2259
g54
(dp2260
g62
I5
ssg63
g2254
sg56
(lp2261
S'folder'
p2262
asbasbasbag49
(g65
g51
NtRp2263
(dp2264
g54
(dp2265
sg63
g59
sg56
(lp2266
g49
(g70
g51
NtRp2267
(dp2268
g54
(dp2269
g74
g75
ssg63
g2263
sg56
(lp2270
S'get_vars'
p2271
asbag49
(g70
g51
NtRp2272
(dp2273
g54
(dp2274
g81
g82
ssg63
g2263
sg56
(lp2275
S':'
asbag49
(g70
g51
NtRp2276
(dp2277
g54
(dp2278
sg63
g2263
sg56
(lp2279
g49
(g50
g51
NtRp2280
(dp2281
g54
(dp2282
g62
I5
ssg63
g2276
sg56
(lp2283
g49
(g58
g51
NtRp2284
(dp2285
g54
(dp2286
g62
I4
ssg63
Nsg56
(lp2287
sbasbasbasbag49
(g65
g51
NtRp2288
(dp2289
g54
(dp2290
sg63
g59
sg56
(lp2291
g49
(g70
g51
NtRp2292
(dp2293
g54
(dp2294
g74
g75
ssg63
g2288
sg56
(lp2295
S'global_settings'
p2296
asbag49
(g70
g51
NtRp2297
(dp2298
g54
(dp2299
g81
g82
ssg63
g2288
sg56
(lp2300
S':'
asbag49
(g70
g51
NtRp2301
(dp2302
g54
(dp2303
sg63
g2288
sg56
(lp2304
g49
(g50
g51
NtRp2305
(dp2306
g54
(dp2307
g62
I5
ssg63
g2301
sg56
(lp2308
g49
(g58
g51
NtRp2309
(dp2310
g54
(dp2311
g62
I4
ssg63
Nsg56
(lp2312
g49
(g65
g51
NtRp2313
(dp2314
g54
(dp2315
sg63
g2309
sg56
(lp2316
g49
(g70
g51
NtRp2317
(dp2318
g54
(dp2319
g74
g75
ssg63
g2313
sg56
(lp2320
g1260
asbag49
(g70
g51
NtRp2321
(dp2322
g54
(dp2323
g81
g82
ssg63
g2313
sg56
(lp2324
S':'
asbag49
(g70
g51
NtRp2325
(dp2326
g54
(dp2327
sg63
g2313
sg56
(lp2328
g49
(g50
g51
NtRp2329
(dp2330
g54
(dp2331
g62
I4
ssg63
g2325
sg56
(lp2332
S"set(['/Users/mdipierro/Dropbox/web2py/applications/inplace/', '/Users/mdipierro/Dropbox/web2py/applications/cms/', '/Users/mdipierro/Dropbox/web2py/applications/admin/'])"
p2333
asbasbasbag49
(g65
g51
NtRp2334
(dp2335
g54
(dp2336
sg63
g2309
sg56
(lp2337
g49
(g70
g51
NtRp2338
(dp2339
g54
(dp2340
g74
g75
ssg63
g2334
sg56
(lp2341
g1282
asbag49
(g70
g51
NtRp2342
(dp2343
g54
(dp2344
g81
g82
ssg63
g2334
sg56
(lp2345
S':'
asbag49
(g70
g51
NtRp2346
(dp2347
g54
(dp2348
sg63
g2334
sg56
(lp2349
g49
(g50
g51
NtRp2350
(dp2351
g54
(dp2352
g62
I4
ssg63
g2346
sg56
(lp2353
g1295
asbasbasbag49
(g65
g51
NtRp2354
(dp2355
g54
(dp2356
sg63
g2309
sg56
(lp2357
g49
(g70
g51
NtRp2358
(dp2359
g54
(dp2360
g74
g75
ssg63
g2354
sg56
(lp2361
g1304
asbag49
(g70
g51
NtRp2362
(dp2363
g54
(dp2364
g81
g82
ssg63
g2354
sg56
(lp2365
S':'
asbag49
(g70
g51
NtRp2366
(dp2367
g54
(dp2368
sg63
g2354
sg56
(lp2369
g49
(g50
g51
NtRp2370
(dp2371
g54
(dp2372
g62
I4
ssg63
g2366
sg56
(lp2373
g49
(g58
g51
NtRp2374
(dp2375
g54
(dp2376
g62
I3
ssg63
Nsg56
(lp2377
sbasbasbasbag49
(g65
g51
NtRp2378
(dp2379
g54
(dp2380
sg63
g2309
sg56
(lp2381
g49
(g70
g51
NtRp2382
(dp2383
g54
(dp2384
g74
g75
ssg63
g2378
sg56
(lp2385
g1329
asbag49
(g70
g51
NtRp2386
(dp2387
g54
(dp2388
g81
g82
ssg63
g2378
sg56
(lp2389
S':'
asbag49
(g70
g51
NtRp2390
(dp2391
g54
(dp2392
sg63
g2378
sg56
(lp2393
g49
(g50
g51
NtRp2394
(dp2395
g54
(dp2396
g62
I4
ssg63
g2390
sg56
(lp2397
S"<Values at 0x153a378: {'verbose': False, 'ip': '127.0.0.1', 'shutdown_timeout': 5, 'taskbar': False, 'nocron': False, 'pid_filename': 'httpserver.pid', 'maxthreads': None, 'softcron': False, 'server_name': 'massimo-di-pierros-macbook-2.local', 'bpython': False, 'nogui': False, 'port': 8000, 'extcron': False, 'debuglevel': 30, 'test': None, 'folder': '/Users/mdipierro/Dropbox/web2py', 'config': '', 'import_models': False, 'winservice': '', 'shell': None, 'run': '', 'log_filename': 'httpserver.log', 'args': [''], 'socket_timeout': 1, 'ssl_ca_certificate': None, 'scheduler': None, 'profiler_filename': None, 'ssl_private_key': '', 'password': 'hello', 'request_queue_size': 5, 'ssl_certificate': '', 'cronjob': False, 'numthreads': None, 'quiet': False, 'interfaces': None, 'minthreads': None, 'timeout': 10, 'plain': False, 'nobanner': False}>"
p2398
asbasbasbag49
(g65
g51
NtRp2399
(dp2400
g54
(dp2401
sg63
g2309
sg56
(lp2402
g49
(g70
g51
NtRp2403
(dp2404
g54
(dp2405
g74
g75
ssg63
g2399
sg56
(lp2406
g1351
asbag49
(g70
g51
NtRp2407
(dp2408
g54
(dp2409
g81
g82
ssg63
g2399
sg56
(lp2410
S':'
asbag49
(g70
g51
NtRp2411
(dp2412
g54
(dp2413
sg63
g2399
sg56
(lp2414
g49
(g50
g51
NtRp2415
(dp2416
g54
(dp2417
g62
I4
ssg63
g2411
sg56
(lp2418
S'set([])'
p2419
asbasbasbag49
(g65
g51
NtRp2420
(dp2421
g54
(dp2422
sg63
g2309
sg56
(lp2423
g49
(g70
g51
NtRp2424
(dp2425
g54
(dp2426
g74
g75
ssg63
g2420
sg56
(lp2427
g1373
asbag49
(g70
g51
NtRp2428
(dp2429
g54
(dp2430
g81
g82
ssg63
g2420
sg56
(lp2431
S':'
asbag49
(g70
g51
NtRp2432
(dp2433
g54
(dp2434
sg63
g2420
sg56
(lp2435
g49
(g50
g51
NtRp2436
(dp2437
g54
(dp2438
g62
I4
ssg63
g2432
sg56
(lp2439
g92
asbasbasbag49
(g65
g51
NtRp2440
(dp2441
g54
(dp2442
sg63
g2309
sg56
(lp2443
g49
(g70
g51
NtRp2444
(dp2445
g54
(dp2446
g74
g75
ssg63
g2440
sg56
(lp2447
g1394
asbag49
(g70
g51
NtRp2448
(dp2449
g54
(dp2450
g81
g82
ssg63
g2440
sg56
(lp2451
S':'
asbag49
(g70
g51
NtRp2452
(dp2453
g54
(dp2454
sg63
g2440
sg56
(lp2455
g49
(g50
g51
NtRp2456
(dp2457
g54
(dp2458
g62
I4
ssg63
g2452
sg56
(lp2459
g1407
asbasbasbag49
(g65
g51
NtRp2460
(dp2461
g54
(dp2462
sg63
g2309
sg56
(lp2463
g49
(g70
g51
NtRp2464
(dp2465
g54
(dp2466
g74
g75
ssg63
g2460
sg56
(lp2467
g1614
asbag49
(g70
g51
NtRp2468
(dp2469
g54
(dp2470
g81
g82
ssg63
g2460
sg56
(lp2471
S':'
asbag49
(g70
g51
NtRp2472
(dp2473
g54
(dp2474
sg63
g2460
sg56
(lp2475
g49
(g50
g51
NtRp2476
(dp2477
g54
(dp2478
g62
I4
ssg63
g2472
sg56
(lp2479
g92
asbasbasbag49
(g65
g51
NtRp2480
(dp2481
g54
(dp2482
sg63
g2309
sg56
(lp2483
g49
(g70
g51
NtRp2484
(dp2485
g54
(dp2486
g74
g75
ssg63
g2480
sg56
(lp2487
g1635
asbag49
(g70
g51
NtRp2488
(dp2489
g54
(dp2490
g81
g82
ssg63
g2480
sg56
(lp2491
S':'
asbag49
(g70
g51
NtRp2492
(dp2493
g54
(dp2494
sg63
g2480
sg56
(lp2495
g49
(g50
g51
NtRp2496
(dp2497
g54
(dp2498
g62
I4
ssg63
g2492
sg56
(lp2499
g92
asbasbasbag49
(g65
g51
NtRp2500
(dp2501
g54
(dp2502
sg63
g2309
sg56
(lp2503
g49
(g70
g51
NtRp2504
(dp2505
g54
(dp2506
g74
g75
ssg63
g2500
sg56
(lp2507
g1873
asbag49
(g70
g51
NtRp2508
(dp2509
g54
(dp2510
g81
g82
ssg63
g2500
sg56
(lp2511
S':'
asbag49
(g70
g51
NtRp2512
(dp2513
g54
(dp2514
sg63
g2500
sg56
(lp2515
g49
(g50
g51
NtRp2516
(dp2517
g54
(dp2518
g62
I4
ssg63
g2512
sg56
(lp2519
g1886
asbasbasbag49
(g65
g51
NtRp2520
(dp2521
g54
(dp2522
sg63
g2309
sg56
(lp2523
g49
(g70
g51
NtRp2524
(dp2525
g54
(dp2526
g74
g75
ssg63
g2520
sg56
(lp2527
g1916
asbag49
(g70
g51
NtRp2528
(dp2529
g54
(dp2530
g81
g82
ssg63
g2520
sg56
(lp2531
S':'
asbag49
(g70
g51
NtRp2532
(dp2533
g54
(dp2534
sg63
g2520
sg56
(lp2535
g49
(g50
g51
NtRp2536
(dp2537
g54
(dp2538
g62
I4
ssg63
g2532
sg56
(lp2539
g49
(g58
g51
NtRp2540
(dp2541
g54
(dp2542
g62
I3
ssg63
Nsg56
(lp2543
g49
(g65
g51
NtRp2544
(dp2545
g54
(dp2546
sg63
g2540
sg56
(lp2547
g49
(g70
g51
NtRp2548
(dp2549
g54
(dp2550
sg63
g2544
sg56
(lp2551
g49
(g50
g51
NtRp2552
(dp2553
g54
(dp2554
g62
I3
ssg63
g2548
sg56
(lp2555
S'1'
asbasbasbag49
(g65
g51
NtRp2556
(dp2557
g54
(dp2558
sg63
g2540
sg56
(lp2559
g49
(g70
g51
NtRp2560
(dp2561
g54
(dp2562
sg63
g2556
sg56
(lp2563
g49
(g50
g51
NtRp2564
(dp2565
g54
(dp2566
g62
I3
ssg63
g2560
sg56
(lp2567
S'99'
p2568
asbasbasbag49
(g65
g51
NtRp2569
(dp2570
g54
(dp2571
sg63
g2540
sg56
(lp2572
g49
(g70
g51
NtRp2573
(dp2574
g54
(dp2575
sg63
g2569
sg56
(lp2576
g49
(g50
g51
NtRp2577
(dp2578
g54
(dp2579
g62
I3
ssg63
g2573
sg56
(lp2580
S'3'
asbasbasbag49
(g65
g51
NtRp2581
(dp2582
g54
(dp2583
sg63
g2540
sg56
(lp2584
g49
(g70
g51
NtRp2585
(dp2586
g54
(dp2587
sg63
g2581
sg56
(lp2588
g49
(g50
g51
NtRp2589
(dp2590
g54
(dp2591
g62
I3
ssg63
g2585
sg56
(lp2592
S'datetime.datetime(2011, 12, 9, 21, 5, 4)'
p2593
asbasbasbag49
(g65
g51
NtRp2594
(dp2595
g54
(dp2596
sg63
g2540
sg56
(lp2597
g49
(g70
g51
NtRp2598
(dp2599
g54
(dp2600
sg63
g2594
sg56
(lp2601
g49
(g50
g51
NtRp2602
(dp2603
g54
(dp2604
g62
I3
ssg63
g2598
sg56
(lp2605
g1995
asbasbasbasbasbasbasbasbasbasbasbag49
(g65
g51
NtRp2606
(dp2607
g54
(dp2608
sg63
g59
sg56
(lp2609
g49
(g70
g51
NtRp2610
(dp2611
g54
(dp2612
g74
g75
ssg63
g2606
sg56
(lp2613
S'is_https'
p2614
asbag49
(g70
g51
NtRp2615
(dp2616
g54
(dp2617
g81
g82
ssg63
g2606
sg56
(lp2618
S':'
asbag49
(g70
g51
NtRp2619
(dp2620
g54
(dp2621
sg63
g2606
sg56
(lp2622
g49
(g50
g51
NtRp2623
(dp2624
g54
(dp2625
g62
I5
ssg63
g2619
sg56
(lp2626
g92
asbasbasbag49
(g65
g51
NtRp2627
(dp2628
g54
(dp2629
sg63
g59
sg56
(lp2630
g49
(g70
g51
NtRp2631
(dp2632
g54
(dp2633
g74
g75
ssg63
g2627
sg56
(lp2634
S'is_local'
p2635
asbag49
(g70
g51
NtRp2636
(dp2637
g54
(dp2638
g81
g82
ssg63
g2627
sg56
(lp2639
S':'
asbag49
(g70
g51
NtRp2640
(dp2641
g54
(dp2642
sg63
g2627
sg56
(lp2643
g49
(g50
g51
NtRp2644
(dp2645
g54
(dp2646
g62
I5
ssg63
g2640
sg56
(lp2647
g2104
asbasbasbag49
(g65
g51
NtRp2648
(dp2649
g54
(dp2650
sg63
g59
sg56
(lp2651
g49
(g70
g51
NtRp2652
(dp2653
g54
(dp2654
g74
g75
ssg63
g2648
sg56
(lp2655
S'is_restful'
p2656
asbag49
(g70
g51
NtRp2657
(dp2658
g54
(dp2659
g81
g82
ssg63
g2648
sg56
(lp2660
S':'
asbag49
(g70
g51
NtRp2661
(dp2662
g54
(dp2663
sg63
g2648
sg56
(lp2664
g49
(g50
g51
NtRp2665
(dp2666
g54
(dp2667
g62
I5
ssg63
g2661
sg56
(lp2668
g92
asbasbasbag49
(g65
g51
NtRp2669
(dp2670
g54
(dp2671
sg63
g59
sg56
(lp2672
g49
(g70
g51
NtRp2673
(dp2674
g54
(dp2675
g74
g75
ssg63
g2669
sg56
(lp2676
S'now'
p2677
asbag49
(g70
g51
NtRp2678
(dp2679
g54
(dp2680
g81
g82
ssg63
g2669
sg56
(lp2681
S':'
asbag49
(g70
g51
NtRp2682
(dp2683
g54
(dp2684
sg63
g2669
sg56
(lp2685
g49
(g50
g51
NtRp2686
(dp2687
g54
(dp2688
g62
I5
ssg63
g2682
sg56
(lp2689
S'datetime.datetime(2011, 12, 11, 16, 20, 53, 972411)'
p2690
asbasbasbag49
(g65
g51
NtRp2691
(dp2692
g54
(dp2693
sg63
g59
sg56
(lp2694
g49
(g70
g51
NtRp2695
(dp2696
g54
(dp2697
g74
g75
ssg63
g2691
sg56
(lp2698
S'post_vars'
p2699
asbag49
(g70
g51
NtRp2700
(dp2701
g54
(dp2702
g81
g82
ssg63
g2691
sg56
(lp2703
S':'
asbag49
(g70
g51
NtRp2704
(dp2705
g54
(dp2706
sg63
g2691
sg56
(lp2707
g49
(g50
g51
NtRp2708
(dp2709
g54
(dp2710
g62
I5
ssg63
g2704
sg56
(lp2711
g49
(g58
g51
NtRp2712
(dp2713
g54
(dp2714
g62
I4
ssg63
Nsg56
(lp2715
sbasbasbasbag49
(g65
g51
NtRp2716
(dp2717
g54
(dp2718
sg63
g59
sg56
(lp2719
g49
(g70
g51
NtRp2720
(dp2721
g54
(dp2722
g74
g75
ssg63
g2716
sg56
(lp2723
S'url'
p2724
asbag49
(g70
g51
NtRp2725
(dp2726
g54
(dp2727
g81
g82
ssg63
g2716
sg56
(lp2728
S':'
asbag49
(g70
g51
NtRp2729
(dp2730
g54
(dp2731
sg63
g2716
sg56
(lp2732
g49
(g50
g51
NtRp2733
(dp2734
g54
(dp2735
g62
I5
ssg63
g2729
sg56
(lp2736
S'/inplace/default/folder'
p2737
asbasbasbag49
(g65
g51
NtRp2738
(dp2739
g54
(dp2740
sg63
g59
sg56
(lp2741
g49
(g70
g51
NtRp2742
(dp2743
g54
(dp2744
g74
g75
ssg63
g2738
sg56
(lp2745
S'utcnow'
p2746
asbag49
(g70
g51
NtRp2747
(dp2748
g54
(dp2749
g81
g82
ssg63
g2738
sg56
(lp2750
S':'
asbag49
(g70
g51
NtRp2751
(dp2752
g54
(dp2753
sg63
g2738
sg56
(lp2754
g49
(g50
g51
NtRp2755
(dp2756
g54
(dp2757
g62
I5
ssg63
g2751
sg56
(lp2758
S'datetime.datetime(2011, 12, 11, 22, 20, 53, 972422)'
p2759
asbasbasbag49
(g65
g51
NtRp2760
(dp2761
g54
(dp2762
sg63
g59
sg56
(lp2763
g49
(g70
g51
NtRp2764
(dp2765
g54
(dp2766
g74
g75
ssg63
g2760
sg56
(lp2767
S'uuid'
p2768
asbag49
(g70
g51
NtRp2769
(dp2770
g54
(dp2771
g81
g82
ssg63
g2760
sg56
(lp2772
S':'
asbag49
(g70
g51
NtRp2773
(dp2774
g54
(dp2775
sg63
g2760
sg56
(lp2776
g49
(g50
g51
NtRp2777
(dp2778
g54
(dp2779
g62
I5
ssg63
g2773
sg56
(lp2780
S'inplace/127.0.0.1.2011-12-11.16-20-53.77f7174e-6662-4c06-bdc3-4823450ec7f6'
p2781
asbasbasbag49
(g65
g51
NtRp2782
(dp2783
g54
(dp2784
sg63
g59
sg56
(lp2785
g49
(g70
g51
NtRp2786
(dp2787
g54
(dp2788
g74
g75
ssg63
g2782
sg56
(lp2789
S'vars'
p2790
asbag49
(g70
g51
NtRp2791
(dp2792
g54
(dp2793
g81
g82
ssg63
g2782
sg56
(lp2794
S':'
asbag49
(g70
g51
NtRp2795
(dp2796
g54
(dp2797
sg63
g2782
sg56
(lp2798
g49
(g50
g51
NtRp2799
(dp2800
g54
(dp2801
g62
I5
ssg63
g2795
sg56
(lp2802
g49
(g58
g51
NtRp2803
(dp2804
g54
(dp2805
g62
I4
ssg63
Nsg56
(lp2806
sbasbasbasbag49
(g65
g51
NtRp2807
(dp2808
g54
(dp2809
sg63
g59
sg56
(lp2810
g49
(g70
g51
NtRp2811
(dp2812
g54
(dp2813
g74
g75
ssg63
g2807
sg56
(lp2814
S'wsgi'
p2815
asbag49
(g70
g51
NtRp2816
(dp2817
g54
(dp2818
g81
g82
ssg63
g2807
sg56
(lp2819
S':'
asbag49
(g70
g51
NtRp2820
(dp2821
g54
(dp2822
sg63
g2807
sg56
(lp2823
g49
(g50
g51
NtRp2824
(dp2825
g54
(dp2826
g62
I5
ssg63
g2820
sg56
(lp2827
g49
(g58
g51
NtRp2828
(dp2829
g54
(dp2830
g62
I4
ssg63
Nsg56
(lp2831
g49
(g65
g51
NtRp2832
(dp2833
g54
(dp2834
sg63
g2828
sg56
(lp2835
g49
(g70
g51
NtRp2836
(dp2837
g54
(dp2838
g74
g75
ssg63
g2832
sg56
(lp2839
S'environ'
p2840
asbag49
(g70
g51
NtRp2841
(dp2842
g54
(dp2843
g81
g82
ssg63
g2832
sg56
(lp2844
S':'
asbag49
(g70
g51
NtRp2845
(dp2846
g54
(dp2847
sg63
g2832
sg56
(lp2848
g49
(g50
g51
NtRp2849
(dp2850
g54
(dp2851
g62
I4
ssg63
g2845
sg56
(lp2852
g49
(g58
g51
NtRp2853
(dp2854
g54
(dp2855
g62
I3
ssg63
Nsg56
(lp2856
g49
(g65
g51
NtRp2857
(dp2858
g54
(dp2859
sg63
g2853
sg56
(lp2860
g49
(g70
g51
NtRp2861
(dp2862
g54
(dp2863
g74
g75
ssg63
g2857
sg56
(lp2864
S'HTTP_ACCEPT'
p2865
asbag49
(g70
g51
NtRp2866
(dp2867
g54
(dp2868
g81
g82
ssg63
g2857
sg56
(lp2869
S':'
asbag49
(g70
g51
NtRp2870
(dp2871
g54
(dp2872
sg63
g2857
sg56
(lp2873
g49
(g50
g51
NtRp2874
(dp2875
g54
(dp2876
g62
I3
ssg63
g2870
sg56
(lp2877
g1429
asbasbasbag49
(g65
g51
NtRp2878
(dp2879
g54
(dp2880
sg63
g2853
sg56
(lp2881
g49
(g70
g51
NtRp2882
(dp2883
g54
(dp2884
g74
g75
ssg63
g2878
sg56
(lp2885
S'HTTP_ACCEPT_CHARSET'
p2886
asbag49
(g70
g51
NtRp2887
(dp2888
g54
(dp2889
g81
g82
ssg63
g2878
sg56
(lp2890
S':'
asbag49
(g70
g51
NtRp2891
(dp2892
g54
(dp2893
sg63
g2878
sg56
(lp2894
g49
(g50
g51
NtRp2895
(dp2896
g54
(dp2897
g62
I3
ssg63
g2891
sg56
(lp2898
g1451
asbasbasbag49
(g65
g51
NtRp2899
(dp2900
g54
(dp2901
sg63
g2853
sg56
(lp2902
g49
(g70
g51
NtRp2903
(dp2904
g54
(dp2905
g74
g75
ssg63
g2899
sg56
(lp2906
S'HTTP_ACCEPT_ENCODING'
p2907
asbag49
(g70
g51
NtRp2908
(dp2909
g54
(dp2910
g81
g82
ssg63
g2899
sg56
(lp2911
S':'
asbag49
(g70
g51
NtRp2912
(dp2913
g54
(dp2914
sg63
g2899
sg56
(lp2915
g49
(g50
g51
NtRp2916
(dp2917
g54
(dp2918
g62
I3
ssg63
g2912
sg56
(lp2919
g1473
asbasbasbag49
(g65
g51
NtRp2920
(dp2921
g54
(dp2922
sg63
g2853
sg56
(lp2923
g49
(g70
g51
NtRp2924
(dp2925
g54
(dp2926
g74
g75
ssg63
g2920
sg56
(lp2927
S'HTTP_ACCEPT_LANGUAGE'
p2928
asbag49
(g70
g51
NtRp2929
(dp2930
g54
(dp2931
g81
g82
ssg63
g2920
sg56
(lp2932
S':'
asbag49
(g70
g51
NtRp2933
(dp2934
g54
(dp2935
sg63
g2920
sg56
(lp2936
g49
(g50
g51
NtRp2937
(dp2938
g54
(dp2939
g62
I3
ssg63
g2933
sg56
(lp2940
g1495
asbasbasbag49
(g65
g51
NtRp2941
(dp2942
g54
(dp2943
sg63
g2853
sg56
(lp2944
g49
(g70
g51
NtRp2945
(dp2946
g54
(dp2947
g74
g75
ssg63
g2941
sg56
(lp2948
S'HTTP_CACHE_CONTROL'
p2949
asbag49
(g70
g51
NtRp2950
(dp2951
g54
(dp2952
g81
g82
ssg63
g2941
sg56
(lp2953
S':'
asbag49
(g70
g51
NtRp2954
(dp2955
g54
(dp2956
sg63
g2941
sg56
(lp2957
g49
(g50
g51
NtRp2958
(dp2959
g54
(dp2960
g62
I3
ssg63
g2954
sg56
(lp2961
g1517
asbasbasbag49
(g65
g51
NtRp2962
(dp2963
g54
(dp2964
sg63
g2853
sg56
(lp2965
g49
(g70
g51
NtRp2966
(dp2967
g54
(dp2968
g74
g75
ssg63
g2962
sg56
(lp2969
S'HTTP_CONNECTION'
p2970
asbag49
(g70
g51
NtRp2971
(dp2972
g54
(dp2973
g81
g82
ssg63
g2962
sg56
(lp2974
S':'
asbag49
(g70
g51
NtRp2975
(dp2976
g54
(dp2977
sg63
g2962
sg56
(lp2978
g49
(g50
g51
NtRp2979
(dp2980
g54
(dp2981
g62
I3
ssg63
g2975
sg56
(lp2982
g1539
asbasbasbag49
(g65
g51
NtRp2983
(dp2984
g54
(dp2985
sg63
g2853
sg56
(lp2986
g49
(g70
g51
NtRp2987
(dp2988
g54
(dp2989
g74
g75
ssg63
g2983
sg56
(lp2990
S'HTTP_COOKIE'
p2991
asbag49
(g70
g51
NtRp2992
(dp2993
g54
(dp2994
g81
g82
ssg63
g2983
sg56
(lp2995
S':'
asbag49
(g70
g51
NtRp2996
(dp2997
g54
(dp2998
sg63
g2983
sg56
(lp2999
g49
(g50
g51
NtRp3000
(dp3001
g54
(dp3002
g62
I3
ssg63
g2996
sg56
(lp3003
g1561
asbasbasbag49
(g65
g51
NtRp3004
(dp3005
g54
(dp3006
sg63
g2853
sg56
(lp3007
g49
(g70
g51
NtRp3008
(dp3009
g54
(dp3010
g74
g75
ssg63
g3004
sg56
(lp3011
S'HTTP_HOST'
p3012
asbag49
(g70
g51
NtRp3013
(dp3014
g54
(dp3015
g81
g82
ssg63
g3004
sg56
(lp3016
S':'
asbag49
(g70
g51
NtRp3017
(dp3018
g54
(dp3019
sg63
g3004
sg56
(lp3020
g49
(g50
g51
NtRp3021
(dp3022
g54
(dp3023
g62
I3
ssg63
g3017
sg56
(lp3024
g1583
asbasbasbag49
(g65
g51
NtRp3025
(dp3026
g54
(dp3027
sg63
g2853
sg56
(lp3028
g49
(g70
g51
NtRp3029
(dp3030
g54
(dp3031
g74
g75
ssg63
g3025
sg56
(lp3032
S'HTTP_USER_AGENT'
p3033
asbag49
(g70
g51
NtRp3034
(dp3035
g54
(dp3036
g81
g82
ssg63
g3025
sg56
(lp3037
S':'
asbag49
(g70
g51
NtRp3038
(dp3039
g54
(dp3040
sg63
g3025
sg56
(lp3041
g49
(g50
g51
NtRp3042
(dp3043
g54
(dp3044
g62
I3
ssg63
g3038
sg56
(lp3045
g1605
asbasbasbag49
(g65
g51
NtRp3046
(dp3047
g54
(dp3048
sg63
g2853
sg56
(lp3049
g49
(g70
g51
NtRp3050
(dp3051
g54
(dp3052
g74
g75
ssg63
g3046
sg56
(lp3053
S'PATH_INFO'
p3054
asbag49
(g70
g51
NtRp3055
(dp3056
g54
(dp3057
g81
g82
ssg63
g3046
sg56
(lp3058
S':'
asbag49
(g70
g51
NtRp3059
(dp3060
g54
(dp3061
sg63
g3046
sg56
(lp3062
g49
(g50
g51
NtRp3063
(dp3064
g54
(dp3065
g62
I3
ssg63
g3059
sg56
(lp3066
g1669
asbasbasbag49
(g65
g51
NtRp3067
(dp3068
g54
(dp3069
sg63
g2853
sg56
(lp3070
g49
(g70
g51
NtRp3071
(dp3072
g54
(dp3073
g74
g75
ssg63
g3067
sg56
(lp3074
S'QUERY_STRING'
p3075
asbag49
(g70
g51
NtRp3076
(dp3077
g54
(dp3078
g81
g82
ssg63
g3067
sg56
(lp3079
S':'
asbag49
(g70
g51
NtRp3080
(dp3081
g54
(dp3082
sg63
g3067
sg56
(lp3083
g49
(g50
g51
NtRp3084
(dp3085
g54
(dp3086
g62
I3
ssg63
g3080
sg56
(lp3087
S''
asbasbasbag49
(g65
g51
NtRp3088
(dp3089
g54
(dp3090
sg63
g2853
sg56
(lp3091
g49
(g70
g51
NtRp3092
(dp3093
g54
(dp3094
g74
g75
ssg63
g3088
sg56
(lp3095
S'REMOTE_ADDR'
p3096
asbag49
(g70
g51
NtRp3097
(dp3098
g54
(dp3099
g81
g82
ssg63
g3088
sg56
(lp3100
S':'
asbag49
(g70
g51
NtRp3101
(dp3102
g54
(dp3103
sg63
g3088
sg56
(lp3104
g49
(g50
g51
NtRp3105
(dp3106
g54
(dp3107
g62
I3
ssg63
g3101
sg56
(lp3108
g182
asbasbasbag49
(g65
g51
NtRp3109
(dp3110
g54
(dp3111
sg63
g2853
sg56
(lp3112
g49
(g70
g51
NtRp3113
(dp3114
g54
(dp3115
g74
g75
ssg63
g3109
sg56
(lp3116
S'REMOTE_PORT'
p3117
asbag49
(g70
g51
NtRp3118
(dp3119
g54
(dp3120
g81
g82
ssg63
g3109
sg56
(lp3121
S':'
asbag49
(g70
g51
NtRp3122
(dp3123
g54
(dp3124
sg63
g3109
sg56
(lp3125
g49
(g50
g51
NtRp3126
(dp3127
g54
(dp3128
g62
I3
ssg63
g3122
sg56
(lp3129
g1733
asbasbasbag49
(g65
g51
NtRp3130
(dp3131
g54
(dp3132
sg63
g2853
sg56
(lp3133
g49
(g70
g51
NtRp3134
(dp3135
g54
(dp3136
g74
g75
ssg63
g3130
sg56
(lp3137
S'REQUEST_METHOD'
p3138
asbag49
(g70
g51
NtRp3139
(dp3140
g54
(dp3141
g81
g82
ssg63
g3130
sg56
(lp3142
S':'
asbag49
(g70
g51
NtRp3143
(dp3144
g54
(dp3145
sg63
g3130
sg56
(lp3146
g49
(g50
g51
NtRp3147
(dp3148
g54
(dp3149
g62
I3
ssg63
g3143
sg56
(lp3150
g1755
asbasbasbag49
(g65
g51
NtRp3151
(dp3152
g54
(dp3153
sg63
g2853
sg56
(lp3154
g49
(g70
g51
NtRp3155
(dp3156
g54
(dp3157
g74
g75
ssg63
g3151
sg56
(lp3158
S'SCRIPT_NAME'
p3159
asbag49
(g70
g51
NtRp3160
(dp3161
g54
(dp3162
g81
g82
ssg63
g3151
sg56
(lp3163
S':'
asbag49
(g70
g51
NtRp3164
(dp3165
g54
(dp3166
sg63
g3151
sg56
(lp3167
g49
(g50
g51
NtRp3168
(dp3169
g54
(dp3170
g62
I3
ssg63
g3164
sg56
(lp3171
S''
asbasbasbag49
(g65
g51
NtRp3172
(dp3173
g54
(dp3174
sg63
g2853
sg56
(lp3175
g49
(g70
g51
NtRp3176
(dp3177
g54
(dp3178
g74
g75
ssg63
g3172
sg56
(lp3179
S'SERVER_NAME'
p3180
asbag49
(g70
g51
NtRp3181
(dp3182
g54
(dp3183
g81
g82
ssg63
g3172
sg56
(lp3184
S':'
asbag49
(g70
g51
NtRp3185
(dp3186
g54
(dp3187
sg63
g3172
sg56
(lp3188
g49
(g50
g51
NtRp3189
(dp3190
g54
(dp3191
g62
I3
ssg63
g3185
sg56
(lp3192
g1798
asbasbasbag49
(g65
g51
NtRp3193
(dp3194
g54
(dp3195
sg63
g2853
sg56
(lp3196
g49
(g70
g51
NtRp3197
(dp3198
g54
(dp3199
g74
g75
ssg63
g3193
sg56
(lp3200
S'SERVER_PORT'
p3201
asbag49
(g70
g51
NtRp3202
(dp3203
g54
(dp3204
g81
g82
ssg63
g3193
sg56
(lp3205
S':'
asbag49
(g70
g51
NtRp3206
(dp3207
g54
(dp3208
sg63
g3193
sg56
(lp3209
g49
(g50
g51
NtRp3210
(dp3211
g54
(dp3212
g62
I3
ssg63
g3206
sg56
(lp3213
g1820
asbasbasbag49
(g65
g51
NtRp3214
(dp3215
g54
(dp3216
sg63
g2853
sg56
(lp3217
g49
(g70
g51
NtRp3218
(dp3219
g54
(dp3220
g74
g75
ssg63
g3214
sg56
(lp3221
S'SERVER_PROTOCOL'
p3222
asbag49
(g70
g51
NtRp3223
(dp3224
g54
(dp3225
g81
g82
ssg63
g3214
sg56
(lp3226
S':'
asbag49
(g70
g51
NtRp3227
(dp3228
g54
(dp3229
sg63
g3214
sg56
(lp3230
g49
(g50
g51
NtRp3231
(dp3232
g54
(dp3233
g62
I3
ssg63
g3227
sg56
(lp3234
g1842
asbasbasbag49
(g65
g51
NtRp3235
(dp3236
g54
(dp3237
sg63
g2853
sg56
(lp3238
g49
(g70
g51
NtRp3239
(dp3240
g54
(dp3241
g74
g75
ssg63
g3235
sg56
(lp3242
S'SERVER_SOFTWARE'
p3243
asbag49
(g70
g51
NtRp3244
(dp3245
g54
(dp3246
g81
g82
ssg63
g3235
sg56
(lp3247
S':'
asbag49
(g70
g51
NtRp3248
(dp3249
g54
(dp3250
sg63
g3235
sg56
(lp3251
g49
(g50
g51
NtRp3252
(dp3253
g54
(dp3254
g62
I3
ssg63
g3248
sg56
(lp3255
g1864
asbasbasbag49
(g65
g51
NtRp3256
(dp3257
g54
(dp3258
sg63
g2853
sg56
(lp3259
g49
(g70
g51
NtRp3260
(dp3261
g54
(dp3262
g74
g75
ssg63
g3256
sg56
(lp3263
S'wsgi.errors'
p3264
asbag49
(g70
g51
NtRp3265
(dp3266
g54
(dp3267
g81
g82
ssg63
g3256
sg56
(lp3268
S':'
asbag49
(g70
g51
NtRp3269
(dp3270
g54
(dp3271
sg63
g3256
sg56
(lp3272
g49
(g50
g51
NtRp3273
(dp3274
g54
(dp3275
g62
I3
ssg63
g3269
sg56
(lp3276
S"<open file '<stderr>', mode 'w' at 0x1620b0>"
p3277
asbasbasbag49
(g65
g51
NtRp3278
(dp3279
g54
(dp3280
sg63
g2853
sg56
(lp3281
g49
(g70
g51
NtRp3282
(dp3283
g54
(dp3284
g74
g75
ssg63
g3278
sg56
(lp3285
S'wsgi.file_wrapper'
p3286
asbag49
(g70
g51
NtRp3287
(dp3288
g54
(dp3289
g81
g82
ssg63
g3278
sg56
(lp3290
S':'
asbag49
(g70
g51
NtRp3291
(dp3292
g54
(dp3293
sg63
g3278
sg56
(lp3294
g49
(g50
g51
NtRp3295
(dp3296
g54
(dp3297
g62
I3
ssg63
g3291
sg56
(lp3298
S'<class wsgiref.util.FileWrapper at 0x7c2840>'
p3299
asbasbasbag49
(g65
g51
NtRp3300
(dp3301
g54
(dp3302
sg63
g2853
sg56
(lp3303
g49
(g70
g51
NtRp3304
(dp3305
g54
(dp3306
g74
g75
ssg63
g3300
sg56
(lp3307
S'wsgi.input'
p3308
asbag49
(g70
g51
NtRp3309
(dp3310
g54
(dp3311
g81
g82
ssg63
g3300
sg56
(lp3312
S':'
asbag49
(g70
g51
NtRp3313
(dp3314
g54
(dp3315
sg63
g3300
sg56
(lp3316
g49
(g50
g51
NtRp3317
(dp3318
g54
(dp3319
g62
I3
ssg63
g3313
sg56
(lp3320
S'<cStringIO.StringO object at 0x29dda80>'
p3321
asbasbasbag49
(g65
g51
NtRp3322
(dp3323
g54
(dp3324
sg63
g2853
sg56
(lp3325
g49
(g70
g51
NtRp3326
(dp3327
g54
(dp3328
g74
g75
ssg63
g3322
sg56
(lp3329
S'wsgi.multiprocess'
p3330
asbag49
(g70
g51
NtRp3331
(dp3332
g54
(dp3333
g81
g82
ssg63
g3322
sg56
(lp3334
S':'
asbag49
(g70
g51
NtRp3335
(dp3336
g54
(dp3337
sg63
g3322
sg56
(lp3338
g49
(g50
g51
NtRp3339
(dp3340
g54
(dp3341
g62
I3
ssg63
g3335
sg56
(lp3342
g92
asbasbasbag49
(g65
g51
NtRp3343
(dp3344
g54
(dp3345
sg63
g2853
sg56
(lp3346
g49
(g70
g51
NtRp3347
(dp3348
g54
(dp3349
g74
g75
ssg63
g3343
sg56
(lp3350
S'wsgi.multithread'
p3351
asbag49
(g70
g51
NtRp3352
(dp3353
g54
(dp3354
g81
g82
ssg63
g3343
sg56
(lp3355
S':'
asbag49
(g70
g51
NtRp3356
(dp3357
g54
(dp3358
sg63
g3343
sg56
(lp3359
g49
(g50
g51
NtRp3360
(dp3361
g54
(dp3362
g62
I3
ssg63
g3356
sg56
(lp3363
g2104
asbasbasbag49
(g65
g51
NtRp3364
(dp3365
g54
(dp3366
sg63
g2853
sg56
(lp3367
g49
(g70
g51
NtRp3368
(dp3369
g54
(dp3370
g74
g75
ssg63
g3364
sg56
(lp3371
S'wsgi.run_once'
p3372
asbag49
(g70
g51
NtRp3373
(dp3374
g54
(dp3375
g81
g82
ssg63
g3364
sg56
(lp3376
S':'
asbag49
(g70
g51
NtRp3377
(dp3378
g54
(dp3379
sg63
g3364
sg56
(lp3380
g49
(g50
g51
NtRp3381
(dp3382
g54
(dp3383
g62
I3
ssg63
g3377
sg56
(lp3384
g92
asbasbasbag49
(g65
g51
NtRp3385
(dp3386
g54
(dp3387
sg63
g2853
sg56
(lp3388
g49
(g70
g51
NtRp3389
(dp3390
g54
(dp3391
g74
g75
ssg63
g3385
sg56
(lp3392
S'wsgi.url_scheme'
p3393
asbag49
(g70
g51
NtRp3394
(dp3395
g54
(dp3396
g81
g82
ssg63
g3385
sg56
(lp3397
S':'
asbag49
(g70
g51
NtRp3398
(dp3399
g54
(dp3400
sg63
g3385
sg56
(lp3401
g49
(g50
g51
NtRp3402
(dp3403
g54
(dp3404
g62
I3
ssg63
g3398
sg56
(lp3405
g2147
asbasbasbag49
(g65
g51
NtRp3406
(dp3407
g54
(dp3408
sg63
g2853
sg56
(lp3409
g49
(g70
g51
NtRp3410
(dp3411
g54
(dp3412
g74
g75
ssg63
g3406
sg56
(lp3413
S'wsgi.version'
p3414
asbag49
(g70
g51
NtRp3415
(dp3416
g54
(dp3417
g81
g82
ssg63
g3406
sg56
(lp3418
S':'
asbag49
(g70
g51
NtRp3419
(dp3420
g54
(dp3421
sg63
g3406
sg56
(lp3422
g49
(g50
g51
NtRp3423
(dp3424
g54
(dp3425
g62
I3
ssg63
g3419
sg56
(lp3426
S'1'
asbasbasbasbasbasbasbasbasbasbasbasbasbsS'frames'
p3427
(lp3428
(dp3429
S'file'
p3430
S'/Users/mdipierro/Dropbox/web2py/gluon/restricted.py'
p3431
sS'dump'
p3432
(dp3433
S'environment'
p3434
S"{'A': <class 'gluon.html.A'>, 'Auth': <class 'gluon.tools.Auth'>, 'B': <class 'gluon.html.B'>, 'BEAUTIFY': <class 'gluon.html.BEAUTIFY'>, 'BODY': <class 'gluon.html.BODY'>, 'BR': <class 'gluon.html.BR'>, 'BUTTON': <class 'gluon.html.BUTTON'>, 'CAT': <class 'gluon.html.CAT'>, 'CENTER': <class 'gluon.html.CENTER'>, 'CLEANUP': <class 'gluon.validators.CLEANUP'>, ...}"
p3435
sS'ccode'
p3436
S'<code object <module> at 0x28fdad0, file "/Users...ications/inplace/controllers/default.py", line 4>'
p3437
ssS'lnum'
p3438
I204
sS'lines'
p3439
(dp3440
I199
S'    try:'
p3441
sI200
S'        if type(code) == types.CodeType:'
p3442
sI201
S'            ccode = code'
p3443
sI202
S'        else:'
p3444
sI203
S'            ccode = compile2(code,layer)'
p3445
sI204
S'        exec ccode in environment'
p3446
sI205
S'    except HTTP:'
p3447
sI206
S'        raise'
p3448
sI207
S'    except RestrictedError:'
p3449
sI208
S'        # do not encapsulate (obfuscate) the original RestrictedError'
p3450
ssS'call'
p3451
S"(code='# -*- coding: utf-8 -*-\\n# developed by Massimo D...cals()\\n\\n\\nresponse._vars=response._caller(folder)\\n', environment={'A': <class 'gluon.html.A'>, 'Auth': <class 'gluon.tools.Auth'>, 'B': <class 'gluon.html.B'>, 'BEAUTIFY': <class 'gluon.html.BEAUTIFY'>, 'BODY': <class 'gluon.html.BODY'>, 'BR': <class 'gluon.html.BR'>, 'BUTTON': <class 'gluon.html.BUTTON'>, 'CAT': <class 'gluon.html.CAT'>, 'CENTER': <class 'gluon.html.CENTER'>, 'CLEANUP': <class 'gluon.validators.CLEANUP'>, ...}, layer='/Users/mdipierro/Dropbox/web2py/applications/inplace/controllers/default.py')"
p3452
sS'func'
p3453
S'restricted'
p3454
sa(dp3455
g3430
S'/Users/mdipierro/Dropbox/web2py/applications/inplace/controllers/default.py'
p3456
sg3432
(dp3457
sg3438
I90
sg3439
(dp3458
I79
S''
sI80
S'def edit_folder():'
p3459
sI81
S'    folder = db.cms_folder(request.args(0))'
p3460
sI82
S'    db.cms_folder.parent_folder.default=folder.id'
p3461
sI83
S'    db.cms_folder.name.requires=IS_NOT_IN_DB('
p3462
sI84
S"        db(db.cms_folder.parent_folder==folder.id),'cms_folder.name')"
p3463
sI85
S'    form = SQLFORM(db.cms_folder,request.args(1),deletable=True)\\'
p3464
sI86
S"        .process(next=URL('folder',args=folder.id))"
p3465
sI87
S'    return locals()'
p3466
sI88
S''
ssg3451
S'()'
p3467
sg3453
S'<module>'
p3468
sa(dp3469
g3430
S'/Users/mdipierro/Dropbox/web2py/gluon/globals.py'
p3470
sg3432
(dp3471
S'self'
p3472
S'undefined'
p3473
sS'f'
S'<function folder at 0x2cb11b0>'
p3474
ssg3438
I172
sg3439
(dp3475
I167
S'        self.meta = Storage()      # used by web2py_ajax.html'
p3476
sI168
S'        self.menu = []             # used by the default view layout'
p3477
sI169
S'        self.files = []            # used by web2py_ajax.html'
p3478
sI170
S'        self.generic_patterns = [] # patterns to allow generic views'
p3479
sI171
S'        self._vars = None'
p3480
sI172
S'        self._caller = lambda f: f()'
p3481
sI173
S'        self._view_environment = None'
p3482
sI174
S'        self._custom_commit = None'
p3483
sI175
S'        self._custom_rollback = None'
p3484
sI176
S''
ssg3451
S'(f=<function folder at 0x2cb11b0>)'
p3485
sg3453
S'<lambda>'
p3486
sa(dp3487
g3430
S'/Users/mdipierro/Dropbox/web2py/applications/inplace/controllers/default.py'
p3488
sg3432
(dp3489
S'folder.name'
p3490
g3473
sS'folder'
p3491
S'None'
p3492
sS'folder.path'
p3493
g3473
sS'folder.parent_folder'
p3494
g3473
sS'f'
g3473
ssg3438
I65
sg3439
(dp3495
I64
S'    folder = db.cms_folder(request.args(0))'
p3496
sI65
S'    folder.path, f = [folder.name], folder.parent_folder'
p3497
sI66
S"    while f: folder.path, f = [A(f.name,_href=URL('folder',args=f))]+folder.path, f.parent_folder"
p3498
sI67
S'    files = db(db.cms_file.folder==folder.id).select(orderby=db.cms_file.name)'
p3499
sI68
S'    folders = db(db.cms_folder.parent_folder==folder.id).select(orderby=db.cms_folder.name)'
p3500
sI69
S'    return locals()'
p3501
sI60
S'def user():'
p3502
sI61
S'    return dict(form=auth())'
p3503
sI62
S''
sI63
S'def folder():'
p3504
ssg3451
S'()'
p3505
sg3453
g2227
sasS'pyver'
p3506
S'Python 2.5.4: /usr/bin/python2.5'
p3507
sS'session'
p3508
g49
(g50
g51
NtRp3509
(dp3510
g54
(dp3511
sg56
(lp3512
g49
(g58
g51
NtRp3513
(dp3514
g54
(dp3515
g62
I5
ssg63
Nsg56
(lp3516
g49
(g65
g51
NtRp3517
(dp3518
g54
(dp3519
sg63
g3513
sg56
(lp3520
g49
(g70
g51
NtRp3521
(dp3522
g54
(dp3523
g74
g75
ssg63
g3517
sg56
(lp3524
S'auth'
p3525
asbag49
(g70
g51
NtRp3526
(dp3527
g54
(dp3528
g81
g82
ssg63
g3517
sg56
(lp3529
S':'
asbag49
(g70
g51
NtRp3530
(dp3531
g54
(dp3532
sg63
g3517
sg56
(lp3533
g49
(g50
g51
NtRp3534
(dp3535
g54
(dp3536
g62
I5
ssg63
g3530
sg56
(lp3537
g49
(g58
g51
NtRp3538
(dp3539
g54
(dp3540
g62
I4
ssg63
Nsg56
(lp3541
g49
(g65
g51
NtRp3542
(dp3543
g54
(dp3544
sg63
g3538
sg56
(lp3545
g49
(g70
g51
NtRp3546
(dp3547
g54
(dp3548
g74
g75
ssg63
g3542
sg56
(lp3549
S'expiration'
p3550
asbag49
(g70
g51
NtRp3551
(dp3552
g54
(dp3553
g81
g82
ssg63
g3542
sg56
(lp3554
S':'
asbag49
(g70
g51
NtRp3555
(dp3556
g54
(dp3557
sg63
g3542
sg56
(lp3558
g49
(g50
g51
NtRp3559
(dp3560
g54
(dp3561
g62
I4
ssg63
g3555
sg56
(lp3562
S'3600'
p3563
asbasbasbag49
(g65
g51
NtRp3564
(dp3565
g54
(dp3566
sg63
g3538
sg56
(lp3567
g49
(g70
g51
NtRp3568
(dp3569
g54
(dp3570
g74
g75
ssg63
g3564
sg56
(lp3571
S'hmac_key'
p3572
asbag49
(g70
g51
NtRp3573
(dp3574
g54
(dp3575
g81
g82
ssg63
g3564
sg56
(lp3576
S':'
asbag49
(g70
g51
NtRp3577
(dp3578
g54
(dp3579
sg63
g3564
sg56
(lp3580
g49
(g50
g51
NtRp3581
(dp3582
g54
(dp3583
g62
I4
ssg63
g3577
sg56
(lp3584
S'0b48d067-c8d0-4f2e-9c3d-d54e1884cecf'
p3585
asbasbasbag49
(g65
g51
NtRp3586
(dp3587
g54
(dp3588
sg63
g3538
sg56
(lp3589
g49
(g70
g51
NtRp3590
(dp3591
g54
(dp3592
g74
g75
ssg63
g3586
sg56
(lp3593
S'last_visit'
p3594
asbag49
(g70
g51
NtRp3595
(dp3596
g54
(dp3597
g81
g82
ssg63
g3586
sg56
(lp3598
S':'
asbag49
(g70
g51
NtRp3599
(dp3600
g54
(dp3601
sg63
g3586
sg56
(lp3602
g49
(g50
g51
NtRp3603
(dp3604
g54
(dp3605
g62
I4
ssg63
g3599
sg56
(lp3606
S'datetime.datetime(2011, 12, 11, 16, 15, 27, 81330)'
p3607
asbasbasbag49
(g65
g51
NtRp3608
(dp3609
g54
(dp3610
sg63
g3538
sg56
(lp3611
g49
(g70
g51
NtRp3612
(dp3613
g54
(dp3614
g74
g75
ssg63
g3608
sg56
(lp3615
S'user'
p3616
asbag49
(g70
g51
NtRp3617
(dp3618
g54
(dp3619
g81
g82
ssg63
g3608
sg56
(lp3620
S':'
asbag49
(g70
g51
NtRp3621
(dp3622
g54
(dp3623
sg63
g3608
sg56
(lp3624
g49
(g50
g51
NtRp3625
(dp3626
g54
(dp3627
g62
I4
ssg63
g3621
sg56
(lp3628
g49
(g58
g51
NtRp3629
(dp3630
g54
(dp3631
g62
I3
ssg63
Nsg56
(lp3632
g49
(g65
g51
NtRp3633
(dp3634
g54
(dp3635
sg63
g3629
sg56
(lp3636
g49
(g70
g51
NtRp3637
(dp3638
g54
(dp3639
g74
g75
ssg63
g3633
sg56
(lp3640
S'email'
p3641
asbag49
(g70
g51
NtRp3642
(dp3643
g54
(dp3644
g81
g82
ssg63
g3633
sg56
(lp3645
S':'
asbag49
(g70
g51
NtRp3646
(dp3647
g54
(dp3648
sg63
g3633
sg56
(lp3649
g49
(g50
g51
NtRp3650
(dp3651
g54
(dp3652
g62
I3
ssg63
g3646
sg56
(lp3653
S'mdipierro@cs.depaul.edu'
p3654
asbasbasbag49
(g65
g51
NtRp3655
(dp3656
g54
(dp3657
sg63
g3629
sg56
(lp3658
g49
(g70
g51
NtRp3659
(dp3660
g54
(dp3661
g74
g75
ssg63
g3655
sg56
(lp3662
S'first_name'
p3663
asbag49
(g70
g51
NtRp3664
(dp3665
g54
(dp3666
g81
g82
ssg63
g3655
sg56
(lp3667
S':'
asbag49
(g70
g51
NtRp3668
(dp3669
g54
(dp3670
sg63
g3655
sg56
(lp3671
g49
(g50
g51
NtRp3672
(dp3673
g54
(dp3674
g62
I3
ssg63
g3668
sg56
(lp3675
S'Massimo'
p3676
asbasbasbag49
(g65
g51
NtRp3677
(dp3678
g54
(dp3679
sg63
g3629
sg56
(lp3680
g49
(g70
g51
NtRp3681
(dp3682
g54
(dp3683
g74
g75
ssg63
g3677
sg56
(lp3684
S'id'
p3685
asbag49
(g70
g51
NtRp3686
(dp3687
g54
(dp3688
g81
g82
ssg63
g3677
sg56
(lp3689
S':'
asbag49
(g70
g51
NtRp3690
(dp3691
g54
(dp3692
sg63
g3677
sg56
(lp3693
g49
(g50
g51
NtRp3694
(dp3695
g54
(dp3696
g62
I3
ssg63
g3690
sg56
(lp3697
S'1'
asbasbasbag49
(g65
g51
NtRp3698
(dp3699
g54
(dp3700
sg63
g3629
sg56
(lp3701
g49
(g70
g51
NtRp3702
(dp3703
g54
(dp3704
g74
g75
ssg63
g3698
sg56
(lp3705
S'last_name'
p3706
asbag49
(g70
g51
NtRp3707
(dp3708
g54
(dp3709
g81
g82
ssg63
g3698
sg56
(lp3710
S':'
asbag49
(g70
g51
NtRp3711
(dp3712
g54
(dp3713
sg63
g3698
sg56
(lp3714
g49
(g50
g51
NtRp3715
(dp3716
g54
(dp3717
g62
I3
ssg63
g3711
sg56
(lp3718
S'Di Pierro'
p3719
asbasbasbag49
(g65
g51
NtRp3720
(dp3721
g54
(dp3722
sg63
g3629
sg56
(lp3723
g49
(g70
g51
NtRp3724
(dp3725
g54
(dp3726
g74
g75
ssg63
g3720
sg56
(lp3727
S'password'
p3728
asbag49
(g70
g51
NtRp3729
(dp3730
g54
(dp3731
g81
g82
ssg63
g3720
sg56
(lp3732
S':'
asbag49
(g70
g51
NtRp3733
(dp3734
g54
(dp3735
sg63
g3720
sg56
(lp3736
g49
(g50
g51
NtRp3737
(dp3738
g54
(dp3739
g62
I3
ssg63
g3733
sg56
(lp3740
S'12923092f4d9e86e56018b9cdd790947'
p3741
asbasbasbag49
(g65
g51
NtRp3742
(dp3743
g54
(dp3744
sg63
g3629
sg56
(lp3745
g49
(g70
g51
NtRp3746
(dp3747
g54
(dp3748
g74
g75
ssg63
g3742
sg56
(lp3749
S'registration_id'
p3750
asbag49
(g70
g51
NtRp3751
(dp3752
g54
(dp3753
g81
g82
ssg63
g3742
sg56
(lp3754
S':'
asbag49
(g70
g51
NtRp3755
(dp3756
g54
(dp3757
sg63
g3742
sg56
(lp3758
g49
(g50
g51
NtRp3759
(dp3760
g54
(dp3761
g62
I3
ssg63
g3755
sg56
(lp3762
S''
asbasbasbag49
(g65
g51
NtRp3763
(dp3764
g54
(dp3765
sg63
g3629
sg56
(lp3766
g49
(g70
g51
NtRp3767
(dp3768
g54
(dp3769
g74
g75
ssg63
g3763
sg56
(lp3770
S'registration_key'
p3771
asbag49
(g70
g51
NtRp3772
(dp3773
g54
(dp3774
g81
g82
ssg63
g3763
sg56
(lp3775
S':'
asbag49
(g70
g51
NtRp3776
(dp3777
g54
(dp3778
sg63
g3763
sg56
(lp3779
g49
(g50
g51
NtRp3780
(dp3781
g54
(dp3782
g62
I3
ssg63
g3776
sg56
(lp3783
S''
asbasbasbag49
(g65
g51
NtRp3784
(dp3785
g54
(dp3786
sg63
g3629
sg56
(lp3787
g49
(g70
g51
NtRp3788
(dp3789
g54
(dp3790
g74
g75
ssg63
g3784
sg56
(lp3791
S'reset_password_key'
p3792
asbag49
(g70
g51
NtRp3793
(dp3794
g54
(dp3795
g81
g82
ssg63
g3784
sg56
(lp3796
S':'
asbag49
(g70
g51
NtRp3797
(dp3798
g54
(dp3799
sg63
g3784
sg56
(lp3800
g49
(g50
g51
NtRp3801
(dp3802
g54
(dp3803
g62
I3
ssg63
g3797
sg56
(lp3804
S''
asbasbasbasbasbasbasbasbasbasbasbag49
(g65
g51
NtRp3805
(dp3806
g54
(dp3807
sg63
g3513
sg56
(lp3808
g49
(g70
g51
NtRp3809
(dp3810
g54
(dp3811
g74
g75
ssg63
g3805
sg56
(lp3812
S'html'
p3813
asbag49
(g70
g51
NtRp3814
(dp3815
g54
(dp3816
g81
g82
ssg63
g3805
sg56
(lp3817
S':'
asbag49
(g70
g51
NtRp3818
(dp3819
g54
(dp3820
sg63
g3805
sg56
(lp3821
g49
(g50
g51
NtRp3822
(dp3823
g54
(dp3824
g62
I5
ssg63
g3818
sg56
(lp3825
S'\n<!DOCTYPE html>\n<!-- paulirish.com/2008/conditional-stylesheets-vs-css-hacks-answer-neither/ -->\n<!--[if lt IE 7]><html class="ie ie6 ie-lte9 ie-lte8 ie-lte7 no-js" lang="en"> <![endif]-->\n<!--[if IE 7]><html class="ie ie7 ie-lte9 ie-lte8 ie-lte7 no-js" lang="en"> <![endif]-->\n<!--[if IE 8]><html class="ie ie8 ie-lte9 ie-lte8 no-js" lang="en"> <![endif]-->\n<!--[if IE 9]><html class="ie9 ie-lte9 no-js" lang="en"> <![endif]-->\n<!--[if (gt IE 9)|!(IE)]><!--> <html class="no-js" lang="en"> <!--<![endif]-->\n<head>\n  <meta charset="utf-8" />\n  <!-- www.phpied.com/conditional-comments-block-downloads/ -->\n  <!-- Always force latest IE rendering engine\n\t   (even in intranet) & Chrome Frame\n\t   Remove this if you use the .htaccess -->\n  <!--[if IE]>\n    <meta http-equiv="X-UA-Compatible" content="IE=edge">\n  <![endif]-->\n  \n  <title>web2py Web Framework</title>\n  \n  <!-- http://dev.w3.org/html5/markup/meta.name.html -->\n  <meta name="application-name" content="examples" />\n  \n  <!-- Speaking of Google, don\'t forget to set your site up:\n\t   http://google.com/webmasters -->\n  <meta name="google-site-verification" content="" />\n\n  <!--  Mobile Viewport Fix\n\t  j.mp/mobileviewport & davidbcalhoun.com/2010/viewport-metatag\n\t  device-width: Occupy full width of the screen in its current orientation\n\t  initial-scale = 1.0 retains dimensions instead of zooming out if page height > device height\n\t  user-scalable = yes allows the user to zoom in -->\n  <meta name="viewport" content="width=device-width, initial-scale=1.0, user-scalable=yes">\n  \n  <!-- Place favicon.ico and apple-touch-icon.png in the root of your domain and delete these references -->\n  <link rel="shortcut icon" href="/examples/static/favicon.ico" type="image/x-icon">\n  <link rel="apple-touch-icon" href="/examples/static/favicon.png">\n\n  <!-- All JavaScript at the bottom, except for Modernizr which enables \n\t   HTML5 elements & feature detects -->\n  <script src="/examples/static/js/modernizr.custom.js"></script>  \n\n  <!-- include stylesheets -->\n  \n\n  <script type="text/javascript"><!--\n    // These variables are used by the web2py_ajax_init function in web2py_ajax.js (which is loaded below).\n    var w2p_ajax_confirm_message = "Are you sure you want to delete this object?";\n    var w2p_ajax_date_format = "%Y-%m-%d";\n    var w2p_ajax_datetime_format = "%Y-%m-%d %H:%M:%S";\n    //--></script>\n<script src="/examples/static/js/jquery.js" type="text/javascript"></script><link href="/examples/static/css/calendar.css" rel="stylesheet" type="text/css" /><script src="/examples/static/js/calendar.js" type="text/javascript"></script><script src="/examples/static/js/web2py.js" type="text/javascript"></script><link href="/examples/static/css/skeleton.css" rel="stylesheet" type="text/css" /><link href="/examples/static/css/web2py.css" rel="stylesheet" type="text/css" /><link href="/examples/static/css/examples.css" rel="stylesheet" type="text/css" /><link href="/examples/static/css/superfish.css" rel="stylesheet" type="text/css" /><script src="/examples/static/js/superfish.js" type="text/javascript"></script>\n\n\n  <script type="text/javascript">\n    jQuery(function(){jQuery(\'.sf-menu\').superfish();});\n  </script>\n\n  \n\n  <!-- uncomment here to load jquery-ui\n  <link rel="stylesheet" href="http://ajax.googleapis.com/ajax/libs/jqueryui/1.8.16/themes/base/jquery-ui.css" type="text/css" media="all" />\n  <script src="http://ajax.googleapis.com/ajax/libs/jqueryui/1.8.16/jquery-ui.min.js" type="text/javascript"></script>\n  uncomment to load jquery-ui //-->\n  </style>\n</head>\n<body>\n  <div class="wrapper"><!-- for sticky footer -->    \n    <div class="flash"></div>    \n    <div class="header">\n      <div class="container">\n        <div class="sixteen columns">\n\t  <img src="/examples/static/images/web2py_logo.png" />\n          <h5></h5>\n        </div>\n        \n        <div class="sixteen columns statusbar">\n\t  \n\t  \n          <div id="menu"><ul class="sf-menu"><li><a href="/examples/default/index">Home</a></li><li><a href="/examples/default/what">About</a></li><li><a href="/examples/default/download">Download</a></li><li><a href="/examples/default/documentation">Docs &amp; Resources</a></li><li><a href="/examples/default/support">Support</a></li><li><a href="/examples/default/who">Contributors</a></li></ul>\n\t    \n            <!-- AddToAny BEGIN -->\n            <div style="float:right;padding-top:6px;" class="a2a_kit a2a_default_style">\n            <a class="a2a_dd" href="http://www.addtoany.com/share_save">Share</a></div>\n            <script type="text/javascript" src="http://static.addtoany.com/menu/page.js"></script>\n            <!-- AddToAny END -->\n          </div>\n\t  \n\t  <div class="sixteen columns announce">\n\t    <a href="http://www.infoworld.com/d/open-source-software/bossie-awards-2011-the-best-open-source-application-development-software-171759-0&current=10&last=1#slideshowTop">2011 BOSSIE AWARD FOR OPEN SOURCE DEVELOPMENT SOFTWARE</a>\n          </div>\n\t</div>\n      </div>\n    </div>\n    <div class="main">\n      <div class="container mainbody">\t\n        <div class="sixteen columns">\n          <div class="ten columns center">\n            \n            \n\n<center>\n  <img src="/examples/static/images/tag-cloud-color-small.png"/>\n</center>\n\n<h3>WEB2PY<sup>TM</sup> WEB FRAMEWORK</h3>\n<p>Free open source full-stack framework for rapid development of fast, scalable, <a href="http://www.web2py.com/book/default/chapter/01#security" target="_blank">secure</a> and portable database-driven web-based applications. Written and programmable in <a href="http://www.python.org" target="_blank">Python</a>. <a href="http://www.gnu.org/licenses/lgpl.html">LGPLv3 License</a>.\nCurrent version: 1.99.3 (2011-12-09 16:18:03) stable</p>\n\n\n\n\n\n\n            \n          </div>\n          \n          \n          <div class="five columns">\n            \n<div style="text-align:center">\n  <a href="http://web2py.com/book"><img src="/examples/static/images/tablet.png" alt="Tablet" /></a><br/>\n  <a href="http://www.lulu.com/product/paperback/web2py-book-(4th-edition)/18738286"><img src="http://static.lulu.com/images/services/buy_now_buttons/us/book.gif?20111206124946" border="0" alt="Support independent publishing: Buy this book on Lulu."></a><br/>\n  <a class="button" href="/examples/default/download" style="width:90%">DOWNLOAD NOW</a><br/>\n  <a class="button" href="http://web2py.com/demo_admin" style="width:90%">ONLINE DEMO</a><br/>\n  <a class="button" href="http://web2py.com/poweredby" style="width:90%">SITES POWERED</a>\n</div>\n\n          </div>    \n          \n        </div>\n      </div><!-- container -->\n      \n<div class="container">\n  <div class="sixteen columns">\n    <div class="five columns">\n      <h3><a href="/examples/default/about">BATTERIES INCLUDED</a></h3>\n      <p>Everything you need in one package including fast multi-threaded web server, SQL database and web-based interface. No third party dependencies but works with <a href=/examples/default/what>third party tools</a>.</p>\n    </div>\n    <div class="five columns">\n      <h3><a href="http://web2py.com/demo_admin">WEB-BASED IDE</a></h3>\n      <p>Create, modify, deploy and manage application from anywhere using your browser. One web2py instance can run multiple web sites using different databases. Try the <a href="http://web2py.com/demo_admin">interactive demo</a>.</p>\n    </div>\n    <div class="five columns">\n      <h3><a href="/examples/default/documentation">EXTENSIVE DOCS</a></h3>\n      <p>Start with some <a href="/examples/default/examples">quick examples</a>, then read the <a href="http://web2py.com/book">reference manual</a>, watch <a href="http://vimeo.com/album/178500">videos</a>, and join a <a href="/examples/default/usergroups">user group</a> for discussion. Take advantage of the <a href="http://web2py.com/layouts">layouts</a>, <a href="http://dev.s-cubism.com/web2py_plugins">plugins</a>, and <a href="http://web2pyslices.com">recipes</a>.</p>\n    </div>\n  </div>\n</div>\n<div class="container">\n  <div class="sixteen columns">\n    <img src="/examples/static/images/shadow-bottom.png" width="100%"/>\n    \n    <div class="five columns">\n      <em>\n\t<p>Please use www.web2py.com when using MVC , no PHP/SQL stuff please...its 2011 not 1999</p>\n      </em>\n      <span class="right">\n\t<a href="http://twitter.com/#!/rabblesoft/status/79189028431343616"><em>rabblesoft</em></a>\n      </span>\n    </div>\n    \n    <div class="five columns">\n      <em>\n\t<p>web2py was the life saver today for me, my blog post: Standalone Usage of web2py&#x27;s</p>\n      </em>\n      <span class="right">\n\t<a href="http://twitter.com/#!/caglartoklu/status/84292131707031553"><em>caglartoklu</em></a>\n      </span>\n    </div>\n    \n    <div class="five columns">\n      <em>\n\t<p>web2py it is. Compatible with everything under the sun and great interfaces to googleappengine</p>\n      </em>\n      <span class="right">\n\t<a href="http://twitter.com/#!/comamitc/status/51744719071477760"><em>comamitc</em></a>\n      </span>\n    </div>\n    \n  </div>\n</div>\n      \n      \n    </div><!-- main -->\n    \n    <div class="push"></div>\n  </div><!-- wrapper -->\n\n  <div class="footer">\n    <div class="container header">    \n      <div class="sixteen columns">\n         <!-- this is default footer -->\n        <div class="footer-content" >\n          Copyright &#169; 2011\n\t  - User communities in <a href="https://groups.google.com/forum/?fromgroups#!forum/web2py" target="_blank">English<a>, <a href="https://groups.google.com/forum/?fromgroups#!forum/web2py-fr" target="_blank">French</a>, <a href="https://groups.google.com/forum/?fromgroups#!forum/web2py-japan" target="_blank">Japanese</a>, <a href="https://groups.google.com/forum/?fromgroups#!forum/web2py-users-brazil" target="_blank">Portuguese</a>, and <a href="https://groups.google.com/forum/?fromgroups#!forum/web2py-usuarios" target="_blank">Spanish</a>.\n          <div style="float: right;">\n            <a href="http://www.web2py.com/" style="float: left; padding-right: 6px;">\n            <img style="padding-bottom: 0;" src="/examples/static/images/poweredby.png"/>\n            </a>\n          </div>\n        </div>\n        \t\n      </div>\n    </div><!-- container -->\n  </div><!-- footer -->\n  \n  <!--[if lt IE 7 ]>\n\t<script src="/examples/static/js/dd_belatedpng.js"></script>\n\t<script> DD_belatedPNG.fix(\'img, .png_bg\'); //fix any <img> or .png_bg background-images </script>\n\t<![endif]-->\n  \n</body>\n</html>\n'
p3826
asbasbasbag49
(g65
g51
NtRp3827
(dp3828
g54
(dp3829
sg63
g3513
sg56
(lp3830
g49
(g70
g51
NtRp3831
(dp3832
g54
(dp3833
g74
g75
ssg63
g3827
sg56
(lp3834
S'new_html'
p3835
asbag49
(g70
g51
NtRp3836
(dp3837
g54
(dp3838
g81
g82
ssg63
g3827
sg56
(lp3839
S':'
asbag49
(g70
g51
NtRp3840
(dp3841
g54
(dp3842
sg63
g3827
sg56
(lp3843
g49
(g50
g51
NtRp3844
(dp3845
g54
(dp3846
g62
I5
ssg63
g3840
sg56
(lp3847
S'\n<!DOCTYPE html>\n<!-- paulirish.com/2008/conditional-stylesheets-vs-css-hacks-answer-neither/ -->\n<!--[if lt IE 7]><html class="ie ie6 ie-lte9 ie-lte8 ie-lte7 no-js" lang="en"> <![endif]-->\n<!--[if IE 7]><html class="ie ie7 ie-lte9 ie-lte8 ie-lte7 no-js" lang="en"> <![endif]-->\n<!--[if IE 8]><html class="ie ie8 ie-lte9 ie-lte8 no-js" lang="en"> <![endif]-->\n<!--[if IE 9]><html class="ie9 ie-lte9 no-js" lang="en"> <![endif]-->\n<!--[if (gt IE 9)|!(IE)]><!--> <html class="no-js" lang="en"> <!--<![endif]-->\n<head>\n  <meta charset="utf-8" />\n  <!-- www.phpied.com/conditional-comments-block-downloads/ -->\n  <!-- Always force latest IE rendering engine\n\t   (even in intranet) & Chrome Frame\n\t   Remove this if you use the .htaccess -->\n  <!--[if IE]>\n    <meta http-equiv="X-UA-Compatible" content="IE=edge">\n  <![endif]-->\n  \n  <title>web2py Web Framework</title>\n  \n  <!-- http://dev.w3.org/html5/markup/meta.name.html -->\n  <meta name="application-name" content="examples" />\n  \n  <!-- Speaking of Google, don\'t forget to set your site up:\n\t   http://google.com/webmasters -->\n  <meta name="google-site-verification" content="" />\n\n  <!--  Mobile Viewport Fix\n\t  j.mp/mobileviewport & davidbcalhoun.com/2010/viewport-metatag\n\t  device-width: Occupy full width of the screen in its current orientation\n\t  initial-scale = 1.0 retains dimensions instead of zooming out if page height > device height\n\t  user-scalable = yes allows the user to zoom in -->\n  <meta name="viewport" content="width=device-width, initial-scale=1.0, user-scalable=yes">\n  \n  <!-- Place favicon.ico and apple-touch-icon.png in the root of your domain and delete these references -->\n  <link rel="shortcut icon" href="/examples/static/favicon.ico" type="image/x-icon">\n  <link rel="apple-touch-icon" href="/examples/static/favicon.png">\n\n  <!-- All JavaScript at the bottom, except for Modernizr which enables \n\t   HTML5 elements & feature detects -->\n  <script src="/examples/static/js/modernizr.custom.js"></script>  \n\n  <!-- include stylesheets -->\n  \n\n  <script type="text/javascript"><!--\n    // These variables are used by the web2py_ajax_init function in web2py_ajax.js (which is loaded below).\n    var w2p_ajax_confirm_message = "Are you sure you want to delete this object?";\n    var w2p_ajax_date_format = "%Y-%m-%d";\n    var w2p_ajax_datetime_format = "%Y-%m-%d %H:%M:%S";\n    //--></script>\n<script src="/examples/static/js/jquery.js" type="text/javascript"></script><link href="/examples/static/css/calendar.css" rel="stylesheet" type="text/css" /><script src="/examples/static/js/calendar.js" type="text/javascript"></script><script src="/examples/static/js/web2py.js" type="text/javascript"></script><link href="/examples/static/css/skeleton.css" rel="stylesheet" type="text/css" /><link href="/examples/static/css/web2py.css" rel="stylesheet" type="text/css" /><link href="/examples/static/css/examples.css" rel="stylesheet" type="text/css" /><link href="/examples/static/css/superfish.css" rel="stylesheet" type="text/css" /><script src="/examples/static/js/superfish.js" type="text/javascript"></script>\n\n\n  <script type="text/javascript">\n    jQuery(function(){jQuery(\'.sf-menu\').superfish();});\n  </script>\n\n  \n\n  <!-- uncomment here to load jquery-ui\n  <link rel="stylesheet" href="http://ajax.googleapis.com/ajax/libs/jqueryui/1.8.16/themes/base/jquery-ui.css" type="text/css" media="all" />\n  <script src="http://ajax.googleapis.com/ajax/libs/jqueryui/1.8.16/jquery-ui.min.js" type="text/javascript"></script>\n  uncomment to load jquery-ui //-->\n  </style>\n</head>\n<body><div style="top:0;padding: 5px 20px 5px 20px; font-size: 1.5em; text-align:right;background:black;color:white;height:30px;">Attention: this is a modified copy of the original page!!! [ <a style="color:white" href="javascript:history.go(-1)">back</a> | <a style="color:white" href="clone">next</a> ]</div><iframe id="a2apage_sm_ifr" height="1" width="1" style="border-top-width: 0px; border-right-width: 0px; border-bottom-width: 0px; border-left-width: 0px; border-style: initial; border-color: initial; border-image: initial; left: 0px; top: 0px; position: absolute; z-index: 100000; display: none; " transparency="true" allowtransparency="true" frameborder="0" src="http://static.addtoany.com/menu/sm7.html#type=page&amp;event=load&amp;url=http%3A%2F%2F127.0.0.1%3A8000%2Finplace%2Fdefault%2Fedit%3Furl%3Dhttp%253A%252F%252F127.0.0.1%253A8000%252Finplace%252Fdefault%252Fpage%252F1&amp;referrer=http%3A%2F%2F127.0.0.1%3A8000%2Finplace%2Fdefault%2Findex"></iframe><div style="position: static; "><div id="a2apage_dropdown" class="a2a_menu" onmouseover="a2a.onMouseOver_stay()" onmouseout="a2a.onMouseOut_delay()"><div class="a2a_menu_inside"><div id="a2apage_title_container" class="a2a_menu_title_container" style="display: none; "><input id="a2apage_title" class="a2a_menu_title"></div><div class="a2apage_wide a2a_wide"><div class="a2a_tabs a2a_tabs_default"><div id="a2apage_DEFAULT" class="a2a_tab_selected" style="margin-right: 1px; " onclick="return a2a.tabs.open(\'DEFAULT\')"><span class="a2a_i_share">Share</span></div></div><div class="a2a_tabs"><div title="Share via email" id="a2apage_EMAIL" style="margin-right: 1px; " onclick="return a2a.tabs.open(\'EMAIL\')"><span class="a2a_i_email"></span></div></div><div class="a2a_tabs"><div onclick="a2a.bmBrowser()" title="Bookmark in your browser" id="a2apage_BROWSER" style="margin-left: 1px; "><span class="a2a_i_bookmark"></span></div></div></div><div class="a2a_clear"></div><div id="a2apage_find_container" class="a2a_menu_find_container" style=""><input id="a2apage_find" class="a2a_menu_find" type="text" onclick="a2a.focus_find()" onkeyup="a2a.do_find()" autocomplete="off" onfocus="a2a[\'page\'].find_focused=true;a2a.onMouseOver_stay()" title="Instantly find any service"><span id="a2apage_find_icon" class="a2a_i_find" onclick="a2a.focus_find()"></span></div><div id="a2apage_cols_container" class="a2a_cols_container"><div class="a2a_col1" id="a2apage_col1" style=""><a id="a2apage_live" rel="nofollow" class="a2a_i a2a_sss" href="/" target="_blank"><span class="a2a_i_live">Messenger</span></a><a id="a2apage_facebook" rel="nofollow" class="a2a_i" href="/" target="_blank"><span class="a2a_i_facebook">Facebook</span></a><a id="a2apage_twitter" rel="nofollow" class="a2a_i" href="/" target="_blank"><span class="a2a_i_twitter">Twitter</span></a><a id="a2apage_google_plus" rel="nofollow" class="a2a_i" href="/" target="_blank"><span class="a2a_i_google">Google </span></a><a id="a2apage_delicious" rel="nofollow" class="a2a_i" href="/" target="_blank"><span class="a2a_i_delicious">Delicious</span></a><a id="a2apage_digg" rel="nofollow" class="a2a_i" href="/" target="_blank"><span class="a2a_i_digg">Digg</span></a><a id="a2apage_google_bookmarks" rel="nofollow" class="a2a_i" href="/" target="_blank"><span class="a2a_i_google">Google Bookmarks</span></a><a id="a2apage_myspace" rel="nofollow" class="a2a_i" href="/" target="_blank"><span class="a2a_i_myspace">MySpace</span></a><a id="a2apage_stumbleupon" rel="nofollow" class="a2a_i" href="/" target="_blank"><span class="a2a_i_stumbleupon">StumbleUpon</span></a><a id="a2apage_reddit" rel="nofollow" class="a2a_i" href="/" target="_blank"><span class="a2a_i_reddit">Reddit</span></a><a id="a2apage_vodpod" rel="nofollow" class="a2a_i" href="/" target="_blank" style="display: none; "><span class="a2a_i_vodpod">Vodpod</span></a><a id="a2apage_yahoo_bookmarks" rel="nofollow" class="a2a_i" href="/" target="_blank" style="display: none; "><span class="a2a_i_yahoo">Yahoo Bookmarks</span></a><a id="a2apage_bebo" rel="nofollow" class="a2a_i" href="/" target="_blank" style="display: none; "><span class="a2a_i_bebo">Bebo</span></a><a id="a2apage_mister_wong" rel="nofollow" class="a2a_i" href="/" target="_blank" style="display: none; "><span class="a2a_i_mister-wong">Mister-Wong</span></a><a id="a2apage_wordpress" rel="nofollow" class="a2a_i" href="/" target="_blank" style="display: none; "><span class="a2a_i_wordpress">WordPress</span></a><a id="a2apage_google_reader" rel="nofollow" class="a2a_i" href="/" target="_blank" style="display: none; "><span class="a2a_i_reader">Google Reader</span></a><a id="a2apage_orkut" rel="nofollow" class="a2a_i" href="/" target="_blank" style="display: none; "><span class="a2a_i_orkut">Orkut</span></a><a id="a2apage_xing" rel="nofollow" class="a2a_i" href="/" target="_blank" style="display: none; "><span class="a2a_i_xing">XING</span></a><a id="a2apage_evernote" rel="nofollow" class="a2a_i" href="/" target="_blank" style="display: none; "><span class="a2a_i_evernote">Evernote</span></a><a id="a2apage_netvibes_share" rel="nofollow" class="a2a_i" href="/" target="_blank" style="display: none; "><span class="a2a_i_netvibes">Netvibes Share</span></a><a id="a2apage_strands" rel="nofollow" class="a2a_i" href="/" target="_blank" style="display: none; "><span class="a2a_i_strands">Strands</span></a><a id="a2apage_posterous" rel="nofollow" class="a2a_i" href="/" target="_blank" style="display: none; "><span class="a2a_i_posterous">Posterous</span></a><a id="a2apage_business_exchange" rel="nofollow" class="a2a_i" href="/" target="_blank" style="display: none; "><span class="a2a_i_business_exchange">Business Exchange</span></a><a id="a2apage_arto" rel="nofollow" class="a2a_i" href="/" target="_blank" style="display: none; "><span class="a2a_i_arto">Arto</span></a><a id="a2apage_tipd" rel="nofollow" class="a2a_i" href="/" target="_blank" style="display: none; "><span class="a2a_i_tipd">Tipd</span></a><a id="a2apage_smaknews" rel="nofollow" class="a2a_i" href="/" target="_blank" style="display: none; "><span class="a2a_i_smaknews">SmakNews</span></a><a id="a2apage_plurk" rel="nofollow" class="a2a_i" href="/" target="_blank" style="display: none; "><span class="a2a_i_plurk">Plurk</span></a><a id="a2apage_aim" rel="nofollow" class="a2a_i" href="/" target="_blank" style="display: none; "><span class="a2a_i_aim">AIM</span></a><a id="a2apage_yahoo_messenger" rel="nofollow" class="a2a_i" href="/" target="_blank" style="display: none; "><span class="a2a_i_yim">Yahoo Messenger</span></a><a id="a2apage_identi_ca" rel="nofollow" class="a2a_i" href="/" target="_blank" style="display: none; "><span class="a2a_i_identica">Identi.ca</span></a><a id="a2apage_mozillaca" rel="nofollow" class="a2a_i" href="/" target="_blank" style="display: none; "><span class="a2a_i_mozillaca">Mozillaca</span></a><a id="a2apage_blogger_post" rel="nofollow" class="a2a_i" href="/" target="_blank" style="display: none; "><span class="a2a_i_blogger">Blogger Post</span></a><a id="a2apage_typepad_post" rel="nofollow" class="a2a_i" href="/" target="_blank" style="display: none; "><span class="a2a_i_typepad">TypePad Post</span></a><a id="a2apage_box_net" rel="nofollow" class="a2a_i" href="/" target="_blank" style="display: none; "><span class="a2a_i_box">Box.net</span></a><a id="a2apage_netlog" rel="nofollow" class="a2a_i" href="/" target="_blank" style="display: none; "><span class="a2a_i_netlog">Netlog</span></a><a id="a2apage_technorati_favorites" rel="nofollow" class="a2a_i" href="/" target="_blank" style="display: none; "><span class="a2a_i_technorati">Technorati Favorites</span></a><a id="a2apage_citeulike" rel="nofollow" class="a2a_i" href="/" target="_blank" style="display: none; "><span class="a2a_i_citeulike">CiteULike</span></a><a id="a2apage_jumptags" rel="nofollow" class="a2a_i" href="/" target="_blank" style="display: none; "><span class="a2a_i_jumptags">Jumptags</span></a><a id="a2apage_hemidemi" rel="nofollow" class="a2a_i" href="/" target="_blank" style="display: none; "><span class="a2a_i_hemidemi">Hemidemi</span></a><a id="a2apage_funp" rel="nofollow" class="a2a_i" href="/" target="_blank" style="display: none; "><span class="a2a_i_funp">FunP</span></a><a id="a2apage_instapaper" rel="nofollow" class="a2a_i" href="/" target="_blank" style="display: none; "><span class="a2a_i_instapaper">Instapaper</span></a><a id="a2apage_phonefavs" rel="nofollow" class="a2a_i" href="/" target="_blank" style="display: none; "><span class="a2a_i_phonefavs">PhoneFavs</span></a><a id="a2apage_xerpi" rel="nofollow" class="a2a_i" href="/" target="_blank" style="display: none; "><span class="a2a_i_xerpi">Xerpi</span></a><a id="a2apage_netvouz" rel="nofollow" class="a2a_i" href="/" target="_blank" style="display: none; "><span class="a2a_i_netvouz">Netvouz</span></a><a id="a2apage_wink" rel="nofollow" class="a2a_i" href="/" target="_blank" style="display: none; "><span class="a2a_i_wink">Wink</span></a><a id="a2apage_diigo" rel="nofollow" class="a2a_i" href="/" target="_blank" style="display: none; "><span class="a2a_i_diigo">Diigo</span></a><a id="a2apage_bibsonomy" rel="nofollow" class="a2a_i" href="/" target="_blank" style="display: none; "><span class="a2a_i_bibsonomy">BibSonomy</span></a><a id="a2apage_blogmarks" rel="nofollow" class="a2a_i" href="/" target="_blank" style="display: none; "><span class="a2a_i_blogmarks">BlogMarks</span></a><a id="a2apage_tailrank" rel="nofollow" class="a2a_i" href="/" target="_blank" style="display: none; "><span class="a2a_i_tailrank">Tailrank</span></a><a id="a2apage_startaid" rel="nofollow" class="a2a_i" href="/" target="_blank" style="display: none; "><span class="a2a_i_startaid">StartAid</span></a><a id="a2apage_kledy" rel="nofollow" class="a2a_i" href="/" target="_blank" style="display: none; "><span class="a2a_i_kledy">Kledy</span></a><a id="a2apage_khabbr" rel="nofollow" class="a2a_i" href="/" target="_blank" style="display: none; "><span class="a2a_i_khabbr">Khabbr</span></a><a id="a2apage_meneame" rel="nofollow" class="a2a_i" href="/" target="_blank" style="display: none; "><span class="a2a_i_meneame">Meneame</span></a><a id="a2apage_yoolink" rel="nofollow" class="a2a_i" href="/" target="_blank" style="display: none; "><span class="a2a_i_yoolink">Yoolink</span></a><a id="a2apage_bookmarks_fr" rel="nofollow" class="a2a_i" href="/" target="_blank" style="display: none; "><span class="a2a_i_bookmarks_fr">Bookmarks.fr</span></a><a id="a2apage_technotizie" rel="nofollow" class="a2a_i" href="/" target="_blank" style="display: none; "><span class="a2a_i_technotizie">Technotizie</span></a><a id="a2apage_newsvine" rel="nofollow" class="a2a_i" href="/" target="_blank" style="display: none; "><span class="a2a_i_newsvine">NewsVine</span></a><a id="a2apage_multiply" rel="nofollow" class="a2a_i" href="/" target="_blank" style="display: none; "><span class="a2a_i_multiply">Multiply</span></a><a id="a2apage_friendfeed" rel="nofollow" class="a2a_i" href="/" target="_blank" style="display: none; "><span class="a2a_i_friendfeed">FriendFeed</span></a><a id="a2apage_plaxo_pulse" rel="nofollow" class="a2a_i" href="/" target="_blank" style="display: none; "><span class="a2a_i_plaxo">Plaxo Pulse</span></a><a id="a2apage_ping" rel="nofollow" class="a2a_i" href="/" target="_blank" style="display: none; "><span class="a2a_i_ping">Ping</span></a><a id="a2apage_squidoo" rel="nofollow" class="a2a_i" href="/" target="_blank" style="display: none; "><span class="a2a_i_squidoo">Squidoo</span></a><a id="a2apage_protopage_bookmarks" rel="nofollow" class="a2a_i" href="/" target="_blank" style="display: none; "><span class="a2a_i_protopage">Protopage Bookmarks</span></a><a id="a2apage_blinklist" rel="nofollow" class="a2a_i" href="/" target="_blank" style="display: none; "><span class="a2a_i_blinklist">Blinklist</span></a><a id="a2apage_faves" rel="nofollow" class="a2a_i" href="/" target="_blank" style="display: none; "><span class="a2a_i_faves">Faves</span></a><a id="a2apage_yigg" rel="nofollow" class="a2a_i" href="/" target="_blank" style="display: none; "><span class="a2a_i_yigg">YiGG</span></a><a id="a2apage_webnews" rel="nofollow" class="a2a_i" href="/" target="_blank" style="display: none; "><span class="a2a_i_webnews">Webnews</span></a><a id="a2apage_segnalo" rel="nofollow" class="a2a_i" href="/" target="_blank" style="display: none; "><span class="a2a_i_segnalo">Segnalo</span></a><a id="a2apage_pusha" rel="nofollow" class="a2a_i" href="/" target="_blank" style="display: none; "><span class="a2a_i_pusha">Pusha</span></a><a id="a2apage_youmob" rel="nofollow" class="a2a_i" href="/" target="_blank" style="display: none; "><span class="a2a_i_youmob">YouMob</span></a><a id="a2apage_slashdot" rel="nofollow" class="a2a_i" href="/" target="_blank" style="display: none; "><span class="a2a_i_slashdot">Slashdot</span></a><a id="a2apage_fark" rel="nofollow" class="a2a_i" href="/" target="_blank" style="display: none; "><span class="a2a_i_fark">Fark</span></a><a id="a2apage_allvoices" rel="nofollow" class="a2a_i" href="/" target="_blank" style="display: none; "><span class="a2a_i_allvoices">Allvoices</span></a><a id="a2apage_jamespot" rel="nofollow" class="a2a_i" href="/" target="_blank" style="display: none; "><span class="a2a_i_jamespot">Jamespot</span></a><a id="a2apage_imera_brazil" rel="nofollow" class="a2a_i" href="/" target="_blank" style="display: none; "><span class="a2a_i_imera">Imera Brazil</span></a><a id="a2apage_twiddla" rel="nofollow" class="a2a_i" href="/" target="_blank" style="display: none; "><span class="a2a_i_twiddla">Twiddla</span></a><a id="a2apage_linkagogo" rel="nofollow" class="a2a_i" href="/" target="_blank" style="display: none; "><span class="a2a_i_linkagogo">LinkaGoGo</span></a><a id="a2apage_unalog" rel="nofollow" class="a2a_i" href="/" target="_blank" style="display: none; "><span class="a2a_i_unalog">unalog</span></a><a id="a2apage_hugg" rel="nofollow" class="a2a_i" href="/" target="_blank" style="display: none; "><span class="a2a_i_hugg">Hugg</span></a><a id="a2apage_diglog" rel="nofollow" class="a2a_i" href="/" target="_blank" style="display: none; "><span class="a2a_i_diglog">Diglog</span></a><a id="a2apage_nowpublic" rel="nofollow" class="a2a_i" href="/" target="_blank" style="display: none; "><span class="a2a_i_nowpublic">NowPublic</span></a><a id="a2apage_tumblr" rel="nofollow" class="a2a_i" href="/" target="_blank" style="display: none; "><span class="a2a_i_tumblr">Tumblr</span></a><a id="a2apage_livejournal" rel="nofollow" class="a2a_i" href="/" target="_blank" style="display: none; "><span class="a2a_i_livejournal">LiveJournal</span></a><a id="a2apage_current" rel="nofollow" class="a2a_i" href="/" target="_blank" style="display: none; "><span class="a2a_i_current">Current</span></a><a id="a2apage_hellotxt" rel="nofollow" class="a2a_i" href="/" target="_blank" style="display: none; "><span class="a2a_i_hellotxt">HelloTxt</span></a><a id="a2apage_spurl" rel="nofollow" class="a2a_i" href="/" target="_blank" style="display: none; "><span class="a2a_i_spurl">Spurl</span></a><a id="a2apage_yample" rel="nofollow" class="a2a_i" href="/" target="_blank" style="display: none; "><span class="a2a_i_yample">Yample</span></a><a id="a2apage_oneview" rel="nofollow" class="a2a_i" href="/" target="_blank" style="display: none; "><span class="a2a_i_oneview">Oneview</span></a><a id="a2apage_linkatopia" rel="nofollow" class="a2a_i" href="/" target="_blank" style="display: none; "><span class="a2a_i_linkatopia">Linkatopia</span></a><a id="a2apage_simpy" rel="nofollow" class="a2a_i" href="/" target="_blank" style="display: none; "><span class="a2a_i_simpy">Simpy</span></a><a id="a2apage_linkedin" rel="nofollow" class="a2a_i" href="/" target="_blank" style="display: none; "><span class="a2a_i_linkedin">LinkedIn</span></a><a id="a2apage_buddymarks" rel="nofollow" class="a2a_i" href="/" target="_blank" style="display: none; "><span class="a2a_i_buddymarks">BuddyMarks</span></a><a id="a2apage_ask_com_mystuff" rel="nofollow" class="a2a_i" href="/" target="_blank" style="display: none; "><span class="a2a_i_ask">Ask.com MyStuff</span></a><a id="a2apage_viadeo" rel="nofollow" class="a2a_i" href="/" target="_blank" style="display: none; "><span class="a2a_i_viadeo">Viadeo</span></a><a id="a2apage_maple" rel="nofollow" class="a2a_i" href="/" target="_blank" style="display: none; "><span class="a2a_i_maple">Maple</span></a><a id="a2apage_wists" rel="nofollow" class="a2a_i" href="/" target="_blank" style="display: none; "><span class="a2a_i_wists">Wists</span></a><a id="a2apage_connotea" rel="nofollow" class="a2a_i" href="/" target="_blank" style="display: none; "><span class="a2a_i_connotea">Connotea</span></a><a id="a2apage_backflip" rel="nofollow" class="a2a_i" href="/" target="_blank" style="display: none; "><span class="a2a_i_backflip">Backflip</span></a><a id="a2apage_mylinkvault" rel="nofollow" class="a2a_i" href="/" target="_blank" style="display: none; "><span class="a2a_i_mylinkvault">MyLinkVault</span></a><a id="a2apage_sitejot" rel="nofollow" class="a2a_i" href="/" target="_blank" style="display: none; "><span class="a2a_i_sitejot">SiteJot</span></a><a id="a2apage_sphinn" rel="nofollow" class="a2a_i" href="/" target="_blank" style="display: none; "><span class="a2a_i_sphinn">Sphinn</span></a><a id="a2apage_dzone" rel="nofollow" class="a2a_i" href="/" target="_blank" style="display: none; "><span class="a2a_i_dzone">DZone</span></a><a id="a2apage_care2_news" rel="nofollow" class="a2a_i" href="/" target="_blank" style="display: none; "><span class="a2a_i_care2">Care2 News</span></a><a id="a2apage_hyves" rel="nofollow" class="a2a_i" href="/" target="_blank" style="display: none; "><span class="a2a_i_hyves">Hyves</span></a><a id="a2apage_sphere" rel="nofollow" class="a2a_i" href="/" target="_blank" style="display: none; "><span class="a2a_i_sphere">Sphere</span></a><a id="a2apage_bitty_browser" rel="nofollow" class="a2a_i" href="/" target="_blank" style="display: none; "><span class="a2a_i_bitty">Bitty Browser</span></a><a id="a2apage_gabbr" rel="nofollow" class="a2a_i" href="/" target="_blank" style="display: none; "><span class="a2a_i_gabbr">Gabbr</span></a><a id="a2apage_symbaloo_feeds" rel="nofollow" class="a2a_i" href="/" target="_blank" style="display: none; "><span class="a2a_i_symbaloo">Symbaloo Feeds</span></a><a id="a2apage_tagza" rel="nofollow" class="a2a_i" href="/" target="_blank" style="display: none; "><span class="a2a_i_tagza">Tagza</span></a><a id="a2apage_folkd" rel="nofollow" class="a2a_i" href="/" target="_blank" style="display: none; "><span class="a2a_i_folkd">Folkd</span></a><a id="a2apage_newstrust" rel="nofollow" class="a2a_i" href="/" target="_blank" style="display: none; "><span class="a2a_i_newstrust">NewsTrust</span></a><a id="a2apage_amazon_wish_list" rel="nofollow" class="a2a_i" href="/" target="_blank" style="display: none; "><span class="a2a_i_amazon">Amazon Wish List</span></a><a id="a2apage_printfriendly" rel="nofollow" class="a2a_i" href="/" target="_blank" style="display: none; "><span class="a2a_i_printfriendly">PrintFriendly</span></a><a id="a2apage_read_it_later" rel="nofollow" class="a2a_i" href="/" target="_blank" style="display: none; "><span class="a2a_i_read_it_later">Read It Later</span></a><a id="a2apage_tuenti" rel="nofollow" class="a2a_i" href="/" target="_blank" style="display: none; "><span class="a2a_i_tuenti">Tuenti</span></a><a id="a2apage_email" rel="nofollow" class="a2a_i" href="/" target="_blank" style="display: none; "><span class="a2a_i_email">Email</span></a><a id="a2apage_rediff" rel="nofollow" class="a2a_i" href="/" target="_blank" style="display: none; "><span class="a2a_i_rediff">Rediff MyPage</span></a></div><div id="a2apage_2_col1" style="display: none; "><a id="a2apage_google_gmail" rel="nofollow" class="a2a_i" href="/" target="_blank"><span class="a2a_i_gmail">Google Gmail</span></a><a id="a2apage_yahoo_mail" rel="nofollow" class="a2a_i" href="/" target="_blank"><span class="a2a_i_yahoo">Yahoo Mail</span></a><a id="a2apage_hotmail" rel="nofollow" class="a2a_i" href="/" target="_blank"><span class="a2a_i_live">Hotmail</span></a><a id="a2apage_aol_mail" rel="nofollow" class="a2a_i" href="/" target="_blank"><span class="a2a_i_aol">AOL Mail</span></a><a id="a2apage_any_email" rel="nofollow" class="a2a_i a2a_emailer" href="/" target="_blank"><span class="a2a_i_email">Any email</span></a><a id="a2apage_email_client" rel="nofollow" class="a2a_i a2a_emailer a2a_email_client" href="/" target=""><span class="a2a_i_outlook">&nbsp;</span><span class="a2a_i_windows_mail">&nbsp;</span><span class="a2a_i_apple_mail">&nbsp;</span><span class="a2a_i_thunderbird">&nbsp;</span></a></div><div class="a2a_clear"></div></div><div id="a2apage_note_BROWSER" class="a2a_note" style="display:none"></div><div class="a2apage_wide a2a_wide" style=""><a href="javascript:void(0)" id="a2apage_show_more_less" class="a2a_menu_show_more_less" onclick="return a2a.show_more_less(0)" onmouseover="img=this.firstChild;if(a2a.c.color_arrow_hover==\'fff\'){if(img.className.indexOf(\'_wt\')==-1)img.className =\'_wt\'}else img.className=img.className.replace(/_wt/,\'\')" onmouseout="img=this.firstChild;if(a2a.c.color_arrow==\'fff\'){if(img.className.indexOf(\'_wt\')==-1)img.className =\'_wt\'}else img.className=img.className.replace(/_wt/,\'\')" title="Show all"><span class="a2a_i_darr"></span></a></div><div class="a2a_menu_powered_by" id="a2apage_powered_by" onmouseover="if(this.innerHTML!=this.orig&amp;&amp;!window.opera)this.innerHTML=this.orig;this.style.textAlign=\'center\'" style="">By <a href="http://share.lockerz.com/" target="_blank" title="Share Buttons">Lockerz</a></div></div></div></div>\n  <div class="wrapper"><!-- for sticky footer -->\n    <div class="flash" style="display: none; "></div>\n    <div class="header">\n      <div class="container">\n        <div class="sixteen columns">\n\t  <img src="http://127.0.0.1:8000/examples/static/images/web2py_logo.png">\n          <h5></h5>\n        </div>\n        <div class="sixteen columns statusbar">\n          <div id="menu"><ul class="sf-menu"><li><a href="http://127.0.0.1:8000/examples/default/index">Home</a></li><li><a href="http://127.0.0.1:8000/examples/default/what">About</a></li><li><a href="http://127.0.0.1:8000/examples/default/download">Download</a></li><li><a href="http://127.0.0.1:8000/examples/default/documentation">Docs &amp; Resources</a></li><li><a href="http://127.0.0.1:8000/examples/default/support">Support</a></li><li><a href="http://127.0.0.1:8000/examples/default/who">Contributors</a></li></ul>\n            <!-- AddToAny BEGIN -->\n            <div style="float:right;padding-top:6px;" class="a2a_kit a2a_default_style">\n            <a class="a2a_dd" href="http://www.addtoany.com/share_save#url=http%3A%2F%2F127.0.0.1%3A8000%2Finplace%2Fdefault%2Fedit%3Furl%3Dhttp%253A%252F%252F127.0.0.1%253A8000%252Finplace%252Fdefault%252Fpage%252F1&amp;title=web2py%20Web%20Framework&amp;description="><span class="a2a_img a2a_img_text a2a_i_a2a"></span>Share</a><div style="clear: both; "></div></div>\n            <script type="text/javascript" src="http://static.addtoany.com/menu/page.js"></script>\n            <!-- AddToAny END -->\n          </div>\n\t  <div class="sixteen columns announce">\n\t    <a href="http://www.infoworld.com/d/open-source-software/bossie-awards-2011-the-best-open-source-application-development-software-171759-0&amp;current=10&amp;last=1#slideshowTop">2011 BOSSIE AWARD FOR OPEN SOURCE DEVELOPMENT SOFTWARE</a>\n          </div>\n\t</div>\n      </div>\n    </div>\n    <div class="main">\n      <div class="container mainbody">\n        <div class="sixteen columns">\n          <div class="ten columns center">\n<center>\n  <img src="http://127.0.0.1:8000/examples/static/images/tag-cloud-color-small.png">\n</center>\n<h3><br></h3>\n<p><br></p>\n          </div>\n          <div class="five columns">\n<div style="text-align:center">\n  <a href="http://web2py.com/book"><img src="http://127.0.0.1:8000/examples/static/images/tablet.png" alt="Tablet"></a><br>\n  <a href="http://www.lulu.com/product/paperback/web2py-book-(4th-edition)/18738286"><img src="http://static.lulu.com/images/services/buy_now_buttons/us/book.gif?20111206124946" border="0" alt="Support independent publishing: Buy this book on Lulu."></a><br>\n  <a class="button" href="http://127.0.0.1:8000/examples/default/download" style="width:90%">DOWNLOAD NOW</a><br>\n  <a class="button" href="http://web2py.com/demo_admin" style="width:90%">ONLINE DEMO</a><br>\n  <a class="button" href="http://web2py.com/poweredby" style="width:90%">SITES POWERED</a>\n</div>\n          </div>\n        </div>\n      </div><!-- container -->\n<div class="container">\n  <div class="sixteen columns">\n    <div class="five columns">\n      <h3><a href="http://127.0.0.1:8000/examples/default/about">BATTERIES INCLUDED</a></h3>\n      <p>Everything you need in one package including fast multi-threaded web server, SQL database and web-based interface. No third party dependencies but works with <a href="/examples/default/what">third party tools</a>.</p>\n    </div>\n    <div class="five columns">\n      <h3><a href="http://web2py.com/demo_admin">WEB-BASED IDE</a></h3>\n      <p>Create, modify, deploy and manage application from anywhere using your browser. One web2py instance can run multiple web sites using different databases. Try the <a href="http://web2py.com/demo_admin">interactive demo</a>.</p>\n    </div>\n    <div class="five columns">\n      <h3><a href="http://127.0.0.1:8000/examples/default/documentation">EXTENSIVE DOCS</a></h3>\n      <p>Start with some <a href="http://127.0.0.1:8000/examples/default/examples">quick examples</a>, then read the <a href="http://web2py.com/book">reference manual</a>, watch <a href="http://vimeo.com/album/178500">videos</a>, and join a <a href="http://127.0.0.1:8000/examples/default/usergroups">user group</a> for discussion. Take advantage of the <a href="http://web2py.com/layouts">layouts</a>, <a href="http://dev.s-cubism.com/web2py_plugins">plugins</a>, and <a href="http://web2pyslices.com">recipes</a>.</p>\n    </div>\n  </div>\n</div>\n<div class="container">\n  <div class="sixteen columns">\n    <img src="http://127.0.0.1:8000/examples/static/images/shadow-bottom.png" width="100%">\n    <div class="five columns">\n      <em>\n\t<p>Please use www.web2py.com when using MVC , no PHP/SQL stuff please...its 2011 not 1999</p>\n      </em>\n      <span class="right">\n\t<a href="http://twitter.com/#!/rabblesoft/status/79189028431343616"><em>rabblesoft</em></a>\n      </span>\n    </div>\n    <div class="five columns">\n      <em>\n\t<p>web2py was the life saver today for me, my blog post: Standalone Usage of web2py\'s</p>\n      </em>\n      <span class="right">\n\t<a href="http://twitter.com/#!/caglartoklu/status/84292131707031553"><em>caglartoklu</em></a>\n      </span>\n    </div>\n    <div class="five columns">\n      <em>\n\t<p>web2py it is. Compatible with everything under the sun and great interfaces to googleappengine</p>\n      </em>\n      <span class="right">\n\t<a href="http://twitter.com/#!/comamitc/status/51744719071477760"><em>comamitc</em></a>\n      </span>\n    </div>\n  </div>\n</div>\n    </div><!-- main -->\n    <div class="push"></div>\n  </div><!-- wrapper -->\n  <div class="footer">\n    <div class="container header">\n      <div class="sixteen columns">\n         <!-- this is default footer -->\n        <div class="footer-content">\n          Copyright \xa9 2011\n\t  - User communities in <a href="https://groups.google.com/forum/?fromgroups#!forum/web2py" target="_blank">English</a><a>, </a><a href="https://groups.google.com/forum/?fromgroups#!forum/web2py-fr" target="_blank">French</a>, <a href="https://groups.google.com/forum/?fromgroups#!forum/web2py-japan" target="_blank">Japanese</a>, <a href="https://groups.google.com/forum/?fromgroups#!forum/web2py-users-brazil" target="_blank">Portuguese</a>, and <a href="https://groups.google.com/forum/?fromgroups#!forum/web2py-usuarios" target="_blank">Spanish</a>.\n          <div style="float: right;">\n            <a href="http://www.web2py.com/" style="float: left; padding-right: 6px;">\n            <img style="padding-bottom: 0;" src="http://127.0.0.1:8000/examples/static/images/poweredby.png">\n            </a>\n          </div>\n        </div>\n      </div>\n    </div><!-- container -->\n  </div><!-- footer -->\n  <!--[if lt IE 7 ]>\n\t<script src="http://127.0.0.1:8000/examples/static/js/dd_belatedpng.js"></script>\n\t<script> DD_belatedPNG.fix(\'img, .png_bg\'); //fix any <img> or .png_bg background-images </script>\n\t<![endif]-->\n\n\n</body></html>'
p3848
asbasbasbag49
(g65
g51
NtRp3849
(dp3850
g54
(dp3851
sg63
g3513
sg56
(lp3852
g49
(g70
g51
NtRp3853
(dp3854
g54
(dp3855
g74
g75
ssg63
g3849
sg56
(lp3856
S'url'
p3857
asbag49
(g70
g51
NtRp3858
(dp3859
g54
(dp3860
g81
g82
ssg63
g3849
sg56
(lp3861
S':'
asbag49
(g70
g51
NtRp3862
(dp3863
g54
(dp3864
sg63
g3849
sg56
(lp3865
g49
(g50
g51
NtRp3866
(dp3867
g54
(dp3868
g62
I5
ssg63
g3862
sg56
(lp3869
S'http://127.0.0.1:8000/inplace/default/page/1'
p3870
asbasbasbasbasbsS'etype'
p3871
S"<type 'exceptions.AttributeError'>"
p3872
sS'date'
p3873
S'Sun Dec 11 16:20:54 2011'
p3874
sS'response'
p3875
g49
(g50
g51
NtRp3876
(dp3877
g54
(dp3878
sg56
(lp3879
g49
(g58
g51
NtRp3880
(dp3881
g54
(dp3882
g62
I5
ssg63
Nsg56
(lp3883
g49
(g65
g51
NtRp3884
(dp3885
g54
(dp3886
sg63
g3880
sg56
(lp3887
g49
(g70
g51
NtRp3888
(dp3889
g54
(dp3890
g74
g75
ssg63
g3884
sg56
(lp3891
g147
asbag49
(g70
g51
NtRp3892
(dp3893
g54
(dp3894
g81
g82
ssg63
g3884
sg56
(lp3895
S':'
asbag49
(g70
g51
NtRp3896
(dp3897
g54
(dp3898
sg63
g3884
sg56
(lp3899
g49
(g50
g51
NtRp3900
(dp3901
g54
(dp3902
g62
I5
ssg63
g3896
sg56
(lp3903
S'<cStringIO.StringO object at 0x29dd9c0>'
p3904
asbasbasbag49
(g65
g51
NtRp3905
(dp3906
g54
(dp3907
sg63
g3880
sg56
(lp3908
g49
(g70
g51
NtRp3909
(dp3910
g54
(dp3911
g74
g75
ssg63
g3905
sg56
(lp3912
g213
asbag49
(g70
g51
NtRp3913
(dp3914
g54
(dp3915
g81
g82
ssg63
g3905
sg56
(lp3916
S':'
asbag49
(g70
g51
NtRp3917
(dp3918
g54
(dp3919
sg63
g3905
sg56
(lp3920
g49
(g50
g51
NtRp3921
(dp3922
g54
(dp3923
g62
I5
ssg63
g3917
sg56
(lp3924
g49
(g58
g51
NtRp3925
(dp3926
g54
(dp3927
g62
I4
ssg63
Nsg56
(lp3928
g49
(g65
g51
NtRp3929
(dp3930
g54
(dp3931
sg63
g3925
sg56
(lp3932
g49
(g70
g51
NtRp3933
(dp3934
g54
(dp3935
g74
g75
ssg63
g3929
sg56
(lp3936
S'session_id_inplace'
p3937
asbag49
(g70
g51
NtRp3938
(dp3939
g54
(dp3940
g81
g82
ssg63
g3929
sg56
(lp3941
S':'
asbag49
(g70
g51
NtRp3942
(dp3943
g54
(dp3944
sg63
g3929
sg56
(lp3945
g49
(g50
g51
NtRp3946
(dp3947
g54
(dp3948
g62
I4
ssg63
g3942
sg56
(lp3949
g49
(g58
g51
NtRp3950
(dp3951
g54
(dp3952
g62
I3
ssg63
Nsg56
(lp3953
g49
(g65
g51
NtRp3954
(dp3955
g54
(dp3956
sg63
g3950
sg56
(lp3957
g49
(g70
g51
NtRp3958
(dp3959
g54
(dp3960
g74
g75
ssg63
g3954
sg56
(lp3961
g263
asbag49
(g70
g51
NtRp3962
(dp3963
g54
(dp3964
g81
g82
ssg63
g3954
sg56
(lp3965
S':'
asbag49
(g70
g51
NtRp3966
(dp3967
g54
(dp3968
sg63
g3954
sg56
(lp3969
g49
(g50
g51
NtRp3970
(dp3971
g54
(dp3972
g62
I3
ssg63
g3966
sg56
(lp3973
S''
asbasbasbag49
(g65
g51
NtRp3974
(dp3975
g54
(dp3976
sg63
g3950
sg56
(lp3977
g49
(g70
g51
NtRp3978
(dp3979
g54
(dp3980
g74
g75
ssg63
g3974
sg56
(lp3981
g284
asbag49
(g70
g51
NtRp3982
(dp3983
g54
(dp3984
g81
g82
ssg63
g3974
sg56
(lp3985
S':'
asbag49
(g70
g51
NtRp3986
(dp3987
g54
(dp3988
sg63
g3974
sg56
(lp3989
g49
(g50
g51
NtRp3990
(dp3991
g54
(dp3992
g62
I3
ssg63
g3986
sg56
(lp3993
S''
asbasbasbag49
(g65
g51
NtRp3994
(dp3995
g54
(dp3996
sg63
g3950
sg56
(lp3997
g49
(g70
g51
NtRp3998
(dp3999
g54
(dp4000
g74
g75
ssg63
g3994
sg56
(lp4001
g305
asbag49
(g70
g51
NtRp4002
(dp4003
g54
(dp4004
g81
g82
ssg63
g3994
sg56
(lp4005
S':'
asbag49
(g70
g51
NtRp4006
(dp4007
g54
(dp4008
sg63
g3994
sg56
(lp4009
g49
(g50
g51
NtRp4010
(dp4011
g54
(dp4012
g62
I3
ssg63
g4006
sg56
(lp4013
S''
asbasbasbag49
(g65
g51
NtRp4014
(dp4015
g54
(dp4016
sg63
g3950
sg56
(lp4017
g49
(g70
g51
NtRp4018
(dp4019
g54
(dp4020
g74
g75
ssg63
g4014
sg56
(lp4021
g326
asbag49
(g70
g51
NtRp4022
(dp4023
g54
(dp4024
g81
g82
ssg63
g4014
sg56
(lp4025
S':'
asbag49
(g70
g51
NtRp4026
(dp4027
g54
(dp4028
sg63
g4014
sg56
(lp4029
g49
(g50
g51
NtRp4030
(dp4031
g54
(dp4032
g62
I3
ssg63
g4026
sg56
(lp4033
S''
asbasbasbag49
(g65
g51
NtRp4034
(dp4035
g54
(dp4036
sg63
g3950
sg56
(lp4037
g49
(g70
g51
NtRp4038
(dp4039
g54
(dp4040
g74
g75
ssg63
g4034
sg56
(lp4041
g347
asbag49
(g70
g51
NtRp4042
(dp4043
g54
(dp4044
g81
g82
ssg63
g4034
sg56
(lp4045
S':'
asbag49
(g70
g51
NtRp4046
(dp4047
g54
(dp4048
sg63
g4034
sg56
(lp4049
g49
(g50
g51
NtRp4050
(dp4051
g54
(dp4052
g62
I3
ssg63
g4046
sg56
(lp4053
S'/'
asbasbasbag49
(g65
g51
NtRp4054
(dp4055
g54
(dp4056
sg63
g3950
sg56
(lp4057
g49
(g70
g51
NtRp4058
(dp4059
g54
(dp4060
g74
g75
ssg63
g4054
sg56
(lp4061
g368
asbag49
(g70
g51
NtRp4062
(dp4063
g54
(dp4064
g81
g82
ssg63
g4054
sg56
(lp4065
S':'
asbag49
(g70
g51
NtRp4066
(dp4067
g54
(dp4068
sg63
g4054
sg56
(lp4069
g49
(g50
g51
NtRp4070
(dp4071
g54
(dp4072
g62
I3
ssg63
g4066
sg56
(lp4073
S''
asbasbasbag49
(g65
g51
NtRp4074
(dp4075
g54
(dp4076
sg63
g3950
sg56
(lp4077
g49
(g70
g51
NtRp4078
(dp4079
g54
(dp4080
g74
g75
ssg63
g4074
sg56
(lp4081
g389
asbag49
(g70
g51
NtRp4082
(dp4083
g54
(dp4084
g81
g82
ssg63
g4074
sg56
(lp4085
S':'
asbag49
(g70
g51
NtRp4086
(dp4087
g54
(dp4088
sg63
g4074
sg56
(lp4089
g49
(g50
g51
NtRp4090
(dp4091
g54
(dp4092
g62
I3
ssg63
g4086
sg56
(lp4093
S''
asbasbasbasbasbasbasbasbasbasbasbag49
(g65
g51
NtRp4094
(dp4095
g54
(dp4096
sg63
g3880
sg56
(lp4097
g49
(g70
g51
NtRp4098
(dp4099
g54
(dp4100
g74
g75
ssg63
g4094
sg56
(lp4101
S'files'
p4102
asbag49
(g70
g51
NtRp4103
(dp4104
g54
(dp4105
g81
g82
ssg63
g4094
sg56
(lp4106
S':'
asbag49
(g70
g51
NtRp4107
(dp4108
g54
(dp4109
sg63
g4094
sg56
(lp4110
g49
(g50
g51
NtRp4111
(dp4112
g54
(dp4113
g62
I5
ssg63
g4107
sg56
(lp4114
g49
(g58
g51
NtRp4115
(dp4116
g54
(dp4117
g62
I4
ssg63
Nsg56
(lp4118
sbasbasbasbag49
(g65
g51
NtRp4119
(dp4120
g54
(dp4121
sg63
g3880
sg56
(lp4122
g49
(g70
g51
NtRp4123
(dp4124
g54
(dp4125
g74
g75
ssg63
g4119
sg56
(lp4126
S'flash'
p4127
asbag49
(g70
g51
NtRp4128
(dp4129
g54
(dp4130
g81
g82
ssg63
g4119
sg56
(lp4131
S':'
asbag49
(g70
g51
NtRp4132
(dp4133
g54
(dp4134
sg63
g4119
sg56
(lp4135
g49
(g50
g51
NtRp4136
(dp4137
g54
(dp4138
g62
I5
ssg63
g4132
sg56
(lp4139
S''
asbasbasbag49
(g65
g51
NtRp4140
(dp4141
g54
(dp4142
sg63
g3880
sg56
(lp4143
g49
(g70
g51
NtRp4144
(dp4145
g54
(dp4146
g74
g75
ssg63
g4140
sg56
(lp4147
S'generic_patterns'
p4148
asbag49
(g70
g51
NtRp4149
(dp4150
g54
(dp4151
g81
g82
ssg63
g4140
sg56
(lp4152
S':'
asbag49
(g70
g51
NtRp4153
(dp4154
g54
(dp4155
sg63
g4140
sg56
(lp4156
g49
(g50
g51
NtRp4157
(dp4158
g54
(dp4159
g62
I5
ssg63
g4153
sg56
(lp4160
g49
(g58
g51
NtRp4161
(dp4162
g54
(dp4163
g62
I4
ssg63
Nsg56
(lp4164
g49
(g65
g51
NtRp4165
(dp4166
g54
(dp4167
sg63
g4161
sg56
(lp4168
g49
(g70
g51
NtRp4169
(dp4170
g54
(dp4171
sg63
g4165
sg56
(lp4172
g49
(g50
g51
NtRp4173
(dp4174
g54
(dp4175
g62
I4
ssg63
g4169
sg56
(lp4176
S'*'
asbasbasbasbasbasbasbag49
(g65
g51
NtRp4177
(dp4178
g54
(dp4179
sg63
g3880
sg56
(lp4180
g49
(g70
g51
NtRp4181
(dp4182
g54
(dp4183
g74
g75
ssg63
g4177
sg56
(lp4184
S'headers'
p4185
asbag49
(g70
g51
NtRp4186
(dp4187
g54
(dp4188
g81
g82
ssg63
g4177
sg56
(lp4189
S':'
asbag49
(g70
g51
NtRp4190
(dp4191
g54
(dp4192
sg63
g4177
sg56
(lp4193
g49
(g50
g51
NtRp4194
(dp4195
g54
(dp4196
g62
I5
ssg63
g4190
sg56
(lp4197
g49
(g58
g51
NtRp4198
(dp4199
g54
(dp4200
g62
I4
ssg63
Nsg56
(lp4201
g49
(g65
g51
NtRp4202
(dp4203
g54
(dp4204
sg63
g4198
sg56
(lp4205
g49
(g70
g51
NtRp4206
(dp4207
g54
(dp4208
g74
g75
ssg63
g4202
sg56
(lp4209
S'Cache-Control'
p4210
asbag49
(g70
g51
NtRp4211
(dp4212
g54
(dp4213
g81
g82
ssg63
g4202
sg56
(lp4214
S':'
asbag49
(g70
g51
NtRp4215
(dp4216
g54
(dp4217
sg63
g4202
sg56
(lp4218
g49
(g50
g51
NtRp4219
(dp4220
g54
(dp4221
g62
I4
ssg63
g4215
sg56
(lp4222
S'no-store, no-cache, must-revalidate, post-check=0, pre-check=0'
p4223
asbasbasbag49
(g65
g51
NtRp4224
(dp4225
g54
(dp4226
sg63
g4198
sg56
(lp4227
g49
(g70
g51
NtRp4228
(dp4229
g54
(dp4230
g74
g75
ssg63
g4224
sg56
(lp4231
S'Content-Type'
p4232
asbag49
(g70
g51
NtRp4233
(dp4234
g54
(dp4235
g81
g82
ssg63
g4224
sg56
(lp4236
S':'
asbag49
(g70
g51
NtRp4237
(dp4238
g54
(dp4239
sg63
g4224
sg56
(lp4240
g49
(g50
g51
NtRp4241
(dp4242
g54
(dp4243
g62
I4
ssg63
g4237
sg56
(lp4244
S'text/html; charset=utf-8'
p4245
asbasbasbag49
(g65
g51
NtRp4246
(dp4247
g54
(dp4248
sg63
g4198
sg56
(lp4249
g49
(g70
g51
NtRp4250
(dp4251
g54
(dp4252
g74
g75
ssg63
g4246
sg56
(lp4253
S'Expires'
p4254
asbag49
(g70
g51
NtRp4255
(dp4256
g54
(dp4257
g81
g82
ssg63
g4246
sg56
(lp4258
S':'
asbag49
(g70
g51
NtRp4259
(dp4260
g54
(dp4261
sg63
g4246
sg56
(lp4262
g49
(g50
g51
NtRp4263
(dp4264
g54
(dp4265
g62
I4
ssg63
g4259
sg56
(lp4266
S'Sun, 11 Dec 2011 22:20:53 GMT'
p4267
asbasbasbag49
(g65
g51
NtRp4268
(dp4269
g54
(dp4270
sg63
g4198
sg56
(lp4271
g49
(g70
g51
NtRp4272
(dp4273
g54
(dp4274
g74
g75
ssg63
g4268
sg56
(lp4275
S'Pragma'
p4276
asbag49
(g70
g51
NtRp4277
(dp4278
g54
(dp4279
g81
g82
ssg63
g4268
sg56
(lp4280
S':'
asbag49
(g70
g51
NtRp4281
(dp4282
g54
(dp4283
sg63
g4268
sg56
(lp4284
g49
(g50
g51
NtRp4285
(dp4286
g54
(dp4287
g62
I4
ssg63
g4281
sg56
(lp4288
S'no-cache'
p4289
asbasbasbag49
(g65
g51
NtRp4290
(dp4291
g54
(dp4292
sg63
g4198
sg56
(lp4293
g49
(g70
g51
NtRp4294
(dp4295
g54
(dp4296
g74
g75
ssg63
g4290
sg56
(lp4297
S'X-Powered-By'
p4298
asbag49
(g70
g51
NtRp4299
(dp4300
g54
(dp4301
g81
g82
ssg63
g4290
sg56
(lp4302
S':'
asbag49
(g70
g51
NtRp4303
(dp4304
g54
(dp4305
sg63
g4290
sg56
(lp4306
g49
(g50
g51
NtRp4307
(dp4308
g54
(dp4309
g62
I4
ssg63
g4303
sg56
(lp4310
S'web2py'
p4311
asbasbasbasbasbasbasbag49
(g65
g51
NtRp4312
(dp4313
g54
(dp4314
sg63
g3880
sg56
(lp4315
g49
(g70
g51
NtRp4316
(dp4317
g54
(dp4318
g74
g75
ssg63
g4312
sg56
(lp4319
S'menu'
p4320
asbag49
(g70
g51
NtRp4321
(dp4322
g54
(dp4323
g81
g82
ssg63
g4312
sg56
(lp4324
S':'
asbag49
(g70
g51
NtRp4325
(dp4326
g54
(dp4327
sg63
g4312
sg56
(lp4328
g49
(g50
g51
NtRp4329
(dp4330
g54
(dp4331
g62
I5
ssg63
g4325
sg56
(lp4332
g49
(g58
g51
NtRp4333
(dp4334
g54
(dp4335
g62
I4
ssg63
Nsg56
(lp4336
sbasbasbasbag49
(g65
g51
NtRp4337
(dp4338
g54
(dp4339
sg63
g3880
sg56
(lp4340
g49
(g70
g51
NtRp4341
(dp4342
g54
(dp4343
g74
g75
ssg63
g4337
sg56
(lp4344
S'meta'
p4345
asbag49
(g70
g51
NtRp4346
(dp4347
g54
(dp4348
g81
g82
ssg63
g4337
sg56
(lp4349
S':'
asbag49
(g70
g51
NtRp4350
(dp4351
g54
(dp4352
sg63
g4337
sg56
(lp4353
g49
(g50
g51
NtRp4354
(dp4355
g54
(dp4356
g62
I5
ssg63
g4350
sg56
(lp4357
g49
(g58
g51
NtRp4358
(dp4359
g54
(dp4360
g62
I4
ssg63
Nsg56
(lp4361
sbasbasbasbag49
(g65
g51
NtRp4362
(dp4363
g54
(dp4364
sg63
g3880
sg56
(lp4365
g49
(g70
g51
NtRp4366
(dp4367
g54
(dp4368
g74
g75
ssg63
g4362
sg56
(lp4369
S'postprocessing'
p4370
asbag49
(g70
g51
NtRp4371
(dp4372
g54
(dp4373
g81
g82
ssg63
g4362
sg56
(lp4374
S':'
asbag49
(g70
g51
NtRp4375
(dp4376
g54
(dp4377
sg63
g4362
sg56
(lp4378
g49
(g50
g51
NtRp4379
(dp4380
g54
(dp4381
g62
I5
ssg63
g4375
sg56
(lp4382
g49
(g58
g51
NtRp4383
(dp4384
g54
(dp4385
g62
I4
ssg63
Nsg56
(lp4386
sbasbasbasbag49
(g65
g51
NtRp4387
(dp4388
g54
(dp4389
sg63
g3880
sg56
(lp4390
g49
(g70
g51
NtRp4391
(dp4392
g54
(dp4393
g74
g75
ssg63
g4387
sg56
(lp4394
S'session_file'
p4395
asbag49
(g70
g51
NtRp4396
(dp4397
g54
(dp4398
g81
g82
ssg63
g4387
sg56
(lp4399
S':'
asbag49
(g70
g51
NtRp4400
(dp4401
g54
(dp4402
sg63
g4387
sg56
(lp4403
g49
(g50
g51
NtRp4404
(dp4405
g54
(dp4406
g62
I5
ssg63
g4400
sg56
(lp4407
S"<open file '/Users/mdipierro/Dropbox/web2py/applications/inplace/sessions/127.0.0.1-b67af904-b8cf-469d-95b3-18285a004db1', mode 'rb+' at 0x28fdba8>"
p4408
asbasbasbag49
(g65
g51
NtRp4409
(dp4410
g54
(dp4411
sg63
g3880
sg56
(lp4412
g49
(g70
g51
NtRp4413
(dp4414
g54
(dp4415
g74
g75
ssg63
g4409
sg56
(lp4416
S'session_filename'
p4417
asbag49
(g70
g51
NtRp4418
(dp4419
g54
(dp4420
g81
g82
ssg63
g4409
sg56
(lp4421
S':'
asbag49
(g70
g51
NtRp4422
(dp4423
g54
(dp4424
sg63
g4409
sg56
(lp4425
g49
(g50
g51
NtRp4426
(dp4427
g54
(dp4428
g62
I5
ssg63
g4422
sg56
(lp4429
S'/Users/mdipierro/Dropbox/web2py/applications/inplace/sessions/127.0.0.1-b67af904-b8cf-469d-95b3-18285a004db1'
p4430
asbasbasbag49
(g65
g51
NtRp4431
(dp4432
g54
(dp4433
sg63
g3880
sg56
(lp4434
g49
(g70
g51
NtRp4435
(dp4436
g54
(dp4437
g74
g75
ssg63
g4431
sg56
(lp4438
S'session_id'
p4439
asbag49
(g70
g51
NtRp4440
(dp4441
g54
(dp4442
g81
g82
ssg63
g4431
sg56
(lp4443
S':'
asbag49
(g70
g51
NtRp4444
(dp4445
g54
(dp4446
sg63
g4431
sg56
(lp4447
g49
(g50
g51
NtRp4448
(dp4449
g54
(dp4450
g62
I5
ssg63
g4444
sg56
(lp4451
S'127.0.0.1-b67af904-b8cf-469d-95b3-18285a004db1'
p4452
asbasbasbag49
(g65
g51
NtRp4453
(dp4454
g54
(dp4455
sg63
g3880
sg56
(lp4456
g49
(g70
g51
NtRp4457
(dp4458
g54
(dp4459
g74
g75
ssg63
g4453
sg56
(lp4460
S'session_id_name'
p4461
asbag49
(g70
g51
NtRp4462
(dp4463
g54
(dp4464
g81
g82
ssg63
g4453
sg56
(lp4465
S':'
asbag49
(g70
g51
NtRp4466
(dp4467
g54
(dp4468
sg63
g4453
sg56
(lp4469
g49
(g50
g51
NtRp4470
(dp4471
g54
(dp4472
g62
I5
ssg63
g4466
sg56
(lp4473
g3937
asbasbasbag49
(g65
g51
NtRp4474
(dp4475
g54
(dp4476
sg63
g3880
sg56
(lp4477
g49
(g70
g51
NtRp4478
(dp4479
g54
(dp4480
g74
g75
ssg63
g4474
sg56
(lp4481
S'session_locked'
p4482
asbag49
(g70
g51
NtRp4483
(dp4484
g54
(dp4485
g81
g82
ssg63
g4474
sg56
(lp4486
S':'
asbag49
(g70
g51
NtRp4487
(dp4488
g54
(dp4489
sg63
g4474
sg56
(lp4490
g49
(g50
g51
NtRp4491
(dp4492
g54
(dp4493
g62
I5
ssg63
g4487
sg56
(lp4494
g2104
asbasbasbag49
(g65
g51
NtRp4495
(dp4496
g54
(dp4497
sg63
g3880
sg56
(lp4498
g49
(g70
g51
NtRp4499
(dp4500
g54
(dp4501
g74
g75
ssg63
g4495
sg56
(lp4502
S'session_new'
p4503
asbag49
(g70
g51
NtRp4504
(dp4505
g54
(dp4506
g81
g82
ssg63
g4495
sg56
(lp4507
S':'
asbag49
(g70
g51
NtRp4508
(dp4509
g54
(dp4510
sg63
g4495
sg56
(lp4511
g49
(g50
g51
NtRp4512
(dp4513
g54
(dp4514
g62
I5
ssg63
g4508
sg56
(lp4515
g92
asbasbasbag49
(g65
g51
NtRp4516
(dp4517
g54
(dp4518
sg63
g3880
sg56
(lp4519
g49
(g70
g51
NtRp4520
(dp4521
g54
(dp4522
g74
g75
ssg63
g4516
sg56
(lp4523
S'status'
p4524
asbag49
(g70
g51
NtRp4525
(dp4526
g54
(dp4527
g81
g82
ssg63
g4516
sg56
(lp4528
S':'
asbag49
(g70
g51
NtRp4529
(dp4530
g54
(dp4531
sg63
g4516
sg56
(lp4532
g49
(g50
g51
NtRp4533
(dp4534
g54
(dp4535
g62
I5
ssg63
g4529
sg56
(lp4536
S'200'
p4537
asbasbasbag49
(g65
g51
NtRp4538
(dp4539
g54
(dp4540
sg63
g3880
sg56
(lp4541
g49
(g70
g51
NtRp4542
(dp4543
g54
(dp4544
g74
g75
ssg63
g4538
sg56
(lp4545
S'subtitle'
p4546
asbag49
(g70
g51
NtRp4547
(dp4548
g54
(dp4549
g81
g82
ssg63
g4538
sg56
(lp4550
S':'
asbag49
(g70
g51
NtRp4551
(dp4552
g54
(dp4553
sg63
g4538
sg56
(lp4554
g49
(g50
g51
NtRp4555
(dp4556
g54
(dp4557
g62
I5
ssg63
g4551
sg56
(lp4558
S'The revolutionary CMS'
p4559
asbasbasbag49
(g65
g51
NtRp4560
(dp4561
g54
(dp4562
sg63
g3880
sg56
(lp4563
g49
(g70
g51
NtRp4564
(dp4565
g54
(dp4566
g74
g75
ssg63
g4560
sg56
(lp4567
S'title'
p4568
asbag49
(g70
g51
NtRp4569
(dp4570
g54
(dp4571
g81
g82
ssg63
g4560
sg56
(lp4572
S':'
asbag49
(g70
g51
NtRp4573
(dp4574
g54
(dp4575
sg63
g4560
sg56
(lp4576
g49
(g50
g51
NtRp4577
(dp4578
g54
(dp4579
g62
I5
ssg63
g4573
sg56
(lp4580
S'InPlace'
p4581
asbasbasbag49
(g65
g51
NtRp4582
(dp4583
g54
(dp4584
sg63
g3880
sg56
(lp4585
g49
(g70
g51
NtRp4586
(dp4587
g54
(dp4588
g74
g75
ssg63
g4582
sg56
(lp4589
g2768
asbag49
(g70
g51
NtRp4590
(dp4591
g54
(dp4592
g81
g82
ssg63
g4582
sg56
(lp4593
S':'
asbag49
(g70
g51
NtRp4594
(dp4595
g54
(dp4596
sg63
g4582
sg56
(lp4597
g49
(g50
g51
NtRp4598
(dp4599
g54
(dp4600
g62
I5
ssg63
g4594
sg56
(lp4601
g2781
asbasbasbag49
(g65
g51
NtRp4602
(dp4603
g54
(dp4604
sg63
g3880
sg56
(lp4605
g49
(g70
g51
NtRp4606
(dp4607
g54
(dp4608
g74
g75
ssg63
g4602
sg56
(lp4609
S'view'
p4610
asbag49
(g70
g51
NtRp4611
(dp4612
g54
(dp4613
g81
g82
ssg63
g4602
sg56
(lp4614
S':'
asbag49
(g70
g51
NtRp4615
(dp4616
g54
(dp4617
sg63
g4602
sg56
(lp4618
g49
(g50
g51
NtRp4619
(dp4620
g54
(dp4621
g62
I5
ssg63
g4615
sg56
(lp4622
S'default/folder.html'
p4623
asbasbasbasbasbsS'locals'
p4624
(dp4625
g2227
S'None'
p4626
sssS'traceback'
p4627
S'Traceback (most recent call last):\n  File "/Users/mdipierro/Dropbox/web2py/gluon/restricted.py", line 204, in restricted\n    exec ccode in environment\n  File "/Users/mdipierro/Dropbox/web2py/applications/inplace/controllers/default.py", line 90, in <module>\n  File "/Users/mdipierro/Dropbox/web2py/gluon/globals.py", line 172, in <lambda>\n    self._caller = lambda f: f()\n  File "/Users/mdipierro/Dropbox/web2py/applications/inplace/controllers/default.py", line 65, in folder\n    folder.path, f = [folder.name], folder.parent_folder\nAttributeError: \'NoneType\' object has no attribute \'name\'\n'
p4628
s.