(dp1
S'output'
p2
S"<type 'exceptions.AttributeError'> 'NoneType' object has no attribute 'name'"
p3
sS'layer'
p4
S'/Users/mdipierro/Dropbox/web2py/applications/inplace/controllers/default.py'
p5
sS'code'
p6
S'# -*- coding: utf-8 -*-\n# developed by Massimo Di Pierro, BSD License\n\nresponse.title = \'InPlace\'\nresponse.subtitle = \'The revolutionary CMS\'\n\n@auth.requires_login()\ndef index():\n    form=SQLFORM.factory(Field(\'url\',requires=IS_URL(),default=\'http://web2py.com\'))\n    if form.process().accepted:\n        redirect(URL(\'edit\',vars=dict(url=form.vars.url)))\n    clones = db(db.clone).select()\n    return locals()\n\n@auth.requires_login()\ndef delete():\n    db(db.clone.id==request.args(0))(db.clone.created_by==auth.user.id).delete()\n    redirect(URL(\'index\'))\n\n@auth.requires_login()\ndef edit():\n    session._unlock(response)                    \n    import urllib,re\n    print request.args(0)\n    if request.args(0)==\'post\':\n        return request.vars.value or \'\'\n    elif request.args(0)==\'store\':\n        session.new_html = session.html.split(\'<body\')[0]+\'<body>\'+request.vars.html+\'</body></html>\'\n        return \'ok\'\n    \n    url = request.vars.url\n    try:\n        html = urllib.urlopen(url).read()\n    except IOError:\n        session.flash = \'web page does not exist!\'\n        redirect(URL(\'index\'))\n    session.url = url\n    session.new_html = session.html = html\n    html = re.sub(\'\\s+[\\n]\',\'\\n\',html)\n    html = re.sub(\'>[ \\t]+<\',\'> <\',html)\n    html = re.sub(\'(src|SRC)\\s*=\\s*"/(?!/)\',\'src="\'+\'/\'.join(url.split(\'/\')[:3])+\'/\',html)\n    html = re.sub(\'(src|SRC)\\s*=\\s*"(?!(/|http))\',\'src="\'+\'/\'.join(url.split(\'/\'))+\'/\',html)\n    html = re.sub(\'(href|HREF)\\s*=\\s*"/(?!/)\',\'href="\'+\'/\'.join(url.split(\'/\')[:3])+\'/\',html)\n    html = re.sub(\'(href|HREF)\\s*=\\s*"(?!(/|http))\',\'href="\'+\'/\'.join(url.split(\'/\'))+\'/\',html)\n    html = re.sub(\'url\\(/(?!/)\',\'url(\'+\'/\'.join(url.split(\'/\')[:3])+\'/\',html)\n    html = re.sub(\'url\\((?!(/|http))\',\'url(\'+\'/\'.join(url.split(\'/\'))+\'/\',html)\n    inject = \'<script src="%s" language="javascript"></script>\' % URL(\'static\',\'js/inject.js\')\n    html = html.replace(\'</head>\',inject+\'</head>\')\n    return html\n\n@auth.requires_login()\ndef clone():\n    id = db.clone.insert(url=session.url,html=session.new_html)\n    redirect(URL(\'page\',args=id))\n\ndef page():\n    if request.args(0)==\'clone\': redirect(URL(\'index\'))\n    return db.clone(request.args(0)).html\n\ndef user():\n    return dict(form=auth())\n\n@auth.requires_login()\ndef folder():\n    if db(db.cms_folder).isempty():\n        folder = db.cms_folder.insert(name=\'root\',parent_folder=0,created_by=auth.user.id)\n    folder = db.cms_folder(parent_folder=0,created_by=auth.user.id)\n    folder.path, f = [folder.name], folder.parent_folder\n    while f: folder.path, f = [A(f.name,_href=URL(\'folder\',args=f))]+folder.path, f.parent_folder\n    files = db(db.cms_file.folder==folder.id).select(orderby=db.cms_file.name)\n    folders = db(db.cms_folder.parent_folder==folder.id).select(orderby=db.cms_folder.name)\n    return locals()\n\n@auth.requires_login()\ndef edit_file():\n    folder = db.cms_folder(request.args(0),created_by=auth.user.id)\n    db.cms_file.folder.default=folder.id\n    db.cms_file.name.requires=IS_NOT_IN_DB(\n        db(db.cms_file.folder==folder.id),\'cms_file.name\')\n    file = db.cms_file(request.args(1),created_by=auth.user.id)\n    form = SQLFORM(db.cms_file,file,deletable=True)\\\n        .process(next=URL(\'folder\',args=folder.id))\n    return locals()\n\n@auth.requires_login()\ndef edit_folder():\n    folder = db.cms_folder(request.args(0),created_by=auth.user.id)\n    db.cms_folder.parent_folder.default=folder.id\n    db.cms_folder.name.requires=IS_NOT_IN_DB(\n        db(db.cms_folder.parent_folder==folder.id),\'cms_folder.name\')\n    ofolder = db.cms_folder(request.args(1),created_by=auth.user.id)\n    form = SQLFORM(db.cms_folder,ofolder,deletable=True)\\\n        .process(next=URL(\'folder\',args=folder.id))\n    return locals()\n\nresponse._vars=response._caller(folder)\n'
p7
sS'snapshot'
p8
(dp9
S'exception'
p10
(dp11
S'__hash__'
p12
S"<method-wrapper '__hash__' of exceptions.AttributeError object at 0x2a1aeb8>"
p13
sS'__setattr__'
p14
S"<method-wrapper '__setattr__' of exceptions.AttributeError object at 0x2a1aeb8>"
p15
sS'__reduce_ex__'
p16
S'<built-in method __reduce_ex__ of exceptions.AttributeError object at 0x2a1aeb8>'
p17
sS'__getslice__'
p18
S"<method-wrapper '__getslice__' of exceptions.AttributeError object at 0x2a1aeb8>"
p19
sS'__getitem__'
p20
S"<method-wrapper '__getitem__' of exceptions.AttributeError object at 0x2a1aeb8>"
p21
sS'__setstate__'
p22
S'<built-in method __setstate__ of exceptions.AttributeError object at 0x2a1aeb8>'
p23
sS'__reduce__'
p24
S'<built-in method __reduce__ of exceptions.AttributeError object at 0x2a1aeb8>'
p25
sS'__str__'
p26
S"<method-wrapper '__str__' of exceptions.AttributeError object at 0x2a1aeb8>"
p27
sS'args'
p28
S'("\'NoneType\' object has no attribute \'name\'",)'
p29
sS'__getattribute__'
p30
S"<method-wrapper '__getattribute__' of exceptions.AttributeError object at 0x2a1aeb8>"
p31
sS'__class__'
p32
S"<type 'exceptions.AttributeError'>"
p33
sS'__delattr__'
p34
S"<method-wrapper '__delattr__' of exceptions.AttributeError object at 0x2a1aeb8>"
p35
sS'__repr__'
p36
S"<method-wrapper '__repr__' of exceptions.AttributeError object at 0x2a1aeb8>"
p37
sS'__dict__'
p38
S'{}'
p39
sS'__doc__'
p40
S"'Attribute not found.'"
p41
sS'__init__'
p42
S"<method-wrapper '__init__' of exceptions.AttributeError object at 0x2a1aeb8>"
p43
sS'__new__'
p44
S'<built-in method __new__ of type object at 0xdc140>'
p45
ssS'evalue'
p46
S"'NoneType' object has no attribute 'name'"
p47
sS'request'
p48
ccopy_reg
_reconstructor
p49
(cgluon.html
BEAUTIFY
p50
c__builtin__
object
p51
NtRp52
(dp53
S'attributes'
p54
(dp55
sS'components'
p56
(lp57
g49
(cgluon.html
TABLE
p58
g51
NtRp59
(dp60
g54
(dp61
S'level'
p62
I5
ssS'parent'
p63
Nsg56
(lp64
g49
(cgluon.html
TR
p65
g51
NtRp66
(dp67
g54
(dp68
sg63
g59
sg56
(lp69
g49
(cgluon.html
TD
p70
g51
NtRp71
(dp72
g54
(dp73
S'_style'
p74
S'font-weight:bold;vertical-align:top'
p75
ssg63
g66
sg56
(lp76
S'ajax'
p77
asbag49
(g70
g51
NtRp78
(dp79
g54
(dp80
S'_valign'
p81
S'top'
p82
ssg63
g66
sg56
(lp83
S':'
asbag49
(g70
g51
NtRp84
(dp85
g54
(dp86
sg63
g66
sg56
(lp87
g49
(g50
g51
NtRp88
(dp89
g54
(dp90
g62
I5
ssg63
g84
sg56
(lp91
S'False'
p92
asbasbasbag49
(g65
g51
NtRp93
(dp94
g54
(dp95
sg63
g59
sg56
(lp96
g49
(g70
g51
NtRp97
(dp98
g54
(dp99
g74
g75
ssg63
g93
sg56
(lp100
S'application'
p101
asbag49
(g70
g51
NtRp102
(dp103
g54
(dp104
g81
g82
ssg63
g93
sg56
(lp105
S':'
asbag49
(g70
g51
NtRp106
(dp107
g54
(dp108
sg63
g93
sg56
(lp109
g49
(g50
g51
NtRp110
(dp111
g54
(dp112
g62
I5
ssg63
g106
sg56
(lp113
S'inplace'
p114
asbasbasbag49
(g65
g51
NtRp115
(dp116
g54
(dp117
sg63
g59
sg56
(lp118
g49
(g70
g51
NtRp119
(dp120
g54
(dp121
g74
g75
ssg63
g115
sg56
(lp122
g28
asbag49
(g70
g51
NtRp123
(dp124
g54
(dp125
g81
g82
ssg63
g115
sg56
(lp126
S':'
asbag49
(g70
g51
NtRp127
(dp128
g54
(dp129
sg63
g115
sg56
(lp130
g49
(g50
g51
NtRp131
(dp132
g54
(dp133
g62
I5
ssg63
g127
sg56
(lp134
g49
(g58
g51
NtRp135
(dp136
g54
(dp137
g62
I4
ssg63
Nsg56
(lp138
g49
(g65
g51
NtRp139
(dp140
g54
(dp141
sg63
g135
sg56
(lp142
g49
(g70
g51
NtRp143
(dp144
g54
(dp145
sg63
g139
sg56
(lp146
g49
(g50
g51
NtRp147
(dp148
g54
(dp149
g62
I4
ssg63
g143
sg56
(lp150
S'1'
asbasbasbasbasbasbasbag49
(g65
g51
NtRp151
(dp152
g54
(dp153
sg63
g59
sg56
(lp154
g49
(g70
g51
NtRp155
(dp156
g54
(dp157
g74
g75
ssg63
g151
sg56
(lp158
S'body'
p159
asbag49
(g70
g51
NtRp160
(dp161
g54
(dp162
g81
g82
ssg63
g151
sg56
(lp163
S':'
asbag49
(g70
g51
NtRp164
(dp165
g54
(dp166
sg63
g151
sg56
(lp167
g49
(g50
g51
NtRp168
(dp169
g54
(dp170
g62
I5
ssg63
g164
sg56
(lp171
S'<cStringIO.StringO object at 0x1fc0f80>'
p172
asbasbasbag49
(g65
g51
NtRp173
(dp174
g54
(dp175
sg63
g59
sg56
(lp176
g49
(g70
g51
NtRp177
(dp178
g54
(dp179
g74
g75
ssg63
g173
sg56
(lp180
S'client'
p181
asbag49
(g70
g51
NtRp182
(dp183
g54
(dp184
g81
g82
ssg63
g173
sg56
(lp185
S':'
asbag49
(g70
g51
NtRp186
(dp187
g54
(dp188
sg63
g173
sg56
(lp189
g49
(g50
g51
NtRp190
(dp191
g54
(dp192
g62
I5
ssg63
g186
sg56
(lp193
S'127.0.0.1'
p194
asbasbasbag49
(g65
g51
NtRp195
(dp196
g54
(dp197
sg63
g59
sg56
(lp198
g49
(g70
g51
NtRp199
(dp200
g54
(dp201
g74
g75
ssg63
g195
sg56
(lp202
S'controller'
p203
asbag49
(g70
g51
NtRp204
(dp205
g54
(dp206
g81
g82
ssg63
g195
sg56
(lp207
S':'
asbag49
(g70
g51
NtRp208
(dp209
g54
(dp210
sg63
g195
sg56
(lp211
g49
(g50
g51
NtRp212
(dp213
g54
(dp214
g62
I5
ssg63
g208
sg56
(lp215
S'default'
p216
asbasbasbag49
(g65
g51
NtRp217
(dp218
g54
(dp219
sg63
g59
sg56
(lp220
g49
(g70
g51
NtRp221
(dp222
g54
(dp223
g74
g75
ssg63
g217
sg56
(lp224
S'cookies'
p225
asbag49
(g70
g51
NtRp226
(dp227
g54
(dp228
g81
g82
ssg63
g217
sg56
(lp229
S':'
asbag49
(g70
g51
NtRp230
(dp231
g54
(dp232
sg63
g217
sg56
(lp233
g49
(g50
g51
NtRp234
(dp235
g54
(dp236
g62
I5
ssg63
g230
sg56
(lp237
g49
(g58
g51
NtRp238
(dp239
g54
(dp240
g62
I4
ssg63
Nsg56
(lp241
g49
(g65
g51
NtRp242
(dp243
g54
(dp244
sg63
g238
sg56
(lp245
g49
(g70
g51
NtRp246
(dp247
g54
(dp248
g74
g75
ssg63
g242
sg56
(lp249
S'el-finder-last-finder'
p250
asbag49
(g70
g51
NtRp251
(dp252
g54
(dp253
g81
g82
ssg63
g242
sg56
(lp254
S':'
asbag49
(g70
g51
NtRp255
(dp256
g54
(dp257
sg63
g242
sg56
(lp258
g49
(g50
g51
NtRp259
(dp260
g54
(dp261
g62
I4
ssg63
g255
sg56
(lp262
g49
(g58
g51
NtRp263
(dp264
g54
(dp265
g62
I3
ssg63
Nsg56
(lp266
g49
(g65
g51
NtRp267
(dp268
g54
(dp269
sg63
g263
sg56
(lp270
g49
(g70
g51
NtRp271
(dp272
g54
(dp273
g74
g75
ssg63
g267
sg56
(lp274
S'comment'
p275
asbag49
(g70
g51
NtRp276
(dp277
g54
(dp278
g81
g82
ssg63
g267
sg56
(lp279
S':'
asbag49
(g70
g51
NtRp280
(dp281
g54
(dp282
sg63
g267
sg56
(lp283
g49
(g50
g51
NtRp284
(dp285
g54
(dp286
g62
I3
ssg63
g280
sg56
(lp287
S''
asbasbasbag49
(g65
g51
NtRp288
(dp289
g54
(dp290
sg63
g263
sg56
(lp291
g49
(g70
g51
NtRp292
(dp293
g54
(dp294
g74
g75
ssg63
g288
sg56
(lp295
S'domain'
p296
asbag49
(g70
g51
NtRp297
(dp298
g54
(dp299
g81
g82
ssg63
g288
sg56
(lp300
S':'
asbag49
(g70
g51
NtRp301
(dp302
g54
(dp303
sg63
g288
sg56
(lp304
g49
(g50
g51
NtRp305
(dp306
g54
(dp307
g62
I3
ssg63
g301
sg56
(lp308
S''
asbasbasbag49
(g65
g51
NtRp309
(dp310
g54
(dp311
sg63
g263
sg56
(lp312
g49
(g70
g51
NtRp313
(dp314
g54
(dp315
g74
g75
ssg63
g309
sg56
(lp316
S'expires'
p317
asbag49
(g70
g51
NtRp318
(dp319
g54
(dp320
g81
g82
ssg63
g309
sg56
(lp321
S':'
asbag49
(g70
g51
NtRp322
(dp323
g54
(dp324
sg63
g309
sg56
(lp325
g49
(g50
g51
NtRp326
(dp327
g54
(dp328
g62
I3
ssg63
g322
sg56
(lp329
S''
asbasbasbag49
(g65
g51
NtRp330
(dp331
g54
(dp332
sg63
g263
sg56
(lp333
g49
(g70
g51
NtRp334
(dp335
g54
(dp336
g74
g75
ssg63
g330
sg56
(lp337
S'max-age'
p338
asbag49
(g70
g51
NtRp339
(dp340
g54
(dp341
g81
g82
ssg63
g330
sg56
(lp342
S':'
asbag49
(g70
g51
NtRp343
(dp344
g54
(dp345
sg63
g330
sg56
(lp346
g49
(g50
g51
NtRp347
(dp348
g54
(dp349
g62
I3
ssg63
g343
sg56
(lp350
S''
asbasbasbag49
(g65
g51
NtRp351
(dp352
g54
(dp353
sg63
g263
sg56
(lp354
g49
(g70
g51
NtRp355
(dp356
g54
(dp357
g74
g75
ssg63
g351
sg56
(lp358
S'path'
p359
asbag49
(g70
g51
NtRp360
(dp361
g54
(dp362
g81
g82
ssg63
g351
sg56
(lp363
S':'
asbag49
(g70
g51
NtRp364
(dp365
g54
(dp366
sg63
g351
sg56
(lp367
g49
(g50
g51
NtRp368
(dp369
g54
(dp370
g62
I3
ssg63
g364
sg56
(lp371
S''
asbasbasbag49
(g65
g51
NtRp372
(dp373
g54
(dp374
sg63
g263
sg56
(lp375
g49
(g70
g51
NtRp376
(dp377
g54
(dp378
g74
g75
ssg63
g372
sg56
(lp379
S'secure'
p380
asbag49
(g70
g51
NtRp381
(dp382
g54
(dp383
g81
g82
ssg63
g372
sg56
(lp384
S':'
asbag49
(g70
g51
NtRp385
(dp386
g54
(dp387
sg63
g372
sg56
(lp388
g49
(g50
g51
NtRp389
(dp390
g54
(dp391
g62
I3
ssg63
g385
sg56
(lp392
S''
asbasbasbag49
(g65
g51
NtRp393
(dp394
g54
(dp395
sg63
g263
sg56
(lp396
g49
(g70
g51
NtRp397
(dp398
g54
(dp399
g74
g75
ssg63
g393
sg56
(lp400
S'version'
p401
asbag49
(g70
g51
NtRp402
(dp403
g54
(dp404
g81
g82
ssg63
g393
sg56
(lp405
S':'
asbag49
(g70
g51
NtRp406
(dp407
g54
(dp408
sg63
g393
sg56
(lp409
g49
(g50
g51
NtRp410
(dp411
g54
(dp412
g62
I3
ssg63
g406
sg56
(lp413
S''
asbasbasbasbasbasbasbag49
(g65
g51
NtRp414
(dp415
g54
(dp416
sg63
g238
sg56
(lp417
g49
(g70
g51
NtRp418
(dp419
g54
(dp420
g74
g75
ssg63
g414
sg56
(lp421
S'registered'
p422
asbag49
(g70
g51
NtRp423
(dp424
g54
(dp425
g81
g82
ssg63
g414
sg56
(lp426
S':'
asbag49
(g70
g51
NtRp427
(dp428
g54
(dp429
sg63
g414
sg56
(lp430
g49
(g50
g51
NtRp431
(dp432
g54
(dp433
g62
I4
ssg63
g427
sg56
(lp434
g49
(g58
g51
NtRp435
(dp436
g54
(dp437
g62
I3
ssg63
Nsg56
(lp438
g49
(g65
g51
NtRp439
(dp440
g54
(dp441
sg63
g435
sg56
(lp442
g49
(g70
g51
NtRp443
(dp444
g54
(dp445
g74
g75
ssg63
g439
sg56
(lp446
g275
asbag49
(g70
g51
NtRp447
(dp448
g54
(dp449
g81
g82
ssg63
g439
sg56
(lp450
S':'
asbag49
(g70
g51
NtRp451
(dp452
g54
(dp453
sg63
g439
sg56
(lp454
g49
(g50
g51
NtRp455
(dp456
g54
(dp457
g62
I3
ssg63
g451
sg56
(lp458
S''
asbasbasbag49
(g65
g51
NtRp459
(dp460
g54
(dp461
sg63
g435
sg56
(lp462
g49
(g70
g51
NtRp463
(dp464
g54
(dp465
g74
g75
ssg63
g459
sg56
(lp466
g296
asbag49
(g70
g51
NtRp467
(dp468
g54
(dp469
g81
g82
ssg63
g459
sg56
(lp470
S':'
asbag49
(g70
g51
NtRp471
(dp472
g54
(dp473
sg63
g459
sg56
(lp474
g49
(g50
g51
NtRp475
(dp476
g54
(dp477
g62
I3
ssg63
g471
sg56
(lp478
S''
asbasbasbag49
(g65
g51
NtRp479
(dp480
g54
(dp481
sg63
g435
sg56
(lp482
g49
(g70
g51
NtRp483
(dp484
g54
(dp485
g74
g75
ssg63
g479
sg56
(lp486
g317
asbag49
(g70
g51
NtRp487
(dp488
g54
(dp489
g81
g82
ssg63
g479
sg56
(lp490
S':'
asbag49
(g70
g51
NtRp491
(dp492
g54
(dp493
sg63
g479
sg56
(lp494
g49
(g50
g51
NtRp495
(dp496
g54
(dp497
g62
I3
ssg63
g491
sg56
(lp498
S''
asbasbasbag49
(g65
g51
NtRp499
(dp500
g54
(dp501
sg63
g435
sg56
(lp502
g49
(g70
g51
NtRp503
(dp504
g54
(dp505
g74
g75
ssg63
g499
sg56
(lp506
g338
asbag49
(g70
g51
NtRp507
(dp508
g54
(dp509
g81
g82
ssg63
g499
sg56
(lp510
S':'
asbag49
(g70
g51
NtRp511
(dp512
g54
(dp513
sg63
g499
sg56
(lp514
g49
(g50
g51
NtRp515
(dp516
g54
(dp517
g62
I3
ssg63
g511
sg56
(lp518
S''
asbasbasbag49
(g65
g51
NtRp519
(dp520
g54
(dp521
sg63
g435
sg56
(lp522
g49
(g70
g51
NtRp523
(dp524
g54
(dp525
g74
g75
ssg63
g519
sg56
(lp526
g359
asbag49
(g70
g51
NtRp527
(dp528
g54
(dp529
g81
g82
ssg63
g519
sg56
(lp530
S':'
asbag49
(g70
g51
NtRp531
(dp532
g54
(dp533
sg63
g519
sg56
(lp534
g49
(g50
g51
NtRp535
(dp536
g54
(dp537
g62
I3
ssg63
g531
sg56
(lp538
S''
asbasbasbag49
(g65
g51
NtRp539
(dp540
g54
(dp541
sg63
g435
sg56
(lp542
g49
(g70
g51
NtRp543
(dp544
g54
(dp545
g74
g75
ssg63
g539
sg56
(lp546
g380
asbag49
(g70
g51
NtRp547
(dp548
g54
(dp549
g81
g82
ssg63
g539
sg56
(lp550
S':'
asbag49
(g70
g51
NtRp551
(dp552
g54
(dp553
sg63
g539
sg56
(lp554
g49
(g50
g51
NtRp555
(dp556
g54
(dp557
g62
I3
ssg63
g551
sg56
(lp558
S''
asbasbasbag49
(g65
g51
NtRp559
(dp560
g54
(dp561
sg63
g435
sg56
(lp562
g49
(g70
g51
NtRp563
(dp564
g54
(dp565
g74
g75
ssg63
g559
sg56
(lp566
g401
asbag49
(g70
g51
NtRp567
(dp568
g54
(dp569
g81
g82
ssg63
g559
sg56
(lp570
S':'
asbag49
(g70
g51
NtRp571
(dp572
g54
(dp573
sg63
g559
sg56
(lp574
g49
(g50
g51
NtRp575
(dp576
g54
(dp577
g62
I3
ssg63
g571
sg56
(lp578
S''
asbasbasbasbasbasbasbag49
(g65
g51
NtRp579
(dp580
g54
(dp581
sg63
g238
sg56
(lp582
g49
(g70
g51
NtRp583
(dp584
g54
(dp585
g74
g75
ssg63
g579
sg56
(lp586
S's_nr'
p587
asbag49
(g70
g51
NtRp588
(dp589
g54
(dp590
g81
g82
ssg63
g579
sg56
(lp591
S':'
asbag49
(g70
g51
NtRp592
(dp593
g54
(dp594
sg63
g579
sg56
(lp595
g49
(g50
g51
NtRp596
(dp597
g54
(dp598
g62
I4
ssg63
g592
sg56
(lp599
g49
(g58
g51
NtRp600
(dp601
g54
(dp602
g62
I3
ssg63
Nsg56
(lp603
g49
(g65
g51
NtRp604
(dp605
g54
(dp606
sg63
g600
sg56
(lp607
g49
(g70
g51
NtRp608
(dp609
g54
(dp610
g74
g75
ssg63
g604
sg56
(lp611
g275
asbag49
(g70
g51
NtRp612
(dp613
g54
(dp614
g81
g82
ssg63
g604
sg56
(lp615
S':'
asbag49
(g70
g51
NtRp616
(dp617
g54
(dp618
sg63
g604
sg56
(lp619
g49
(g50
g51
NtRp620
(dp621
g54
(dp622
g62
I3
ssg63
g616
sg56
(lp623
S''
asbasbasbag49
(g65
g51
NtRp624
(dp625
g54
(dp626
sg63
g600
sg56
(lp627
g49
(g70
g51
NtRp628
(dp629
g54
(dp630
g74
g75
ssg63
g624
sg56
(lp631
g296
asbag49
(g70
g51
NtRp632
(dp633
g54
(dp634
g81
g82
ssg63
g624
sg56
(lp635
S':'
asbag49
(g70
g51
NtRp636
(dp637
g54
(dp638
sg63
g624
sg56
(lp639
g49
(g50
g51
NtRp640
(dp641
g54
(dp642
g62
I3
ssg63
g636
sg56
(lp643
S''
asbasbasbag49
(g65
g51
NtRp644
(dp645
g54
(dp646
sg63
g600
sg56
(lp647
g49
(g70
g51
NtRp648
(dp649
g54
(dp650
g74
g75
ssg63
g644
sg56
(lp651
g317
asbag49
(g70
g51
NtRp652
(dp653
g54
(dp654
g81
g82
ssg63
g644
sg56
(lp655
S':'
asbag49
(g70
g51
NtRp656
(dp657
g54
(dp658
sg63
g644
sg56
(lp659
g49
(g50
g51
NtRp660
(dp661
g54
(dp662
g62
I3
ssg63
g656
sg56
(lp663
S''
asbasbasbag49
(g65
g51
NtRp664
(dp665
g54
(dp666
sg63
g600
sg56
(lp667
g49
(g70
g51
NtRp668
(dp669
g54
(dp670
g74
g75
ssg63
g664
sg56
(lp671
g338
asbag49
(g70
g51
NtRp672
(dp673
g54
(dp674
g81
g82
ssg63
g664
sg56
(lp675
S':'
asbag49
(g70
g51
NtRp676
(dp677
g54
(dp678
sg63
g664
sg56
(lp679
g49
(g50
g51
NtRp680
(dp681
g54
(dp682
g62
I3
ssg63
g676
sg56
(lp683
S''
asbasbasbag49
(g65
g51
NtRp684
(dp685
g54
(dp686
sg63
g600
sg56
(lp687
g49
(g70
g51
NtRp688
(dp689
g54
(dp690
g74
g75
ssg63
g684
sg56
(lp691
g359
asbag49
(g70
g51
NtRp692
(dp693
g54
(dp694
g81
g82
ssg63
g684
sg56
(lp695
S':'
asbag49
(g70
g51
NtRp696
(dp697
g54
(dp698
sg63
g684
sg56
(lp699
g49
(g50
g51
NtRp700
(dp701
g54
(dp702
g62
I3
ssg63
g696
sg56
(lp703
S''
asbasbasbag49
(g65
g51
NtRp704
(dp705
g54
(dp706
sg63
g600
sg56
(lp707
g49
(g70
g51
NtRp708
(dp709
g54
(dp710
g74
g75
ssg63
g704
sg56
(lp711
g380
asbag49
(g70
g51
NtRp712
(dp713
g54
(dp714
g81
g82
ssg63
g704
sg56
(lp715
S':'
asbag49
(g70
g51
NtRp716
(dp717
g54
(dp718
sg63
g704
sg56
(lp719
g49
(g50
g51
NtRp720
(dp721
g54
(dp722
g62
I3
ssg63
g716
sg56
(lp723
S''
asbasbasbag49
(g65
g51
NtRp724
(dp725
g54
(dp726
sg63
g600
sg56
(lp727
g49
(g70
g51
NtRp728
(dp729
g54
(dp730
g74
g75
ssg63
g724
sg56
(lp731
g401
asbag49
(g70
g51
NtRp732
(dp733
g54
(dp734
g81
g82
ssg63
g724
sg56
(lp735
S':'
asbag49
(g70
g51
NtRp736
(dp737
g54
(dp738
sg63
g724
sg56
(lp739
g49
(g50
g51
NtRp740
(dp741
g54
(dp742
g62
I3
ssg63
g736
sg56
(lp743
S''
asbasbasbasbasbasbasbag49
(g65
g51
NtRp744
(dp745
g54
(dp746
sg63
g238
sg56
(lp747
g49
(g70
g51
NtRp748
(dp749
g54
(dp750
g74
g75
ssg63
g744
sg56
(lp751
S'session_id_admin'
p752
asbag49
(g70
g51
NtRp753
(dp754
g54
(dp755
g81
g82
ssg63
g744
sg56
(lp756
S':'
asbag49
(g70
g51
NtRp757
(dp758
g54
(dp759
sg63
g744
sg56
(lp760
g49
(g50
g51
NtRp761
(dp762
g54
(dp763
g62
I4
ssg63
g757
sg56
(lp764
g49
(g58
g51
NtRp765
(dp766
g54
(dp767
g62
I3
ssg63
Nsg56
(lp768
g49
(g65
g51
NtRp769
(dp770
g54
(dp771
sg63
g765
sg56
(lp772
g49
(g70
g51
NtRp773
(dp774
g54
(dp775
g74
g75
ssg63
g769
sg56
(lp776
g275
asbag49
(g70
g51
NtRp777
(dp778
g54
(dp779
g81
g82
ssg63
g769
sg56
(lp780
S':'
asbag49
(g70
g51
NtRp781
(dp782
g54
(dp783
sg63
g769
sg56
(lp784
g49
(g50
g51
NtRp785
(dp786
g54
(dp787
g62
I3
ssg63
g781
sg56
(lp788
S''
asbasbasbag49
(g65
g51
NtRp789
(dp790
g54
(dp791
sg63
g765
sg56
(lp792
g49
(g70
g51
NtRp793
(dp794
g54
(dp795
g74
g75
ssg63
g789
sg56
(lp796
g296
asbag49
(g70
g51
NtRp797
(dp798
g54
(dp799
g81
g82
ssg63
g789
sg56
(lp800
S':'
asbag49
(g70
g51
NtRp801
(dp802
g54
(dp803
sg63
g789
sg56
(lp804
g49
(g50
g51
NtRp805
(dp806
g54
(dp807
g62
I3
ssg63
g801
sg56
(lp808
S''
asbasbasbag49
(g65
g51
NtRp809
(dp810
g54
(dp811
sg63
g765
sg56
(lp812
g49
(g70
g51
NtRp813
(dp814
g54
(dp815
g74
g75
ssg63
g809
sg56
(lp816
g317
asbag49
(g70
g51
NtRp817
(dp818
g54
(dp819
g81
g82
ssg63
g809
sg56
(lp820
S':'
asbag49
(g70
g51
NtRp821
(dp822
g54
(dp823
sg63
g809
sg56
(lp824
g49
(g50
g51
NtRp825
(dp826
g54
(dp827
g62
I3
ssg63
g821
sg56
(lp828
S''
asbasbasbag49
(g65
g51
NtRp829
(dp830
g54
(dp831
sg63
g765
sg56
(lp832
g49
(g70
g51
NtRp833
(dp834
g54
(dp835
g74
g75
ssg63
g829
sg56
(lp836
g338
asbag49
(g70
g51
NtRp837
(dp838
g54
(dp839
g81
g82
ssg63
g829
sg56
(lp840
S':'
asbag49
(g70
g51
NtRp841
(dp842
g54
(dp843
sg63
g829
sg56
(lp844
g49
(g50
g51
NtRp845
(dp846
g54
(dp847
g62
I3
ssg63
g841
sg56
(lp848
S''
asbasbasbag49
(g65
g51
NtRp849
(dp850
g54
(dp851
sg63
g765
sg56
(lp852
g49
(g70
g51
NtRp853
(dp854
g54
(dp855
g74
g75
ssg63
g849
sg56
(lp856
g359
asbag49
(g70
g51
NtRp857
(dp858
g54
(dp859
g81
g82
ssg63
g849
sg56
(lp860
S':'
asbag49
(g70
g51
NtRp861
(dp862
g54
(dp863
sg63
g849
sg56
(lp864
g49
(g50
g51
NtRp865
(dp866
g54
(dp867
g62
I3
ssg63
g861
sg56
(lp868
S''
asbasbasbag49
(g65
g51
NtRp869
(dp870
g54
(dp871
sg63
g765
sg56
(lp872
g49
(g70
g51
NtRp873
(dp874
g54
(dp875
g74
g75
ssg63
g869
sg56
(lp876
g380
asbag49
(g70
g51
NtRp877
(dp878
g54
(dp879
g81
g82
ssg63
g869
sg56
(lp880
S':'
asbag49
(g70
g51
NtRp881
(dp882
g54
(dp883
sg63
g869
sg56
(lp884
g49
(g50
g51
NtRp885
(dp886
g54
(dp887
g62
I3
ssg63
g881
sg56
(lp888
S''
asbasbasbag49
(g65
g51
NtRp889
(dp890
g54
(dp891
sg63
g765
sg56
(lp892
g49
(g70
g51
NtRp893
(dp894
g54
(dp895
g74
g75
ssg63
g889
sg56
(lp896
g401
asbag49
(g70
g51
NtRp897
(dp898
g54
(dp899
g81
g82
ssg63
g889
sg56
(lp900
S':'
asbag49
(g70
g51
NtRp901
(dp902
g54
(dp903
sg63
g889
sg56
(lp904
g49
(g50
g51
NtRp905
(dp906
g54
(dp907
g62
I3
ssg63
g901
sg56
(lp908
S''
asbasbasbasbasbasbasbag49
(g65
g51
NtRp909
(dp910
g54
(dp911
sg63
g238
sg56
(lp912
g49
(g70
g51
NtRp913
(dp914
g54
(dp915
g74
g75
ssg63
g909
sg56
(lp916
S'session_id_cms'
p917
asbag49
(g70
g51
NtRp918
(dp919
g54
(dp920
g81
g82
ssg63
g909
sg56
(lp921
S':'
asbag49
(g70
g51
NtRp922
(dp923
g54
(dp924
sg63
g909
sg56
(lp925
g49
(g50
g51
NtRp926
(dp927
g54
(dp928
g62
I4
ssg63
g922
sg56
(lp929
g49
(g58
g51
NtRp930
(dp931
g54
(dp932
g62
I3
ssg63
Nsg56
(lp933
g49
(g65
g51
NtRp934
(dp935
g54
(dp936
sg63
g930
sg56
(lp937
g49
(g70
g51
NtRp938
(dp939
g54
(dp940
g74
g75
ssg63
g934
sg56
(lp941
g275
asbag49
(g70
g51
NtRp942
(dp943
g54
(dp944
g81
g82
ssg63
g934
sg56
(lp945
S':'
asbag49
(g70
g51
NtRp946
(dp947
g54
(dp948
sg63
g934
sg56
(lp949
g49
(g50
g51
NtRp950
(dp951
g54
(dp952
g62
I3
ssg63
g946
sg56
(lp953
S''
asbasbasbag49
(g65
g51
NtRp954
(dp955
g54
(dp956
sg63
g930
sg56
(lp957
g49
(g70
g51
NtRp958
(dp959
g54
(dp960
g74
g75
ssg63
g954
sg56
(lp961
g296
asbag49
(g70
g51
NtRp962
(dp963
g54
(dp964
g81
g82
ssg63
g954
sg56
(lp965
S':'
asbag49
(g70
g51
NtRp966
(dp967
g54
(dp968
sg63
g954
sg56
(lp969
g49
(g50
g51
NtRp970
(dp971
g54
(dp972
g62
I3
ssg63
g966
sg56
(lp973
S''
asbasbasbag49
(g65
g51
NtRp974
(dp975
g54
(dp976
sg63
g930
sg56
(lp977
g49
(g70
g51
NtRp978
(dp979
g54
(dp980
g74
g75
ssg63
g974
sg56
(lp981
g317
asbag49
(g70
g51
NtRp982
(dp983
g54
(dp984
g81
g82
ssg63
g974
sg56
(lp985
S':'
asbag49
(g70
g51
NtRp986
(dp987
g54
(dp988
sg63
g974
sg56
(lp989
g49
(g50
g51
NtRp990
(dp991
g54
(dp992
g62
I3
ssg63
g986
sg56
(lp993
S''
asbasbasbag49
(g65
g51
NtRp994
(dp995
g54
(dp996
sg63
g930
sg56
(lp997
g49
(g70
g51
NtRp998
(dp999
g54
(dp1000
g74
g75
ssg63
g994
sg56
(lp1001
g338
asbag49
(g70
g51
NtRp1002
(dp1003
g54
(dp1004
g81
g82
ssg63
g994
sg56
(lp1005
S':'
asbag49
(g70
g51
NtRp1006
(dp1007
g54
(dp1008
sg63
g994
sg56
(lp1009
g49
(g50
g51
NtRp1010
(dp1011
g54
(dp1012
g62
I3
ssg63
g1006
sg56
(lp1013
S''
asbasbasbag49
(g65
g51
NtRp1014
(dp1015
g54
(dp1016
sg63
g930
sg56
(lp1017
g49
(g70
g51
NtRp1018
(dp1019
g54
(dp1020
g74
g75
ssg63
g1014
sg56
(lp1021
g359
asbag49
(g70
g51
NtRp1022
(dp1023
g54
(dp1024
g81
g82
ssg63
g1014
sg56
(lp1025
S':'
asbag49
(g70
g51
NtRp1026
(dp1027
g54
(dp1028
sg63
g1014
sg56
(lp1029
g49
(g50
g51
NtRp1030
(dp1031
g54
(dp1032
g62
I3
ssg63
g1026
sg56
(lp1033
S''
asbasbasbag49
(g65
g51
NtRp1034
(dp1035
g54
(dp1036
sg63
g930
sg56
(lp1037
g49
(g70
g51
NtRp1038
(dp1039
g54
(dp1040
g74
g75
ssg63
g1034
sg56
(lp1041
g380
asbag49
(g70
g51
NtRp1042
(dp1043
g54
(dp1044
g81
g82
ssg63
g1034
sg56
(lp1045
S':'
asbag49
(g70
g51
NtRp1046
(dp1047
g54
(dp1048
sg63
g1034
sg56
(lp1049
g49
(g50
g51
NtRp1050
(dp1051
g54
(dp1052
g62
I3
ssg63
g1046
sg56
(lp1053
S''
asbasbasbag49
(g65
g51
NtRp1054
(dp1055
g54
(dp1056
sg63
g930
sg56
(lp1057
g49
(g70
g51
NtRp1058
(dp1059
g54
(dp1060
g74
g75
ssg63
g1054
sg56
(lp1061
g401
asbag49
(g70
g51
NtRp1062
(dp1063
g54
(dp1064
g81
g82
ssg63
g1054
sg56
(lp1065
S':'
asbag49
(g70
g51
NtRp1066
(dp1067
g54
(dp1068
sg63
g1054
sg56
(lp1069
g49
(g50
g51
NtRp1070
(dp1071
g54
(dp1072
g62
I3
ssg63
g1066
sg56
(lp1073
S''
asbasbasbasbasbasbasbag49
(g65
g51
NtRp1074
(dp1075
g54
(dp1076
sg63
g238
sg56
(lp1077
g49
(g70
g51
NtRp1078
(dp1079
g54
(dp1080
g74
g75
ssg63
g1074
sg56
(lp1081
S'session_id_inplace'
p1082
asbag49
(g70
g51
NtRp1083
(dp1084
g54
(dp1085
g81
g82
ssg63
g1074
sg56
(lp1086
S':'
asbag49
(g70
g51
NtRp1087
(dp1088
g54
(dp1089
sg63
g1074
sg56
(lp1090
g49
(g50
g51
NtRp1091
(dp1092
g54
(dp1093
g62
I4
ssg63
g1087
sg56
(lp1094
g49
(g58
g51
NtRp1095
(dp1096
g54
(dp1097
g62
I3
ssg63
Nsg56
(lp1098
g49
(g65
g51
NtRp1099
(dp1100
g54
(dp1101
sg63
g1095
sg56
(lp1102
g49
(g70
g51
NtRp1103
(dp1104
g54
(dp1105
g74
g75
ssg63
g1099
sg56
(lp1106
g275
asbag49
(g70
g51
NtRp1107
(dp1108
g54
(dp1109
g81
g82
ssg63
g1099
sg56
(lp1110
S':'
asbag49
(g70
g51
NtRp1111
(dp1112
g54
(dp1113
sg63
g1099
sg56
(lp1114
g49
(g50
g51
NtRp1115
(dp1116
g54
(dp1117
g62
I3
ssg63
g1111
sg56
(lp1118
S''
asbasbasbag49
(g65
g51
NtRp1119
(dp1120
g54
(dp1121
sg63
g1095
sg56
(lp1122
g49
(g70
g51
NtRp1123
(dp1124
g54
(dp1125
g74
g75
ssg63
g1119
sg56
(lp1126
g296
asbag49
(g70
g51
NtRp1127
(dp1128
g54
(dp1129
g81
g82
ssg63
g1119
sg56
(lp1130
S':'
asbag49
(g70
g51
NtRp1131
(dp1132
g54
(dp1133
sg63
g1119
sg56
(lp1134
g49
(g50
g51
NtRp1135
(dp1136
g54
(dp1137
g62
I3
ssg63
g1131
sg56
(lp1138
S''
asbasbasbag49
(g65
g51
NtRp1139
(dp1140
g54
(dp1141
sg63
g1095
sg56
(lp1142
g49
(g70
g51
NtRp1143
(dp1144
g54
(dp1145
g74
g75
ssg63
g1139
sg56
(lp1146
g317
asbag49
(g70
g51
NtRp1147
(dp1148
g54
(dp1149
g81
g82
ssg63
g1139
sg56
(lp1150
S':'
asbag49
(g70
g51
NtRp1151
(dp1152
g54
(dp1153
sg63
g1139
sg56
(lp1154
g49
(g50
g51
NtRp1155
(dp1156
g54
(dp1157
g62
I3
ssg63
g1151
sg56
(lp1158
S''
asbasbasbag49
(g65
g51
NtRp1159
(dp1160
g54
(dp1161
sg63
g1095
sg56
(lp1162
g49
(g70
g51
NtRp1163
(dp1164
g54
(dp1165
g74
g75
ssg63
g1159
sg56
(lp1166
g338
asbag49
(g70
g51
NtRp1167
(dp1168
g54
(dp1169
g81
g82
ssg63
g1159
sg56
(lp1170
S':'
asbag49
(g70
g51
NtRp1171
(dp1172
g54
(dp1173
sg63
g1159
sg56
(lp1174
g49
(g50
g51
NtRp1175
(dp1176
g54
(dp1177
g62
I3
ssg63
g1171
sg56
(lp1178
S''
asbasbasbag49
(g65
g51
NtRp1179
(dp1180
g54
(dp1181
sg63
g1095
sg56
(lp1182
g49
(g70
g51
NtRp1183
(dp1184
g54
(dp1185
g74
g75
ssg63
g1179
sg56
(lp1186
g359
asbag49
(g70
g51
NtRp1187
(dp1188
g54
(dp1189
g81
g82
ssg63
g1179
sg56
(lp1190
S':'
asbag49
(g70
g51
NtRp1191
(dp1192
g54
(dp1193
sg63
g1179
sg56
(lp1194
g49
(g50
g51
NtRp1195
(dp1196
g54
(dp1197
g62
I3
ssg63
g1191
sg56
(lp1198
S''
asbasbasbag49
(g65
g51
NtRp1199
(dp1200
g54
(dp1201
sg63
g1095
sg56
(lp1202
g49
(g70
g51
NtRp1203
(dp1204
g54
(dp1205
g74
g75
ssg63
g1199
sg56
(lp1206
g380
asbag49
(g70
g51
NtRp1207
(dp1208
g54
(dp1209
g81
g82
ssg63
g1199
sg56
(lp1210
S':'
asbag49
(g70
g51
NtRp1211
(dp1212
g54
(dp1213
sg63
g1199
sg56
(lp1214
g49
(g50
g51
NtRp1215
(dp1216
g54
(dp1217
g62
I3
ssg63
g1211
sg56
(lp1218
S''
asbasbasbag49
(g65
g51
NtRp1219
(dp1220
g54
(dp1221
sg63
g1095
sg56
(lp1222
g49
(g70
g51
NtRp1223
(dp1224
g54
(dp1225
g74
g75
ssg63
g1219
sg56
(lp1226
g401
asbag49
(g70
g51
NtRp1227
(dp1228
g54
(dp1229
g81
g82
ssg63
g1219
sg56
(lp1230
S':'
asbag49
(g70
g51
NtRp1231
(dp1232
g54
(dp1233
sg63
g1219
sg56
(lp1234
g49
(g50
g51
NtRp1235
(dp1236
g54
(dp1237
g62
I3
ssg63
g1231
sg56
(lp1238
S''
asbasbasbasbasbasbasbasbasbasbasbag49
(g65
g51
NtRp1239
(dp1240
g54
(dp1241
sg63
g59
sg56
(lp1242
g49
(g70
g51
NtRp1243
(dp1244
g54
(dp1245
g74
g75
ssg63
g1239
sg56
(lp1246
S'env'
p1247
asbag49
(g70
g51
NtRp1248
(dp1249
g54
(dp1250
g81
g82
ssg63
g1239
sg56
(lp1251
S':'
asbag49
(g70
g51
NtRp1252
(dp1253
g54
(dp1254
sg63
g1239
sg56
(lp1255
g49
(g50
g51
NtRp1256
(dp1257
g54
(dp1258
g62
I5
ssg63
g1252
sg56
(lp1259
g49
(g58
g51
NtRp1260
(dp1261
g54
(dp1262
g62
I4
ssg63
Nsg56
(lp1263
g49
(g65
g51
NtRp1264
(dp1265
g54
(dp1266
sg63
g1260
sg56
(lp1267
g49
(g70
g51
NtRp1268
(dp1269
g54
(dp1270
g74
g75
ssg63
g1264
sg56
(lp1271
S'app_folders'
p1272
asbag49
(g70
g51
NtRp1273
(dp1274
g54
(dp1275
g81
g82
ssg63
g1264
sg56
(lp1276
S':'
asbag49
(g70
g51
NtRp1277
(dp1278
g54
(dp1279
sg63
g1264
sg56
(lp1280
g49
(g50
g51
NtRp1281
(dp1282
g54
(dp1283
g62
I4
ssg63
g1277
sg56
(lp1284
S"set(['/Users/mdipierro/Dropbox/web2py/applications/inplace/', '/Users/mdipierro/Dropbox/web2py/applications/cms/', '/Users/mdipierro/Dropbox/web2py/applications/admin/'])"
p1285
asbasbasbag49
(g65
g51
NtRp1286
(dp1287
g54
(dp1288
sg63
g1260
sg56
(lp1289
g49
(g70
g51
NtRp1290
(dp1291
g54
(dp1292
g74
g75
ssg63
g1286
sg56
(lp1293
S'applications_parent'
p1294
asbag49
(g70
g51
NtRp1295
(dp1296
g54
(dp1297
g81
g82
ssg63
g1286
sg56
(lp1298
S':'
asbag49
(g70
g51
NtRp1299
(dp1300
g54
(dp1301
sg63
g1286
sg56
(lp1302
g49
(g50
g51
NtRp1303
(dp1304
g54
(dp1305
g62
I4
ssg63
g1299
sg56
(lp1306
S'/Users/mdipierro/Dropbox/web2py'
p1307
asbasbasbag49
(g65
g51
NtRp1308
(dp1309
g54
(dp1310
sg63
g1260
sg56
(lp1311
g49
(g70
g51
NtRp1312
(dp1313
g54
(dp1314
g74
g75
ssg63
g1308
sg56
(lp1315
S'cmd_args'
p1316
asbag49
(g70
g51
NtRp1317
(dp1318
g54
(dp1319
g81
g82
ssg63
g1308
sg56
(lp1320
S':'
asbag49
(g70
g51
NtRp1321
(dp1322
g54
(dp1323
sg63
g1308
sg56
(lp1324
g49
(g50
g51
NtRp1325
(dp1326
g54
(dp1327
g62
I4
ssg63
g1321
sg56
(lp1328
g49
(g58
g51
NtRp1329
(dp1330
g54
(dp1331
g62
I3
ssg63
Nsg56
(lp1332
sbasbasbasbag49
(g65
g51
NtRp1333
(dp1334
g54
(dp1335
sg63
g1260
sg56
(lp1336
g49
(g70
g51
NtRp1337
(dp1338
g54
(dp1339
g74
g75
ssg63
g1333
sg56
(lp1340
S'cmd_options'
p1341
asbag49
(g70
g51
NtRp1342
(dp1343
g54
(dp1344
g81
g82
ssg63
g1333
sg56
(lp1345
S':'
asbag49
(g70
g51
NtRp1346
(dp1347
g54
(dp1348
sg63
g1333
sg56
(lp1349
g49
(g50
g51
NtRp1350
(dp1351
g54
(dp1352
g62
I4
ssg63
g1346
sg56
(lp1353
S"<Values at 0x153a378: {'verbose': False, 'ip': '127.0.0.1', 'shutdown_timeout': 5, 'taskbar': False, 'nocron': False, 'pid_filename': 'httpserver.pid', 'maxthreads': None, 'softcron': False, 'server_name': 'massimo-di-pierros-macbook-2.local', 'bpython': False, 'nogui': False, 'port': 8000, 'extcron': False, 'debuglevel': 30, 'test': None, 'folder': '/Users/mdipierro/Dropbox/web2py', 'config': '', 'import_models': False, 'winservice': '', 'shell': None, 'run': '', 'log_filename': 'httpserver.log', 'args': [''], 'socket_timeout': 1, 'ssl_ca_certificate': None, 'scheduler': None, 'profiler_filename': None, 'ssl_private_key': '', 'password': 'hello', 'request_queue_size': 5, 'ssl_certificate': '', 'cronjob': False, 'numthreads': None, 'quiet': False, 'interfaces': None, 'minthreads': None, 'timeout': 10, 'plain': False, 'nobanner': False}>"
p1354
asbasbasbag49
(g65
g51
NtRp1355
(dp1356
g54
(dp1357
sg63
g1260
sg56
(lp1358
g49
(g70
g51
NtRp1359
(dp1360
g54
(dp1361
g74
g75
ssg63
g1355
sg56
(lp1362
S'db_sessions'
p1363
asbag49
(g70
g51
NtRp1364
(dp1365
g54
(dp1366
g81
g82
ssg63
g1355
sg56
(lp1367
S':'
asbag49
(g70
g51
NtRp1368
(dp1369
g54
(dp1370
sg63
g1355
sg56
(lp1371
g49
(g50
g51
NtRp1372
(dp1373
g54
(dp1374
g62
I4
ssg63
g1368
sg56
(lp1375
S'set([])'
p1376
asbasbasbag49
(g65
g51
NtRp1377
(dp1378
g54
(dp1379
sg63
g1260
sg56
(lp1380
g49
(g70
g51
NtRp1381
(dp1382
g54
(dp1383
g74
g75
ssg63
g1377
sg56
(lp1384
S'debugging'
p1385
asbag49
(g70
g51
NtRp1386
(dp1387
g54
(dp1388
g81
g82
ssg63
g1377
sg56
(lp1389
S':'
asbag49
(g70
g51
NtRp1390
(dp1391
g54
(dp1392
sg63
g1377
sg56
(lp1393
g49
(g50
g51
NtRp1394
(dp1395
g54
(dp1396
g62
I4
ssg63
g1390
sg56
(lp1397
g92
asbasbasbag49
(g65
g51
NtRp1398
(dp1399
g54
(dp1400
sg63
g1260
sg56
(lp1401
g49
(g70
g51
NtRp1402
(dp1403
g54
(dp1404
g74
g75
ssg63
g1398
sg56
(lp1405
S'gluon_parent'
p1406
asbag49
(g70
g51
NtRp1407
(dp1408
g54
(dp1409
g81
g82
ssg63
g1398
sg56
(lp1410
S':'
asbag49
(g70
g51
NtRp1411
(dp1412
g54
(dp1413
sg63
g1398
sg56
(lp1414
g49
(g50
g51
NtRp1415
(dp1416
g54
(dp1417
g62
I4
ssg63
g1411
sg56
(lp1418
S'/Users/mdipierro/Dropbox/web2py'
p1419
asbasbasbag49
(g65
g51
NtRp1420
(dp1421
g54
(dp1422
sg63
g1260
sg56
(lp1423
g49
(g70
g51
NtRp1424
(dp1425
g54
(dp1426
g74
g75
ssg63
g1420
sg56
(lp1427
S'http_accept'
p1428
asbag49
(g70
g51
NtRp1429
(dp1430
g54
(dp1431
g81
g82
ssg63
g1420
sg56
(lp1432
S':'
asbag49
(g70
g51
NtRp1433
(dp1434
g54
(dp1435
sg63
g1420
sg56
(lp1436
g49
(g50
g51
NtRp1437
(dp1438
g54
(dp1439
g62
I4
ssg63
g1433
sg56
(lp1440
S'text/html,application/xhtml+xml,application/xml;q=0.9,*/*;q=0.8'
p1441
asbasbasbag49
(g65
g51
NtRp1442
(dp1443
g54
(dp1444
sg63
g1260
sg56
(lp1445
g49
(g70
g51
NtRp1446
(dp1447
g54
(dp1448
g74
g75
ssg63
g1442
sg56
(lp1449
S'http_accept_charset'
p1450
asbag49
(g70
g51
NtRp1451
(dp1452
g54
(dp1453
g81
g82
ssg63
g1442
sg56
(lp1454
S':'
asbag49
(g70
g51
NtRp1455
(dp1456
g54
(dp1457
sg63
g1442
sg56
(lp1458
g49
(g50
g51
NtRp1459
(dp1460
g54
(dp1461
g62
I4
ssg63
g1455
sg56
(lp1462
S'ISO-8859-1,utf-8;q=0.7,*;q=0.3'
p1463
asbasbasbag49
(g65
g51
NtRp1464
(dp1465
g54
(dp1466
sg63
g1260
sg56
(lp1467
g49
(g70
g51
NtRp1468
(dp1469
g54
(dp1470
g74
g75
ssg63
g1464
sg56
(lp1471
S'http_accept_encoding'
p1472
asbag49
(g70
g51
NtRp1473
(dp1474
g54
(dp1475
g81
g82
ssg63
g1464
sg56
(lp1476
S':'
asbag49
(g70
g51
NtRp1477
(dp1478
g54
(dp1479
sg63
g1464
sg56
(lp1480
g49
(g50
g51
NtRp1481
(dp1482
g54
(dp1483
g62
I4
ssg63
g1477
sg56
(lp1484
S'gzip,deflate,sdch'
p1485
asbasbasbag49
(g65
g51
NtRp1486
(dp1487
g54
(dp1488
sg63
g1260
sg56
(lp1489
g49
(g70
g51
NtRp1490
(dp1491
g54
(dp1492
g74
g75
ssg63
g1486
sg56
(lp1493
S'http_accept_language'
p1494
asbag49
(g70
g51
NtRp1495
(dp1496
g54
(dp1497
g81
g82
ssg63
g1486
sg56
(lp1498
S':'
asbag49
(g70
g51
NtRp1499
(dp1500
g54
(dp1501
sg63
g1486
sg56
(lp1502
g49
(g50
g51
NtRp1503
(dp1504
g54
(dp1505
g62
I4
ssg63
g1499
sg56
(lp1506
S'en,en-US;q=0.8,de-DE;q=0.6,de;q=0.4,it-IT;q=0.2,it;q=0.2,ja;q=0.2'
p1507
asbasbasbag49
(g65
g51
NtRp1508
(dp1509
g54
(dp1510
sg63
g1260
sg56
(lp1511
g49
(g70
g51
NtRp1512
(dp1513
g54
(dp1514
g74
g75
ssg63
g1508
sg56
(lp1515
S'http_cache_control'
p1516
asbag49
(g70
g51
NtRp1517
(dp1518
g54
(dp1519
g81
g82
ssg63
g1508
sg56
(lp1520
S':'
asbag49
(g70
g51
NtRp1521
(dp1522
g54
(dp1523
sg63
g1508
sg56
(lp1524
g49
(g50
g51
NtRp1525
(dp1526
g54
(dp1527
g62
I4
ssg63
g1521
sg56
(lp1528
S'max-age=0'
p1529
asbasbasbag49
(g65
g51
NtRp1530
(dp1531
g54
(dp1532
sg63
g1260
sg56
(lp1533
g49
(g70
g51
NtRp1534
(dp1535
g54
(dp1536
g74
g75
ssg63
g1530
sg56
(lp1537
S'http_connection'
p1538
asbag49
(g70
g51
NtRp1539
(dp1540
g54
(dp1541
g81
g82
ssg63
g1530
sg56
(lp1542
S':'
asbag49
(g70
g51
NtRp1543
(dp1544
g54
(dp1545
sg63
g1530
sg56
(lp1546
g49
(g50
g51
NtRp1547
(dp1548
g54
(dp1549
g62
I4
ssg63
g1543
sg56
(lp1550
S'keep-alive'
p1551
asbasbasbag49
(g65
g51
NtRp1552
(dp1553
g54
(dp1554
sg63
g1260
sg56
(lp1555
g49
(g70
g51
NtRp1556
(dp1557
g54
(dp1558
g74
g75
ssg63
g1552
sg56
(lp1559
S'http_cookie'
p1560
asbag49
(g70
g51
NtRp1561
(dp1562
g54
(dp1563
g81
g82
ssg63
g1552
sg56
(lp1564
S':'
asbag49
(g70
g51
NtRp1565
(dp1566
g54
(dp1567
sg63
g1552
sg56
(lp1568
g49
(g50
g51
NtRp1569
(dp1570
g54
(dp1571
g62
I4
ssg63
g1565
sg56
(lp1572
S'registered=yes; __utma_a2a=1369166446.1335515545.1303958619.1316700181.1318215879.74; el-finder-last-finder=4f5a448a961f1931173928a6b6d9d4d2; s_nr=1323495907438-New; __qca=P0-1359637726-1323501662225; _chartbeat2=ha3n2egp47d2hmo0.1323501662417; __utma=96992031.1452952453.1313221394.1323533094.1323638999.6; __utmc=96992031; __utmz=96992031.1313221394.1.1.utmcsr=(direct)|utmccn=(direct)|utmcmd=(none); session_id_cms=127.0.0.1-f4c1e56e-4f4d-4936-aaf7-92fdd3a97f53; session_id_admin=127.0.0.1-6d70af03-6639-4a47-9ec3-7df3afc84ddd; session_id_inplace=127.0.0.1-b67af904-b8cf-469d-95b3-18285a004db1'
p1573
asbasbasbag49
(g65
g51
NtRp1574
(dp1575
g54
(dp1576
sg63
g1260
sg56
(lp1577
g49
(g70
g51
NtRp1578
(dp1579
g54
(dp1580
g74
g75
ssg63
g1574
sg56
(lp1581
S'http_host'
p1582
asbag49
(g70
g51
NtRp1583
(dp1584
g54
(dp1585
g81
g82
ssg63
g1574
sg56
(lp1586
S':'
asbag49
(g70
g51
NtRp1587
(dp1588
g54
(dp1589
sg63
g1574
sg56
(lp1590
g49
(g50
g51
NtRp1591
(dp1592
g54
(dp1593
g62
I4
ssg63
g1587
sg56
(lp1594
S'127.0.0.1:8000'
p1595
asbasbasbag49
(g65
g51
NtRp1596
(dp1597
g54
(dp1598
sg63
g1260
sg56
(lp1599
g49
(g70
g51
NtRp1600
(dp1601
g54
(dp1602
g74
g75
ssg63
g1596
sg56
(lp1603
S'http_user_agent'
p1604
asbag49
(g70
g51
NtRp1605
(dp1606
g54
(dp1607
g81
g82
ssg63
g1596
sg56
(lp1608
S':'
asbag49
(g70
g51
NtRp1609
(dp1610
g54
(dp1611
sg63
g1596
sg56
(lp1612
g49
(g50
g51
NtRp1613
(dp1614
g54
(dp1615
g62
I4
ssg63
g1609
sg56
(lp1616
S'Mozilla/5.0 (Macintosh; Intel Mac OS X 10_6_8) AppleWebKit/535.7 (KHTML, like Gecko) Chrome/16.0.912.63 Safari/535.7'
p1617
asbasbasbag49
(g65
g51
NtRp1618
(dp1619
g54
(dp1620
sg63
g1260
sg56
(lp1621
g49
(g70
g51
NtRp1622
(dp1623
g54
(dp1624
g74
g75
ssg63
g1618
sg56
(lp1625
S'is_jython'
p1626
asbag49
(g70
g51
NtRp1627
(dp1628
g54
(dp1629
g81
g82
ssg63
g1618
sg56
(lp1630
S':'
asbag49
(g70
g51
NtRp1631
(dp1632
g54
(dp1633
sg63
g1618
sg56
(lp1634
g49
(g50
g51
NtRp1635
(dp1636
g54
(dp1637
g62
I4
ssg63
g1631
sg56
(lp1638
g92
asbasbasbag49
(g65
g51
NtRp1639
(dp1640
g54
(dp1641
sg63
g1260
sg56
(lp1642
g49
(g70
g51
NtRp1643
(dp1644
g54
(dp1645
g74
g75
ssg63
g1639
sg56
(lp1646
S'is_pypy'
p1647
asbag49
(g70
g51
NtRp1648
(dp1649
g54
(dp1650
g81
g82
ssg63
g1639
sg56
(lp1651
S':'
asbag49
(g70
g51
NtRp1652
(dp1653
g54
(dp1654
sg63
g1639
sg56
(lp1655
g49
(g50
g51
NtRp1656
(dp1657
g54
(dp1658
g62
I4
ssg63
g1652
sg56
(lp1659
g92
asbasbasbag49
(g65
g51
NtRp1660
(dp1661
g54
(dp1662
sg63
g1260
sg56
(lp1663
g49
(g70
g51
NtRp1664
(dp1665
g54
(dp1666
g74
g75
ssg63
g1660
sg56
(lp1667
S'path_info'
p1668
asbag49
(g70
g51
NtRp1669
(dp1670
g54
(dp1671
g81
g82
ssg63
g1660
sg56
(lp1672
S':'
asbag49
(g70
g51
NtRp1673
(dp1674
g54
(dp1675
sg63
g1660
sg56
(lp1676
g49
(g50
g51
NtRp1677
(dp1678
g54
(dp1679
g62
I4
ssg63
g1673
sg56
(lp1680
S'/inplace/default/folder/1'
p1681
asbasbasbag49
(g65
g51
NtRp1682
(dp1683
g54
(dp1684
sg63
g1260
sg56
(lp1685
g49
(g70
g51
NtRp1686
(dp1687
g54
(dp1688
g74
g75
ssg63
g1682
sg56
(lp1689
S'query_string'
p1690
asbag49
(g70
g51
NtRp1691
(dp1692
g54
(dp1693
g81
g82
ssg63
g1682
sg56
(lp1694
S':'
asbag49
(g70
g51
NtRp1695
(dp1696
g54
(dp1697
sg63
g1682
sg56
(lp1698
g49
(g50
g51
NtRp1699
(dp1700
g54
(dp1701
g62
I4
ssg63
g1695
sg56
(lp1702
S''
asbasbasbag49
(g65
g51
NtRp1703
(dp1704
g54
(dp1705
sg63
g1260
sg56
(lp1706
g49
(g70
g51
NtRp1707
(dp1708
g54
(dp1709
g74
g75
ssg63
g1703
sg56
(lp1710
S'remote_addr'
p1711
asbag49
(g70
g51
NtRp1712
(dp1713
g54
(dp1714
g81
g82
ssg63
g1703
sg56
(lp1715
S':'
asbag49
(g70
g51
NtRp1716
(dp1717
g54
(dp1718
sg63
g1703
sg56
(lp1719
g49
(g50
g51
NtRp1720
(dp1721
g54
(dp1722
g62
I4
ssg63
g1716
sg56
(lp1723
g194
asbasbasbag49
(g65
g51
NtRp1724
(dp1725
g54
(dp1726
sg63
g1260
sg56
(lp1727
g49
(g70
g51
NtRp1728
(dp1729
g54
(dp1730
g74
g75
ssg63
g1724
sg56
(lp1731
S'remote_port'
p1732
asbag49
(g70
g51
NtRp1733
(dp1734
g54
(dp1735
g81
g82
ssg63
g1724
sg56
(lp1736
S':'
asbag49
(g70
g51
NtRp1737
(dp1738
g54
(dp1739
sg63
g1724
sg56
(lp1740
g49
(g50
g51
NtRp1741
(dp1742
g54
(dp1743
g62
I4
ssg63
g1737
sg56
(lp1744
S'55308'
p1745
asbasbasbag49
(g65
g51
NtRp1746
(dp1747
g54
(dp1748
sg63
g1260
sg56
(lp1749
g49
(g70
g51
NtRp1750
(dp1751
g54
(dp1752
g74
g75
ssg63
g1746
sg56
(lp1753
S'request_method'
p1754
asbag49
(g70
g51
NtRp1755
(dp1756
g54
(dp1757
g81
g82
ssg63
g1746
sg56
(lp1758
S':'
asbag49
(g70
g51
NtRp1759
(dp1760
g54
(dp1761
sg63
g1746
sg56
(lp1762
g49
(g50
g51
NtRp1763
(dp1764
g54
(dp1765
g62
I4
ssg63
g1759
sg56
(lp1766
S'GET'
p1767
asbasbasbag49
(g65
g51
NtRp1768
(dp1769
g54
(dp1770
sg63
g1260
sg56
(lp1771
g49
(g70
g51
NtRp1772
(dp1773
g54
(dp1774
g74
g75
ssg63
g1768
sg56
(lp1775
S'script_name'
p1776
asbag49
(g70
g51
NtRp1777
(dp1778
g54
(dp1779
g81
g82
ssg63
g1768
sg56
(lp1780
S':'
asbag49
(g70
g51
NtRp1781
(dp1782
g54
(dp1783
sg63
g1768
sg56
(lp1784
g49
(g50
g51
NtRp1785
(dp1786
g54
(dp1787
g62
I4
ssg63
g1781
sg56
(lp1788
S''
asbasbasbag49
(g65
g51
NtRp1789
(dp1790
g54
(dp1791
sg63
g1260
sg56
(lp1792
g49
(g70
g51
NtRp1793
(dp1794
g54
(dp1795
g74
g75
ssg63
g1789
sg56
(lp1796
S'server_name'
p1797
asbag49
(g70
g51
NtRp1798
(dp1799
g54
(dp1800
g81
g82
ssg63
g1789
sg56
(lp1801
S':'
asbag49
(g70
g51
NtRp1802
(dp1803
g54
(dp1804
sg63
g1789
sg56
(lp1805
g49
(g50
g51
NtRp1806
(dp1807
g54
(dp1808
g62
I4
ssg63
g1802
sg56
(lp1809
S'massimo-di-pierros-macbook-2.local'
p1810
asbasbasbag49
(g65
g51
NtRp1811
(dp1812
g54
(dp1813
sg63
g1260
sg56
(lp1814
g49
(g70
g51
NtRp1815
(dp1816
g54
(dp1817
g74
g75
ssg63
g1811
sg56
(lp1818
S'server_port'
p1819
asbag49
(g70
g51
NtRp1820
(dp1821
g54
(dp1822
g81
g82
ssg63
g1811
sg56
(lp1823
S':'
asbag49
(g70
g51
NtRp1824
(dp1825
g54
(dp1826
sg63
g1811
sg56
(lp1827
g49
(g50
g51
NtRp1828
(dp1829
g54
(dp1830
g62
I4
ssg63
g1824
sg56
(lp1831
S'8000'
p1832
asbasbasbag49
(g65
g51
NtRp1833
(dp1834
g54
(dp1835
sg63
g1260
sg56
(lp1836
g49
(g70
g51
NtRp1837
(dp1838
g54
(dp1839
g74
g75
ssg63
g1833
sg56
(lp1840
S'server_protocol'
p1841
asbag49
(g70
g51
NtRp1842
(dp1843
g54
(dp1844
g81
g82
ssg63
g1833
sg56
(lp1845
S':'
asbag49
(g70
g51
NtRp1846
(dp1847
g54
(dp1848
sg63
g1833
sg56
(lp1849
g49
(g50
g51
NtRp1850
(dp1851
g54
(dp1852
g62
I4
ssg63
g1846
sg56
(lp1853
S'HTTP/1.1'
p1854
asbasbasbag49
(g65
g51
NtRp1855
(dp1856
g54
(dp1857
sg63
g1260
sg56
(lp1858
g49
(g70
g51
NtRp1859
(dp1860
g54
(dp1861
g74
g75
ssg63
g1855
sg56
(lp1862
S'server_software'
p1863
asbag49
(g70
g51
NtRp1864
(dp1865
g54
(dp1866
g81
g82
ssg63
g1855
sg56
(lp1867
S':'
asbag49
(g70
g51
NtRp1868
(dp1869
g54
(dp1870
sg63
g1855
sg56
(lp1871
g49
(g50
g51
NtRp1872
(dp1873
g54
(dp1874
g62
I4
ssg63
g1868
sg56
(lp1875
S'Rocket 1.2.4'
p1876
asbasbasbag49
(g65
g51
NtRp1877
(dp1878
g54
(dp1879
sg63
g1260
sg56
(lp1880
g49
(g70
g51
NtRp1881
(dp1882
g54
(dp1883
g74
g75
ssg63
g1877
sg56
(lp1884
S'web2py_crontype'
p1885
asbag49
(g70
g51
NtRp1886
(dp1887
g54
(dp1888
g81
g82
ssg63
g1877
sg56
(lp1889
S':'
asbag49
(g70
g51
NtRp1890
(dp1891
g54
(dp1892
sg63
g1877
sg56
(lp1893
g49
(g50
g51
NtRp1894
(dp1895
g54
(dp1896
g62
I4
ssg63
g1890
sg56
(lp1897
S'hard'
p1898
asbasbasbag49
(g65
g51
NtRp1899
(dp1900
g54
(dp1901
sg63
g1260
sg56
(lp1902
g49
(g70
g51
NtRp1903
(dp1904
g54
(dp1905
g74
g75
ssg63
g1899
sg56
(lp1906
S'web2py_path'
p1907
asbag49
(g70
g51
NtRp1908
(dp1909
g54
(dp1910
g81
g82
ssg63
g1899
sg56
(lp1911
S':'
asbag49
(g70
g51
NtRp1912
(dp1913
g54
(dp1914
sg63
g1899
sg56
(lp1915
g49
(g50
g51
NtRp1916
(dp1917
g54
(dp1918
g62
I4
ssg63
g1912
sg56
(lp1919
g1307
asbasbasbag49
(g65
g51
NtRp1920
(dp1921
g54
(dp1922
sg63
g1260
sg56
(lp1923
g49
(g70
g51
NtRp1924
(dp1925
g54
(dp1926
g74
g75
ssg63
g1920
sg56
(lp1927
S'web2py_version'
p1928
asbag49
(g70
g51
NtRp1929
(dp1930
g54
(dp1931
g81
g82
ssg63
g1920
sg56
(lp1932
S':'
asbag49
(g70
g51
NtRp1933
(dp1934
g54
(dp1935
sg63
g1920
sg56
(lp1936
g49
(g50
g51
NtRp1937
(dp1938
g54
(dp1939
g62
I4
ssg63
g1933
sg56
(lp1940
g49
(g58
g51
NtRp1941
(dp1942
g54
(dp1943
g62
I3
ssg63
Nsg56
(lp1944
g49
(g65
g51
NtRp1945
(dp1946
g54
(dp1947
sg63
g1941
sg56
(lp1948
g49
(g70
g51
NtRp1949
(dp1950
g54
(dp1951
sg63
g1945
sg56
(lp1952
g49
(g50
g51
NtRp1953
(dp1954
g54
(dp1955
g62
I3
ssg63
g1949
sg56
(lp1956
S'1'
asbasbasbag49
(g65
g51
NtRp1957
(dp1958
g54
(dp1959
sg63
g1941
sg56
(lp1960
g49
(g70
g51
NtRp1961
(dp1962
g54
(dp1963
sg63
g1957
sg56
(lp1964
g49
(g50
g51
NtRp1965
(dp1966
g54
(dp1967
g62
I3
ssg63
g1961
sg56
(lp1968
S'99'
p1969
asbasbasbag49
(g65
g51
NtRp1970
(dp1971
g54
(dp1972
sg63
g1941
sg56
(lp1973
g49
(g70
g51
NtRp1974
(dp1975
g54
(dp1976
sg63
g1970
sg56
(lp1977
g49
(g50
g51
NtRp1978
(dp1979
g54
(dp1980
g62
I3
ssg63
g1974
sg56
(lp1981
S'3'
asbasbasbag49
(g65
g51
NtRp1982
(dp1983
g54
(dp1984
sg63
g1941
sg56
(lp1985
g49
(g70
g51
NtRp1986
(dp1987
g54
(dp1988
sg63
g1982
sg56
(lp1989
g49
(g50
g51
NtRp1990
(dp1991
g54
(dp1992
g62
I3
ssg63
g1986
sg56
(lp1993
S'datetime.datetime(2011, 12, 9, 21, 5, 4)'
p1994
asbasbasbag49
(g65
g51
NtRp1995
(dp1996
g54
(dp1997
sg63
g1941
sg56
(lp1998
g49
(g70
g51
NtRp1999
(dp2000
g54
(dp2001
sg63
g1995
sg56
(lp2002
g49
(g50
g51
NtRp2003
(dp2004
g54
(dp2005
g62
I3
ssg63
g1999
sg56
(lp2006
S'stable'
p2007
asbasbasbasbasbasbasbag49
(g65
g51
NtRp2008
(dp2009
g54
(dp2010
sg63
g1260
sg56
(lp2011
g49
(g70
g51
NtRp2012
(dp2013
g54
(dp2014
g74
g75
ssg63
g2008
sg56
(lp2015
S'wsgi_errors'
p2016
asbag49
(g70
g51
NtRp2017
(dp2018
g54
(dp2019
g81
g82
ssg63
g2008
sg56
(lp2020
S':'
asbag49
(g70
g51
NtRp2021
(dp2022
g54
(dp2023
sg63
g2008
sg56
(lp2024
g49
(g50
g51
NtRp2025
(dp2026
g54
(dp2027
g62
I4
ssg63
g2021
sg56
(lp2028
S"<open file '<stderr>', mode 'w' at 0x1620b0>"
p2029
asbasbasbag49
(g65
g51
NtRp2030
(dp2031
g54
(dp2032
sg63
g1260
sg56
(lp2033
g49
(g70
g51
NtRp2034
(dp2035
g54
(dp2036
g74
g75
ssg63
g2030
sg56
(lp2037
S'wsgi_file_wrapper'
p2038
asbag49
(g70
g51
NtRp2039
(dp2040
g54
(dp2041
g81
g82
ssg63
g2030
sg56
(lp2042
S':'
asbag49
(g70
g51
NtRp2043
(dp2044
g54
(dp2045
sg63
g2030
sg56
(lp2046
g49
(g50
g51
NtRp2047
(dp2048
g54
(dp2049
g62
I4
ssg63
g2043
sg56
(lp2050
S'<class wsgiref.util.FileWrapper at 0x7c2840>'
p2051
asbasbasbag49
(g65
g51
NtRp2052
(dp2053
g54
(dp2054
sg63
g1260
sg56
(lp2055
g49
(g70
g51
NtRp2056
(dp2057
g54
(dp2058
g74
g75
ssg63
g2052
sg56
(lp2059
S'wsgi_input'
p2060
asbag49
(g70
g51
NtRp2061
(dp2062
g54
(dp2063
g81
g82
ssg63
g2052
sg56
(lp2064
S':'
asbag49
(g70
g51
NtRp2065
(dp2066
g54
(dp2067
sg63
g2052
sg56
(lp2068
g49
(g50
g51
NtRp2069
(dp2070
g54
(dp2071
g62
I4
ssg63
g2065
sg56
(lp2072
S'<socket._fileobject object at 0x2836eb0>'
p2073
asbasbasbag49
(g65
g51
NtRp2074
(dp2075
g54
(dp2076
sg63
g1260
sg56
(lp2077
g49
(g70
g51
NtRp2078
(dp2079
g54
(dp2080
g74
g75
ssg63
g2074
sg56
(lp2081
S'wsgi_multiprocess'
p2082
asbag49
(g70
g51
NtRp2083
(dp2084
g54
(dp2085
g81
g82
ssg63
g2074
sg56
(lp2086
S':'
asbag49
(g70
g51
NtRp2087
(dp2088
g54
(dp2089
sg63
g2074
sg56
(lp2090
g49
(g50
g51
NtRp2091
(dp2092
g54
(dp2093
g62
I4
ssg63
g2087
sg56
(lp2094
g92
asbasbasbag49
(g65
g51
NtRp2095
(dp2096
g54
(dp2097
sg63
g1260
sg56
(lp2098
g49
(g70
g51
NtRp2099
(dp2100
g54
(dp2101
g74
g75
ssg63
g2095
sg56
(lp2102
S'wsgi_multithread'
p2103
asbag49
(g70
g51
NtRp2104
(dp2105
g54
(dp2106
g81
g82
ssg63
g2095
sg56
(lp2107
S':'
asbag49
(g70
g51
NtRp2108
(dp2109
g54
(dp2110
sg63
g2095
sg56
(lp2111
g49
(g50
g51
NtRp2112
(dp2113
g54
(dp2114
g62
I4
ssg63
g2108
sg56
(lp2115
S'True'
p2116
asbasbasbag49
(g65
g51
NtRp2117
(dp2118
g54
(dp2119
sg63
g1260
sg56
(lp2120
g49
(g70
g51
NtRp2121
(dp2122
g54
(dp2123
g74
g75
ssg63
g2117
sg56
(lp2124
S'wsgi_run_once'
p2125
asbag49
(g70
g51
NtRp2126
(dp2127
g54
(dp2128
g81
g82
ssg63
g2117
sg56
(lp2129
S':'
asbag49
(g70
g51
NtRp2130
(dp2131
g54
(dp2132
sg63
g2117
sg56
(lp2133
g49
(g50
g51
NtRp2134
(dp2135
g54
(dp2136
g62
I4
ssg63
g2130
sg56
(lp2137
g92
asbasbasbag49
(g65
g51
NtRp2138
(dp2139
g54
(dp2140
sg63
g1260
sg56
(lp2141
g49
(g70
g51
NtRp2142
(dp2143
g54
(dp2144
g74
g75
ssg63
g2138
sg56
(lp2145
S'wsgi_url_scheme'
p2146
asbag49
(g70
g51
NtRp2147
(dp2148
g54
(dp2149
g81
g82
ssg63
g2138
sg56
(lp2150
S':'
asbag49
(g70
g51
NtRp2151
(dp2152
g54
(dp2153
sg63
g2138
sg56
(lp2154
g49
(g50
g51
NtRp2155
(dp2156
g54
(dp2157
g62
I4
ssg63
g2151
sg56
(lp2158
S'http'
p2159
asbasbasbag49
(g65
g51
NtRp2160
(dp2161
g54
(dp2162
sg63
g1260
sg56
(lp2163
g49
(g70
g51
NtRp2164
(dp2165
g54
(dp2166
g74
g75
ssg63
g2160
sg56
(lp2167
S'wsgi_version'
p2168
asbag49
(g70
g51
NtRp2169
(dp2170
g54
(dp2171
g81
g82
ssg63
g2160
sg56
(lp2172
S':'
asbag49
(g70
g51
NtRp2173
(dp2174
g54
(dp2175
sg63
g2160
sg56
(lp2176
g49
(g50
g51
NtRp2177
(dp2178
g54
(dp2179
g62
I4
ssg63
g2173
sg56
(lp2180
g49
(g58
g51
NtRp2181
(dp2182
g54
(dp2183
g62
I3
ssg63
Nsg56
(lp2184
g49
(g65
g51
NtRp2185
(dp2186
g54
(dp2187
sg63
g2181
sg56
(lp2188
g49
(g70
g51
NtRp2189
(dp2190
g54
(dp2191
sg63
g2185
sg56
(lp2192
g49
(g50
g51
NtRp2193
(dp2194
g54
(dp2195
g62
I3
ssg63
g2189
sg56
(lp2196
S'1'
asbasbasbag49
(g65
g51
NtRp2197
(dp2198
g54
(dp2199
sg63
g2181
sg56
(lp2200
g49
(g70
g51
NtRp2201
(dp2202
g54
(dp2203
sg63
g2197
sg56
(lp2204
g49
(g50
g51
NtRp2205
(dp2206
g54
(dp2207
g62
I3
ssg63
g2201
sg56
(lp2208
S'0'
asbasbasbasbasbasbasbasbasbasbasbag49
(g65
g51
NtRp2209
(dp2210
g54
(dp2211
sg63
g59
sg56
(lp2212
g49
(g70
g51
NtRp2213
(dp2214
g54
(dp2215
g74
g75
ssg63
g2209
sg56
(lp2216
S'extension'
p2217
asbag49
(g70
g51
NtRp2218
(dp2219
g54
(dp2220
g81
g82
ssg63
g2209
sg56
(lp2221
S':'
asbag49
(g70
g51
NtRp2222
(dp2223
g54
(dp2224
sg63
g2209
sg56
(lp2225
g49
(g50
g51
NtRp2226
(dp2227
g54
(dp2228
g62
I5
ssg63
g2222
sg56
(lp2229
S'html'
p2230
asbasbasbag49
(g65
g51
NtRp2231
(dp2232
g54
(dp2233
sg63
g59
sg56
(lp2234
g49
(g70
g51
NtRp2235
(dp2236
g54
(dp2237
g74
g75
ssg63
g2231
sg56
(lp2238
S'folder'
p2239
asbag49
(g70
g51
NtRp2240
(dp2241
g54
(dp2242
g81
g82
ssg63
g2231
sg56
(lp2243
S':'
asbag49
(g70
g51
NtRp2244
(dp2245
g54
(dp2246
sg63
g2231
sg56
(lp2247
g49
(g50
g51
NtRp2248
(dp2249
g54
(dp2250
g62
I5
ssg63
g2244
sg56
(lp2251
S'/Users/mdipierro/Dropbox/web2py/applications/inplace/'
p2252
asbasbasbag49
(g65
g51
NtRp2253
(dp2254
g54
(dp2255
sg63
g59
sg56
(lp2256
g49
(g70
g51
NtRp2257
(dp2258
g54
(dp2259
g74
g75
ssg63
g2253
sg56
(lp2260
S'function'
p2261
asbag49
(g70
g51
NtRp2262
(dp2263
g54
(dp2264
g81
g82
ssg63
g2253
sg56
(lp2265
S':'
asbag49
(g70
g51
NtRp2266
(dp2267
g54
(dp2268
sg63
g2253
sg56
(lp2269
g49
(g50
g51
NtRp2270
(dp2271
g54
(dp2272
g62
I5
ssg63
g2266
sg56
(lp2273
S'folder'
p2274
asbasbasbag49
(g65
g51
NtRp2275
(dp2276
g54
(dp2277
sg63
g59
sg56
(lp2278
g49
(g70
g51
NtRp2279
(dp2280
g54
(dp2281
g74
g75
ssg63
g2275
sg56
(lp2282
S'get_vars'
p2283
asbag49
(g70
g51
NtRp2284
(dp2285
g54
(dp2286
g81
g82
ssg63
g2275
sg56
(lp2287
S':'
asbag49
(g70
g51
NtRp2288
(dp2289
g54
(dp2290
sg63
g2275
sg56
(lp2291
g49
(g50
g51
NtRp2292
(dp2293
g54
(dp2294
g62
I5
ssg63
g2288
sg56
(lp2295
g49
(g58
g51
NtRp2296
(dp2297
g54
(dp2298
g62
I4
ssg63
Nsg56
(lp2299
sbasbasbasbag49
(g65
g51
NtRp2300
(dp2301
g54
(dp2302
sg63
g59
sg56
(lp2303
g49
(g70
g51
NtRp2304
(dp2305
g54
(dp2306
g74
g75
ssg63
g2300
sg56
(lp2307
S'global_settings'
p2308
asbag49
(g70
g51
NtRp2309
(dp2310
g54
(dp2311
g81
g82
ssg63
g2300
sg56
(lp2312
S':'
asbag49
(g70
g51
NtRp2313
(dp2314
g54
(dp2315
sg63
g2300
sg56
(lp2316
g49
(g50
g51
NtRp2317
(dp2318
g54
(dp2319
g62
I5
ssg63
g2313
sg56
(lp2320
g49
(g58
g51
NtRp2321
(dp2322
g54
(dp2323
g62
I4
ssg63
Nsg56
(lp2324
g49
(g65
g51
NtRp2325
(dp2326
g54
(dp2327
sg63
g2321
sg56
(lp2328
g49
(g70
g51
NtRp2329
(dp2330
g54
(dp2331
g74
g75
ssg63
g2325
sg56
(lp2332
g1272
asbag49
(g70
g51
NtRp2333
(dp2334
g54
(dp2335
g81
g82
ssg63
g2325
sg56
(lp2336
S':'
asbag49
(g70
g51
NtRp2337
(dp2338
g54
(dp2339
sg63
g2325
sg56
(lp2340
g49
(g50
g51
NtRp2341
(dp2342
g54
(dp2343
g62
I4
ssg63
g2337
sg56
(lp2344
S"set(['/Users/mdipierro/Dropbox/web2py/applications/inplace/', '/Users/mdipierro/Dropbox/web2py/applications/cms/', '/Users/mdipierro/Dropbox/web2py/applications/admin/'])"
p2345
asbasbasbag49
(g65
g51
NtRp2346
(dp2347
g54
(dp2348
sg63
g2321
sg56
(lp2349
g49
(g70
g51
NtRp2350
(dp2351
g54
(dp2352
g74
g75
ssg63
g2346
sg56
(lp2353
g1294
asbag49
(g70
g51
NtRp2354
(dp2355
g54
(dp2356
g81
g82
ssg63
g2346
sg56
(lp2357
S':'
asbag49
(g70
g51
NtRp2358
(dp2359
g54
(dp2360
sg63
g2346
sg56
(lp2361
g49
(g50
g51
NtRp2362
(dp2363
g54
(dp2364
g62
I4
ssg63
g2358
sg56
(lp2365
g1307
asbasbasbag49
(g65
g51
NtRp2366
(dp2367
g54
(dp2368
sg63
g2321
sg56
(lp2369
g49
(g70
g51
NtRp2370
(dp2371
g54
(dp2372
g74
g75
ssg63
g2366
sg56
(lp2373
g1316
asbag49
(g70
g51
NtRp2374
(dp2375
g54
(dp2376
g81
g82
ssg63
g2366
sg56
(lp2377
S':'
asbag49
(g70
g51
NtRp2378
(dp2379
g54
(dp2380
sg63
g2366
sg56
(lp2381
g49
(g50
g51
NtRp2382
(dp2383
g54
(dp2384
g62
I4
ssg63
g2378
sg56
(lp2385
g49
(g58
g51
NtRp2386
(dp2387
g54
(dp2388
g62
I3
ssg63
Nsg56
(lp2389
sbasbasbasbag49
(g65
g51
NtRp2390
(dp2391
g54
(dp2392
sg63
g2321
sg56
(lp2393
g49
(g70
g51
NtRp2394
(dp2395
g54
(dp2396
g74
g75
ssg63
g2390
sg56
(lp2397
g1341
asbag49
(g70
g51
NtRp2398
(dp2399
g54
(dp2400
g81
g82
ssg63
g2390
sg56
(lp2401
S':'
asbag49
(g70
g51
NtRp2402
(dp2403
g54
(dp2404
sg63
g2390
sg56
(lp2405
g49
(g50
g51
NtRp2406
(dp2407
g54
(dp2408
g62
I4
ssg63
g2402
sg56
(lp2409
S"<Values at 0x153a378: {'verbose': False, 'ip': '127.0.0.1', 'shutdown_timeout': 5, 'taskbar': False, 'nocron': False, 'pid_filename': 'httpserver.pid', 'maxthreads': None, 'softcron': False, 'server_name': 'massimo-di-pierros-macbook-2.local', 'bpython': False, 'nogui': False, 'port': 8000, 'extcron': False, 'debuglevel': 30, 'test': None, 'folder': '/Users/mdipierro/Dropbox/web2py', 'config': '', 'import_models': False, 'winservice': '', 'shell': None, 'run': '', 'log_filename': 'httpserver.log', 'args': [''], 'socket_timeout': 1, 'ssl_ca_certificate': None, 'scheduler': None, 'profiler_filename': None, 'ssl_private_key': '', 'password': 'hello', 'request_queue_size': 5, 'ssl_certificate': '', 'cronjob': False, 'numthreads': None, 'quiet': False, 'interfaces': None, 'minthreads': None, 'timeout': 10, 'plain': False, 'nobanner': False}>"
p2410
asbasbasbag49
(g65
g51
NtRp2411
(dp2412
g54
(dp2413
sg63
g2321
sg56
(lp2414
g49
(g70
g51
NtRp2415
(dp2416
g54
(dp2417
g74
g75
ssg63
g2411
sg56
(lp2418
g1363
asbag49
(g70
g51
NtRp2419
(dp2420
g54
(dp2421
g81
g82
ssg63
g2411
sg56
(lp2422
S':'
asbag49
(g70
g51
NtRp2423
(dp2424
g54
(dp2425
sg63
g2411
sg56
(lp2426
g49
(g50
g51
NtRp2427
(dp2428
g54
(dp2429
g62
I4
ssg63
g2423
sg56
(lp2430
S'set([])'
p2431
asbasbasbag49
(g65
g51
NtRp2432
(dp2433
g54
(dp2434
sg63
g2321
sg56
(lp2435
g49
(g70
g51
NtRp2436
(dp2437
g54
(dp2438
g74
g75
ssg63
g2432
sg56
(lp2439
g1385
asbag49
(g70
g51
NtRp2440
(dp2441
g54
(dp2442
g81
g82
ssg63
g2432
sg56
(lp2443
S':'
asbag49
(g70
g51
NtRp2444
(dp2445
g54
(dp2446
sg63
g2432
sg56
(lp2447
g49
(g50
g51
NtRp2448
(dp2449
g54
(dp2450
g62
I4
ssg63
g2444
sg56
(lp2451
g92
asbasbasbag49
(g65
g51
NtRp2452
(dp2453
g54
(dp2454
sg63
g2321
sg56
(lp2455
g49
(g70
g51
NtRp2456
(dp2457
g54
(dp2458
g74
g75
ssg63
g2452
sg56
(lp2459
g1406
asbag49
(g70
g51
NtRp2460
(dp2461
g54
(dp2462
g81
g82
ssg63
g2452
sg56
(lp2463
S':'
asbag49
(g70
g51
NtRp2464
(dp2465
g54
(dp2466
sg63
g2452
sg56
(lp2467
g49
(g50
g51
NtRp2468
(dp2469
g54
(dp2470
g62
I4
ssg63
g2464
sg56
(lp2471
g1419
asbasbasbag49
(g65
g51
NtRp2472
(dp2473
g54
(dp2474
sg63
g2321
sg56
(lp2475
g49
(g70
g51
NtRp2476
(dp2477
g54
(dp2478
g74
g75
ssg63
g2472
sg56
(lp2479
g1626
asbag49
(g70
g51
NtRp2480
(dp2481
g54
(dp2482
g81
g82
ssg63
g2472
sg56
(lp2483
S':'
asbag49
(g70
g51
NtRp2484
(dp2485
g54
(dp2486
sg63
g2472
sg56
(lp2487
g49
(g50
g51
NtRp2488
(dp2489
g54
(dp2490
g62
I4
ssg63
g2484
sg56
(lp2491
g92
asbasbasbag49
(g65
g51
NtRp2492
(dp2493
g54
(dp2494
sg63
g2321
sg56
(lp2495
g49
(g70
g51
NtRp2496
(dp2497
g54
(dp2498
g74
g75
ssg63
g2492
sg56
(lp2499
g1647
asbag49
(g70
g51
NtRp2500
(dp2501
g54
(dp2502
g81
g82
ssg63
g2492
sg56
(lp2503
S':'
asbag49
(g70
g51
NtRp2504
(dp2505
g54
(dp2506
sg63
g2492
sg56
(lp2507
g49
(g50
g51
NtRp2508
(dp2509
g54
(dp2510
g62
I4
ssg63
g2504
sg56
(lp2511
g92
asbasbasbag49
(g65
g51
NtRp2512
(dp2513
g54
(dp2514
sg63
g2321
sg56
(lp2515
g49
(g70
g51
NtRp2516
(dp2517
g54
(dp2518
g74
g75
ssg63
g2512
sg56
(lp2519
g1885
asbag49
(g70
g51
NtRp2520
(dp2521
g54
(dp2522
g81
g82
ssg63
g2512
sg56
(lp2523
S':'
asbag49
(g70
g51
NtRp2524
(dp2525
g54
(dp2526
sg63
g2512
sg56
(lp2527
g49
(g50
g51
NtRp2528
(dp2529
g54
(dp2530
g62
I4
ssg63
g2524
sg56
(lp2531
g1898
asbasbasbag49
(g65
g51
NtRp2532
(dp2533
g54
(dp2534
sg63
g2321
sg56
(lp2535
g49
(g70
g51
NtRp2536
(dp2537
g54
(dp2538
g74
g75
ssg63
g2532
sg56
(lp2539
g1928
asbag49
(g70
g51
NtRp2540
(dp2541
g54
(dp2542
g81
g82
ssg63
g2532
sg56
(lp2543
S':'
asbag49
(g70
g51
NtRp2544
(dp2545
g54
(dp2546
sg63
g2532
sg56
(lp2547
g49
(g50
g51
NtRp2548
(dp2549
g54
(dp2550
g62
I4
ssg63
g2544
sg56
(lp2551
g49
(g58
g51
NtRp2552
(dp2553
g54
(dp2554
g62
I3
ssg63
Nsg56
(lp2555
g49
(g65
g51
NtRp2556
(dp2557
g54
(dp2558
sg63
g2552
sg56
(lp2559
g49
(g70
g51
NtRp2560
(dp2561
g54
(dp2562
sg63
g2556
sg56
(lp2563
g49
(g50
g51
NtRp2564
(dp2565
g54
(dp2566
g62
I3
ssg63
g2560
sg56
(lp2567
S'1'
asbasbasbag49
(g65
g51
NtRp2568
(dp2569
g54
(dp2570
sg63
g2552
sg56
(lp2571
g49
(g70
g51
NtRp2572
(dp2573
g54
(dp2574
sg63
g2568
sg56
(lp2575
g49
(g50
g51
NtRp2576
(dp2577
g54
(dp2578
g62
I3
ssg63
g2572
sg56
(lp2579
S'99'
p2580
asbasbasbag49
(g65
g51
NtRp2581
(dp2582
g54
(dp2583
sg63
g2552
sg56
(lp2584
g49
(g70
g51
NtRp2585
(dp2586
g54
(dp2587
sg63
g2581
sg56
(lp2588
g49
(g50
g51
NtRp2589
(dp2590
g54
(dp2591
g62
I3
ssg63
g2585
sg56
(lp2592
S'3'
asbasbasbag49
(g65
g51
NtRp2593
(dp2594
g54
(dp2595
sg63
g2552
sg56
(lp2596
g49
(g70
g51
NtRp2597
(dp2598
g54
(dp2599
sg63
g2593
sg56
(lp2600
g49
(g50
g51
NtRp2601
(dp2602
g54
(dp2603
g62
I3
ssg63
g2597
sg56
(lp2604
S'datetime.datetime(2011, 12, 9, 21, 5, 4)'
p2605
asbasbasbag49
(g65
g51
NtRp2606
(dp2607
g54
(dp2608
sg63
g2552
sg56
(lp2609
g49
(g70
g51
NtRp2610
(dp2611
g54
(dp2612
sg63
g2606
sg56
(lp2613
g49
(g50
g51
NtRp2614
(dp2615
g54
(dp2616
g62
I3
ssg63
g2610
sg56
(lp2617
g2007
asbasbasbasbasbasbasbasbasbasbasbag49
(g65
g51
NtRp2618
(dp2619
g54
(dp2620
sg63
g59
sg56
(lp2621
g49
(g70
g51
NtRp2622
(dp2623
g54
(dp2624
g74
g75
ssg63
g2618
sg56
(lp2625
S'is_https'
p2626
asbag49
(g70
g51
NtRp2627
(dp2628
g54
(dp2629
g81
g82
ssg63
g2618
sg56
(lp2630
S':'
asbag49
(g70
g51
NtRp2631
(dp2632
g54
(dp2633
sg63
g2618
sg56
(lp2634
g49
(g50
g51
NtRp2635
(dp2636
g54
(dp2637
g62
I5
ssg63
g2631
sg56
(lp2638
g92
asbasbasbag49
(g65
g51
NtRp2639
(dp2640
g54
(dp2641
sg63
g59
sg56
(lp2642
g49
(g70
g51
NtRp2643
(dp2644
g54
(dp2645
g74
g75
ssg63
g2639
sg56
(lp2646
S'is_local'
p2647
asbag49
(g70
g51
NtRp2648
(dp2649
g54
(dp2650
g81
g82
ssg63
g2639
sg56
(lp2651
S':'
asbag49
(g70
g51
NtRp2652
(dp2653
g54
(dp2654
sg63
g2639
sg56
(lp2655
g49
(g50
g51
NtRp2656
(dp2657
g54
(dp2658
g62
I5
ssg63
g2652
sg56
(lp2659
g2116
asbasbasbag49
(g65
g51
NtRp2660
(dp2661
g54
(dp2662
sg63
g59
sg56
(lp2663
g49
(g70
g51
NtRp2664
(dp2665
g54
(dp2666
g74
g75
ssg63
g2660
sg56
(lp2667
S'is_restful'
p2668
asbag49
(g70
g51
NtRp2669
(dp2670
g54
(dp2671
g81
g82
ssg63
g2660
sg56
(lp2672
S':'
asbag49
(g70
g51
NtRp2673
(dp2674
g54
(dp2675
sg63
g2660
sg56
(lp2676
g49
(g50
g51
NtRp2677
(dp2678
g54
(dp2679
g62
I5
ssg63
g2673
sg56
(lp2680
g92
asbasbasbag49
(g65
g51
NtRp2681
(dp2682
g54
(dp2683
sg63
g59
sg56
(lp2684
g49
(g70
g51
NtRp2685
(dp2686
g54
(dp2687
g74
g75
ssg63
g2681
sg56
(lp2688
S'now'
p2689
asbag49
(g70
g51
NtRp2690
(dp2691
g54
(dp2692
g81
g82
ssg63
g2681
sg56
(lp2693
S':'
asbag49
(g70
g51
NtRp2694
(dp2695
g54
(dp2696
sg63
g2681
sg56
(lp2697
g49
(g50
g51
NtRp2698
(dp2699
g54
(dp2700
g62
I5
ssg63
g2694
sg56
(lp2701
S'datetime.datetime(2011, 12, 11, 16, 26, 38, 268966)'
p2702
asbasbasbag49
(g65
g51
NtRp2703
(dp2704
g54
(dp2705
sg63
g59
sg56
(lp2706
g49
(g70
g51
NtRp2707
(dp2708
g54
(dp2709
g74
g75
ssg63
g2703
sg56
(lp2710
S'post_vars'
p2711
asbag49
(g70
g51
NtRp2712
(dp2713
g54
(dp2714
g81
g82
ssg63
g2703
sg56
(lp2715
S':'
asbag49
(g70
g51
NtRp2716
(dp2717
g54
(dp2718
sg63
g2703
sg56
(lp2719
g49
(g50
g51
NtRp2720
(dp2721
g54
(dp2722
g62
I5
ssg63
g2716
sg56
(lp2723
g49
(g58
g51
NtRp2724
(dp2725
g54
(dp2726
g62
I4
ssg63
Nsg56
(lp2727
sbasbasbasbag49
(g65
g51
NtRp2728
(dp2729
g54
(dp2730
sg63
g59
sg56
(lp2731
g49
(g70
g51
NtRp2732
(dp2733
g54
(dp2734
g74
g75
ssg63
g2728
sg56
(lp2735
S'raw_args'
p2736
asbag49
(g70
g51
NtRp2737
(dp2738
g54
(dp2739
g81
g82
ssg63
g2728
sg56
(lp2740
S':'
asbag49
(g70
g51
NtRp2741
(dp2742
g54
(dp2743
sg63
g2728
sg56
(lp2744
g49
(g50
g51
NtRp2745
(dp2746
g54
(dp2747
g62
I5
ssg63
g2741
sg56
(lp2748
S'1'
asbasbasbag49
(g65
g51
NtRp2749
(dp2750
g54
(dp2751
sg63
g59
sg56
(lp2752
g49
(g70
g51
NtRp2753
(dp2754
g54
(dp2755
g74
g75
ssg63
g2749
sg56
(lp2756
S'url'
p2757
asbag49
(g70
g51
NtRp2758
(dp2759
g54
(dp2760
g81
g82
ssg63
g2749
sg56
(lp2761
S':'
asbag49
(g70
g51
NtRp2762
(dp2763
g54
(dp2764
sg63
g2749
sg56
(lp2765
g49
(g50
g51
NtRp2766
(dp2767
g54
(dp2768
g62
I5
ssg63
g2762
sg56
(lp2769
S'/inplace/default/folder/1'
p2770
asbasbasbag49
(g65
g51
NtRp2771
(dp2772
g54
(dp2773
sg63
g59
sg56
(lp2774
g49
(g70
g51
NtRp2775
(dp2776
g54
(dp2777
g74
g75
ssg63
g2771
sg56
(lp2778
S'utcnow'
p2779
asbag49
(g70
g51
NtRp2780
(dp2781
g54
(dp2782
g81
g82
ssg63
g2771
sg56
(lp2783
S':'
asbag49
(g70
g51
NtRp2784
(dp2785
g54
(dp2786
sg63
g2771
sg56
(lp2787
g49
(g50
g51
NtRp2788
(dp2789
g54
(dp2790
g62
I5
ssg63
g2784
sg56
(lp2791
S'datetime.datetime(2011, 12, 11, 22, 26, 38, 268976)'
p2792
asbasbasbag49
(g65
g51
NtRp2793
(dp2794
g54
(dp2795
sg63
g59
sg56
(lp2796
g49
(g70
g51
NtRp2797
(dp2798
g54
(dp2799
g74
g75
ssg63
g2793
sg56
(lp2800
S'uuid'
p2801
asbag49
(g70
g51
NtRp2802
(dp2803
g54
(dp2804
g81
g82
ssg63
g2793
sg56
(lp2805
S':'
asbag49
(g70
g51
NtRp2806
(dp2807
g54
(dp2808
sg63
g2793
sg56
(lp2809
g49
(g50
g51
NtRp2810
(dp2811
g54
(dp2812
g62
I5
ssg63
g2806
sg56
(lp2813
S'inplace/127.0.0.1.2011-12-11.16-26-38.fa16f9ed-9d18-42bf-9d8c-7bb4b20a162b'
p2814
asbasbasbag49
(g65
g51
NtRp2815
(dp2816
g54
(dp2817
sg63
g59
sg56
(lp2818
g49
(g70
g51
NtRp2819
(dp2820
g54
(dp2821
g74
g75
ssg63
g2815
sg56
(lp2822
S'vars'
p2823
asbag49
(g70
g51
NtRp2824
(dp2825
g54
(dp2826
g81
g82
ssg63
g2815
sg56
(lp2827
S':'
asbag49
(g70
g51
NtRp2828
(dp2829
g54
(dp2830
sg63
g2815
sg56
(lp2831
g49
(g50
g51
NtRp2832
(dp2833
g54
(dp2834
g62
I5
ssg63
g2828
sg56
(lp2835
g49
(g58
g51
NtRp2836
(dp2837
g54
(dp2838
g62
I4
ssg63
Nsg56
(lp2839
sbasbasbasbag49
(g65
g51
NtRp2840
(dp2841
g54
(dp2842
sg63
g59
sg56
(lp2843
g49
(g70
g51
NtRp2844
(dp2845
g54
(dp2846
g74
g75
ssg63
g2840
sg56
(lp2847
S'wsgi'
p2848
asbag49
(g70
g51
NtRp2849
(dp2850
g54
(dp2851
g81
g82
ssg63
g2840
sg56
(lp2852
S':'
asbag49
(g70
g51
NtRp2853
(dp2854
g54
(dp2855
sg63
g2840
sg56
(lp2856
g49
(g50
g51
NtRp2857
(dp2858
g54
(dp2859
g62
I5
ssg63
g2853
sg56
(lp2860
g49
(g58
g51
NtRp2861
(dp2862
g54
(dp2863
g62
I4
ssg63
Nsg56
(lp2864
g49
(g65
g51
NtRp2865
(dp2866
g54
(dp2867
sg63
g2861
sg56
(lp2868
g49
(g70
g51
NtRp2869
(dp2870
g54
(dp2871
g74
g75
ssg63
g2865
sg56
(lp2872
S'environ'
p2873
asbag49
(g70
g51
NtRp2874
(dp2875
g54
(dp2876
g81
g82
ssg63
g2865
sg56
(lp2877
S':'
asbag49
(g70
g51
NtRp2878
(dp2879
g54
(dp2880
sg63
g2865
sg56
(lp2881
g49
(g50
g51
NtRp2882
(dp2883
g54
(dp2884
g62
I4
ssg63
g2878
sg56
(lp2885
g49
(g58
g51
NtRp2886
(dp2887
g54
(dp2888
g62
I3
ssg63
Nsg56
(lp2889
g49
(g65
g51
NtRp2890
(dp2891
g54
(dp2892
sg63
g2886
sg56
(lp2893
g49
(g70
g51
NtRp2894
(dp2895
g54
(dp2896
g74
g75
ssg63
g2890
sg56
(lp2897
S'HTTP_ACCEPT'
p2898
asbag49
(g70
g51
NtRp2899
(dp2900
g54
(dp2901
g81
g82
ssg63
g2890
sg56
(lp2902
S':'
asbag49
(g70
g51
NtRp2903
(dp2904
g54
(dp2905
sg63
g2890
sg56
(lp2906
g49
(g50
g51
NtRp2907
(dp2908
g54
(dp2909
g62
I3
ssg63
g2903
sg56
(lp2910
g1441
asbasbasbag49
(g65
g51
NtRp2911
(dp2912
g54
(dp2913
sg63
g2886
sg56
(lp2914
g49
(g70
g51
NtRp2915
(dp2916
g54
(dp2917
g74
g75
ssg63
g2911
sg56
(lp2918
S'HTTP_ACCEPT_CHARSET'
p2919
asbag49
(g70
g51
NtRp2920
(dp2921
g54
(dp2922
g81
g82
ssg63
g2911
sg56
(lp2923
S':'
asbag49
(g70
g51
NtRp2924
(dp2925
g54
(dp2926
sg63
g2911
sg56
(lp2927
g49
(g50
g51
NtRp2928
(dp2929
g54
(dp2930
g62
I3
ssg63
g2924
sg56
(lp2931
g1463
asbasbasbag49
(g65
g51
NtRp2932
(dp2933
g54
(dp2934
sg63
g2886
sg56
(lp2935
g49
(g70
g51
NtRp2936
(dp2937
g54
(dp2938
g74
g75
ssg63
g2932
sg56
(lp2939
S'HTTP_ACCEPT_ENCODING'
p2940
asbag49
(g70
g51
NtRp2941
(dp2942
g54
(dp2943
g81
g82
ssg63
g2932
sg56
(lp2944
S':'
asbag49
(g70
g51
NtRp2945
(dp2946
g54
(dp2947
sg63
g2932
sg56
(lp2948
g49
(g50
g51
NtRp2949
(dp2950
g54
(dp2951
g62
I3
ssg63
g2945
sg56
(lp2952
g1485
asbasbasbag49
(g65
g51
NtRp2953
(dp2954
g54
(dp2955
sg63
g2886
sg56
(lp2956
g49
(g70
g51
NtRp2957
(dp2958
g54
(dp2959
g74
g75
ssg63
g2953
sg56
(lp2960
S'HTTP_ACCEPT_LANGUAGE'
p2961
asbag49
(g70
g51
NtRp2962
(dp2963
g54
(dp2964
g81
g82
ssg63
g2953
sg56
(lp2965
S':'
asbag49
(g70
g51
NtRp2966
(dp2967
g54
(dp2968
sg63
g2953
sg56
(lp2969
g49
(g50
g51
NtRp2970
(dp2971
g54
(dp2972
g62
I3
ssg63
g2966
sg56
(lp2973
g1507
asbasbasbag49
(g65
g51
NtRp2974
(dp2975
g54
(dp2976
sg63
g2886
sg56
(lp2977
g49
(g70
g51
NtRp2978
(dp2979
g54
(dp2980
g74
g75
ssg63
g2974
sg56
(lp2981
S'HTTP_CACHE_CONTROL'
p2982
asbag49
(g70
g51
NtRp2983
(dp2984
g54
(dp2985
g81
g82
ssg63
g2974
sg56
(lp2986
S':'
asbag49
(g70
g51
NtRp2987
(dp2988
g54
(dp2989
sg63
g2974
sg56
(lp2990
g49
(g50
g51
NtRp2991
(dp2992
g54
(dp2993
g62
I3
ssg63
g2987
sg56
(lp2994
g1529
asbasbasbag49
(g65
g51
NtRp2995
(dp2996
g54
(dp2997
sg63
g2886
sg56
(lp2998
g49
(g70
g51
NtRp2999
(dp3000
g54
(dp3001
g74
g75
ssg63
g2995
sg56
(lp3002
S'HTTP_CONNECTION'
p3003
asbag49
(g70
g51
NtRp3004
(dp3005
g54
(dp3006
g81
g82
ssg63
g2995
sg56
(lp3007
S':'
asbag49
(g70
g51
NtRp3008
(dp3009
g54
(dp3010
sg63
g2995
sg56
(lp3011
g49
(g50
g51
NtRp3012
(dp3013
g54
(dp3014
g62
I3
ssg63
g3008
sg56
(lp3015
g1551
asbasbasbag49
(g65
g51
NtRp3016
(dp3017
g54
(dp3018
sg63
g2886
sg56
(lp3019
g49
(g70
g51
NtRp3020
(dp3021
g54
(dp3022
g74
g75
ssg63
g3016
sg56
(lp3023
S'HTTP_COOKIE'
p3024
asbag49
(g70
g51
NtRp3025
(dp3026
g54
(dp3027
g81
g82
ssg63
g3016
sg56
(lp3028
S':'
asbag49
(g70
g51
NtRp3029
(dp3030
g54
(dp3031
sg63
g3016
sg56
(lp3032
g49
(g50
g51
NtRp3033
(dp3034
g54
(dp3035
g62
I3
ssg63
g3029
sg56
(lp3036
g1573
asbasbasbag49
(g65
g51
NtRp3037
(dp3038
g54
(dp3039
sg63
g2886
sg56
(lp3040
g49
(g70
g51
NtRp3041
(dp3042
g54
(dp3043
g74
g75
ssg63
g3037
sg56
(lp3044
S'HTTP_HOST'
p3045
asbag49
(g70
g51
NtRp3046
(dp3047
g54
(dp3048
g81
g82
ssg63
g3037
sg56
(lp3049
S':'
asbag49
(g70
g51
NtRp3050
(dp3051
g54
(dp3052
sg63
g3037
sg56
(lp3053
g49
(g50
g51
NtRp3054
(dp3055
g54
(dp3056
g62
I3
ssg63
g3050
sg56
(lp3057
g1595
asbasbasbag49
(g65
g51
NtRp3058
(dp3059
g54
(dp3060
sg63
g2886
sg56
(lp3061
g49
(g70
g51
NtRp3062
(dp3063
g54
(dp3064
g74
g75
ssg63
g3058
sg56
(lp3065
S'HTTP_USER_AGENT'
p3066
asbag49
(g70
g51
NtRp3067
(dp3068
g54
(dp3069
g81
g82
ssg63
g3058
sg56
(lp3070
S':'
asbag49
(g70
g51
NtRp3071
(dp3072
g54
(dp3073
sg63
g3058
sg56
(lp3074
g49
(g50
g51
NtRp3075
(dp3076
g54
(dp3077
g62
I3
ssg63
g3071
sg56
(lp3078
g1617
asbasbasbag49
(g65
g51
NtRp3079
(dp3080
g54
(dp3081
sg63
g2886
sg56
(lp3082
g49
(g70
g51
NtRp3083
(dp3084
g54
(dp3085
g74
g75
ssg63
g3079
sg56
(lp3086
S'PATH_INFO'
p3087
asbag49
(g70
g51
NtRp3088
(dp3089
g54
(dp3090
g81
g82
ssg63
g3079
sg56
(lp3091
S':'
asbag49
(g70
g51
NtRp3092
(dp3093
g54
(dp3094
sg63
g3079
sg56
(lp3095
g49
(g50
g51
NtRp3096
(dp3097
g54
(dp3098
g62
I3
ssg63
g3092
sg56
(lp3099
g1681
asbasbasbag49
(g65
g51
NtRp3100
(dp3101
g54
(dp3102
sg63
g2886
sg56
(lp3103
g49
(g70
g51
NtRp3104
(dp3105
g54
(dp3106
g74
g75
ssg63
g3100
sg56
(lp3107
S'QUERY_STRING'
p3108
asbag49
(g70
g51
NtRp3109
(dp3110
g54
(dp3111
g81
g82
ssg63
g3100
sg56
(lp3112
S':'
asbag49
(g70
g51
NtRp3113
(dp3114
g54
(dp3115
sg63
g3100
sg56
(lp3116
g49
(g50
g51
NtRp3117
(dp3118
g54
(dp3119
g62
I3
ssg63
g3113
sg56
(lp3120
S''
asbasbasbag49
(g65
g51
NtRp3121
(dp3122
g54
(dp3123
sg63
g2886
sg56
(lp3124
g49
(g70
g51
NtRp3125
(dp3126
g54
(dp3127
g74
g75
ssg63
g3121
sg56
(lp3128
S'REMOTE_ADDR'
p3129
asbag49
(g70
g51
NtRp3130
(dp3131
g54
(dp3132
g81
g82
ssg63
g3121
sg56
(lp3133
S':'
asbag49
(g70
g51
NtRp3134
(dp3135
g54
(dp3136
sg63
g3121
sg56
(lp3137
g49
(g50
g51
NtRp3138
(dp3139
g54
(dp3140
g62
I3
ssg63
g3134
sg56
(lp3141
g194
asbasbasbag49
(g65
g51
NtRp3142
(dp3143
g54
(dp3144
sg63
g2886
sg56
(lp3145
g49
(g70
g51
NtRp3146
(dp3147
g54
(dp3148
g74
g75
ssg63
g3142
sg56
(lp3149
S'REMOTE_PORT'
p3150
asbag49
(g70
g51
NtRp3151
(dp3152
g54
(dp3153
g81
g82
ssg63
g3142
sg56
(lp3154
S':'
asbag49
(g70
g51
NtRp3155
(dp3156
g54
(dp3157
sg63
g3142
sg56
(lp3158
g49
(g50
g51
NtRp3159
(dp3160
g54
(dp3161
g62
I3
ssg63
g3155
sg56
(lp3162
g1745
asbasbasbag49
(g65
g51
NtRp3163
(dp3164
g54
(dp3165
sg63
g2886
sg56
(lp3166
g49
(g70
g51
NtRp3167
(dp3168
g54
(dp3169
g74
g75
ssg63
g3163
sg56
(lp3170
S'REQUEST_METHOD'
p3171
asbag49
(g70
g51
NtRp3172
(dp3173
g54
(dp3174
g81
g82
ssg63
g3163
sg56
(lp3175
S':'
asbag49
(g70
g51
NtRp3176
(dp3177
g54
(dp3178
sg63
g3163
sg56
(lp3179
g49
(g50
g51
NtRp3180
(dp3181
g54
(dp3182
g62
I3
ssg63
g3176
sg56
(lp3183
g1767
asbasbasbag49
(g65
g51
NtRp3184
(dp3185
g54
(dp3186
sg63
g2886
sg56
(lp3187
g49
(g70
g51
NtRp3188
(dp3189
g54
(dp3190
g74
g75
ssg63
g3184
sg56
(lp3191
S'SCRIPT_NAME'
p3192
asbag49
(g70
g51
NtRp3193
(dp3194
g54
(dp3195
g81
g82
ssg63
g3184
sg56
(lp3196
S':'
asbag49
(g70
g51
NtRp3197
(dp3198
g54
(dp3199
sg63
g3184
sg56
(lp3200
g49
(g50
g51
NtRp3201
(dp3202
g54
(dp3203
g62
I3
ssg63
g3197
sg56
(lp3204
S''
asbasbasbag49
(g65
g51
NtRp3205
(dp3206
g54
(dp3207
sg63
g2886
sg56
(lp3208
g49
(g70
g51
NtRp3209
(dp3210
g54
(dp3211
g74
g75
ssg63
g3205
sg56
(lp3212
S'SERVER_NAME'
p3213
asbag49
(g70
g51
NtRp3214
(dp3215
g54
(dp3216
g81
g82
ssg63
g3205
sg56
(lp3217
S':'
asbag49
(g70
g51
NtRp3218
(dp3219
g54
(dp3220
sg63
g3205
sg56
(lp3221
g49
(g50
g51
NtRp3222
(dp3223
g54
(dp3224
g62
I3
ssg63
g3218
sg56
(lp3225
g1810
asbasbasbag49
(g65
g51
NtRp3226
(dp3227
g54
(dp3228
sg63
g2886
sg56
(lp3229
g49
(g70
g51
NtRp3230
(dp3231
g54
(dp3232
g74
g75
ssg63
g3226
sg56
(lp3233
S'SERVER_PORT'
p3234
asbag49
(g70
g51
NtRp3235
(dp3236
g54
(dp3237
g81
g82
ssg63
g3226
sg56
(lp3238
S':'
asbag49
(g70
g51
NtRp3239
(dp3240
g54
(dp3241
sg63
g3226
sg56
(lp3242
g49
(g50
g51
NtRp3243
(dp3244
g54
(dp3245
g62
I3
ssg63
g3239
sg56
(lp3246
g1832
asbasbasbag49
(g65
g51
NtRp3247
(dp3248
g54
(dp3249
sg63
g2886
sg56
(lp3250
g49
(g70
g51
NtRp3251
(dp3252
g54
(dp3253
g74
g75
ssg63
g3247
sg56
(lp3254
S'SERVER_PROTOCOL'
p3255
asbag49
(g70
g51
NtRp3256
(dp3257
g54
(dp3258
g81
g82
ssg63
g3247
sg56
(lp3259
S':'
asbag49
(g70
g51
NtRp3260
(dp3261
g54
(dp3262
sg63
g3247
sg56
(lp3263
g49
(g50
g51
NtRp3264
(dp3265
g54
(dp3266
g62
I3
ssg63
g3260
sg56
(lp3267
g1854
asbasbasbag49
(g65
g51
NtRp3268
(dp3269
g54
(dp3270
sg63
g2886
sg56
(lp3271
g49
(g70
g51
NtRp3272
(dp3273
g54
(dp3274
g74
g75
ssg63
g3268
sg56
(lp3275
S'SERVER_SOFTWARE'
p3276
asbag49
(g70
g51
NtRp3277
(dp3278
g54
(dp3279
g81
g82
ssg63
g3268
sg56
(lp3280
S':'
asbag49
(g70
g51
NtRp3281
(dp3282
g54
(dp3283
sg63
g3268
sg56
(lp3284
g49
(g50
g51
NtRp3285
(dp3286
g54
(dp3287
g62
I3
ssg63
g3281
sg56
(lp3288
g1876
asbasbasbag49
(g65
g51
NtRp3289
(dp3290
g54
(dp3291
sg63
g2886
sg56
(lp3292
g49
(g70
g51
NtRp3293
(dp3294
g54
(dp3295
g74
g75
ssg63
g3289
sg56
(lp3296
S'wsgi.errors'
p3297
asbag49
(g70
g51
NtRp3298
(dp3299
g54
(dp3300
g81
g82
ssg63
g3289
sg56
(lp3301
S':'
asbag49
(g70
g51
NtRp3302
(dp3303
g54
(dp3304
sg63
g3289
sg56
(lp3305
g49
(g50
g51
NtRp3306
(dp3307
g54
(dp3308
g62
I3
ssg63
g3302
sg56
(lp3309
S"<open file '<stderr>', mode 'w' at 0x1620b0>"
p3310
asbasbasbag49
(g65
g51
NtRp3311
(dp3312
g54
(dp3313
sg63
g2886
sg56
(lp3314
g49
(g70
g51
NtRp3315
(dp3316
g54
(dp3317
g74
g75
ssg63
g3311
sg56
(lp3318
S'wsgi.file_wrapper'
p3319
asbag49
(g70
g51
NtRp3320
(dp3321
g54
(dp3322
g81
g82
ssg63
g3311
sg56
(lp3323
S':'
asbag49
(g70
g51
NtRp3324
(dp3325
g54
(dp3326
sg63
g3311
sg56
(lp3327
g49
(g50
g51
NtRp3328
(dp3329
g54
(dp3330
g62
I3
ssg63
g3324
sg56
(lp3331
S'<class wsgiref.util.FileWrapper at 0x7c2840>'
p3332
asbasbasbag49
(g65
g51
NtRp3333
(dp3334
g54
(dp3335
sg63
g2886
sg56
(lp3336
g49
(g70
g51
NtRp3337
(dp3338
g54
(dp3339
g74
g75
ssg63
g3333
sg56
(lp3340
S'wsgi.input'
p3341
asbag49
(g70
g51
NtRp3342
(dp3343
g54
(dp3344
g81
g82
ssg63
g3333
sg56
(lp3345
S':'
asbag49
(g70
g51
NtRp3346
(dp3347
g54
(dp3348
sg63
g3333
sg56
(lp3349
g49
(g50
g51
NtRp3350
(dp3351
g54
(dp3352
g62
I3
ssg63
g3346
sg56
(lp3353
S'<cStringIO.StringO object at 0x1fc0f80>'
p3354
asbasbasbag49
(g65
g51
NtRp3355
(dp3356
g54
(dp3357
sg63
g2886
sg56
(lp3358
g49
(g70
g51
NtRp3359
(dp3360
g54
(dp3361
g74
g75
ssg63
g3355
sg56
(lp3362
S'wsgi.multiprocess'
p3363
asbag49
(g70
g51
NtRp3364
(dp3365
g54
(dp3366
g81
g82
ssg63
g3355
sg56
(lp3367
S':'
asbag49
(g70
g51
NtRp3368
(dp3369
g54
(dp3370
sg63
g3355
sg56
(lp3371
g49
(g50
g51
NtRp3372
(dp3373
g54
(dp3374
g62
I3
ssg63
g3368
sg56
(lp3375
g92
asbasbasbag49
(g65
g51
NtRp3376
(dp3377
g54
(dp3378
sg63
g2886
sg56
(lp3379
g49
(g70
g51
NtRp3380
(dp3381
g54
(dp3382
g74
g75
ssg63
g3376
sg56
(lp3383
S'wsgi.multithread'
p3384
asbag49
(g70
g51
NtRp3385
(dp3386
g54
(dp3387
g81
g82
ssg63
g3376
sg56
(lp3388
S':'
asbag49
(g70
g51
NtRp3389
(dp3390
g54
(dp3391
sg63
g3376
sg56
(lp3392
g49
(g50
g51
NtRp3393
(dp3394
g54
(dp3395
g62
I3
ssg63
g3389
sg56
(lp3396
g2116
asbasbasbag49
(g65
g51
NtRp3397
(dp3398
g54
(dp3399
sg63
g2886
sg56
(lp3400
g49
(g70
g51
NtRp3401
(dp3402
g54
(dp3403
g74
g75
ssg63
g3397
sg56
(lp3404
S'wsgi.run_once'
p3405
asbag49
(g70
g51
NtRp3406
(dp3407
g54
(dp3408
g81
g82
ssg63
g3397
sg56
(lp3409
S':'
asbag49
(g70
g51
NtRp3410
(dp3411
g54
(dp3412
sg63
g3397
sg56
(lp3413
g49
(g50
g51
NtRp3414
(dp3415
g54
(dp3416
g62
I3
ssg63
g3410
sg56
(lp3417
g92
asbasbasbag49
(g65
g51
NtRp3418
(dp3419
g54
(dp3420
sg63
g2886
sg56
(lp3421
g49
(g70
g51
NtRp3422
(dp3423
g54
(dp3424
g74
g75
ssg63
g3418
sg56
(lp3425
S'wsgi.url_scheme'
p3426
asbag49
(g70
g51
NtRp3427
(dp3428
g54
(dp3429
g81
g82
ssg63
g3418
sg56
(lp3430
S':'
asbag49
(g70
g51
NtRp3431
(dp3432
g54
(dp3433
sg63
g3418
sg56
(lp3434
g49
(g50
g51
NtRp3435
(dp3436
g54
(dp3437
g62
I3
ssg63
g3431
sg56
(lp3438
g2159
asbasbasbag49
(g65
g51
NtRp3439
(dp3440
g54
(dp3441
sg63
g2886
sg56
(lp3442
g49
(g70
g51
NtRp3443
(dp3444
g54
(dp3445
g74
g75
ssg63
g3439
sg56
(lp3446
S'wsgi.version'
p3447
asbag49
(g70
g51
NtRp3448
(dp3449
g54
(dp3450
g81
g82
ssg63
g3439
sg56
(lp3451
S':'
asbag49
(g70
g51
NtRp3452
(dp3453
g54
(dp3454
sg63
g3439
sg56
(lp3455
g49
(g50
g51
NtRp3456
(dp3457
g54
(dp3458
g62
I3
ssg63
g3452
sg56
(lp3459
S'1'
asbasbasbasbasbasbasbasbasbasbasbasbasbsS'frames'
p3460
(lp3461
(dp3462
S'file'
p3463
S'/Users/mdipierro/Dropbox/web2py/gluon/restricted.py'
p3464
sS'dump'
p3465
(dp3466
S'environment'
p3467
S"{'A': <class 'gluon.html.A'>, 'Auth': <class 'gluon.tools.Auth'>, 'B': <class 'gluon.html.B'>, 'BEAUTIFY': <class 'gluon.html.BEAUTIFY'>, 'BODY': <class 'gluon.html.BODY'>, 'BR': <class 'gluon.html.BR'>, 'BUTTON': <class 'gluon.html.BUTTON'>, 'CAT': <class 'gluon.html.CAT'>, 'CENTER': <class 'gluon.html.CENTER'>, 'CLEANUP': <class 'gluon.validators.CLEANUP'>, ...}"
p3468
sS'ccode'
p3469
S'<code object <module> at 0x281ed10, file "/Users...ications/inplace/controllers/default.py", line 4>'
p3470
ssS'lnum'
p3471
I204
sS'lines'
p3472
(dp3473
I199
S'    try:'
p3474
sI200
S'        if type(code) == types.CodeType:'
p3475
sI201
S'            ccode = code'
p3476
sI202
S'        else:'
p3477
sI203
S'            ccode = compile2(code,layer)'
p3478
sI204
S'        exec ccode in environment'
p3479
sI205
S'    except HTTP:'
p3480
sI206
S'        raise'
p3481
sI207
S'    except RestrictedError:'
p3482
sI208
S'        # do not encapsulate (obfuscate) the original RestrictedError'
p3483
ssS'call'
p3484
S"(code='# -*- coding: utf-8 -*-\\n# developed by Massimo D...ocals()\\n\\nresponse._vars=response._caller(folder)\\n', environment={'A': <class 'gluon.html.A'>, 'Auth': <class 'gluon.tools.Auth'>, 'B': <class 'gluon.html.B'>, 'BEAUTIFY': <class 'gluon.html.BEAUTIFY'>, 'BODY': <class 'gluon.html.BODY'>, 'BR': <class 'gluon.html.BR'>, 'BUTTON': <class 'gluon.html.BUTTON'>, 'CAT': <class 'gluon.html.CAT'>, 'CENTER': <class 'gluon.html.CENTER'>, 'CLEANUP': <class 'gluon.validators.CLEANUP'>, ...}, layer='/Users/mdipierro/Dropbox/web2py/applications/inplace/controllers/default.py')"
p3485
sS'func'
p3486
S'restricted'
p3487
sa(dp3488
g3463
S'/Users/mdipierro/Dropbox/web2py/applications/inplace/controllers/default.py'
p3489
sg3465
(dp3490
sg3471
I96
sg3472
(dp3491
I85
S'@auth.requires_login()'
p3492
sI86
S'def edit_folder():'
p3493
sI87
S'    folder = db.cms_folder(request.args(0),created_by=auth.user.id)'
p3494
sI88
S'    db.cms_folder.parent_folder.default=folder.id'
p3495
sI89
S'    db.cms_folder.name.requires=IS_NOT_IN_DB('
p3496
sI90
S"        db(db.cms_folder.parent_folder==folder.id),'cms_folder.name')"
p3497
sI91
S'    ofolder = db.cms_folder(request.args(1),created_by=auth.user.id)'
p3498
sI92
S'    form = SQLFORM(db.cms_folder,ofolder,deletable=True)\\'
p3499
sI93
S"        .process(next=URL('folder',args=folder.id))"
p3500
sI94
S'    return locals()'
p3501
ssg3484
S'()'
p3502
sg3486
S'<module>'
p3503
sa(dp3504
g3463
S'/Users/mdipierro/Dropbox/web2py/gluon/globals.py'
p3505
sg3465
(dp3506
S'self'
p3507
S'undefined'
p3508
sS'f'
S'<function folder at 0x290ed70>'
p3509
ssg3471
I172
sg3472
(dp3510
I167
S'        self.meta = Storage()      # used by web2py_ajax.html'
p3511
sI168
S'        self.menu = []             # used by the default view layout'
p3512
sI169
S'        self.files = []            # used by web2py_ajax.html'
p3513
sI170
S'        self.generic_patterns = [] # patterns to allow generic views'
p3514
sI171
S'        self._vars = None'
p3515
sI172
S'        self._caller = lambda f: f()'
p3516
sI173
S'        self._view_environment = None'
p3517
sI174
S'        self._custom_commit = None'
p3518
sI175
S'        self._custom_rollback = None'
p3519
sI176
S''
ssg3484
S'(f=<function folder at 0x290ed70>)'
p3520
sg3486
S'<lambda>'
p3521
sa(dp3522
g3463
S'/Users/mdipierro/Dropbox/web2py/gluon/tools.py'
p3523
sg3465
(dp3524
S'action'
p3525
S'<function folder at 0x290e130>'
p3526
sS'a'
S'()'
p3527
sS'b'
g39
ssg3471
I2533
sg3472
(dp3528
I2528
S'                # otherwise case 3 would be ok.'
p3529
sI2529
S'                if not (callable(condition) and condition() == True) and not condition == True:'
p3530
sI2530
S'                    current.session.flash = self.messages.access_denied'
p3531
sI2531
S'                    return call_or_redirect('
p3532
sI2532
S'                        self.settings.on_failed_authorization)'
p3533
sI2533
S'                return action(*a, **b)'
p3534
sI2534
S'            f.__doc__ = action.__doc__'
p3535
sI2535
S'            f.__name__ = action.__name__'
p3536
sI2536
S'            f.__dict__.update(action.__dict__)'
p3537
sI2537
S'            return f'
p3538
ssg3484
S'(*a=(), **b={})'
p3539
sg3486
S'f'
sa(dp3540
g3463
S'/Users/mdipierro/Dropbox/web2py/applications/inplace/controllers/default.py'
p3541
sg3465
(dp3542
S'folder.name'
p3543
g3508
sS'folder'
p3544
S'None'
p3545
sS'folder.path'
p3546
g3508
sS'folder.parent_folder'
p3547
g3508
sS'f'
g3508
ssg3471
I68
sg3472
(dp3548
I64
S'def folder():'
p3549
sI65
S'    if db(db.cms_folder).isempty():'
p3550
sI66
S"        folder = db.cms_folder.insert(name='root',parent_folder=0,created_by=auth.user.id)"
p3551
sI67
S'    folder = db.cms_folder(parent_folder=0,created_by=auth.user.id)'
p3552
sI68
S'    folder.path, f = [folder.name], folder.parent_folder'
p3553
sI69
S"    while f: folder.path, f = [A(f.name,_href=URL('folder',args=f))]+folder.path, f.parent_folder"
p3554
sI70
S'    files = db(db.cms_file.folder==folder.id).select(orderby=db.cms_file.name)'
p3555
sI71
S'    folders = db(db.cms_folder.parent_folder==folder.id).select(orderby=db.cms_folder.name)'
p3556
sI72
S'    return locals()'
p3557
sI63
S'@auth.requires_login()'
p3558
ssg3484
S'()'
p3559
sg3486
g2239
sasS'pyver'
p3560
S'Python 2.5.4: /usr/bin/python2.5'
p3561
sS'session'
p3562
g49
(g50
g51
NtRp3563
(dp3564
g54
(dp3565
sg56
(lp3566
g49
(g58
g51
NtRp3567
(dp3568
g54
(dp3569
g62
I5
ssg63
Nsg56
(lp3570
g49
(g65
g51
NtRp3571
(dp3572
g54
(dp3573
sg63
g3567
sg56
(lp3574
g49
(g70
g51
NtRp3575
(dp3576
g54
(dp3577
g74
g75
ssg63
g3571
sg56
(lp3578
S'auth'
p3579
asbag49
(g70
g51
NtRp3580
(dp3581
g54
(dp3582
g81
g82
ssg63
g3571
sg56
(lp3583
S':'
asbag49
(g70
g51
NtRp3584
(dp3585
g54
(dp3586
sg63
g3571
sg56
(lp3587
g49
(g50
g51
NtRp3588
(dp3589
g54
(dp3590
g62
I5
ssg63
g3584
sg56
(lp3591
g49
(g58
g51
NtRp3592
(dp3593
g54
(dp3594
g62
I4
ssg63
Nsg56
(lp3595
g49
(g65
g51
NtRp3596
(dp3597
g54
(dp3598
sg63
g3592
sg56
(lp3599
g49
(g70
g51
NtRp3600
(dp3601
g54
(dp3602
g74
g75
ssg63
g3596
sg56
(lp3603
S'expiration'
p3604
asbag49
(g70
g51
NtRp3605
(dp3606
g54
(dp3607
g81
g82
ssg63
g3596
sg56
(lp3608
S':'
asbag49
(g70
g51
NtRp3609
(dp3610
g54
(dp3611
sg63
g3596
sg56
(lp3612
g49
(g50
g51
NtRp3613
(dp3614
g54
(dp3615
g62
I4
ssg63
g3609
sg56
(lp3616
S'3600'
p3617
asbasbasbag49
(g65
g51
NtRp3618
(dp3619
g54
(dp3620
sg63
g3592
sg56
(lp3621
g49
(g70
g51
NtRp3622
(dp3623
g54
(dp3624
g74
g75
ssg63
g3618
sg56
(lp3625
S'hmac_key'
p3626
asbag49
(g70
g51
NtRp3627
(dp3628
g54
(dp3629
g81
g82
ssg63
g3618
sg56
(lp3630
S':'
asbag49
(g70
g51
NtRp3631
(dp3632
g54
(dp3633
sg63
g3618
sg56
(lp3634
g49
(g50
g51
NtRp3635
(dp3636
g54
(dp3637
g62
I4
ssg63
g3631
sg56
(lp3638
S'0b48d067-c8d0-4f2e-9c3d-d54e1884cecf'
p3639
asbasbasbag49
(g65
g51
NtRp3640
(dp3641
g54
(dp3642
sg63
g3592
sg56
(lp3643
g49
(g70
g51
NtRp3644
(dp3645
g54
(dp3646
g74
g75
ssg63
g3640
sg56
(lp3647
S'last_visit'
p3648
asbag49
(g70
g51
NtRp3649
(dp3650
g54
(dp3651
g81
g82
ssg63
g3640
sg56
(lp3652
S':'
asbag49
(g70
g51
NtRp3653
(dp3654
g54
(dp3655
sg63
g3640
sg56
(lp3656
g49
(g50
g51
NtRp3657
(dp3658
g54
(dp3659
g62
I4
ssg63
g3653
sg56
(lp3660
S'datetime.datetime(2011, 12, 11, 16, 21, 59, 755656)'
p3661
asbasbasbag49
(g65
g51
NtRp3662
(dp3663
g54
(dp3664
sg63
g3592
sg56
(lp3665
g49
(g70
g51
NtRp3666
(dp3667
g54
(dp3668
g74
g75
ssg63
g3662
sg56
(lp3669
S'user'
p3670
asbag49
(g70
g51
NtRp3671
(dp3672
g54
(dp3673
g81
g82
ssg63
g3662
sg56
(lp3674
S':'
asbag49
(g70
g51
NtRp3675
(dp3676
g54
(dp3677
sg63
g3662
sg56
(lp3678
g49
(g50
g51
NtRp3679
(dp3680
g54
(dp3681
g62
I4
ssg63
g3675
sg56
(lp3682
g49
(g58
g51
NtRp3683
(dp3684
g54
(dp3685
g62
I3
ssg63
Nsg56
(lp3686
g49
(g65
g51
NtRp3687
(dp3688
g54
(dp3689
sg63
g3683
sg56
(lp3690
g49
(g70
g51
NtRp3691
(dp3692
g54
(dp3693
g74
g75
ssg63
g3687
sg56
(lp3694
S'email'
p3695
asbag49
(g70
g51
NtRp3696
(dp3697
g54
(dp3698
g81
g82
ssg63
g3687
sg56
(lp3699
S':'
asbag49
(g70
g51
NtRp3700
(dp3701
g54
(dp3702
sg63
g3687
sg56
(lp3703
g49
(g50
g51
NtRp3704
(dp3705
g54
(dp3706
g62
I3
ssg63
g3700
sg56
(lp3707
S'mdipierro@cs.depaul.edu'
p3708
asbasbasbag49
(g65
g51
NtRp3709
(dp3710
g54
(dp3711
sg63
g3683
sg56
(lp3712
g49
(g70
g51
NtRp3713
(dp3714
g54
(dp3715
g74
g75
ssg63
g3709
sg56
(lp3716
S'first_name'
p3717
asbag49
(g70
g51
NtRp3718
(dp3719
g54
(dp3720
g81
g82
ssg63
g3709
sg56
(lp3721
S':'
asbag49
(g70
g51
NtRp3722
(dp3723
g54
(dp3724
sg63
g3709
sg56
(lp3725
g49
(g50
g51
NtRp3726
(dp3727
g54
(dp3728
g62
I3
ssg63
g3722
sg56
(lp3729
S'Massimo'
p3730
asbasbasbag49
(g65
g51
NtRp3731
(dp3732
g54
(dp3733
sg63
g3683
sg56
(lp3734
g49
(g70
g51
NtRp3735
(dp3736
g54
(dp3737
g74
g75
ssg63
g3731
sg56
(lp3738
S'id'
p3739
asbag49
(g70
g51
NtRp3740
(dp3741
g54
(dp3742
g81
g82
ssg63
g3731
sg56
(lp3743
S':'
asbag49
(g70
g51
NtRp3744
(dp3745
g54
(dp3746
sg63
g3731
sg56
(lp3747
g49
(g50
g51
NtRp3748
(dp3749
g54
(dp3750
g62
I3
ssg63
g3744
sg56
(lp3751
S'1'
asbasbasbag49
(g65
g51
NtRp3752
(dp3753
g54
(dp3754
sg63
g3683
sg56
(lp3755
g49
(g70
g51
NtRp3756
(dp3757
g54
(dp3758
g74
g75
ssg63
g3752
sg56
(lp3759
S'last_name'
p3760
asbag49
(g70
g51
NtRp3761
(dp3762
g54
(dp3763
g81
g82
ssg63
g3752
sg56
(lp3764
S':'
asbag49
(g70
g51
NtRp3765
(dp3766
g54
(dp3767
sg63
g3752
sg56
(lp3768
g49
(g50
g51
NtRp3769
(dp3770
g54
(dp3771
g62
I3
ssg63
g3765
sg56
(lp3772
S'Di Pierro'
p3773
asbasbasbag49
(g65
g51
NtRp3774
(dp3775
g54
(dp3776
sg63
g3683
sg56
(lp3777
g49
(g70
g51
NtRp3778
(dp3779
g54
(dp3780
g74
g75
ssg63
g3774
sg56
(lp3781
S'password'
p3782
asbag49
(g70
g51
NtRp3783
(dp3784
g54
(dp3785
g81
g82
ssg63
g3774
sg56
(lp3786
S':'
asbag49
(g70
g51
NtRp3787
(dp3788
g54
(dp3789
sg63
g3774
sg56
(lp3790
g49
(g50
g51
NtRp3791
(dp3792
g54
(dp3793
g62
I3
ssg63
g3787
sg56
(lp3794
S'12923092f4d9e86e56018b9cdd790947'
p3795
asbasbasbag49
(g65
g51
NtRp3796
(dp3797
g54
(dp3798
sg63
g3683
sg56
(lp3799
g49
(g70
g51
NtRp3800
(dp3801
g54
(dp3802
g74
g75
ssg63
g3796
sg56
(lp3803
S'registration_id'
p3804
asbag49
(g70
g51
NtRp3805
(dp3806
g54
(dp3807
g81
g82
ssg63
g3796
sg56
(lp3808
S':'
asbag49
(g70
g51
NtRp3809
(dp3810
g54
(dp3811
sg63
g3796
sg56
(lp3812
g49
(g50
g51
NtRp3813
(dp3814
g54
(dp3815
g62
I3
ssg63
g3809
sg56
(lp3816
S''
asbasbasbag49
(g65
g51
NtRp3817
(dp3818
g54
(dp3819
sg63
g3683
sg56
(lp3820
g49
(g70
g51
NtRp3821
(dp3822
g54
(dp3823
g74
g75
ssg63
g3817
sg56
(lp3824
S'registration_key'
p3825
asbag49
(g70
g51
NtRp3826
(dp3827
g54
(dp3828
g81
g82
ssg63
g3817
sg56
(lp3829
S':'
asbag49
(g70
g51
NtRp3830
(dp3831
g54
(dp3832
sg63
g3817
sg56
(lp3833
g49
(g50
g51
NtRp3834
(dp3835
g54
(dp3836
g62
I3
ssg63
g3830
sg56
(lp3837
S''
asbasbasbag49
(g65
g51
NtRp3838
(dp3839
g54
(dp3840
sg63
g3683
sg56
(lp3841
g49
(g70
g51
NtRp3842
(dp3843
g54
(dp3844
g74
g75
ssg63
g3838
sg56
(lp3845
S'reset_password_key'
p3846
asbag49
(g70
g51
NtRp3847
(dp3848
g54
(dp3849
g81
g82
ssg63
g3838
sg56
(lp3850
S':'
asbag49
(g70
g51
NtRp3851
(dp3852
g54
(dp3853
sg63
g3838
sg56
(lp3854
g49
(g50
g51
NtRp3855
(dp3856
g54
(dp3857
g62
I3
ssg63
g3851
sg56
(lp3858
S''
asbasbasbasbasbasbasbasbasbasbasbag49
(g65
g51
NtRp3859
(dp3860
g54
(dp3861
sg63
g3567
sg56
(lp3862
g49
(g70
g51
NtRp3863
(dp3864
g54
(dp3865
g74
g75
ssg63
g3859
sg56
(lp3866
S'html'
p3867
asbag49
(g70
g51
NtRp3868
(dp3869
g54
(dp3870
g81
g82
ssg63
g3859
sg56
(lp3871
S':'
asbag49
(g70
g51
NtRp3872
(dp3873
g54
(dp3874
sg63
g3859
sg56
(lp3875
g49
(g50
g51
NtRp3876
(dp3877
g54
(dp3878
g62
I5
ssg63
g3872
sg56
(lp3879
S'\n<!DOCTYPE html>\n<!-- paulirish.com/2008/conditional-stylesheets-vs-css-hacks-answer-neither/ -->\n<!--[if lt IE 7]><html class="ie ie6 ie-lte9 ie-lte8 ie-lte7 no-js" lang="en"> <![endif]-->\n<!--[if IE 7]><html class="ie ie7 ie-lte9 ie-lte8 ie-lte7 no-js" lang="en"> <![endif]-->\n<!--[if IE 8]><html class="ie ie8 ie-lte9 ie-lte8 no-js" lang="en"> <![endif]-->\n<!--[if IE 9]><html class="ie9 ie-lte9 no-js" lang="en"> <![endif]-->\n<!--[if (gt IE 9)|!(IE)]><!--> <html class="no-js" lang="en"> <!--<![endif]-->\n<head>\n  <meta charset="utf-8" />\n  <!-- www.phpied.com/conditional-comments-block-downloads/ -->\n  <!-- Always force latest IE rendering engine\n\t   (even in intranet) & Chrome Frame\n\t   Remove this if you use the .htaccess -->\n  <!--[if IE]>\n    <meta http-equiv="X-UA-Compatible" content="IE=edge">\n  <![endif]-->\n  \n  <title>web2py Web Framework</title>\n  \n  <!-- http://dev.w3.org/html5/markup/meta.name.html -->\n  <meta name="application-name" content="examples" />\n  \n  <!-- Speaking of Google, don\'t forget to set your site up:\n\t   http://google.com/webmasters -->\n  <meta name="google-site-verification" content="" />\n\n  <!--  Mobile Viewport Fix\n\t  j.mp/mobileviewport & davidbcalhoun.com/2010/viewport-metatag\n\t  device-width: Occupy full width of the screen in its current orientation\n\t  initial-scale = 1.0 retains dimensions instead of zooming out if page height > device height\n\t  user-scalable = yes allows the user to zoom in -->\n  <meta name="viewport" content="width=device-width, initial-scale=1.0, user-scalable=yes">\n  \n  <!-- Place favicon.ico and apple-touch-icon.png in the root of your domain and delete these references -->\n  <link rel="shortcut icon" href="/examples/static/favicon.ico" type="image/x-icon">\n  <link rel="apple-touch-icon" href="/examples/static/favicon.png">\n\n  <!-- All JavaScript at the bottom, except for Modernizr which enables \n\t   HTML5 elements & feature detects -->\n  <script src="/examples/static/js/modernizr.custom.js"></script>  \n\n  <!-- include stylesheets -->\n  \n\n  <script type="text/javascript"><!--\n    // These variables are used by the web2py_ajax_init function in web2py_ajax.js (which is loaded below).\n    var w2p_ajax_confirm_message = "Are you sure you want to delete this object?";\n    var w2p_ajax_date_format = "%Y-%m-%d";\n    var w2p_ajax_datetime_format = "%Y-%m-%d %H:%M:%S";\n    //--></script>\n<script src="/examples/static/js/jquery.js" type="text/javascript"></script><link href="/examples/static/css/calendar.css" rel="stylesheet" type="text/css" /><script src="/examples/static/js/calendar.js" type="text/javascript"></script><script src="/examples/static/js/web2py.js" type="text/javascript"></script><link href="/examples/static/css/skeleton.css" rel="stylesheet" type="text/css" /><link href="/examples/static/css/web2py.css" rel="stylesheet" type="text/css" /><link href="/examples/static/css/examples.css" rel="stylesheet" type="text/css" /><link href="/examples/static/css/superfish.css" rel="stylesheet" type="text/css" /><script src="/examples/static/js/superfish.js" type="text/javascript"></script>\n\n\n  <script type="text/javascript">\n    jQuery(function(){jQuery(\'.sf-menu\').superfish();});\n  </script>\n\n  \n\n  <!-- uncomment here to load jquery-ui\n  <link rel="stylesheet" href="http://ajax.googleapis.com/ajax/libs/jqueryui/1.8.16/themes/base/jquery-ui.css" type="text/css" media="all" />\n  <script src="http://ajax.googleapis.com/ajax/libs/jqueryui/1.8.16/jquery-ui.min.js" type="text/javascript"></script>\n  uncomment to load jquery-ui //-->\n  </style>\n</head>\n<body>\n  <div class="wrapper"><!-- for sticky footer -->    \n    <div class="flash"></div>    \n    <div class="header">\n      <div class="container">\n        <div class="sixteen columns">\n\t  <img src="/examples/static/images/web2py_logo.png" />\n          <h5></h5>\n        </div>\n        \n        <div class="sixteen columns statusbar">\n\t  \n\t  \n          <div id="menu"><ul class="sf-menu"><li><a href="/examples/default/index">Home</a></li><li><a href="/examples/default/what">About</a></li><li><a href="/examples/default/download">Download</a></li><li><a href="/examples/default/documentation">Docs &amp; Resources</a></li><li><a href="/examples/default/support">Support</a></li><li><a href="/examples/default/who">Contributors</a></li></ul>\n\t    \n            <!-- AddToAny BEGIN -->\n            <div style="float:right;padding-top:6px;" class="a2a_kit a2a_default_style">\n            <a class="a2a_dd" href="http://www.addtoany.com/share_save">Share</a></div>\n            <script type="text/javascript" src="http://static.addtoany.com/menu/page.js"></script>\n            <!-- AddToAny END -->\n          </div>\n\t  \n\t  <div class="sixteen columns announce">\n\t    <a href="http://www.infoworld.com/d/open-source-software/bossie-awards-2011-the-best-open-source-application-development-software-171759-0&current=10&last=1#slideshowTop">2011 BOSSIE AWARD FOR OPEN SOURCE DEVELOPMENT SOFTWARE</a>\n          </div>\n\t</div>\n      </div>\n    </div>\n    <div class="main">\n      <div class="container mainbody">\t\n        <div class="sixteen columns">\n          <div class="ten columns center">\n            \n            \n\n<center>\n  <img src="/examples/static/images/tag-cloud-color-small.png"/>\n</center>\n\n<h3>WEB2PY<sup>TM</sup> WEB FRAMEWORK</h3>\n<p>Free open source full-stack framework for rapid development of fast, scalable, <a href="http://www.web2py.com/book/default/chapter/01#security" target="_blank">secure</a> and portable database-driven web-based applications. Written and programmable in <a href="http://www.python.org" target="_blank">Python</a>. <a href="http://www.gnu.org/licenses/lgpl.html">LGPLv3 License</a>.\nCurrent version: 1.99.3 (2011-12-09 16:18:03) stable</p>\n\n\n\n\n\n\n            \n          </div>\n          \n          \n          <div class="five columns">\n            \n<div style="text-align:center">\n  <a href="http://web2py.com/book"><img src="/examples/static/images/tablet.png" alt="Tablet" /></a><br/>\n  <a href="http://www.lulu.com/product/paperback/web2py-book-(4th-edition)/18738286"><img src="http://static.lulu.com/images/services/buy_now_buttons/us/book.gif?20111206124946" border="0" alt="Support independent publishing: Buy this book on Lulu."></a><br/>\n  <a class="button" href="/examples/default/download" style="width:90%">DOWNLOAD NOW</a><br/>\n  <a class="button" href="http://web2py.com/demo_admin" style="width:90%">ONLINE DEMO</a><br/>\n  <a class="button" href="http://web2py.com/poweredby" style="width:90%">SITES POWERED</a>\n</div>\n\n          </div>    \n          \n        </div>\n      </div><!-- container -->\n      \n<div class="container">\n  <div class="sixteen columns">\n    <div class="five columns">\n      <h3><a href="/examples/default/about">BATTERIES INCLUDED</a></h3>\n      <p>Everything you need in one package including fast multi-threaded web server, SQL database and web-based interface. No third party dependencies but works with <a href=/examples/default/what>third party tools</a>.</p>\n    </div>\n    <div class="five columns">\n      <h3><a href="http://web2py.com/demo_admin">WEB-BASED IDE</a></h3>\n      <p>Create, modify, deploy and manage application from anywhere using your browser. One web2py instance can run multiple web sites using different databases. Try the <a href="http://web2py.com/demo_admin">interactive demo</a>.</p>\n    </div>\n    <div class="five columns">\n      <h3><a href="/examples/default/documentation">EXTENSIVE DOCS</a></h3>\n      <p>Start with some <a href="/examples/default/examples">quick examples</a>, then read the <a href="http://web2py.com/book">reference manual</a>, watch <a href="http://vimeo.com/album/178500">videos</a>, and join a <a href="/examples/default/usergroups">user group</a> for discussion. Take advantage of the <a href="http://web2py.com/layouts">layouts</a>, <a href="http://dev.s-cubism.com/web2py_plugins">plugins</a>, and <a href="http://web2pyslices.com">recipes</a>.</p>\n    </div>\n  </div>\n</div>\n<div class="container">\n  <div class="sixteen columns">\n    <img src="/examples/static/images/shadow-bottom.png" width="100%"/>\n    \n    <div class="five columns">\n      <em>\n\t<p>Please use www.web2py.com when using MVC , no PHP/SQL stuff please...its 2011 not 1999</p>\n      </em>\n      <span class="right">\n\t<a href="http://twitter.com/#!/rabblesoft/status/79189028431343616"><em>rabblesoft</em></a>\n      </span>\n    </div>\n    \n    <div class="five columns">\n      <em>\n\t<p>web2py was the life saver today for me, my blog post: Standalone Usage of web2py&#x27;s</p>\n      </em>\n      <span class="right">\n\t<a href="http://twitter.com/#!/caglartoklu/status/84292131707031553"><em>caglartoklu</em></a>\n      </span>\n    </div>\n    \n    <div class="five columns">\n      <em>\n\t<p>web2py it is. Compatible with everything under the sun and great interfaces to googleappengine</p>\n      </em>\n      <span class="right">\n\t<a href="http://twitter.com/#!/comamitc/status/51744719071477760"><em>comamitc</em></a>\n      </span>\n    </div>\n    \n  </div>\n</div>\n      \n      \n    </div><!-- main -->\n    \n    <div class="push"></div>\n  </div><!-- wrapper -->\n\n  <div class="footer">\n    <div class="container header">    \n      <div class="sixteen columns">\n         <!-- this is default footer -->\n        <div class="footer-content" >\n          Copyright &#169; 2011\n\t  - User communities in <a href="https://groups.google.com/forum/?fromgroups#!forum/web2py" target="_blank">English<a>, <a href="https://groups.google.com/forum/?fromgroups#!forum/web2py-fr" target="_blank">French</a>, <a href="https://groups.google.com/forum/?fromgroups#!forum/web2py-japan" target="_blank">Japanese</a>, <a href="https://groups.google.com/forum/?fromgroups#!forum/web2py-users-brazil" target="_blank">Portuguese</a>, and <a href="https://groups.google.com/forum/?fromgroups#!forum/web2py-usuarios" target="_blank">Spanish</a>.\n          <div style="float: right;">\n            <a href="http://www.web2py.com/" style="float: left; padding-right: 6px;">\n            <img style="padding-bottom: 0;" src="/examples/static/images/poweredby.png"/>\n            </a>\n          </div>\n        </div>\n        \t\n      </div>\n    </div><!-- container -->\n  </div><!-- footer -->\n  \n  <!--[if lt IE 7 ]>\n\t<script src="/examples/static/js/dd_belatedpng.js"></script>\n\t<script> DD_belatedPNG.fix(\'img, .png_bg\'); //fix any <img> or .png_bg background-images </script>\n\t<![endif]-->\n  \n</body>\n</html>\n'
p3880
asbasbasbag49
(g65
g51
NtRp3881
(dp3882
g54
(dp3883
sg63
g3567
sg56
(lp3884
g49
(g70
g51
NtRp3885
(dp3886
g54
(dp3887
g74
g75
ssg63
g3881
sg56
(lp3888
S'new_html'
p3889
asbag49
(g70
g51
NtRp3890
(dp3891
g54
(dp3892
g81
g82
ssg63
g3881
sg56
(lp3893
S':'
asbag49
(g70
g51
NtRp3894
(dp3895
g54
(dp3896
sg63
g3881
sg56
(lp3897
g49
(g50
g51
NtRp3898
(dp3899
g54
(dp3900
g62
I5
ssg63
g3894
sg56
(lp3901
S'\n<!DOCTYPE html>\n<!-- paulirish.com/2008/conditional-stylesheets-vs-css-hacks-answer-neither/ -->\n<!--[if lt IE 7]><html class="ie ie6 ie-lte9 ie-lte8 ie-lte7 no-js" lang="en"> <![endif]-->\n<!--[if IE 7]><html class="ie ie7 ie-lte9 ie-lte8 ie-lte7 no-js" lang="en"> <![endif]-->\n<!--[if IE 8]><html class="ie ie8 ie-lte9 ie-lte8 no-js" lang="en"> <![endif]-->\n<!--[if IE 9]><html class="ie9 ie-lte9 no-js" lang="en"> <![endif]-->\n<!--[if (gt IE 9)|!(IE)]><!--> <html class="no-js" lang="en"> <!--<![endif]-->\n<head>\n  <meta charset="utf-8" />\n  <!-- www.phpied.com/conditional-comments-block-downloads/ -->\n  <!-- Always force latest IE rendering engine\n\t   (even in intranet) & Chrome Frame\n\t   Remove this if you use the .htaccess -->\n  <!--[if IE]>\n    <meta http-equiv="X-UA-Compatible" content="IE=edge">\n  <![endif]-->\n  \n  <title>web2py Web Framework</title>\n  \n  <!-- http://dev.w3.org/html5/markup/meta.name.html -->\n  <meta name="application-name" content="examples" />\n  \n  <!-- Speaking of Google, don\'t forget to set your site up:\n\t   http://google.com/webmasters -->\n  <meta name="google-site-verification" content="" />\n\n  <!--  Mobile Viewport Fix\n\t  j.mp/mobileviewport & davidbcalhoun.com/2010/viewport-metatag\n\t  device-width: Occupy full width of the screen in its current orientation\n\t  initial-scale = 1.0 retains dimensions instead of zooming out if page height > device height\n\t  user-scalable = yes allows the user to zoom in -->\n  <meta name="viewport" content="width=device-width, initial-scale=1.0, user-scalable=yes">\n  \n  <!-- Place favicon.ico and apple-touch-icon.png in the root of your domain and delete these references -->\n  <link rel="shortcut icon" href="/examples/static/favicon.ico" type="image/x-icon">\n  <link rel="apple-touch-icon" href="/examples/static/favicon.png">\n\n  <!-- All JavaScript at the bottom, except for Modernizr which enables \n\t   HTML5 elements & feature detects -->\n  <script src="/examples/static/js/modernizr.custom.js"></script>  \n\n  <!-- include stylesheets -->\n  \n\n  <script type="text/javascript"><!--\n    // These variables are used by the web2py_ajax_init function in web2py_ajax.js (which is loaded below).\n    var w2p_ajax_confirm_message = "Are you sure you want to delete this object?";\n    var w2p_ajax_date_format = "%Y-%m-%d";\n    var w2p_ajax_datetime_format = "%Y-%m-%d %H:%M:%S";\n    //--></script>\n<script src="/examples/static/js/jquery.js" type="text/javascript"></script><link href="/examples/static/css/calendar.css" rel="stylesheet" type="text/css" /><script src="/examples/static/js/calendar.js" type="text/javascript"></script><script src="/examples/static/js/web2py.js" type="text/javascript"></script><link href="/examples/static/css/skeleton.css" rel="stylesheet" type="text/css" /><link href="/examples/static/css/web2py.css" rel="stylesheet" type="text/css" /><link href="/examples/static/css/examples.css" rel="stylesheet" type="text/css" /><link href="/examples/static/css/superfish.css" rel="stylesheet" type="text/css" /><script src="/examples/static/js/superfish.js" type="text/javascript"></script>\n\n\n  <script type="text/javascript">\n    jQuery(function(){jQuery(\'.sf-menu\').superfish();});\n  </script>\n\n  \n\n  <!-- uncomment here to load jquery-ui\n  <link rel="stylesheet" href="http://ajax.googleapis.com/ajax/libs/jqueryui/1.8.16/themes/base/jquery-ui.css" type="text/css" media="all" />\n  <script src="http://ajax.googleapis.com/ajax/libs/jqueryui/1.8.16/jquery-ui.min.js" type="text/javascript"></script>\n  uncomment to load jquery-ui //-->\n  </style>\n</head>\n<body><div style="top:0;padding: 5px 20px 5px 20px; font-size: 1.5em; text-align:right;background:black;color:white;height:30px;">Attention: this is a modified copy of the original page!!! [ <a style="color:white" href="javascript:history.go(-1)">back</a> | <a style="color:white" href="clone">next</a> ]</div><iframe id="a2apage_sm_ifr" height="1" width="1" style="border-top-width: 0px; border-right-width: 0px; border-bottom-width: 0px; border-left-width: 0px; border-style: initial; border-color: initial; border-image: initial; left: 0px; top: 0px; position: absolute; z-index: 100000; display: none; " transparency="true" allowtransparency="true" frameborder="0" src="http://static.addtoany.com/menu/sm7.html#type=page&amp;event=load&amp;url=http%3A%2F%2F127.0.0.1%3A8000%2Finplace%2Fdefault%2Fedit%3Furl%3Dhttp%253A%252F%252F127.0.0.1%253A8000%252Finplace%252Fdefault%252Fpage%252F1&amp;referrer=http%3A%2F%2F127.0.0.1%3A8000%2Finplace%2Fdefault%2Findex"></iframe><div style="position: static; "><div id="a2apage_dropdown" class="a2a_menu" onmouseover="a2a.onMouseOver_stay()" onmouseout="a2a.onMouseOut_delay()"><div class="a2a_menu_inside"><div id="a2apage_title_container" class="a2a_menu_title_container" style="display: none; "><input id="a2apage_title" class="a2a_menu_title"></div><div class="a2apage_wide a2a_wide"><div class="a2a_tabs a2a_tabs_default"><div id="a2apage_DEFAULT" class="a2a_tab_selected" style="margin-right: 1px; " onclick="return a2a.tabs.open(\'DEFAULT\')"><span class="a2a_i_share">Share</span></div></div><div class="a2a_tabs"><div title="Share via email" id="a2apage_EMAIL" style="margin-right: 1px; " onclick="return a2a.tabs.open(\'EMAIL\')"><span class="a2a_i_email"></span></div></div><div class="a2a_tabs"><div onclick="a2a.bmBrowser()" title="Bookmark in your browser" id="a2apage_BROWSER" style="margin-left: 1px; "><span class="a2a_i_bookmark"></span></div></div></div><div class="a2a_clear"></div><div id="a2apage_find_container" class="a2a_menu_find_container" style=""><input id="a2apage_find" class="a2a_menu_find" type="text" onclick="a2a.focus_find()" onkeyup="a2a.do_find()" autocomplete="off" onfocus="a2a[\'page\'].find_focused=true;a2a.onMouseOver_stay()" title="Instantly find any service"><span id="a2apage_find_icon" class="a2a_i_find" onclick="a2a.focus_find()"></span></div><div id="a2apage_cols_container" class="a2a_cols_container"><div class="a2a_col1" id="a2apage_col1" style=""><a id="a2apage_live" rel="nofollow" class="a2a_i a2a_sss" href="/" target="_blank"><span class="a2a_i_live">Messenger</span></a><a id="a2apage_facebook" rel="nofollow" class="a2a_i" href="/" target="_blank"><span class="a2a_i_facebook">Facebook</span></a><a id="a2apage_twitter" rel="nofollow" class="a2a_i" href="/" target="_blank"><span class="a2a_i_twitter">Twitter</span></a><a id="a2apage_google_plus" rel="nofollow" class="a2a_i" href="/" target="_blank"><span class="a2a_i_google">Google </span></a><a id="a2apage_delicious" rel="nofollow" class="a2a_i" href="/" target="_blank"><span class="a2a_i_delicious">Delicious</span></a><a id="a2apage_digg" rel="nofollow" class="a2a_i" href="/" target="_blank"><span class="a2a_i_digg">Digg</span></a><a id="a2apage_google_bookmarks" rel="nofollow" class="a2a_i" href="/" target="_blank"><span class="a2a_i_google">Google Bookmarks</span></a><a id="a2apage_myspace" rel="nofollow" class="a2a_i" href="/" target="_blank"><span class="a2a_i_myspace">MySpace</span></a><a id="a2apage_stumbleupon" rel="nofollow" class="a2a_i" href="/" target="_blank"><span class="a2a_i_stumbleupon">StumbleUpon</span></a><a id="a2apage_reddit" rel="nofollow" class="a2a_i" href="/" target="_blank"><span class="a2a_i_reddit">Reddit</span></a><a id="a2apage_vodpod" rel="nofollow" class="a2a_i" href="/" target="_blank" style="display: none; "><span class="a2a_i_vodpod">Vodpod</span></a><a id="a2apage_yahoo_bookmarks" rel="nofollow" class="a2a_i" href="/" target="_blank" style="display: none; "><span class="a2a_i_yahoo">Yahoo Bookmarks</span></a><a id="a2apage_bebo" rel="nofollow" class="a2a_i" href="/" target="_blank" style="display: none; "><span class="a2a_i_bebo">Bebo</span></a><a id="a2apage_mister_wong" rel="nofollow" class="a2a_i" href="/" target="_blank" style="display: none; "><span class="a2a_i_mister-wong">Mister-Wong</span></a><a id="a2apage_wordpress" rel="nofollow" class="a2a_i" href="/" target="_blank" style="display: none; "><span class="a2a_i_wordpress">WordPress</span></a><a id="a2apage_google_reader" rel="nofollow" class="a2a_i" href="/" target="_blank" style="display: none; "><span class="a2a_i_reader">Google Reader</span></a><a id="a2apage_orkut" rel="nofollow" class="a2a_i" href="/" target="_blank" style="display: none; "><span class="a2a_i_orkut">Orkut</span></a><a id="a2apage_xing" rel="nofollow" class="a2a_i" href="/" target="_blank" style="display: none; "><span class="a2a_i_xing">XING</span></a><a id="a2apage_evernote" rel="nofollow" class="a2a_i" href="/" target="_blank" style="display: none; "><span class="a2a_i_evernote">Evernote</span></a><a id="a2apage_netvibes_share" rel="nofollow" class="a2a_i" href="/" target="_blank" style="display: none; "><span class="a2a_i_netvibes">Netvibes Share</span></a><a id="a2apage_strands" rel="nofollow" class="a2a_i" href="/" target="_blank" style="display: none; "><span class="a2a_i_strands">Strands</span></a><a id="a2apage_posterous" rel="nofollow" class="a2a_i" href="/" target="_blank" style="display: none; "><span class="a2a_i_posterous">Posterous</span></a><a id="a2apage_business_exchange" rel="nofollow" class="a2a_i" href="/" target="_blank" style="display: none; "><span class="a2a_i_business_exchange">Business Exchange</span></a><a id="a2apage_arto" rel="nofollow" class="a2a_i" href="/" target="_blank" style="display: none; "><span class="a2a_i_arto">Arto</span></a><a id="a2apage_tipd" rel="nofollow" class="a2a_i" href="/" target="_blank" style="display: none; "><span class="a2a_i_tipd">Tipd</span></a><a id="a2apage_smaknews" rel="nofollow" class="a2a_i" href="/" target="_blank" style="display: none; "><span class="a2a_i_smaknews">SmakNews</span></a><a id="a2apage_plurk" rel="nofollow" class="a2a_i" href="/" target="_blank" style="display: none; "><span class="a2a_i_plurk">Plurk</span></a><a id="a2apage_aim" rel="nofollow" class="a2a_i" href="/" target="_blank" style="display: none; "><span class="a2a_i_aim">AIM</span></a><a id="a2apage_yahoo_messenger" rel="nofollow" class="a2a_i" href="/" target="_blank" style="display: none; "><span class="a2a_i_yim">Yahoo Messenger</span></a><a id="a2apage_identi_ca" rel="nofollow" class="a2a_i" href="/" target="_blank" style="display: none; "><span class="a2a_i_identica">Identi.ca</span></a><a id="a2apage_mozillaca" rel="nofollow" class="a2a_i" href="/" target="_blank" style="display: none; "><span class="a2a_i_mozillaca">Mozillaca</span></a><a id="a2apage_blogger_post" rel="nofollow" class="a2a_i" href="/" target="_blank" style="display: none; "><span class="a2a_i_blogger">Blogger Post</span></a><a id="a2apage_typepad_post" rel="nofollow" class="a2a_i" href="/" target="_blank" style="display: none; "><span class="a2a_i_typepad">TypePad Post</span></a><a id="a2apage_box_net" rel="nofollow" class="a2a_i" href="/" target="_blank" style="display: none; "><span class="a2a_i_box">Box.net</span></a><a id="a2apage_netlog" rel="nofollow" class="a2a_i" href="/" target="_blank" style="display: none; "><span class="a2a_i_netlog">Netlog</span></a><a id="a2apage_technorati_favorites" rel="nofollow" class="a2a_i" href="/" target="_blank" style="display: none; "><span class="a2a_i_technorati">Technorati Favorites</span></a><a id="a2apage_citeulike" rel="nofollow" class="a2a_i" href="/" target="_blank" style="display: none; "><span class="a2a_i_citeulike">CiteULike</span></a><a id="a2apage_jumptags" rel="nofollow" class="a2a_i" href="/" target="_blank" style="display: none; "><span class="a2a_i_jumptags">Jumptags</span></a><a id="a2apage_hemidemi" rel="nofollow" class="a2a_i" href="/" target="_blank" style="display: none; "><span class="a2a_i_hemidemi">Hemidemi</span></a><a id="a2apage_funp" rel="nofollow" class="a2a_i" href="/" target="_blank" style="display: none; "><span class="a2a_i_funp">FunP</span></a><a id="a2apage_instapaper" rel="nofollow" class="a2a_i" href="/" target="_blank" style="display: none; "><span class="a2a_i_instapaper">Instapaper</span></a><a id="a2apage_phonefavs" rel="nofollow" class="a2a_i" href="/" target="_blank" style="display: none; "><span class="a2a_i_phonefavs">PhoneFavs</span></a><a id="a2apage_xerpi" rel="nofollow" class="a2a_i" href="/" target="_blank" style="display: none; "><span class="a2a_i_xerpi">Xerpi</span></a><a id="a2apage_netvouz" rel="nofollow" class="a2a_i" href="/" target="_blank" style="display: none; "><span class="a2a_i_netvouz">Netvouz</span></a><a id="a2apage_wink" rel="nofollow" class="a2a_i" href="/" target="_blank" style="display: none; "><span class="a2a_i_wink">Wink</span></a><a id="a2apage_diigo" rel="nofollow" class="a2a_i" href="/" target="_blank" style="display: none; "><span class="a2a_i_diigo">Diigo</span></a><a id="a2apage_bibsonomy" rel="nofollow" class="a2a_i" href="/" target="_blank" style="display: none; "><span class="a2a_i_bibsonomy">BibSonomy</span></a><a id="a2apage_blogmarks" rel="nofollow" class="a2a_i" href="/" target="_blank" style="display: none; "><span class="a2a_i_blogmarks">BlogMarks</span></a><a id="a2apage_tailrank" rel="nofollow" class="a2a_i" href="/" target="_blank" style="display: none; "><span class="a2a_i_tailrank">Tailrank</span></a><a id="a2apage_startaid" rel="nofollow" class="a2a_i" href="/" target="_blank" style="display: none; "><span class="a2a_i_startaid">StartAid</span></a><a id="a2apage_kledy" rel="nofollow" class="a2a_i" href="/" target="_blank" style="display: none; "><span class="a2a_i_kledy">Kledy</span></a><a id="a2apage_khabbr" rel="nofollow" class="a2a_i" href="/" target="_blank" style="display: none; "><span class="a2a_i_khabbr">Khabbr</span></a><a id="a2apage_meneame" rel="nofollow" class="a2a_i" href="/" target="_blank" style="display: none; "><span class="a2a_i_meneame">Meneame</span></a><a id="a2apage_yoolink" rel="nofollow" class="a2a_i" href="/" target="_blank" style="display: none; "><span class="a2a_i_yoolink">Yoolink</span></a><a id="a2apage_bookmarks_fr" rel="nofollow" class="a2a_i" href="/" target="_blank" style="display: none; "><span class="a2a_i_bookmarks_fr">Bookmarks.fr</span></a><a id="a2apage_technotizie" rel="nofollow" class="a2a_i" href="/" target="_blank" style="display: none; "><span class="a2a_i_technotizie">Technotizie</span></a><a id="a2apage_newsvine" rel="nofollow" class="a2a_i" href="/" target="_blank" style="display: none; "><span class="a2a_i_newsvine">NewsVine</span></a><a id="a2apage_multiply" rel="nofollow" class="a2a_i" href="/" target="_blank" style="display: none; "><span class="a2a_i_multiply">Multiply</span></a><a id="a2apage_friendfeed" rel="nofollow" class="a2a_i" href="/" target="_blank" style="display: none; "><span class="a2a_i_friendfeed">FriendFeed</span></a><a id="a2apage_plaxo_pulse" rel="nofollow" class="a2a_i" href="/" target="_blank" style="display: none; "><span class="a2a_i_plaxo">Plaxo Pulse</span></a><a id="a2apage_ping" rel="nofollow" class="a2a_i" href="/" target="_blank" style="display: none; "><span class="a2a_i_ping">Ping</span></a><a id="a2apage_squidoo" rel="nofollow" class="a2a_i" href="/" target="_blank" style="display: none; "><span class="a2a_i_squidoo">Squidoo</span></a><a id="a2apage_protopage_bookmarks" rel="nofollow" class="a2a_i" href="/" target="_blank" style="display: none; "><span class="a2a_i_protopage">Protopage Bookmarks</span></a><a id="a2apage_blinklist" rel="nofollow" class="a2a_i" href="/" target="_blank" style="display: none; "><span class="a2a_i_blinklist">Blinklist</span></a><a id="a2apage_faves" rel="nofollow" class="a2a_i" href="/" target="_blank" style="display: none; "><span class="a2a_i_faves">Faves</span></a><a id="a2apage_yigg" rel="nofollow" class="a2a_i" href="/" target="_blank" style="display: none; "><span class="a2a_i_yigg">YiGG</span></a><a id="a2apage_webnews" rel="nofollow" class="a2a_i" href="/" target="_blank" style="display: none; "><span class="a2a_i_webnews">Webnews</span></a><a id="a2apage_segnalo" rel="nofollow" class="a2a_i" href="/" target="_blank" style="display: none; "><span class="a2a_i_segnalo">Segnalo</span></a><a id="a2apage_pusha" rel="nofollow" class="a2a_i" href="/" target="_blank" style="display: none; "><span class="a2a_i_pusha">Pusha</span></a><a id="a2apage_youmob" rel="nofollow" class="a2a_i" href="/" target="_blank" style="display: none; "><span class="a2a_i_youmob">YouMob</span></a><a id="a2apage_slashdot" rel="nofollow" class="a2a_i" href="/" target="_blank" style="display: none; "><span class="a2a_i_slashdot">Slashdot</span></a><a id="a2apage_fark" rel="nofollow" class="a2a_i" href="/" target="_blank" style="display: none; "><span class="a2a_i_fark">Fark</span></a><a id="a2apage_allvoices" rel="nofollow" class="a2a_i" href="/" target="_blank" style="display: none; "><span class="a2a_i_allvoices">Allvoices</span></a><a id="a2apage_jamespot" rel="nofollow" class="a2a_i" href="/" target="_blank" style="display: none; "><span class="a2a_i_jamespot">Jamespot</span></a><a id="a2apage_imera_brazil" rel="nofollow" class="a2a_i" href="/" target="_blank" style="display: none; "><span class="a2a_i_imera">Imera Brazil</span></a><a id="a2apage_twiddla" rel="nofollow" class="a2a_i" href="/" target="_blank" style="display: none; "><span class="a2a_i_twiddla">Twiddla</span></a><a id="a2apage_linkagogo" rel="nofollow" class="a2a_i" href="/" target="_blank" style="display: none; "><span class="a2a_i_linkagogo">LinkaGoGo</span></a><a id="a2apage_unalog" rel="nofollow" class="a2a_i" href="/" target="_blank" style="display: none; "><span class="a2a_i_unalog">unalog</span></a><a id="a2apage_hugg" rel="nofollow" class="a2a_i" href="/" target="_blank" style="display: none; "><span class="a2a_i_hugg">Hugg</span></a><a id="a2apage_diglog" rel="nofollow" class="a2a_i" href="/" target="_blank" style="display: none; "><span class="a2a_i_diglog">Diglog</span></a><a id="a2apage_nowpublic" rel="nofollow" class="a2a_i" href="/" target="_blank" style="display: none; "><span class="a2a_i_nowpublic">NowPublic</span></a><a id="a2apage_tumblr" rel="nofollow" class="a2a_i" href="/" target="_blank" style="display: none; "><span class="a2a_i_tumblr">Tumblr</span></a><a id="a2apage_livejournal" rel="nofollow" class="a2a_i" href="/" target="_blank" style="display: none; "><span class="a2a_i_livejournal">LiveJournal</span></a><a id="a2apage_current" rel="nofollow" class="a2a_i" href="/" target="_blank" style="display: none; "><span class="a2a_i_current">Current</span></a><a id="a2apage_hellotxt" rel="nofollow" class="a2a_i" href="/" target="_blank" style="display: none; "><span class="a2a_i_hellotxt">HelloTxt</span></a><a id="a2apage_spurl" rel="nofollow" class="a2a_i" href="/" target="_blank" style="display: none; "><span class="a2a_i_spurl">Spurl</span></a><a id="a2apage_yample" rel="nofollow" class="a2a_i" href="/" target="_blank" style="display: none; "><span class="a2a_i_yample">Yample</span></a><a id="a2apage_oneview" rel="nofollow" class="a2a_i" href="/" target="_blank" style="display: none; "><span class="a2a_i_oneview">Oneview</span></a><a id="a2apage_linkatopia" rel="nofollow" class="a2a_i" href="/" target="_blank" style="display: none; "><span class="a2a_i_linkatopia">Linkatopia</span></a><a id="a2apage_simpy" rel="nofollow" class="a2a_i" href="/" target="_blank" style="display: none; "><span class="a2a_i_simpy">Simpy</span></a><a id="a2apage_linkedin" rel="nofollow" class="a2a_i" href="/" target="_blank" style="display: none; "><span class="a2a_i_linkedin">LinkedIn</span></a><a id="a2apage_buddymarks" rel="nofollow" class="a2a_i" href="/" target="_blank" style="display: none; "><span class="a2a_i_buddymarks">BuddyMarks</span></a><a id="a2apage_ask_com_mystuff" rel="nofollow" class="a2a_i" href="/" target="_blank" style="display: none; "><span class="a2a_i_ask">Ask.com MyStuff</span></a><a id="a2apage_viadeo" rel="nofollow" class="a2a_i" href="/" target="_blank" style="display: none; "><span class="a2a_i_viadeo">Viadeo</span></a><a id="a2apage_maple" rel="nofollow" class="a2a_i" href="/" target="_blank" style="display: none; "><span class="a2a_i_maple">Maple</span></a><a id="a2apage_wists" rel="nofollow" class="a2a_i" href="/" target="_blank" style="display: none; "><span class="a2a_i_wists">Wists</span></a><a id="a2apage_connotea" rel="nofollow" class="a2a_i" href="/" target="_blank" style="display: none; "><span class="a2a_i_connotea">Connotea</span></a><a id="a2apage_backflip" rel="nofollow" class="a2a_i" href="/" target="_blank" style="display: none; "><span class="a2a_i_backflip">Backflip</span></a><a id="a2apage_mylinkvault" rel="nofollow" class="a2a_i" href="/" target="_blank" style="display: none; "><span class="a2a_i_mylinkvault">MyLinkVault</span></a><a id="a2apage_sitejot" rel="nofollow" class="a2a_i" href="/" target="_blank" style="display: none; "><span class="a2a_i_sitejot">SiteJot</span></a><a id="a2apage_sphinn" rel="nofollow" class="a2a_i" href="/" target="_blank" style="display: none; "><span class="a2a_i_sphinn">Sphinn</span></a><a id="a2apage_dzone" rel="nofollow" class="a2a_i" href="/" target="_blank" style="display: none; "><span class="a2a_i_dzone">DZone</span></a><a id="a2apage_care2_news" rel="nofollow" class="a2a_i" href="/" target="_blank" style="display: none; "><span class="a2a_i_care2">Care2 News</span></a><a id="a2apage_hyves" rel="nofollow" class="a2a_i" href="/" target="_blank" style="display: none; "><span class="a2a_i_hyves">Hyves</span></a><a id="a2apage_sphere" rel="nofollow" class="a2a_i" href="/" target="_blank" style="display: none; "><span class="a2a_i_sphere">Sphere</span></a><a id="a2apage_bitty_browser" rel="nofollow" class="a2a_i" href="/" target="_blank" style="display: none; "><span class="a2a_i_bitty">Bitty Browser</span></a><a id="a2apage_gabbr" rel="nofollow" class="a2a_i" href="/" target="_blank" style="display: none; "><span class="a2a_i_gabbr">Gabbr</span></a><a id="a2apage_symbaloo_feeds" rel="nofollow" class="a2a_i" href="/" target="_blank" style="display: none; "><span class="a2a_i_symbaloo">Symbaloo Feeds</span></a><a id="a2apage_tagza" rel="nofollow" class="a2a_i" href="/" target="_blank" style="display: none; "><span class="a2a_i_tagza">Tagza</span></a><a id="a2apage_folkd" rel="nofollow" class="a2a_i" href="/" target="_blank" style="display: none; "><span class="a2a_i_folkd">Folkd</span></a><a id="a2apage_newstrust" rel="nofollow" class="a2a_i" href="/" target="_blank" style="display: none; "><span class="a2a_i_newstrust">NewsTrust</span></a><a id="a2apage_amazon_wish_list" rel="nofollow" class="a2a_i" href="/" target="_blank" style="display: none; "><span class="a2a_i_amazon">Amazon Wish List</span></a><a id="a2apage_printfriendly" rel="nofollow" class="a2a_i" href="/" target="_blank" style="display: none; "><span class="a2a_i_printfriendly">PrintFriendly</span></a><a id="a2apage_read_it_later" rel="nofollow" class="a2a_i" href="/" target="_blank" style="display: none; "><span class="a2a_i_read_it_later">Read It Later</span></a><a id="a2apage_tuenti" rel="nofollow" class="a2a_i" href="/" target="_blank" style="display: none; "><span class="a2a_i_tuenti">Tuenti</span></a><a id="a2apage_email" rel="nofollow" class="a2a_i" href="/" target="_blank" style="display: none; "><span class="a2a_i_email">Email</span></a><a id="a2apage_rediff" rel="nofollow" class="a2a_i" href="/" target="_blank" style="display: none; "><span class="a2a_i_rediff">Rediff MyPage</span></a></div><div id="a2apage_2_col1" style="display: none; "><a id="a2apage_google_gmail" rel="nofollow" class="a2a_i" href="/" target="_blank"><span class="a2a_i_gmail">Google Gmail</span></a><a id="a2apage_yahoo_mail" rel="nofollow" class="a2a_i" href="/" target="_blank"><span class="a2a_i_yahoo">Yahoo Mail</span></a><a id="a2apage_hotmail" rel="nofollow" class="a2a_i" href="/" target="_blank"><span class="a2a_i_live">Hotmail</span></a><a id="a2apage_aol_mail" rel="nofollow" class="a2a_i" href="/" target="_blank"><span class="a2a_i_aol">AOL Mail</span></a><a id="a2apage_any_email" rel="nofollow" class="a2a_i a2a_emailer" href="/" target="_blank"><span class="a2a_i_email">Any email</span></a><a id="a2apage_email_client" rel="nofollow" class="a2a_i a2a_emailer a2a_email_client" href="/" target=""><span class="a2a_i_outlook">&nbsp;</span><span class="a2a_i_windows_mail">&nbsp;</span><span class="a2a_i_apple_mail">&nbsp;</span><span class="a2a_i_thunderbird">&nbsp;</span></a></div><div class="a2a_clear"></div></div><div id="a2apage_note_BROWSER" class="a2a_note" style="display:none"></div><div class="a2apage_wide a2a_wide" style=""><a href="javascript:void(0)" id="a2apage_show_more_less" class="a2a_menu_show_more_less" onclick="return a2a.show_more_less(0)" onmouseover="img=this.firstChild;if(a2a.c.color_arrow_hover==\'fff\'){if(img.className.indexOf(\'_wt\')==-1)img.className =\'_wt\'}else img.className=img.className.replace(/_wt/,\'\')" onmouseout="img=this.firstChild;if(a2a.c.color_arrow==\'fff\'){if(img.className.indexOf(\'_wt\')==-1)img.className =\'_wt\'}else img.className=img.className.replace(/_wt/,\'\')" title="Show all"><span class="a2a_i_darr"></span></a></div><div class="a2a_menu_powered_by" id="a2apage_powered_by" onmouseover="if(this.innerHTML!=this.orig&amp;&amp;!window.opera)this.innerHTML=this.orig;this.style.textAlign=\'center\'" style="">By <a href="http://share.lockerz.com/" target="_blank" title="Share Buttons">Lockerz</a></div></div></div></div>\n  <div class="wrapper"><!-- for sticky footer -->\n    <div class="flash" style="display: none; "></div>\n    <div class="header">\n      <div class="container">\n        <div class="sixteen columns">\n\t  <img src="http://127.0.0.1:8000/examples/static/images/web2py_logo.png">\n          <h5></h5>\n        </div>\n        <div class="sixteen columns statusbar">\n          <div id="menu"><ul class="sf-menu"><li><a href="http://127.0.0.1:8000/examples/default/index">Home</a></li><li><a href="http://127.0.0.1:8000/examples/default/what">About</a></li><li><a href="http://127.0.0.1:8000/examples/default/download">Download</a></li><li><a href="http://127.0.0.1:8000/examples/default/documentation">Docs &amp; Resources</a></li><li><a href="http://127.0.0.1:8000/examples/default/support">Support</a></li><li><a href="http://127.0.0.1:8000/examples/default/who">Contributors</a></li></ul>\n            <!-- AddToAny BEGIN -->\n            <div style="float:right;padding-top:6px;" class="a2a_kit a2a_default_style">\n            <a class="a2a_dd" href="http://www.addtoany.com/share_save#url=http%3A%2F%2F127.0.0.1%3A8000%2Finplace%2Fdefault%2Fedit%3Furl%3Dhttp%253A%252F%252F127.0.0.1%253A8000%252Finplace%252Fdefault%252Fpage%252F1&amp;title=web2py%20Web%20Framework&amp;description="><span class="a2a_img a2a_img_text a2a_i_a2a"></span>Share</a><div style="clear: both; "></div></div>\n            <script type="text/javascript" src="http://static.addtoany.com/menu/page.js"></script>\n            <!-- AddToAny END -->\n          </div>\n\t  <div class="sixteen columns announce">\n\t    <a href="http://www.infoworld.com/d/open-source-software/bossie-awards-2011-the-best-open-source-application-development-software-171759-0&amp;current=10&amp;last=1#slideshowTop">2011 BOSSIE AWARD FOR OPEN SOURCE DEVELOPMENT SOFTWARE</a>\n          </div>\n\t</div>\n      </div>\n    </div>\n    <div class="main">\n      <div class="container mainbody">\n        <div class="sixteen columns">\n          <div class="ten columns center">\n<center>\n  <img src="http://127.0.0.1:8000/examples/static/images/tag-cloud-color-small.png">\n</center>\n<h3><br></h3>\n<p><br></p>\n          </div>\n          <div class="five columns">\n<div style="text-align:center">\n  <a href="http://web2py.com/book"><img src="http://127.0.0.1:8000/examples/static/images/tablet.png" alt="Tablet"></a><br>\n  <a href="http://www.lulu.com/product/paperback/web2py-book-(4th-edition)/18738286"><img src="http://static.lulu.com/images/services/buy_now_buttons/us/book.gif?20111206124946" border="0" alt="Support independent publishing: Buy this book on Lulu."></a><br>\n  <a class="button" href="http://127.0.0.1:8000/examples/default/download" style="width:90%">DOWNLOAD NOW</a><br>\n  <a class="button" href="http://web2py.com/demo_admin" style="width:90%">ONLINE DEMO</a><br>\n  <a class="button" href="http://web2py.com/poweredby" style="width:90%">SITES POWERED</a>\n</div>\n          </div>\n        </div>\n      </div><!-- container -->\n<div class="container">\n  <div class="sixteen columns">\n    <div class="five columns">\n      <h3><a href="http://127.0.0.1:8000/examples/default/about">BATTERIES INCLUDED</a></h3>\n      <p>Everything you need in one package including fast multi-threaded web server, SQL database and web-based interface. No third party dependencies but works with <a href="/examples/default/what">third party tools</a>.</p>\n    </div>\n    <div class="five columns">\n      <h3><a href="http://web2py.com/demo_admin">WEB-BASED IDE</a></h3>\n      <p>Create, modify, deploy and manage application from anywhere using your browser. One web2py instance can run multiple web sites using different databases. Try the <a href="http://web2py.com/demo_admin">interactive demo</a>.</p>\n    </div>\n    <div class="five columns">\n      <h3><a href="http://127.0.0.1:8000/examples/default/documentation">EXTENSIVE DOCS</a></h3>\n      <p>Start with some <a href="http://127.0.0.1:8000/examples/default/examples">quick examples</a>, then read the <a href="http://web2py.com/book">reference manual</a>, watch <a href="http://vimeo.com/album/178500">videos</a>, and join a <a href="http://127.0.0.1:8000/examples/default/usergroups">user group</a> for discussion. Take advantage of the <a href="http://web2py.com/layouts">layouts</a>, <a href="http://dev.s-cubism.com/web2py_plugins">plugins</a>, and <a href="http://web2pyslices.com">recipes</a>.</p>\n    </div>\n  </div>\n</div>\n<div class="container">\n  <div class="sixteen columns">\n    <img src="http://127.0.0.1:8000/examples/static/images/shadow-bottom.png" width="100%">\n    <div class="five columns">\n      <em>\n\t<p>Please use www.web2py.com when using MVC , no PHP/SQL stuff please...its 2011 not 1999</p>\n      </em>\n      <span class="right">\n\t<a href="http://twitter.com/#!/rabblesoft/status/79189028431343616"><em>rabblesoft</em></a>\n      </span>\n    </div>\n    <div class="five columns">\n      <em>\n\t<p>web2py was the life saver today for me, my blog post: Standalone Usage of web2py\'s</p>\n      </em>\n      <span class="right">\n\t<a href="http://twitter.com/#!/caglartoklu/status/84292131707031553"><em>caglartoklu</em></a>\n      </span>\n    </div>\n    <div class="five columns">\n      <em>\n\t<p>web2py it is. Compatible with everything under the sun and great interfaces to googleappengine</p>\n      </em>\n      <span class="right">\n\t<a href="http://twitter.com/#!/comamitc/status/51744719071477760"><em>comamitc</em></a>\n      </span>\n    </div>\n  </div>\n</div>\n    </div><!-- main -->\n    <div class="push"></div>\n  </div><!-- wrapper -->\n  <div class="footer">\n    <div class="container header">\n      <div class="sixteen columns">\n         <!-- this is default footer -->\n        <div class="footer-content">\n          Copyright \xa9 2011\n\t  - User communities in <a href="https://groups.google.com/forum/?fromgroups#!forum/web2py" target="_blank">English</a><a>, </a><a href="https://groups.google.com/forum/?fromgroups#!forum/web2py-fr" target="_blank">French</a>, <a href="https://groups.google.com/forum/?fromgroups#!forum/web2py-japan" target="_blank">Japanese</a>, <a href="https://groups.google.com/forum/?fromgroups#!forum/web2py-users-brazil" target="_blank">Portuguese</a>, and <a href="https://groups.google.com/forum/?fromgroups#!forum/web2py-usuarios" target="_blank">Spanish</a>.\n          <div style="float: right;">\n            <a href="http://www.web2py.com/" style="float: left; padding-right: 6px;">\n            <img style="padding-bottom: 0;" src="http://127.0.0.1:8000/examples/static/images/poweredby.png">\n            </a>\n          </div>\n        </div>\n      </div>\n    </div><!-- container -->\n  </div><!-- footer -->\n  <!--[if lt IE 7 ]>\n\t<script src="http://127.0.0.1:8000/examples/static/js/dd_belatedpng.js"></script>\n\t<script> DD_belatedPNG.fix(\'img, .png_bg\'); //fix any <img> or .png_bg background-images </script>\n\t<![endif]-->\n\n\n</body></html>'
p3902
asbasbasbag49
(g65
g51
NtRp3903
(dp3904
g54
(dp3905
sg63
g3567
sg56
(lp3906
g49
(g70
g51
NtRp3907
(dp3908
g54
(dp3909
g74
g75
ssg63
g3903
sg56
(lp3910
S'url'
p3911
asbag49
(g70
g51
NtRp3912
(dp3913
g54
(dp3914
g81
g82
ssg63
g3903
sg56
(lp3915
S':'
asbag49
(g70
g51
NtRp3916
(dp3917
g54
(dp3918
sg63
g3903
sg56
(lp3919
g49
(g50
g51
NtRp3920
(dp3921
g54
(dp3922
g62
I5
ssg63
g3916
sg56
(lp3923
S'http://127.0.0.1:8000/inplace/default/page/1'
p3924
asbasbasbasbasbsS'etype'
p3925
S"<type 'exceptions.AttributeError'>"
p3926
sS'date'
p3927
S'Sun Dec 11 16:26:38 2011'
p3928
sS'response'
p3929
g49
(g50
g51
NtRp3930
(dp3931
g54
(dp3932
sg56
(lp3933
g49
(g58
g51
NtRp3934
(dp3935
g54
(dp3936
g62
I5
ssg63
Nsg56
(lp3937
g49
(g65
g51
NtRp3938
(dp3939
g54
(dp3940
sg63
g3934
sg56
(lp3941
g49
(g70
g51
NtRp3942
(dp3943
g54
(dp3944
g74
g75
ssg63
g3938
sg56
(lp3945
g159
asbag49
(g70
g51
NtRp3946
(dp3947
g54
(dp3948
g81
g82
ssg63
g3938
sg56
(lp3949
S':'
asbag49
(g70
g51
NtRp3950
(dp3951
g54
(dp3952
sg63
g3938
sg56
(lp3953
g49
(g50
g51
NtRp3954
(dp3955
g54
(dp3956
g62
I5
ssg63
g3950
sg56
(lp3957
S'<cStringIO.StringO object at 0x1fdcb80>'
p3958
asbasbasbag49
(g65
g51
NtRp3959
(dp3960
g54
(dp3961
sg63
g3934
sg56
(lp3962
g49
(g70
g51
NtRp3963
(dp3964
g54
(dp3965
g74
g75
ssg63
g3959
sg56
(lp3966
g225
asbag49
(g70
g51
NtRp3967
(dp3968
g54
(dp3969
g81
g82
ssg63
g3959
sg56
(lp3970
S':'
asbag49
(g70
g51
NtRp3971
(dp3972
g54
(dp3973
sg63
g3959
sg56
(lp3974
g49
(g50
g51
NtRp3975
(dp3976
g54
(dp3977
g62
I5
ssg63
g3971
sg56
(lp3978
g49
(g58
g51
NtRp3979
(dp3980
g54
(dp3981
g62
I4
ssg63
Nsg56
(lp3982
g49
(g65
g51
NtRp3983
(dp3984
g54
(dp3985
sg63
g3979
sg56
(lp3986
g49
(g70
g51
NtRp3987
(dp3988
g54
(dp3989
g74
g75
ssg63
g3983
sg56
(lp3990
S'session_id_inplace'
p3991
asbag49
(g70
g51
NtRp3992
(dp3993
g54
(dp3994
g81
g82
ssg63
g3983
sg56
(lp3995
S':'
asbag49
(g70
g51
NtRp3996
(dp3997
g54
(dp3998
sg63
g3983
sg56
(lp3999
g49
(g50
g51
NtRp4000
(dp4001
g54
(dp4002
g62
I4
ssg63
g3996
sg56
(lp4003
g49
(g58
g51
NtRp4004
(dp4005
g54
(dp4006
g62
I3
ssg63
Nsg56
(lp4007
g49
(g65
g51
NtRp4008
(dp4009
g54
(dp4010
sg63
g4004
sg56
(lp4011
g49
(g70
g51
NtRp4012
(dp4013
g54
(dp4014
g74
g75
ssg63
g4008
sg56
(lp4015
g275
asbag49
(g70
g51
NtRp4016
(dp4017
g54
(dp4018
g81
g82
ssg63
g4008
sg56
(lp4019
S':'
asbag49
(g70
g51
NtRp4020
(dp4021
g54
(dp4022
sg63
g4008
sg56
(lp4023
g49
(g50
g51
NtRp4024
(dp4025
g54
(dp4026
g62
I3
ssg63
g4020
sg56
(lp4027
S''
asbasbasbag49
(g65
g51
NtRp4028
(dp4029
g54
(dp4030
sg63
g4004
sg56
(lp4031
g49
(g70
g51
NtRp4032
(dp4033
g54
(dp4034
g74
g75
ssg63
g4028
sg56
(lp4035
g296
asbag49
(g70
g51
NtRp4036
(dp4037
g54
(dp4038
g81
g82
ssg63
g4028
sg56
(lp4039
S':'
asbag49
(g70
g51
NtRp4040
(dp4041
g54
(dp4042
sg63
g4028
sg56
(lp4043
g49
(g50
g51
NtRp4044
(dp4045
g54
(dp4046
g62
I3
ssg63
g4040
sg56
(lp4047
S''
asbasbasbag49
(g65
g51
NtRp4048
(dp4049
g54
(dp4050
sg63
g4004
sg56
(lp4051
g49
(g70
g51
NtRp4052
(dp4053
g54
(dp4054
g74
g75
ssg63
g4048
sg56
(lp4055
g317
asbag49
(g70
g51
NtRp4056
(dp4057
g54
(dp4058
g81
g82
ssg63
g4048
sg56
(lp4059
S':'
asbag49
(g70
g51
NtRp4060
(dp4061
g54
(dp4062
sg63
g4048
sg56
(lp4063
g49
(g50
g51
NtRp4064
(dp4065
g54
(dp4066
g62
I3
ssg63
g4060
sg56
(lp4067
S''
asbasbasbag49
(g65
g51
NtRp4068
(dp4069
g54
(dp4070
sg63
g4004
sg56
(lp4071
g49
(g70
g51
NtRp4072
(dp4073
g54
(dp4074
g74
g75
ssg63
g4068
sg56
(lp4075
g338
asbag49
(g70
g51
NtRp4076
(dp4077
g54
(dp4078
g81
g82
ssg63
g4068
sg56
(lp4079
S':'
asbag49
(g70
g51
NtRp4080
(dp4081
g54
(dp4082
sg63
g4068
sg56
(lp4083
g49
(g50
g51
NtRp4084
(dp4085
g54
(dp4086
g62
I3
ssg63
g4080
sg56
(lp4087
S''
asbasbasbag49
(g65
g51
NtRp4088
(dp4089
g54
(dp4090
sg63
g4004
sg56
(lp4091
g49
(g70
g51
NtRp4092
(dp4093
g54
(dp4094
g74
g75
ssg63
g4088
sg56
(lp4095
g359
asbag49
(g70
g51
NtRp4096
(dp4097
g54
(dp4098
g81
g82
ssg63
g4088
sg56
(lp4099
S':'
asbag49
(g70
g51
NtRp4100
(dp4101
g54
(dp4102
sg63
g4088
sg56
(lp4103
g49
(g50
g51
NtRp4104
(dp4105
g54
(dp4106
g62
I3
ssg63
g4100
sg56
(lp4107
S'/'
asbasbasbag49
(g65
g51
NtRp4108
(dp4109
g54
(dp4110
sg63
g4004
sg56
(lp4111
g49
(g70
g51
NtRp4112
(dp4113
g54
(dp4114
g74
g75
ssg63
g4108
sg56
(lp4115
g380
asbag49
(g70
g51
NtRp4116
(dp4117
g54
(dp4118
g81
g82
ssg63
g4108
sg56
(lp4119
S':'
asbag49
(g70
g51
NtRp4120
(dp4121
g54
(dp4122
sg63
g4108
sg56
(lp4123
g49
(g50
g51
NtRp4124
(dp4125
g54
(dp4126
g62
I3
ssg63
g4120
sg56
(lp4127
S''
asbasbasbag49
(g65
g51
NtRp4128
(dp4129
g54
(dp4130
sg63
g4004
sg56
(lp4131
g49
(g70
g51
NtRp4132
(dp4133
g54
(dp4134
g74
g75
ssg63
g4128
sg56
(lp4135
g401
asbag49
(g70
g51
NtRp4136
(dp4137
g54
(dp4138
g81
g82
ssg63
g4128
sg56
(lp4139
S':'
asbag49
(g70
g51
NtRp4140
(dp4141
g54
(dp4142
sg63
g4128
sg56
(lp4143
g49
(g50
g51
NtRp4144
(dp4145
g54
(dp4146
g62
I3
ssg63
g4140
sg56
(lp4147
S''
asbasbasbasbasbasbasbasbasbasbasbag49
(g65
g51
NtRp4148
(dp4149
g54
(dp4150
sg63
g3934
sg56
(lp4151
g49
(g70
g51
NtRp4152
(dp4153
g54
(dp4154
g74
g75
ssg63
g4148
sg56
(lp4155
S'files'
p4156
asbag49
(g70
g51
NtRp4157
(dp4158
g54
(dp4159
g81
g82
ssg63
g4148
sg56
(lp4160
S':'
asbag49
(g70
g51
NtRp4161
(dp4162
g54
(dp4163
sg63
g4148
sg56
(lp4164
g49
(g50
g51
NtRp4165
(dp4166
g54
(dp4167
g62
I5
ssg63
g4161
sg56
(lp4168
g49
(g58
g51
NtRp4169
(dp4170
g54
(dp4171
g62
I4
ssg63
Nsg56
(lp4172
sbasbasbasbag49
(g65
g51
NtRp4173
(dp4174
g54
(dp4175
sg63
g3934
sg56
(lp4176
g49
(g70
g51
NtRp4177
(dp4178
g54
(dp4179
g74
g75
ssg63
g4173
sg56
(lp4180
S'flash'
p4181
asbag49
(g70
g51
NtRp4182
(dp4183
g54
(dp4184
g81
g82
ssg63
g4173
sg56
(lp4185
S':'
asbag49
(g70
g51
NtRp4186
(dp4187
g54
(dp4188
sg63
g4173
sg56
(lp4189
g49
(g50
g51
NtRp4190
(dp4191
g54
(dp4192
g62
I5
ssg63
g4186
sg56
(lp4193
S''
asbasbasbag49
(g65
g51
NtRp4194
(dp4195
g54
(dp4196
sg63
g3934
sg56
(lp4197
g49
(g70
g51
NtRp4198
(dp4199
g54
(dp4200
g74
g75
ssg63
g4194
sg56
(lp4201
S'generic_patterns'
p4202
asbag49
(g70
g51
NtRp4203
(dp4204
g54
(dp4205
g81
g82
ssg63
g4194
sg56
(lp4206
S':'
asbag49
(g70
g51
NtRp4207
(dp4208
g54
(dp4209
sg63
g4194
sg56
(lp4210
g49
(g50
g51
NtRp4211
(dp4212
g54
(dp4213
g62
I5
ssg63
g4207
sg56
(lp4214
g49
(g58
g51
NtRp4215
(dp4216
g54
(dp4217
g62
I4
ssg63
Nsg56
(lp4218
g49
(g65
g51
NtRp4219
(dp4220
g54
(dp4221
sg63
g4215
sg56
(lp4222
g49
(g70
g51
NtRp4223
(dp4224
g54
(dp4225
sg63
g4219
sg56
(lp4226
g49
(g50
g51
NtRp4227
(dp4228
g54
(dp4229
g62
I4
ssg63
g4223
sg56
(lp4230
S'*'
asbasbasbasbasbasbasbag49
(g65
g51
NtRp4231
(dp4232
g54
(dp4233
sg63
g3934
sg56
(lp4234
g49
(g70
g51
NtRp4235
(dp4236
g54
(dp4237
g74
g75
ssg63
g4231
sg56
(lp4238
S'headers'
p4239
asbag49
(g70
g51
NtRp4240
(dp4241
g54
(dp4242
g81
g82
ssg63
g4231
sg56
(lp4243
S':'
asbag49
(g70
g51
NtRp4244
(dp4245
g54
(dp4246
sg63
g4231
sg56
(lp4247
g49
(g50
g51
NtRp4248
(dp4249
g54
(dp4250
g62
I5
ssg63
g4244
sg56
(lp4251
g49
(g58
g51
NtRp4252
(dp4253
g54
(dp4254
g62
I4
ssg63
Nsg56
(lp4255
g49
(g65
g51
NtRp4256
(dp4257
g54
(dp4258
sg63
g4252
sg56
(lp4259
g49
(g70
g51
NtRp4260
(dp4261
g54
(dp4262
g74
g75
ssg63
g4256
sg56
(lp4263
S'Cache-Control'
p4264
asbag49
(g70
g51
NtRp4265
(dp4266
g54
(dp4267
g81
g82
ssg63
g4256
sg56
(lp4268
S':'
asbag49
(g70
g51
NtRp4269
(dp4270
g54
(dp4271
sg63
g4256
sg56
(lp4272
g49
(g50
g51
NtRp4273
(dp4274
g54
(dp4275
g62
I4
ssg63
g4269
sg56
(lp4276
S'no-store, no-cache, must-revalidate, post-check=0, pre-check=0'
p4277
asbasbasbag49
(g65
g51
NtRp4278
(dp4279
g54
(dp4280
sg63
g4252
sg56
(lp4281
g49
(g70
g51
NtRp4282
(dp4283
g54
(dp4284
g74
g75
ssg63
g4278
sg56
(lp4285
S'Content-Type'
p4286
asbag49
(g70
g51
NtRp4287
(dp4288
g54
(dp4289
g81
g82
ssg63
g4278
sg56
(lp4290
S':'
asbag49
(g70
g51
NtRp4291
(dp4292
g54
(dp4293
sg63
g4278
sg56
(lp4294
g49
(g50
g51
NtRp4295
(dp4296
g54
(dp4297
g62
I4
ssg63
g4291
sg56
(lp4298
S'text/html; charset=utf-8'
p4299
asbasbasbag49
(g65
g51
NtRp4300
(dp4301
g54
(dp4302
sg63
g4252
sg56
(lp4303
g49
(g70
g51
NtRp4304
(dp4305
g54
(dp4306
g74
g75
ssg63
g4300
sg56
(lp4307
S'Expires'
p4308
asbag49
(g70
g51
NtRp4309
(dp4310
g54
(dp4311
g81
g82
ssg63
g4300
sg56
(lp4312
S':'
asbag49
(g70
g51
NtRp4313
(dp4314
g54
(dp4315
sg63
g4300
sg56
(lp4316
g49
(g50
g51
NtRp4317
(dp4318
g54
(dp4319
g62
I4
ssg63
g4313
sg56
(lp4320
S'Sun, 11 Dec 2011 22:26:38 GMT'
p4321
asbasbasbag49
(g65
g51
NtRp4322
(dp4323
g54
(dp4324
sg63
g4252
sg56
(lp4325
g49
(g70
g51
NtRp4326
(dp4327
g54
(dp4328
g74
g75
ssg63
g4322
sg56
(lp4329
S'Pragma'
p4330
asbag49
(g70
g51
NtRp4331
(dp4332
g54
(dp4333
g81
g82
ssg63
g4322
sg56
(lp4334
S':'
asbag49
(g70
g51
NtRp4335
(dp4336
g54
(dp4337
sg63
g4322
sg56
(lp4338
g49
(g50
g51
NtRp4339
(dp4340
g54
(dp4341
g62
I4
ssg63
g4335
sg56
(lp4342
S'no-cache'
p4343
asbasbasbag49
(g65
g51
NtRp4344
(dp4345
g54
(dp4346
sg63
g4252
sg56
(lp4347
g49
(g70
g51
NtRp4348
(dp4349
g54
(dp4350
g74
g75
ssg63
g4344
sg56
(lp4351
S'X-Powered-By'
p4352
asbag49
(g70
g51
NtRp4353
(dp4354
g54
(dp4355
g81
g82
ssg63
g4344
sg56
(lp4356
S':'
asbag49
(g70
g51
NtRp4357
(dp4358
g54
(dp4359
sg63
g4344
sg56
(lp4360
g49
(g50
g51
NtRp4361
(dp4362
g54
(dp4363
g62
I4
ssg63
g4357
sg56
(lp4364
S'web2py'
p4365
asbasbasbasbasbasbasbag49
(g65
g51
NtRp4366
(dp4367
g54
(dp4368
sg63
g3934
sg56
(lp4369
g49
(g70
g51
NtRp4370
(dp4371
g54
(dp4372
g74
g75
ssg63
g4366
sg56
(lp4373
S'menu'
p4374
asbag49
(g70
g51
NtRp4375
(dp4376
g54
(dp4377
g81
g82
ssg63
g4366
sg56
(lp4378
S':'
asbag49
(g70
g51
NtRp4379
(dp4380
g54
(dp4381
sg63
g4366
sg56
(lp4382
g49
(g50
g51
NtRp4383
(dp4384
g54
(dp4385
g62
I5
ssg63
g4379
sg56
(lp4386
g49
(g58
g51
NtRp4387
(dp4388
g54
(dp4389
g62
I4
ssg63
Nsg56
(lp4390
sbasbasbasbag49
(g65
g51
NtRp4391
(dp4392
g54
(dp4393
sg63
g3934
sg56
(lp4394
g49
(g70
g51
NtRp4395
(dp4396
g54
(dp4397
g74
g75
ssg63
g4391
sg56
(lp4398
S'meta'
p4399
asbag49
(g70
g51
NtRp4400
(dp4401
g54
(dp4402
g81
g82
ssg63
g4391
sg56
(lp4403
S':'
asbag49
(g70
g51
NtRp4404
(dp4405
g54
(dp4406
sg63
g4391
sg56
(lp4407
g49
(g50
g51
NtRp4408
(dp4409
g54
(dp4410
g62
I5
ssg63
g4404
sg56
(lp4411
g49
(g58
g51
NtRp4412
(dp4413
g54
(dp4414
g62
I4
ssg63
Nsg56
(lp4415
sbasbasbasbag49
(g65
g51
NtRp4416
(dp4417
g54
(dp4418
sg63
g3934
sg56
(lp4419
g49
(g70
g51
NtRp4420
(dp4421
g54
(dp4422
g74
g75
ssg63
g4416
sg56
(lp4423
S'postprocessing'
p4424
asbag49
(g70
g51
NtRp4425
(dp4426
g54
(dp4427
g81
g82
ssg63
g4416
sg56
(lp4428
S':'
asbag49
(g70
g51
NtRp4429
(dp4430
g54
(dp4431
sg63
g4416
sg56
(lp4432
g49
(g50
g51
NtRp4433
(dp4434
g54
(dp4435
g62
I5
ssg63
g4429
sg56
(lp4436
g49
(g58
g51
NtRp4437
(dp4438
g54
(dp4439
g62
I4
ssg63
Nsg56
(lp4440
sbasbasbasbag49
(g65
g51
NtRp4441
(dp4442
g54
(dp4443
sg63
g3934
sg56
(lp4444
g49
(g70
g51
NtRp4445
(dp4446
g54
(dp4447
g74
g75
ssg63
g4441
sg56
(lp4448
S'session_file'
p4449
asbag49
(g70
g51
NtRp4450
(dp4451
g54
(dp4452
g81
g82
ssg63
g4441
sg56
(lp4453
S':'
asbag49
(g70
g51
NtRp4454
(dp4455
g54
(dp4456
sg63
g4441
sg56
(lp4457
g49
(g50
g51
NtRp4458
(dp4459
g54
(dp4460
g62
I5
ssg63
g4454
sg56
(lp4461
S"<open file '/Users/mdipierro/Dropbox/web2py/applications/inplace/sessions/127.0.0.1-b67af904-b8cf-469d-95b3-18285a004db1', mode 'rb+' at 0x281ee78>"
p4462
asbasbasbag49
(g65
g51
NtRp4463
(dp4464
g54
(dp4465
sg63
g3934
sg56
(lp4466
g49
(g70
g51
NtRp4467
(dp4468
g54
(dp4469
g74
g75
ssg63
g4463
sg56
(lp4470
S'session_filename'
p4471
asbag49
(g70
g51
NtRp4472
(dp4473
g54
(dp4474
g81
g82
ssg63
g4463
sg56
(lp4475
S':'
asbag49
(g70
g51
NtRp4476
(dp4477
g54
(dp4478
sg63
g4463
sg56
(lp4479
g49
(g50
g51
NtRp4480
(dp4481
g54
(dp4482
g62
I5
ssg63
g4476
sg56
(lp4483
S'/Users/mdipierro/Dropbox/web2py/applications/inplace/sessions/127.0.0.1-b67af904-b8cf-469d-95b3-18285a004db1'
p4484
asbasbasbag49
(g65
g51
NtRp4485
(dp4486
g54
(dp4487
sg63
g3934
sg56
(lp4488
g49
(g70
g51
NtRp4489
(dp4490
g54
(dp4491
g74
g75
ssg63
g4485
sg56
(lp4492
S'session_id'
p4493
asbag49
(g70
g51
NtRp4494
(dp4495
g54
(dp4496
g81
g82
ssg63
g4485
sg56
(lp4497
S':'
asbag49
(g70
g51
NtRp4498
(dp4499
g54
(dp4500
sg63
g4485
sg56
(lp4501
g49
(g50
g51
NtRp4502
(dp4503
g54
(dp4504
g62
I5
ssg63
g4498
sg56
(lp4505
S'127.0.0.1-b67af904-b8cf-469d-95b3-18285a004db1'
p4506
asbasbasbag49
(g65
g51
NtRp4507
(dp4508
g54
(dp4509
sg63
g3934
sg56
(lp4510
g49
(g70
g51
NtRp4511
(dp4512
g54
(dp4513
g74
g75
ssg63
g4507
sg56
(lp4514
S'session_id_name'
p4515
asbag49
(g70
g51
NtRp4516
(dp4517
g54
(dp4518
g81
g82
ssg63
g4507
sg56
(lp4519
S':'
asbag49
(g70
g51
NtRp4520
(dp4521
g54
(dp4522
sg63
g4507
sg56
(lp4523
g49
(g50
g51
NtRp4524
(dp4525
g54
(dp4526
g62
I5
ssg63
g4520
sg56
(lp4527
g3991
asbasbasbag49
(g65
g51
NtRp4528
(dp4529
g54
(dp4530
sg63
g3934
sg56
(lp4531
g49
(g70
g51
NtRp4532
(dp4533
g54
(dp4534
g74
g75
ssg63
g4528
sg56
(lp4535
S'session_locked'
p4536
asbag49
(g70
g51
NtRp4537
(dp4538
g54
(dp4539
g81
g82
ssg63
g4528
sg56
(lp4540
S':'
asbag49
(g70
g51
NtRp4541
(dp4542
g54
(dp4543
sg63
g4528
sg56
(lp4544
g49
(g50
g51
NtRp4545
(dp4546
g54
(dp4547
g62
I5
ssg63
g4541
sg56
(lp4548
g2116
asbasbasbag49
(g65
g51
NtRp4549
(dp4550
g54
(dp4551
sg63
g3934
sg56
(lp4552
g49
(g70
g51
NtRp4553
(dp4554
g54
(dp4555
g74
g75
ssg63
g4549
sg56
(lp4556
S'session_new'
p4557
asbag49
(g70
g51
NtRp4558
(dp4559
g54
(dp4560
g81
g82
ssg63
g4549
sg56
(lp4561
S':'
asbag49
(g70
g51
NtRp4562
(dp4563
g54
(dp4564
sg63
g4549
sg56
(lp4565
g49
(g50
g51
NtRp4566
(dp4567
g54
(dp4568
g62
I5
ssg63
g4562
sg56
(lp4569
g92
asbasbasbag49
(g65
g51
NtRp4570
(dp4571
g54
(dp4572
sg63
g3934
sg56
(lp4573
g49
(g70
g51
NtRp4574
(dp4575
g54
(dp4576
g74
g75
ssg63
g4570
sg56
(lp4577
S'status'
p4578
asbag49
(g70
g51
NtRp4579
(dp4580
g54
(dp4581
g81
g82
ssg63
g4570
sg56
(lp4582
S':'
asbag49
(g70
g51
NtRp4583
(dp4584
g54
(dp4585
sg63
g4570
sg56
(lp4586
g49
(g50
g51
NtRp4587
(dp4588
g54
(dp4589
g62
I5
ssg63
g4583
sg56
(lp4590
S'200'
p4591
asbasbasbag49
(g65
g51
NtRp4592
(dp4593
g54
(dp4594
sg63
g3934
sg56
(lp4595
g49
(g70
g51
NtRp4596
(dp4597
g54
(dp4598
g74
g75
ssg63
g4592
sg56
(lp4599
S'subtitle'
p4600
asbag49
(g70
g51
NtRp4601
(dp4602
g54
(dp4603
g81
g82
ssg63
g4592
sg56
(lp4604
S':'
asbag49
(g70
g51
NtRp4605
(dp4606
g54
(dp4607
sg63
g4592
sg56
(lp4608
g49
(g50
g51
NtRp4609
(dp4610
g54
(dp4611
g62
I5
ssg63
g4605
sg56
(lp4612
S'The revolutionary CMS'
p4613
asbasbasbag49
(g65
g51
NtRp4614
(dp4615
g54
(dp4616
sg63
g3934
sg56
(lp4617
g49
(g70
g51
NtRp4618
(dp4619
g54
(dp4620
g74
g75
ssg63
g4614
sg56
(lp4621
S'title'
p4622
asbag49
(g70
g51
NtRp4623
(dp4624
g54
(dp4625
g81
g82
ssg63
g4614
sg56
(lp4626
S':'
asbag49
(g70
g51
NtRp4627
(dp4628
g54
(dp4629
sg63
g4614
sg56
(lp4630
g49
(g50
g51
NtRp4631
(dp4632
g54
(dp4633
g62
I5
ssg63
g4627
sg56
(lp4634
S'InPlace'
p4635
asbasbasbag49
(g65
g51
NtRp4636
(dp4637
g54
(dp4638
sg63
g3934
sg56
(lp4639
g49
(g70
g51
NtRp4640
(dp4641
g54
(dp4642
g74
g75
ssg63
g4636
sg56
(lp4643
g2801
asbag49
(g70
g51
NtRp4644
(dp4645
g54
(dp4646
g81
g82
ssg63
g4636
sg56
(lp4647
S':'
asbag49
(g70
g51
NtRp4648
(dp4649
g54
(dp4650
sg63
g4636
sg56
(lp4651
g49
(g50
g51
NtRp4652
(dp4653
g54
(dp4654
g62
I5
ssg63
g4648
sg56
(lp4655
g2814
asbasbasbag49
(g65
g51
NtRp4656
(dp4657
g54
(dp4658
sg63
g3934
sg56
(lp4659
g49
(g70
g51
NtRp4660
(dp4661
g54
(dp4662
g74
g75
ssg63
g4656
sg56
(lp4663
S'view'
p4664
asbag49
(g70
g51
NtRp4665
(dp4666
g54
(dp4667
g81
g82
ssg63
g4656
sg56
(lp4668
S':'
asbag49
(g70
g51
NtRp4669
(dp4670
g54
(dp4671
sg63
g4656
sg56
(lp4672
g49
(g50
g51
NtRp4673
(dp4674
g54
(dp4675
g62
I5
ssg63
g4669
sg56
(lp4676
S'default/folder.html'
p4677
asbasbasbasbasbsS'locals'
p4678
(dp4679
g2239
S'None'
p4680
sssS'traceback'
p4681
S'Traceback (most recent call last):\n  File "/Users/mdipierro/Dropbox/web2py/gluon/restricted.py", line 204, in restricted\n    exec ccode in environment\n  File "/Users/mdipierro/Dropbox/web2py/applications/inplace/controllers/default.py", line 96, in <module>\n  File "/Users/mdipierro/Dropbox/web2py/gluon/globals.py", line 172, in <lambda>\n    self._caller = lambda f: f()\n  File "/Users/mdipierro/Dropbox/web2py/gluon/tools.py", line 2533, in f\n    return action(*a, **b)\n  File "/Users/mdipierro/Dropbox/web2py/applications/inplace/controllers/default.py", line 68, in folder\n    folder.path, f = [folder.name], folder.parent_folder\nAttributeError: \'NoneType\' object has no attribute \'name\'\n'
p4682
s.