(dp1
S'output'
p2
S"<type 'exceptions.UnboundLocalError'> local variable 'html' referenced before assignment"
p3
sS'layer'
p4
S'/Users/mdipierro/Dropbox/web2py/applications/inplace/controllers/default.py'
p5
sS'code'
p6
S'# -*- coding: utf-8 -*-\n# developed by Massimo Di Pierro, BSD License\n\nresponse.title = \'InPlace\'\nresponse.subtitle = \'The revolutionary CMS\'\n\n@auth.requires_login()\ndef index():\n    form=SQLFORM.factory(Field(\'url\',requires=IS_URL(),default=\'http://web2py.com\'))\n    if form.process().accepted:\n        redirect(URL(\'edit\',vars=dict(url=form.vars.url)))\n    clones = db(db.clone).select()\n    return locals()\n\n@auth.requires_login()\ndef delete():\n    db(db.clone.id==request.args(0))(db.clone.created_by==auth.user.id).delete()\n    redirect(URL(\'index\'))\n\n@auth.requires_login()\ndef edit():\n    return locals()\n\n@auth.requires_login()\ndef edit_clone():\n    session._unlock(response)                    \n    import urllib,re\n    if request.args(0)==\'post\':\n        return request.vars.value or \'\'\n    elif request.args(0)==\'store\':\n        session.new_html = session.html.split(\'<body\')[0]+\'<body>\'+html+\'</body></html>\'\n        return \'ok\'\n    url = request.vars.url\n    try:\n        html = urllib.urlopen(url).read()\n    except IOError:\n        session.flash = \'web page does not exist!\'\n        redirect(URL(\'index\'))\n    session.url = url\n    session.new_html = session.html = html\n    html = re.sub(\'\\s+[\\n]\',\'\\n\',html)\n    html = re.sub(\'>[ \\t]+<\',\'> <\',html)\n    html = re.sub(\'(src|SRC)\\s*=\\s*"/(?!/)\',\'src="\'+\'/\'.join(url.split(\'/\')[:3])+\'/\',html)\n    html = re.sub(\'(src|SRC)\\s*=\\s*"(?!(/|http))\',\'src="\'+\'/\'.join(url.split(\'/\'))+\'/\',html)\n    html = re.sub(\'(href|HREF)\\s*=\\s*"/(?!/)\',\'href="\'+\'/\'.join(url.split(\'/\')[:3])+\'/\',html)\n    html = re.sub(\'(href|HREF)\\s*=\\s*"(?!(/|http))\',\'href="\'+\'/\'.join(url.split(\'/\'))+\'/\',html)\n    html = re.sub(\'url\\(/(?!/)\',\'url(\'+\'/\'.join(url.split(\'/\')[:3])+\'/\',html)\n    html = re.sub(\'url\\((?!(/|http))\',\'url(\'+\'/\'.join(url.split(\'/\'))+\'/\',html)\n    inject = \'<script src="%s" language="javascript"></script>\' % URL(\'static\',\'js/inject.js\')\n    html = html.replace(\'</head>\',inject+\'</head>\')\n    return html\n\n@auth.requires_login()\ndef clone():\n    id = db.clone.insert(url=session.url,html=session.new_html)\n    redirect(URL(\'page\',args=id))\n\ndef page():\n    if request.args(0)==\'clone\': redirect(URL(\'index\'))\n    return db.clone(request.args(0)).html\n\ndef user():\n    return dict(form=auth())\n\n@auth.requires_login()\ndef folder():\n    folder = db.cms_folder(request.args(0),created_by=auth.user.id)\n    if not folder:\n        if db(db.cms_folder).isempty():\n            db.cms_folder.insert(name=\'root\',parent_folder=0,created_by=auth.user.id)\n        folder = db.cms_folder(parent_folder=0,created_by=auth.user.id)\n    folder.path, f = [folder.name], folder.parent_folder\n    while f: folder.path, f = [A(f.name,_href=URL(\'folder\',args=f))]+folder.path, f.parent_folder\n    files = db(db.cms_file.folder==folder.id).select(orderby=db.cms_file.name)\n    folders = db(db.cms_folder.parent_folder==folder.id).select(orderby=db.cms_folder.name)\n    return locals()\n\n@auth.requires_login()\ndef edit_file():\n    folder = db.cms_folder(request.args(0),created_by=auth.user.id)\n    db.cms_file.folder.default=folder.id\n    db.cms_file.name.requires=IS_NOT_IN_DB(\n        db(db.cms_file.folder==folder.id),\'cms_file.name\')\n    file = db.cms_file(request.args(1),created_by=auth.user.id)\n    form = SQLFORM(db.cms_file,file,deletable=True)\\\n        .process(next=URL(\'folder\',args=folder.id))\n    return locals()\n\n@auth.requires_login()\ndef edit_folder():\n    folder = db.cms_folder(request.args(0),created_by=auth.user.id)\n    db.cms_folder.parent_folder.default=folder.id\n    db.cms_folder.name.requires=IS_NOT_IN_DB(\n        db(db.cms_folder.parent_folder==folder.id),\'cms_folder.name\')\n    ofolder = db.cms_folder(request.args(1),created_by=auth.user.id)\n    form = SQLFORM(db.cms_folder,ofolder,deletable=True)\\\n        .process(next=URL(\'folder\',args=folder.id))\n    return locals()\n\nresponse._vars=response._caller(edit_clone)\n'
p7
sS'snapshot'
p8
(dp9
S'exception'
p10
(dp11
S'__hash__'
p12
S"<method-wrapper '__hash__' of exceptions.UnboundLocalError object at 0x1d9fd00>"
p13
sS'__setattr__'
p14
S"<method-wrapper '__setattr__' of exceptions.UnboundLocalError object at 0x1d9fd00>"
p15
sS'__reduce_ex__'
p16
S'<built-in method __reduce_ex__ of exceptions.UnboundLocalError object at 0x1d9fd00>'
p17
sS'__getslice__'
p18
S"<method-wrapper '__getslice__' of exceptions.UnboundLocalError object at 0x1d9fd00>"
p19
sS'__getitem__'
p20
S"<method-wrapper '__getitem__' of exceptions.UnboundLocalError object at 0x1d9fd00>"
p21
sS'__setstate__'
p22
S'<built-in method __setstate__ of exceptions.UnboundLocalError object at 0x1d9fd00>'
p23
sS'__reduce__'
p24
S'<built-in method __reduce__ of exceptions.UnboundLocalError object at 0x1d9fd00>'
p25
sS'__str__'
p26
S"<method-wrapper '__str__' of exceptions.UnboundLocalError object at 0x1d9fd00>"
p27
sS'args'
p28
S'("local variable \'html\' referenced before assignment",)'
p29
sS'__getattribute__'
p30
S"<method-wrapper '__getattribute__' of exceptions.UnboundLocalError object at 0x1d9fd00>"
p31
sS'__class__'
p32
S"<type 'exceptions.UnboundLocalError'>"
p33
sS'__delattr__'
p34
S"<method-wrapper '__delattr__' of exceptions.UnboundLocalError object at 0x1d9fd00>"
p35
sS'__repr__'
p36
S"<method-wrapper '__repr__' of exceptions.UnboundLocalError object at 0x1d9fd00>"
p37
sS'__dict__'
p38
S'{}'
p39
sS'__doc__'
p40
S"'Local name referenced but not bound to a value.'"
p41
sS'__init__'
p42
S"<method-wrapper '__init__' of exceptions.UnboundLocalError object at 0x1d9fd00>"
p43
sS'__new__'
p44
S'<built-in method __new__ of type object at 0xdc080>'
p45
ssS'evalue'
p46
S"local variable 'html' referenced before assignment"
p47
sS'request'
p48
ccopy_reg
_reconstructor
p49
(cgluon.html
BEAUTIFY
p50
c__builtin__
object
p51
NtRp52
(dp53
S'attributes'
p54
(dp55
sS'components'
p56
(lp57
g49
(cgluon.html
TABLE
p58
g51
NtRp59
(dp60
g54
(dp61
S'level'
p62
I5
ssS'parent'
p63
Nsg56
(lp64
g49
(cgluon.html
TR
p65
g51
NtRp66
(dp67
g54
(dp68
sg63
g59
sg56
(lp69
g49
(cgluon.html
TD
p70
g51
NtRp71
(dp72
g54
(dp73
S'_style'
p74
S'font-weight:bold;vertical-align:top'
p75
ssg63
g66
sg56
(lp76
S'ajax'
p77
asbag49
(g70
g51
NtRp78
(dp79
g54
(dp80
S'_valign'
p81
S'top'
p82
ssg63
g66
sg56
(lp83
S':'
asbag49
(g70
g51
NtRp84
(dp85
g54
(dp86
sg63
g66
sg56
(lp87
g49
(g50
g51
NtRp88
(dp89
g54
(dp90
g62
I5
ssg63
g84
sg56
(lp91
S'True'
p92
asbasbasbag49
(g65
g51
NtRp93
(dp94
g54
(dp95
sg63
g59
sg56
(lp96
g49
(g70
g51
NtRp97
(dp98
g54
(dp99
g74
g75
ssg63
g93
sg56
(lp100
S'application'
p101
asbag49
(g70
g51
NtRp102
(dp103
g54
(dp104
g81
g82
ssg63
g93
sg56
(lp105
S':'
asbag49
(g70
g51
NtRp106
(dp107
g54
(dp108
sg63
g93
sg56
(lp109
g49
(g50
g51
NtRp110
(dp111
g54
(dp112
g62
I5
ssg63
g106
sg56
(lp113
S'inplace'
p114
asbasbasbag49
(g65
g51
NtRp115
(dp116
g54
(dp117
sg63
g59
sg56
(lp118
g49
(g70
g51
NtRp119
(dp120
g54
(dp121
g74
g75
ssg63
g115
sg56
(lp122
g28
asbag49
(g70
g51
NtRp123
(dp124
g54
(dp125
g81
g82
ssg63
g115
sg56
(lp126
S':'
asbag49
(g70
g51
NtRp127
(dp128
g54
(dp129
sg63
g115
sg56
(lp130
g49
(g50
g51
NtRp131
(dp132
g54
(dp133
g62
I5
ssg63
g127
sg56
(lp134
g49
(g58
g51
NtRp135
(dp136
g54
(dp137
g62
I4
ssg63
Nsg56
(lp138
g49
(g65
g51
NtRp139
(dp140
g54
(dp141
sg63
g135
sg56
(lp142
g49
(g70
g51
NtRp143
(dp144
g54
(dp145
sg63
g139
sg56
(lp146
g49
(g50
g51
NtRp147
(dp148
g54
(dp149
g62
I4
ssg63
g143
sg56
(lp150
S'store'
p151
asbasbasbasbasbasbasbag49
(g65
g51
NtRp152
(dp153
g54
(dp154
sg63
g59
sg56
(lp155
g49
(g70
g51
NtRp156
(dp157
g54
(dp158
g74
g75
ssg63
g152
sg56
(lp159
S'body'
p160
asbag49
(g70
g51
NtRp161
(dp162
g54
(dp163
g81
g82
ssg63
g152
sg56
(lp164
S':'
asbag49
(g70
g51
NtRp165
(dp166
g54
(dp167
sg63
g152
sg56
(lp168
g49
(g50
g51
NtRp169
(dp170
g54
(dp171
g62
I5
ssg63
g165
sg56
(lp172
S"<open file '<fdopen>', mode 'w+b' at 0x1c7c8d8>"
p173
asbasbasbag49
(g65
g51
NtRp174
(dp175
g54
(dp176
sg63
g59
sg56
(lp177
g49
(g70
g51
NtRp178
(dp179
g54
(dp180
g74
g75
ssg63
g174
sg56
(lp181
S'client'
p182
asbag49
(g70
g51
NtRp183
(dp184
g54
(dp185
g81
g82
ssg63
g174
sg56
(lp186
S':'
asbag49
(g70
g51
NtRp187
(dp188
g54
(dp189
sg63
g174
sg56
(lp190
g49
(g50
g51
NtRp191
(dp192
g54
(dp193
g62
I5
ssg63
g187
sg56
(lp194
S'127.0.0.1'
p195
asbasbasbag49
(g65
g51
NtRp196
(dp197
g54
(dp198
sg63
g59
sg56
(lp199
g49
(g70
g51
NtRp200
(dp201
g54
(dp202
g74
g75
ssg63
g196
sg56
(lp203
S'controller'
p204
asbag49
(g70
g51
NtRp205
(dp206
g54
(dp207
g81
g82
ssg63
g196
sg56
(lp208
S':'
asbag49
(g70
g51
NtRp209
(dp210
g54
(dp211
sg63
g196
sg56
(lp212
g49
(g50
g51
NtRp213
(dp214
g54
(dp215
g62
I5
ssg63
g209
sg56
(lp216
S'default'
p217
asbasbasbag49
(g65
g51
NtRp218
(dp219
g54
(dp220
sg63
g59
sg56
(lp221
g49
(g70
g51
NtRp222
(dp223
g54
(dp224
g74
g75
ssg63
g218
sg56
(lp225
S'cookies'
p226
asbag49
(g70
g51
NtRp227
(dp228
g54
(dp229
g81
g82
ssg63
g218
sg56
(lp230
S':'
asbag49
(g70
g51
NtRp231
(dp232
g54
(dp233
sg63
g218
sg56
(lp234
g49
(g50
g51
NtRp235
(dp236
g54
(dp237
g62
I5
ssg63
g231
sg56
(lp238
g49
(g58
g51
NtRp239
(dp240
g54
(dp241
g62
I4
ssg63
Nsg56
(lp242
g49
(g65
g51
NtRp243
(dp244
g54
(dp245
sg63
g239
sg56
(lp246
g49
(g70
g51
NtRp247
(dp248
g54
(dp249
g74
g75
ssg63
g243
sg56
(lp250
S'el-finder-last-finder'
p251
asbag49
(g70
g51
NtRp252
(dp253
g54
(dp254
g81
g82
ssg63
g243
sg56
(lp255
S':'
asbag49
(g70
g51
NtRp256
(dp257
g54
(dp258
sg63
g243
sg56
(lp259
g49
(g50
g51
NtRp260
(dp261
g54
(dp262
g62
I4
ssg63
g256
sg56
(lp263
g49
(g58
g51
NtRp264
(dp265
g54
(dp266
g62
I3
ssg63
Nsg56
(lp267
g49
(g65
g51
NtRp268
(dp269
g54
(dp270
sg63
g264
sg56
(lp271
g49
(g70
g51
NtRp272
(dp273
g54
(dp274
g74
g75
ssg63
g268
sg56
(lp275
S'comment'
p276
asbag49
(g70
g51
NtRp277
(dp278
g54
(dp279
g81
g82
ssg63
g268
sg56
(lp280
S':'
asbag49
(g70
g51
NtRp281
(dp282
g54
(dp283
sg63
g268
sg56
(lp284
g49
(g50
g51
NtRp285
(dp286
g54
(dp287
g62
I3
ssg63
g281
sg56
(lp288
S''
asbasbasbag49
(g65
g51
NtRp289
(dp290
g54
(dp291
sg63
g264
sg56
(lp292
g49
(g70
g51
NtRp293
(dp294
g54
(dp295
g74
g75
ssg63
g289
sg56
(lp296
S'domain'
p297
asbag49
(g70
g51
NtRp298
(dp299
g54
(dp300
g81
g82
ssg63
g289
sg56
(lp301
S':'
asbag49
(g70
g51
NtRp302
(dp303
g54
(dp304
sg63
g289
sg56
(lp305
g49
(g50
g51
NtRp306
(dp307
g54
(dp308
g62
I3
ssg63
g302
sg56
(lp309
S''
asbasbasbag49
(g65
g51
NtRp310
(dp311
g54
(dp312
sg63
g264
sg56
(lp313
g49
(g70
g51
NtRp314
(dp315
g54
(dp316
g74
g75
ssg63
g310
sg56
(lp317
S'expires'
p318
asbag49
(g70
g51
NtRp319
(dp320
g54
(dp321
g81
g82
ssg63
g310
sg56
(lp322
S':'
asbag49
(g70
g51
NtRp323
(dp324
g54
(dp325
sg63
g310
sg56
(lp326
g49
(g50
g51
NtRp327
(dp328
g54
(dp329
g62
I3
ssg63
g323
sg56
(lp330
S''
asbasbasbag49
(g65
g51
NtRp331
(dp332
g54
(dp333
sg63
g264
sg56
(lp334
g49
(g70
g51
NtRp335
(dp336
g54
(dp337
g74
g75
ssg63
g331
sg56
(lp338
S'max-age'
p339
asbag49
(g70
g51
NtRp340
(dp341
g54
(dp342
g81
g82
ssg63
g331
sg56
(lp343
S':'
asbag49
(g70
g51
NtRp344
(dp345
g54
(dp346
sg63
g331
sg56
(lp347
g49
(g50
g51
NtRp348
(dp349
g54
(dp350
g62
I3
ssg63
g344
sg56
(lp351
S''
asbasbasbag49
(g65
g51
NtRp352
(dp353
g54
(dp354
sg63
g264
sg56
(lp355
g49
(g70
g51
NtRp356
(dp357
g54
(dp358
g74
g75
ssg63
g352
sg56
(lp359
S'path'
p360
asbag49
(g70
g51
NtRp361
(dp362
g54
(dp363
g81
g82
ssg63
g352
sg56
(lp364
S':'
asbag49
(g70
g51
NtRp365
(dp366
g54
(dp367
sg63
g352
sg56
(lp368
g49
(g50
g51
NtRp369
(dp370
g54
(dp371
g62
I3
ssg63
g365
sg56
(lp372
S''
asbasbasbag49
(g65
g51
NtRp373
(dp374
g54
(dp375
sg63
g264
sg56
(lp376
g49
(g70
g51
NtRp377
(dp378
g54
(dp379
g74
g75
ssg63
g373
sg56
(lp380
S'secure'
p381
asbag49
(g70
g51
NtRp382
(dp383
g54
(dp384
g81
g82
ssg63
g373
sg56
(lp385
S':'
asbag49
(g70
g51
NtRp386
(dp387
g54
(dp388
sg63
g373
sg56
(lp389
g49
(g50
g51
NtRp390
(dp391
g54
(dp392
g62
I3
ssg63
g386
sg56
(lp393
S''
asbasbasbag49
(g65
g51
NtRp394
(dp395
g54
(dp396
sg63
g264
sg56
(lp397
g49
(g70
g51
NtRp398
(dp399
g54
(dp400
g74
g75
ssg63
g394
sg56
(lp401
S'version'
p402
asbag49
(g70
g51
NtRp403
(dp404
g54
(dp405
g81
g82
ssg63
g394
sg56
(lp406
S':'
asbag49
(g70
g51
NtRp407
(dp408
g54
(dp409
sg63
g394
sg56
(lp410
g49
(g50
g51
NtRp411
(dp412
g54
(dp413
g62
I3
ssg63
g407
sg56
(lp414
S''
asbasbasbasbasbasbasbag49
(g65
g51
NtRp415
(dp416
g54
(dp417
sg63
g239
sg56
(lp418
g49
(g70
g51
NtRp419
(dp420
g54
(dp421
g74
g75
ssg63
g415
sg56
(lp422
S'registered'
p423
asbag49
(g70
g51
NtRp424
(dp425
g54
(dp426
g81
g82
ssg63
g415
sg56
(lp427
S':'
asbag49
(g70
g51
NtRp428
(dp429
g54
(dp430
sg63
g415
sg56
(lp431
g49
(g50
g51
NtRp432
(dp433
g54
(dp434
g62
I4
ssg63
g428
sg56
(lp435
g49
(g58
g51
NtRp436
(dp437
g54
(dp438
g62
I3
ssg63
Nsg56
(lp439
g49
(g65
g51
NtRp440
(dp441
g54
(dp442
sg63
g436
sg56
(lp443
g49
(g70
g51
NtRp444
(dp445
g54
(dp446
g74
g75
ssg63
g440
sg56
(lp447
g276
asbag49
(g70
g51
NtRp448
(dp449
g54
(dp450
g81
g82
ssg63
g440
sg56
(lp451
S':'
asbag49
(g70
g51
NtRp452
(dp453
g54
(dp454
sg63
g440
sg56
(lp455
g49
(g50
g51
NtRp456
(dp457
g54
(dp458
g62
I3
ssg63
g452
sg56
(lp459
S''
asbasbasbag49
(g65
g51
NtRp460
(dp461
g54
(dp462
sg63
g436
sg56
(lp463
g49
(g70
g51
NtRp464
(dp465
g54
(dp466
g74
g75
ssg63
g460
sg56
(lp467
g297
asbag49
(g70
g51
NtRp468
(dp469
g54
(dp470
g81
g82
ssg63
g460
sg56
(lp471
S':'
asbag49
(g70
g51
NtRp472
(dp473
g54
(dp474
sg63
g460
sg56
(lp475
g49
(g50
g51
NtRp476
(dp477
g54
(dp478
g62
I3
ssg63
g472
sg56
(lp479
S''
asbasbasbag49
(g65
g51
NtRp480
(dp481
g54
(dp482
sg63
g436
sg56
(lp483
g49
(g70
g51
NtRp484
(dp485
g54
(dp486
g74
g75
ssg63
g480
sg56
(lp487
g318
asbag49
(g70
g51
NtRp488
(dp489
g54
(dp490
g81
g82
ssg63
g480
sg56
(lp491
S':'
asbag49
(g70
g51
NtRp492
(dp493
g54
(dp494
sg63
g480
sg56
(lp495
g49
(g50
g51
NtRp496
(dp497
g54
(dp498
g62
I3
ssg63
g492
sg56
(lp499
S''
asbasbasbag49
(g65
g51
NtRp500
(dp501
g54
(dp502
sg63
g436
sg56
(lp503
g49
(g70
g51
NtRp504
(dp505
g54
(dp506
g74
g75
ssg63
g500
sg56
(lp507
g339
asbag49
(g70
g51
NtRp508
(dp509
g54
(dp510
g81
g82
ssg63
g500
sg56
(lp511
S':'
asbag49
(g70
g51
NtRp512
(dp513
g54
(dp514
sg63
g500
sg56
(lp515
g49
(g50
g51
NtRp516
(dp517
g54
(dp518
g62
I3
ssg63
g512
sg56
(lp519
S''
asbasbasbag49
(g65
g51
NtRp520
(dp521
g54
(dp522
sg63
g436
sg56
(lp523
g49
(g70
g51
NtRp524
(dp525
g54
(dp526
g74
g75
ssg63
g520
sg56
(lp527
g360
asbag49
(g70
g51
NtRp528
(dp529
g54
(dp530
g81
g82
ssg63
g520
sg56
(lp531
S':'
asbag49
(g70
g51
NtRp532
(dp533
g54
(dp534
sg63
g520
sg56
(lp535
g49
(g50
g51
NtRp536
(dp537
g54
(dp538
g62
I3
ssg63
g532
sg56
(lp539
S''
asbasbasbag49
(g65
g51
NtRp540
(dp541
g54
(dp542
sg63
g436
sg56
(lp543
g49
(g70
g51
NtRp544
(dp545
g54
(dp546
g74
g75
ssg63
g540
sg56
(lp547
g381
asbag49
(g70
g51
NtRp548
(dp549
g54
(dp550
g81
g82
ssg63
g540
sg56
(lp551
S':'
asbag49
(g70
g51
NtRp552
(dp553
g54
(dp554
sg63
g540
sg56
(lp555
g49
(g50
g51
NtRp556
(dp557
g54
(dp558
g62
I3
ssg63
g552
sg56
(lp559
S''
asbasbasbag49
(g65
g51
NtRp560
(dp561
g54
(dp562
sg63
g436
sg56
(lp563
g49
(g70
g51
NtRp564
(dp565
g54
(dp566
g74
g75
ssg63
g560
sg56
(lp567
g402
asbag49
(g70
g51
NtRp568
(dp569
g54
(dp570
g81
g82
ssg63
g560
sg56
(lp571
S':'
asbag49
(g70
g51
NtRp572
(dp573
g54
(dp574
sg63
g560
sg56
(lp575
g49
(g50
g51
NtRp576
(dp577
g54
(dp578
g62
I3
ssg63
g572
sg56
(lp579
S''
asbasbasbasbasbasbasbag49
(g65
g51
NtRp580
(dp581
g54
(dp582
sg63
g239
sg56
(lp583
g49
(g70
g51
NtRp584
(dp585
g54
(dp586
g74
g75
ssg63
g580
sg56
(lp587
S's_nr'
p588
asbag49
(g70
g51
NtRp589
(dp590
g54
(dp591
g81
g82
ssg63
g580
sg56
(lp592
S':'
asbag49
(g70
g51
NtRp593
(dp594
g54
(dp595
sg63
g580
sg56
(lp596
g49
(g50
g51
NtRp597
(dp598
g54
(dp599
g62
I4
ssg63
g593
sg56
(lp600
g49
(g58
g51
NtRp601
(dp602
g54
(dp603
g62
I3
ssg63
Nsg56
(lp604
g49
(g65
g51
NtRp605
(dp606
g54
(dp607
sg63
g601
sg56
(lp608
g49
(g70
g51
NtRp609
(dp610
g54
(dp611
g74
g75
ssg63
g605
sg56
(lp612
g276
asbag49
(g70
g51
NtRp613
(dp614
g54
(dp615
g81
g82
ssg63
g605
sg56
(lp616
S':'
asbag49
(g70
g51
NtRp617
(dp618
g54
(dp619
sg63
g605
sg56
(lp620
g49
(g50
g51
NtRp621
(dp622
g54
(dp623
g62
I3
ssg63
g617
sg56
(lp624
S''
asbasbasbag49
(g65
g51
NtRp625
(dp626
g54
(dp627
sg63
g601
sg56
(lp628
g49
(g70
g51
NtRp629
(dp630
g54
(dp631
g74
g75
ssg63
g625
sg56
(lp632
g297
asbag49
(g70
g51
NtRp633
(dp634
g54
(dp635
g81
g82
ssg63
g625
sg56
(lp636
S':'
asbag49
(g70
g51
NtRp637
(dp638
g54
(dp639
sg63
g625
sg56
(lp640
g49
(g50
g51
NtRp641
(dp642
g54
(dp643
g62
I3
ssg63
g637
sg56
(lp644
S''
asbasbasbag49
(g65
g51
NtRp645
(dp646
g54
(dp647
sg63
g601
sg56
(lp648
g49
(g70
g51
NtRp649
(dp650
g54
(dp651
g74
g75
ssg63
g645
sg56
(lp652
g318
asbag49
(g70
g51
NtRp653
(dp654
g54
(dp655
g81
g82
ssg63
g645
sg56
(lp656
S':'
asbag49
(g70
g51
NtRp657
(dp658
g54
(dp659
sg63
g645
sg56
(lp660
g49
(g50
g51
NtRp661
(dp662
g54
(dp663
g62
I3
ssg63
g657
sg56
(lp664
S''
asbasbasbag49
(g65
g51
NtRp665
(dp666
g54
(dp667
sg63
g601
sg56
(lp668
g49
(g70
g51
NtRp669
(dp670
g54
(dp671
g74
g75
ssg63
g665
sg56
(lp672
g339
asbag49
(g70
g51
NtRp673
(dp674
g54
(dp675
g81
g82
ssg63
g665
sg56
(lp676
S':'
asbag49
(g70
g51
NtRp677
(dp678
g54
(dp679
sg63
g665
sg56
(lp680
g49
(g50
g51
NtRp681
(dp682
g54
(dp683
g62
I3
ssg63
g677
sg56
(lp684
S''
asbasbasbag49
(g65
g51
NtRp685
(dp686
g54
(dp687
sg63
g601
sg56
(lp688
g49
(g70
g51
NtRp689
(dp690
g54
(dp691
g74
g75
ssg63
g685
sg56
(lp692
g360
asbag49
(g70
g51
NtRp693
(dp694
g54
(dp695
g81
g82
ssg63
g685
sg56
(lp696
S':'
asbag49
(g70
g51
NtRp697
(dp698
g54
(dp699
sg63
g685
sg56
(lp700
g49
(g50
g51
NtRp701
(dp702
g54
(dp703
g62
I3
ssg63
g697
sg56
(lp704
S''
asbasbasbag49
(g65
g51
NtRp705
(dp706
g54
(dp707
sg63
g601
sg56
(lp708
g49
(g70
g51
NtRp709
(dp710
g54
(dp711
g74
g75
ssg63
g705
sg56
(lp712
g381
asbag49
(g70
g51
NtRp713
(dp714
g54
(dp715
g81
g82
ssg63
g705
sg56
(lp716
S':'
asbag49
(g70
g51
NtRp717
(dp718
g54
(dp719
sg63
g705
sg56
(lp720
g49
(g50
g51
NtRp721
(dp722
g54
(dp723
g62
I3
ssg63
g717
sg56
(lp724
S''
asbasbasbag49
(g65
g51
NtRp725
(dp726
g54
(dp727
sg63
g601
sg56
(lp728
g49
(g70
g51
NtRp729
(dp730
g54
(dp731
g74
g75
ssg63
g725
sg56
(lp732
g402
asbag49
(g70
g51
NtRp733
(dp734
g54
(dp735
g81
g82
ssg63
g725
sg56
(lp736
S':'
asbag49
(g70
g51
NtRp737
(dp738
g54
(dp739
sg63
g725
sg56
(lp740
g49
(g50
g51
NtRp741
(dp742
g54
(dp743
g62
I3
ssg63
g737
sg56
(lp744
S''
asbasbasbasbasbasbasbag49
(g65
g51
NtRp745
(dp746
g54
(dp747
sg63
g239
sg56
(lp748
g49
(g70
g51
NtRp749
(dp750
g54
(dp751
g74
g75
ssg63
g745
sg56
(lp752
S'session_id_admin'
p753
asbag49
(g70
g51
NtRp754
(dp755
g54
(dp756
g81
g82
ssg63
g745
sg56
(lp757
S':'
asbag49
(g70
g51
NtRp758
(dp759
g54
(dp760
sg63
g745
sg56
(lp761
g49
(g50
g51
NtRp762
(dp763
g54
(dp764
g62
I4
ssg63
g758
sg56
(lp765
g49
(g58
g51
NtRp766
(dp767
g54
(dp768
g62
I3
ssg63
Nsg56
(lp769
g49
(g65
g51
NtRp770
(dp771
g54
(dp772
sg63
g766
sg56
(lp773
g49
(g70
g51
NtRp774
(dp775
g54
(dp776
g74
g75
ssg63
g770
sg56
(lp777
g276
asbag49
(g70
g51
NtRp778
(dp779
g54
(dp780
g81
g82
ssg63
g770
sg56
(lp781
S':'
asbag49
(g70
g51
NtRp782
(dp783
g54
(dp784
sg63
g770
sg56
(lp785
g49
(g50
g51
NtRp786
(dp787
g54
(dp788
g62
I3
ssg63
g782
sg56
(lp789
S''
asbasbasbag49
(g65
g51
NtRp790
(dp791
g54
(dp792
sg63
g766
sg56
(lp793
g49
(g70
g51
NtRp794
(dp795
g54
(dp796
g74
g75
ssg63
g790
sg56
(lp797
g297
asbag49
(g70
g51
NtRp798
(dp799
g54
(dp800
g81
g82
ssg63
g790
sg56
(lp801
S':'
asbag49
(g70
g51
NtRp802
(dp803
g54
(dp804
sg63
g790
sg56
(lp805
g49
(g50
g51
NtRp806
(dp807
g54
(dp808
g62
I3
ssg63
g802
sg56
(lp809
S''
asbasbasbag49
(g65
g51
NtRp810
(dp811
g54
(dp812
sg63
g766
sg56
(lp813
g49
(g70
g51
NtRp814
(dp815
g54
(dp816
g74
g75
ssg63
g810
sg56
(lp817
g318
asbag49
(g70
g51
NtRp818
(dp819
g54
(dp820
g81
g82
ssg63
g810
sg56
(lp821
S':'
asbag49
(g70
g51
NtRp822
(dp823
g54
(dp824
sg63
g810
sg56
(lp825
g49
(g50
g51
NtRp826
(dp827
g54
(dp828
g62
I3
ssg63
g822
sg56
(lp829
S''
asbasbasbag49
(g65
g51
NtRp830
(dp831
g54
(dp832
sg63
g766
sg56
(lp833
g49
(g70
g51
NtRp834
(dp835
g54
(dp836
g74
g75
ssg63
g830
sg56
(lp837
g339
asbag49
(g70
g51
NtRp838
(dp839
g54
(dp840
g81
g82
ssg63
g830
sg56
(lp841
S':'
asbag49
(g70
g51
NtRp842
(dp843
g54
(dp844
sg63
g830
sg56
(lp845
g49
(g50
g51
NtRp846
(dp847
g54
(dp848
g62
I3
ssg63
g842
sg56
(lp849
S''
asbasbasbag49
(g65
g51
NtRp850
(dp851
g54
(dp852
sg63
g766
sg56
(lp853
g49
(g70
g51
NtRp854
(dp855
g54
(dp856
g74
g75
ssg63
g850
sg56
(lp857
g360
asbag49
(g70
g51
NtRp858
(dp859
g54
(dp860
g81
g82
ssg63
g850
sg56
(lp861
S':'
asbag49
(g70
g51
NtRp862
(dp863
g54
(dp864
sg63
g850
sg56
(lp865
g49
(g50
g51
NtRp866
(dp867
g54
(dp868
g62
I3
ssg63
g862
sg56
(lp869
S''
asbasbasbag49
(g65
g51
NtRp870
(dp871
g54
(dp872
sg63
g766
sg56
(lp873
g49
(g70
g51
NtRp874
(dp875
g54
(dp876
g74
g75
ssg63
g870
sg56
(lp877
g381
asbag49
(g70
g51
NtRp878
(dp879
g54
(dp880
g81
g82
ssg63
g870
sg56
(lp881
S':'
asbag49
(g70
g51
NtRp882
(dp883
g54
(dp884
sg63
g870
sg56
(lp885
g49
(g50
g51
NtRp886
(dp887
g54
(dp888
g62
I3
ssg63
g882
sg56
(lp889
S''
asbasbasbag49
(g65
g51
NtRp890
(dp891
g54
(dp892
sg63
g766
sg56
(lp893
g49
(g70
g51
NtRp894
(dp895
g54
(dp896
g74
g75
ssg63
g890
sg56
(lp897
g402
asbag49
(g70
g51
NtRp898
(dp899
g54
(dp900
g81
g82
ssg63
g890
sg56
(lp901
S':'
asbag49
(g70
g51
NtRp902
(dp903
g54
(dp904
sg63
g890
sg56
(lp905
g49
(g50
g51
NtRp906
(dp907
g54
(dp908
g62
I3
ssg63
g902
sg56
(lp909
S''
asbasbasbasbasbasbasbag49
(g65
g51
NtRp910
(dp911
g54
(dp912
sg63
g239
sg56
(lp913
g49
(g70
g51
NtRp914
(dp915
g54
(dp916
g74
g75
ssg63
g910
sg56
(lp917
S'session_id_cms'
p918
asbag49
(g70
g51
NtRp919
(dp920
g54
(dp921
g81
g82
ssg63
g910
sg56
(lp922
S':'
asbag49
(g70
g51
NtRp923
(dp924
g54
(dp925
sg63
g910
sg56
(lp926
g49
(g50
g51
NtRp927
(dp928
g54
(dp929
g62
I4
ssg63
g923
sg56
(lp930
g49
(g58
g51
NtRp931
(dp932
g54
(dp933
g62
I3
ssg63
Nsg56
(lp934
g49
(g65
g51
NtRp935
(dp936
g54
(dp937
sg63
g931
sg56
(lp938
g49
(g70
g51
NtRp939
(dp940
g54
(dp941
g74
g75
ssg63
g935
sg56
(lp942
g276
asbag49
(g70
g51
NtRp943
(dp944
g54
(dp945
g81
g82
ssg63
g935
sg56
(lp946
S':'
asbag49
(g70
g51
NtRp947
(dp948
g54
(dp949
sg63
g935
sg56
(lp950
g49
(g50
g51
NtRp951
(dp952
g54
(dp953
g62
I3
ssg63
g947
sg56
(lp954
S''
asbasbasbag49
(g65
g51
NtRp955
(dp956
g54
(dp957
sg63
g931
sg56
(lp958
g49
(g70
g51
NtRp959
(dp960
g54
(dp961
g74
g75
ssg63
g955
sg56
(lp962
g297
asbag49
(g70
g51
NtRp963
(dp964
g54
(dp965
g81
g82
ssg63
g955
sg56
(lp966
S':'
asbag49
(g70
g51
NtRp967
(dp968
g54
(dp969
sg63
g955
sg56
(lp970
g49
(g50
g51
NtRp971
(dp972
g54
(dp973
g62
I3
ssg63
g967
sg56
(lp974
S''
asbasbasbag49
(g65
g51
NtRp975
(dp976
g54
(dp977
sg63
g931
sg56
(lp978
g49
(g70
g51
NtRp979
(dp980
g54
(dp981
g74
g75
ssg63
g975
sg56
(lp982
g318
asbag49
(g70
g51
NtRp983
(dp984
g54
(dp985
g81
g82
ssg63
g975
sg56
(lp986
S':'
asbag49
(g70
g51
NtRp987
(dp988
g54
(dp989
sg63
g975
sg56
(lp990
g49
(g50
g51
NtRp991
(dp992
g54
(dp993
g62
I3
ssg63
g987
sg56
(lp994
S''
asbasbasbag49
(g65
g51
NtRp995
(dp996
g54
(dp997
sg63
g931
sg56
(lp998
g49
(g70
g51
NtRp999
(dp1000
g54
(dp1001
g74
g75
ssg63
g995
sg56
(lp1002
g339
asbag49
(g70
g51
NtRp1003
(dp1004
g54
(dp1005
g81
g82
ssg63
g995
sg56
(lp1006
S':'
asbag49
(g70
g51
NtRp1007
(dp1008
g54
(dp1009
sg63
g995
sg56
(lp1010
g49
(g50
g51
NtRp1011
(dp1012
g54
(dp1013
g62
I3
ssg63
g1007
sg56
(lp1014
S''
asbasbasbag49
(g65
g51
NtRp1015
(dp1016
g54
(dp1017
sg63
g931
sg56
(lp1018
g49
(g70
g51
NtRp1019
(dp1020
g54
(dp1021
g74
g75
ssg63
g1015
sg56
(lp1022
g360
asbag49
(g70
g51
NtRp1023
(dp1024
g54
(dp1025
g81
g82
ssg63
g1015
sg56
(lp1026
S':'
asbag49
(g70
g51
NtRp1027
(dp1028
g54
(dp1029
sg63
g1015
sg56
(lp1030
g49
(g50
g51
NtRp1031
(dp1032
g54
(dp1033
g62
I3
ssg63
g1027
sg56
(lp1034
S''
asbasbasbag49
(g65
g51
NtRp1035
(dp1036
g54
(dp1037
sg63
g931
sg56
(lp1038
g49
(g70
g51
NtRp1039
(dp1040
g54
(dp1041
g74
g75
ssg63
g1035
sg56
(lp1042
g381
asbag49
(g70
g51
NtRp1043
(dp1044
g54
(dp1045
g81
g82
ssg63
g1035
sg56
(lp1046
S':'
asbag49
(g70
g51
NtRp1047
(dp1048
g54
(dp1049
sg63
g1035
sg56
(lp1050
g49
(g50
g51
NtRp1051
(dp1052
g54
(dp1053
g62
I3
ssg63
g1047
sg56
(lp1054
S''
asbasbasbag49
(g65
g51
NtRp1055
(dp1056
g54
(dp1057
sg63
g931
sg56
(lp1058
g49
(g70
g51
NtRp1059
(dp1060
g54
(dp1061
g74
g75
ssg63
g1055
sg56
(lp1062
g402
asbag49
(g70
g51
NtRp1063
(dp1064
g54
(dp1065
g81
g82
ssg63
g1055
sg56
(lp1066
S':'
asbag49
(g70
g51
NtRp1067
(dp1068
g54
(dp1069
sg63
g1055
sg56
(lp1070
g49
(g50
g51
NtRp1071
(dp1072
g54
(dp1073
g62
I3
ssg63
g1067
sg56
(lp1074
S''
asbasbasbasbasbasbasbag49
(g65
g51
NtRp1075
(dp1076
g54
(dp1077
sg63
g239
sg56
(lp1078
g49
(g70
g51
NtRp1079
(dp1080
g54
(dp1081
g74
g75
ssg63
g1075
sg56
(lp1082
S'session_id_inplace'
p1083
asbag49
(g70
g51
NtRp1084
(dp1085
g54
(dp1086
g81
g82
ssg63
g1075
sg56
(lp1087
S':'
asbag49
(g70
g51
NtRp1088
(dp1089
g54
(dp1090
sg63
g1075
sg56
(lp1091
g49
(g50
g51
NtRp1092
(dp1093
g54
(dp1094
g62
I4
ssg63
g1088
sg56
(lp1095
g49
(g58
g51
NtRp1096
(dp1097
g54
(dp1098
g62
I3
ssg63
Nsg56
(lp1099
g49
(g65
g51
NtRp1100
(dp1101
g54
(dp1102
sg63
g1096
sg56
(lp1103
g49
(g70
g51
NtRp1104
(dp1105
g54
(dp1106
g74
g75
ssg63
g1100
sg56
(lp1107
g276
asbag49
(g70
g51
NtRp1108
(dp1109
g54
(dp1110
g81
g82
ssg63
g1100
sg56
(lp1111
S':'
asbag49
(g70
g51
NtRp1112
(dp1113
g54
(dp1114
sg63
g1100
sg56
(lp1115
g49
(g50
g51
NtRp1116
(dp1117
g54
(dp1118
g62
I3
ssg63
g1112
sg56
(lp1119
S''
asbasbasbag49
(g65
g51
NtRp1120
(dp1121
g54
(dp1122
sg63
g1096
sg56
(lp1123
g49
(g70
g51
NtRp1124
(dp1125
g54
(dp1126
g74
g75
ssg63
g1120
sg56
(lp1127
g297
asbag49
(g70
g51
NtRp1128
(dp1129
g54
(dp1130
g81
g82
ssg63
g1120
sg56
(lp1131
S':'
asbag49
(g70
g51
NtRp1132
(dp1133
g54
(dp1134
sg63
g1120
sg56
(lp1135
g49
(g50
g51
NtRp1136
(dp1137
g54
(dp1138
g62
I3
ssg63
g1132
sg56
(lp1139
S''
asbasbasbag49
(g65
g51
NtRp1140
(dp1141
g54
(dp1142
sg63
g1096
sg56
(lp1143
g49
(g70
g51
NtRp1144
(dp1145
g54
(dp1146
g74
g75
ssg63
g1140
sg56
(lp1147
g318
asbag49
(g70
g51
NtRp1148
(dp1149
g54
(dp1150
g81
g82
ssg63
g1140
sg56
(lp1151
S':'
asbag49
(g70
g51
NtRp1152
(dp1153
g54
(dp1154
sg63
g1140
sg56
(lp1155
g49
(g50
g51
NtRp1156
(dp1157
g54
(dp1158
g62
I3
ssg63
g1152
sg56
(lp1159
S''
asbasbasbag49
(g65
g51
NtRp1160
(dp1161
g54
(dp1162
sg63
g1096
sg56
(lp1163
g49
(g70
g51
NtRp1164
(dp1165
g54
(dp1166
g74
g75
ssg63
g1160
sg56
(lp1167
g339
asbag49
(g70
g51
NtRp1168
(dp1169
g54
(dp1170
g81
g82
ssg63
g1160
sg56
(lp1171
S':'
asbag49
(g70
g51
NtRp1172
(dp1173
g54
(dp1174
sg63
g1160
sg56
(lp1175
g49
(g50
g51
NtRp1176
(dp1177
g54
(dp1178
g62
I3
ssg63
g1172
sg56
(lp1179
S''
asbasbasbag49
(g65
g51
NtRp1180
(dp1181
g54
(dp1182
sg63
g1096
sg56
(lp1183
g49
(g70
g51
NtRp1184
(dp1185
g54
(dp1186
g74
g75
ssg63
g1180
sg56
(lp1187
g360
asbag49
(g70
g51
NtRp1188
(dp1189
g54
(dp1190
g81
g82
ssg63
g1180
sg56
(lp1191
S':'
asbag49
(g70
g51
NtRp1192
(dp1193
g54
(dp1194
sg63
g1180
sg56
(lp1195
g49
(g50
g51
NtRp1196
(dp1197
g54
(dp1198
g62
I3
ssg63
g1192
sg56
(lp1199
S''
asbasbasbag49
(g65
g51
NtRp1200
(dp1201
g54
(dp1202
sg63
g1096
sg56
(lp1203
g49
(g70
g51
NtRp1204
(dp1205
g54
(dp1206
g74
g75
ssg63
g1200
sg56
(lp1207
g381
asbag49
(g70
g51
NtRp1208
(dp1209
g54
(dp1210
g81
g82
ssg63
g1200
sg56
(lp1211
S':'
asbag49
(g70
g51
NtRp1212
(dp1213
g54
(dp1214
sg63
g1200
sg56
(lp1215
g49
(g50
g51
NtRp1216
(dp1217
g54
(dp1218
g62
I3
ssg63
g1212
sg56
(lp1219
S''
asbasbasbag49
(g65
g51
NtRp1220
(dp1221
g54
(dp1222
sg63
g1096
sg56
(lp1223
g49
(g70
g51
NtRp1224
(dp1225
g54
(dp1226
g74
g75
ssg63
g1220
sg56
(lp1227
g402
asbag49
(g70
g51
NtRp1228
(dp1229
g54
(dp1230
g81
g82
ssg63
g1220
sg56
(lp1231
S':'
asbag49
(g70
g51
NtRp1232
(dp1233
g54
(dp1234
sg63
g1220
sg56
(lp1235
g49
(g50
g51
NtRp1236
(dp1237
g54
(dp1238
g62
I3
ssg63
g1232
sg56
(lp1239
S''
asbasbasbasbasbasbasbasbasbasbasbag49
(g65
g51
NtRp1240
(dp1241
g54
(dp1242
sg63
g59
sg56
(lp1243
g49
(g70
g51
NtRp1244
(dp1245
g54
(dp1246
g74
g75
ssg63
g1240
sg56
(lp1247
S'env'
p1248
asbag49
(g70
g51
NtRp1249
(dp1250
g54
(dp1251
g81
g82
ssg63
g1240
sg56
(lp1252
S':'
asbag49
(g70
g51
NtRp1253
(dp1254
g54
(dp1255
sg63
g1240
sg56
(lp1256
g49
(g50
g51
NtRp1257
(dp1258
g54
(dp1259
g62
I5
ssg63
g1253
sg56
(lp1260
g49
(g58
g51
NtRp1261
(dp1262
g54
(dp1263
g62
I4
ssg63
Nsg56
(lp1264
g49
(g65
g51
NtRp1265
(dp1266
g54
(dp1267
sg63
g1261
sg56
(lp1268
g49
(g70
g51
NtRp1269
(dp1270
g54
(dp1271
g74
g75
ssg63
g1265
sg56
(lp1272
S'app_folders'
p1273
asbag49
(g70
g51
NtRp1274
(dp1275
g54
(dp1276
g81
g82
ssg63
g1265
sg56
(lp1277
S':'
asbag49
(g70
g51
NtRp1278
(dp1279
g54
(dp1280
sg63
g1265
sg56
(lp1281
g49
(g50
g51
NtRp1282
(dp1283
g54
(dp1284
g62
I4
ssg63
g1278
sg56
(lp1285
S"set(['/Users/mdipierro/Dropbox/web2py/applications/inplace/', '/Users/mdipierro/Dropbox/web2py/applications/cms/', '/Users/mdipierro/Dropbox/web2py/applications/admin/'])"
p1286
asbasbasbag49
(g65
g51
NtRp1287
(dp1288
g54
(dp1289
sg63
g1261
sg56
(lp1290
g49
(g70
g51
NtRp1291
(dp1292
g54
(dp1293
g74
g75
ssg63
g1287
sg56
(lp1294
S'applications_parent'
p1295
asbag49
(g70
g51
NtRp1296
(dp1297
g54
(dp1298
g81
g82
ssg63
g1287
sg56
(lp1299
S':'
asbag49
(g70
g51
NtRp1300
(dp1301
g54
(dp1302
sg63
g1287
sg56
(lp1303
g49
(g50
g51
NtRp1304
(dp1305
g54
(dp1306
g62
I4
ssg63
g1300
sg56
(lp1307
S'/Users/mdipierro/Dropbox/web2py'
p1308
asbasbasbag49
(g65
g51
NtRp1309
(dp1310
g54
(dp1311
sg63
g1261
sg56
(lp1312
g49
(g70
g51
NtRp1313
(dp1314
g54
(dp1315
g74
g75
ssg63
g1309
sg56
(lp1316
S'cmd_args'
p1317
asbag49
(g70
g51
NtRp1318
(dp1319
g54
(dp1320
g81
g82
ssg63
g1309
sg56
(lp1321
S':'
asbag49
(g70
g51
NtRp1322
(dp1323
g54
(dp1324
sg63
g1309
sg56
(lp1325
g49
(g50
g51
NtRp1326
(dp1327
g54
(dp1328
g62
I4
ssg63
g1322
sg56
(lp1329
g49
(g58
g51
NtRp1330
(dp1331
g54
(dp1332
g62
I3
ssg63
Nsg56
(lp1333
sbasbasbasbag49
(g65
g51
NtRp1334
(dp1335
g54
(dp1336
sg63
g1261
sg56
(lp1337
g49
(g70
g51
NtRp1338
(dp1339
g54
(dp1340
g74
g75
ssg63
g1334
sg56
(lp1341
S'cmd_options'
p1342
asbag49
(g70
g51
NtRp1343
(dp1344
g54
(dp1345
g81
g82
ssg63
g1334
sg56
(lp1346
S':'
asbag49
(g70
g51
NtRp1347
(dp1348
g54
(dp1349
sg63
g1334
sg56
(lp1350
g49
(g50
g51
NtRp1351
(dp1352
g54
(dp1353
g62
I4
ssg63
g1347
sg56
(lp1354
S"<Values at 0x153a378: {'verbose': False, 'ip': '127.0.0.1', 'shutdown_timeout': 5, 'taskbar': False, 'nocron': False, 'pid_filename': 'httpserver.pid', 'maxthreads': None, 'softcron': False, 'server_name': 'massimo-di-pierros-macbook-2.local', 'bpython': False, 'nogui': False, 'port': 8000, 'extcron': False, 'debuglevel': 30, 'test': None, 'folder': '/Users/mdipierro/Dropbox/web2py', 'config': '', 'import_models': False, 'winservice': '', 'shell': None, 'run': '', 'log_filename': 'httpserver.log', 'args': [''], 'socket_timeout': 1, 'ssl_ca_certificate': None, 'scheduler': None, 'profiler_filename': None, 'ssl_private_key': '', 'password': 'hello', 'request_queue_size': 5, 'ssl_certificate': '', 'cronjob': False, 'numthreads': None, 'quiet': False, 'interfaces': None, 'minthreads': None, 'timeout': 10, 'plain': False, 'nobanner': False}>"
p1355
asbasbasbag49
(g65
g51
NtRp1356
(dp1357
g54
(dp1358
sg63
g1261
sg56
(lp1359
g49
(g70
g51
NtRp1360
(dp1361
g54
(dp1362
g74
g75
ssg63
g1356
sg56
(lp1363
S'content_length'
p1364
asbag49
(g70
g51
NtRp1365
(dp1366
g54
(dp1367
g81
g82
ssg63
g1356
sg56
(lp1368
S':'
asbag49
(g70
g51
NtRp1369
(dp1370
g54
(dp1371
sg63
g1356
sg56
(lp1372
g49
(g50
g51
NtRp1373
(dp1374
g54
(dp1375
g62
I4
ssg63
g1369
sg56
(lp1376
S'43009'
p1377
asbasbasbag49
(g65
g51
NtRp1378
(dp1379
g54
(dp1380
sg63
g1261
sg56
(lp1381
g49
(g70
g51
NtRp1382
(dp1383
g54
(dp1384
g74
g75
ssg63
g1378
sg56
(lp1385
S'content_type'
p1386
asbag49
(g70
g51
NtRp1387
(dp1388
g54
(dp1389
g81
g82
ssg63
g1378
sg56
(lp1390
S':'
asbag49
(g70
g51
NtRp1391
(dp1392
g54
(dp1393
sg63
g1378
sg56
(lp1394
g49
(g50
g51
NtRp1395
(dp1396
g54
(dp1397
g62
I4
ssg63
g1391
sg56
(lp1398
S'application/x-www-form-urlencoded'
p1399
asbasbasbag49
(g65
g51
NtRp1400
(dp1401
g54
(dp1402
sg63
g1261
sg56
(lp1403
g49
(g70
g51
NtRp1404
(dp1405
g54
(dp1406
g74
g75
ssg63
g1400
sg56
(lp1407
S'db_sessions'
p1408
asbag49
(g70
g51
NtRp1409
(dp1410
g54
(dp1411
g81
g82
ssg63
g1400
sg56
(lp1412
S':'
asbag49
(g70
g51
NtRp1413
(dp1414
g54
(dp1415
sg63
g1400
sg56
(lp1416
g49
(g50
g51
NtRp1417
(dp1418
g54
(dp1419
g62
I4
ssg63
g1413
sg56
(lp1420
S'set([])'
p1421
asbasbasbag49
(g65
g51
NtRp1422
(dp1423
g54
(dp1424
sg63
g1261
sg56
(lp1425
g49
(g70
g51
NtRp1426
(dp1427
g54
(dp1428
g74
g75
ssg63
g1422
sg56
(lp1429
S'debugging'
p1430
asbag49
(g70
g51
NtRp1431
(dp1432
g54
(dp1433
g81
g82
ssg63
g1422
sg56
(lp1434
S':'
asbag49
(g70
g51
NtRp1435
(dp1436
g54
(dp1437
sg63
g1422
sg56
(lp1438
g49
(g50
g51
NtRp1439
(dp1440
g54
(dp1441
g62
I4
ssg63
g1435
sg56
(lp1442
S'False'
p1443
asbasbasbag49
(g65
g51
NtRp1444
(dp1445
g54
(dp1446
sg63
g1261
sg56
(lp1447
g49
(g70
g51
NtRp1448
(dp1449
g54
(dp1450
g74
g75
ssg63
g1444
sg56
(lp1451
S'gluon_parent'
p1452
asbag49
(g70
g51
NtRp1453
(dp1454
g54
(dp1455
g81
g82
ssg63
g1444
sg56
(lp1456
S':'
asbag49
(g70
g51
NtRp1457
(dp1458
g54
(dp1459
sg63
g1444
sg56
(lp1460
g49
(g50
g51
NtRp1461
(dp1462
g54
(dp1463
g62
I4
ssg63
g1457
sg56
(lp1464
S'/Users/mdipierro/Dropbox/web2py'
p1465
asbasbasbag49
(g65
g51
NtRp1466
(dp1467
g54
(dp1468
sg63
g1261
sg56
(lp1469
g49
(g70
g51
NtRp1470
(dp1471
g54
(dp1472
g74
g75
ssg63
g1466
sg56
(lp1473
S'http_accept'
p1474
asbag49
(g70
g51
NtRp1475
(dp1476
g54
(dp1477
g81
g82
ssg63
g1466
sg56
(lp1478
S':'
asbag49
(g70
g51
NtRp1479
(dp1480
g54
(dp1481
sg63
g1466
sg56
(lp1482
g49
(g50
g51
NtRp1483
(dp1484
g54
(dp1485
g62
I4
ssg63
g1479
sg56
(lp1486
S'*/*'
p1487
asbasbasbag49
(g65
g51
NtRp1488
(dp1489
g54
(dp1490
sg63
g1261
sg56
(lp1491
g49
(g70
g51
NtRp1492
(dp1493
g54
(dp1494
g74
g75
ssg63
g1488
sg56
(lp1495
S'http_accept_charset'
p1496
asbag49
(g70
g51
NtRp1497
(dp1498
g54
(dp1499
g81
g82
ssg63
g1488
sg56
(lp1500
S':'
asbag49
(g70
g51
NtRp1501
(dp1502
g54
(dp1503
sg63
g1488
sg56
(lp1504
g49
(g50
g51
NtRp1505
(dp1506
g54
(dp1507
g62
I4
ssg63
g1501
sg56
(lp1508
S'ISO-8859-1,utf-8;q=0.7,*;q=0.3'
p1509
asbasbasbag49
(g65
g51
NtRp1510
(dp1511
g54
(dp1512
sg63
g1261
sg56
(lp1513
g49
(g70
g51
NtRp1514
(dp1515
g54
(dp1516
g74
g75
ssg63
g1510
sg56
(lp1517
S'http_accept_encoding'
p1518
asbag49
(g70
g51
NtRp1519
(dp1520
g54
(dp1521
g81
g82
ssg63
g1510
sg56
(lp1522
S':'
asbag49
(g70
g51
NtRp1523
(dp1524
g54
(dp1525
sg63
g1510
sg56
(lp1526
g49
(g50
g51
NtRp1527
(dp1528
g54
(dp1529
g62
I4
ssg63
g1523
sg56
(lp1530
S'gzip,deflate,sdch'
p1531
asbasbasbag49
(g65
g51
NtRp1532
(dp1533
g54
(dp1534
sg63
g1261
sg56
(lp1535
g49
(g70
g51
NtRp1536
(dp1537
g54
(dp1538
g74
g75
ssg63
g1532
sg56
(lp1539
S'http_accept_language'
p1540
asbag49
(g70
g51
NtRp1541
(dp1542
g54
(dp1543
g81
g82
ssg63
g1532
sg56
(lp1544
S':'
asbag49
(g70
g51
NtRp1545
(dp1546
g54
(dp1547
sg63
g1532
sg56
(lp1548
g49
(g50
g51
NtRp1549
(dp1550
g54
(dp1551
g62
I4
ssg63
g1545
sg56
(lp1552
S'en,en-US;q=0.8,de-DE;q=0.6,de;q=0.4,it-IT;q=0.2,it;q=0.2,ja;q=0.2'
p1553
asbasbasbag49
(g65
g51
NtRp1554
(dp1555
g54
(dp1556
sg63
g1261
sg56
(lp1557
g49
(g70
g51
NtRp1558
(dp1559
g54
(dp1560
g74
g75
ssg63
g1554
sg56
(lp1561
S'http_connection'
p1562
asbag49
(g70
g51
NtRp1563
(dp1564
g54
(dp1565
g81
g82
ssg63
g1554
sg56
(lp1566
S':'
asbag49
(g70
g51
NtRp1567
(dp1568
g54
(dp1569
sg63
g1554
sg56
(lp1570
g49
(g50
g51
NtRp1571
(dp1572
g54
(dp1573
g62
I4
ssg63
g1567
sg56
(lp1574
S'keep-alive'
p1575
asbasbasbag49
(g65
g51
NtRp1576
(dp1577
g54
(dp1578
sg63
g1261
sg56
(lp1579
g49
(g70
g51
NtRp1580
(dp1581
g54
(dp1582
g74
g75
ssg63
g1576
sg56
(lp1583
S'http_content_length'
p1584
asbag49
(g70
g51
NtRp1585
(dp1586
g54
(dp1587
g81
g82
ssg63
g1576
sg56
(lp1588
S':'
asbag49
(g70
g51
NtRp1589
(dp1590
g54
(dp1591
sg63
g1576
sg56
(lp1592
g49
(g50
g51
NtRp1593
(dp1594
g54
(dp1595
g62
I4
ssg63
g1589
sg56
(lp1596
g1377
asbasbasbag49
(g65
g51
NtRp1597
(dp1598
g54
(dp1599
sg63
g1261
sg56
(lp1600
g49
(g70
g51
NtRp1601
(dp1602
g54
(dp1603
g74
g75
ssg63
g1597
sg56
(lp1604
S'http_content_type'
p1605
asbag49
(g70
g51
NtRp1606
(dp1607
g54
(dp1608
g81
g82
ssg63
g1597
sg56
(lp1609
S':'
asbag49
(g70
g51
NtRp1610
(dp1611
g54
(dp1612
sg63
g1597
sg56
(lp1613
g49
(g50
g51
NtRp1614
(dp1615
g54
(dp1616
g62
I4
ssg63
g1610
sg56
(lp1617
g1399
asbasbasbag49
(g65
g51
NtRp1618
(dp1619
g54
(dp1620
sg63
g1261
sg56
(lp1621
g49
(g70
g51
NtRp1622
(dp1623
g54
(dp1624
g74
g75
ssg63
g1618
sg56
(lp1625
S'http_cookie'
p1626
asbag49
(g70
g51
NtRp1627
(dp1628
g54
(dp1629
g81
g82
ssg63
g1618
sg56
(lp1630
S':'
asbag49
(g70
g51
NtRp1631
(dp1632
g54
(dp1633
sg63
g1618
sg56
(lp1634
g49
(g50
g51
NtRp1635
(dp1636
g54
(dp1637
g62
I4
ssg63
g1631
sg56
(lp1638
S'registered=yes; __utma_a2a=1369166446.1335515545.1303958619.1316700181.1318215879.74; el-finder-last-finder=4f5a448a961f1931173928a6b6d9d4d2; s_nr=1323495907438-New; __qca=P0-1359637726-1323501662225; _chartbeat2=ha3n2egp47d2hmo0.1323501662417; __utma=96992031.1452952453.1313221394.1323533094.1323638999.6; __utmc=96992031; __utmz=96992031.1313221394.1.1.utmcsr=(direct)|utmccn=(direct)|utmcmd=(none); session_id_cms=127.0.0.1-f4c1e56e-4f4d-4936-aaf7-92fdd3a97f53; session_id_admin=127.0.0.1-6d70af03-6639-4a47-9ec3-7df3afc84ddd; session_id_inplace=127.0.0.1-b67af904-b8cf-469d-95b3-18285a004db1'
p1639
asbasbasbag49
(g65
g51
NtRp1640
(dp1641
g54
(dp1642
sg63
g1261
sg56
(lp1643
g49
(g70
g51
NtRp1644
(dp1645
g54
(dp1646
g74
g75
ssg63
g1640
sg56
(lp1647
S'http_host'
p1648
asbag49
(g70
g51
NtRp1649
(dp1650
g54
(dp1651
g81
g82
ssg63
g1640
sg56
(lp1652
S':'
asbag49
(g70
g51
NtRp1653
(dp1654
g54
(dp1655
sg63
g1640
sg56
(lp1656
g49
(g50
g51
NtRp1657
(dp1658
g54
(dp1659
g62
I4
ssg63
g1653
sg56
(lp1660
S'127.0.0.1:8000'
p1661
asbasbasbag49
(g65
g51
NtRp1662
(dp1663
g54
(dp1664
sg63
g1261
sg56
(lp1665
g49
(g70
g51
NtRp1666
(dp1667
g54
(dp1668
g74
g75
ssg63
g1662
sg56
(lp1669
S'http_origin'
p1670
asbag49
(g70
g51
NtRp1671
(dp1672
g54
(dp1673
g81
g82
ssg63
g1662
sg56
(lp1674
S':'
asbag49
(g70
g51
NtRp1675
(dp1676
g54
(dp1677
sg63
g1662
sg56
(lp1678
g49
(g50
g51
NtRp1679
(dp1680
g54
(dp1681
g62
I4
ssg63
g1675
sg56
(lp1682
S'http://127.0.0.1:8000'
p1683
asbasbasbag49
(g65
g51
NtRp1684
(dp1685
g54
(dp1686
sg63
g1261
sg56
(lp1687
g49
(g70
g51
NtRp1688
(dp1689
g54
(dp1690
g74
g75
ssg63
g1684
sg56
(lp1691
S'http_referer'
p1692
asbag49
(g70
g51
NtRp1693
(dp1694
g54
(dp1695
g81
g82
ssg63
g1684
sg56
(lp1696
S':'
asbag49
(g70
g51
NtRp1697
(dp1698
g54
(dp1699
sg63
g1684
sg56
(lp1700
g49
(g50
g51
NtRp1701
(dp1702
g54
(dp1703
g62
I4
ssg63
g1697
sg56
(lp1704
S'http://127.0.0.1:8000/inplace/default/edit_clone?url=http%3A%2F%2Fweb2py.com'
p1705
asbasbasbag49
(g65
g51
NtRp1706
(dp1707
g54
(dp1708
sg63
g1261
sg56
(lp1709
g49
(g70
g51
NtRp1710
(dp1711
g54
(dp1712
g74
g75
ssg63
g1706
sg56
(lp1713
S'http_user_agent'
p1714
asbag49
(g70
g51
NtRp1715
(dp1716
g54
(dp1717
g81
g82
ssg63
g1706
sg56
(lp1718
S':'
asbag49
(g70
g51
NtRp1719
(dp1720
g54
(dp1721
sg63
g1706
sg56
(lp1722
g49
(g50
g51
NtRp1723
(dp1724
g54
(dp1725
g62
I4
ssg63
g1719
sg56
(lp1726
S'Mozilla/5.0 (Macintosh; Intel Mac OS X 10_6_8) AppleWebKit/535.7 (KHTML, like Gecko) Chrome/16.0.912.63 Safari/535.7'
p1727
asbasbasbag49
(g65
g51
NtRp1728
(dp1729
g54
(dp1730
sg63
g1261
sg56
(lp1731
g49
(g70
g51
NtRp1732
(dp1733
g54
(dp1734
g74
g75
ssg63
g1728
sg56
(lp1735
S'http_x_requested_with'
p1736
asbag49
(g70
g51
NtRp1737
(dp1738
g54
(dp1739
g81
g82
ssg63
g1728
sg56
(lp1740
S':'
asbag49
(g70
g51
NtRp1741
(dp1742
g54
(dp1743
sg63
g1728
sg56
(lp1744
g49
(g50
g51
NtRp1745
(dp1746
g54
(dp1747
g62
I4
ssg63
g1741
sg56
(lp1748
S'XMLHttpRequest'
p1749
asbasbasbag49
(g65
g51
NtRp1750
(dp1751
g54
(dp1752
sg63
g1261
sg56
(lp1753
g49
(g70
g51
NtRp1754
(dp1755
g54
(dp1756
g74
g75
ssg63
g1750
sg56
(lp1757
S'is_jython'
p1758
asbag49
(g70
g51
NtRp1759
(dp1760
g54
(dp1761
g81
g82
ssg63
g1750
sg56
(lp1762
S':'
asbag49
(g70
g51
NtRp1763
(dp1764
g54
(dp1765
sg63
g1750
sg56
(lp1766
g49
(g50
g51
NtRp1767
(dp1768
g54
(dp1769
g62
I4
ssg63
g1763
sg56
(lp1770
g1443
asbasbasbag49
(g65
g51
NtRp1771
(dp1772
g54
(dp1773
sg63
g1261
sg56
(lp1774
g49
(g70
g51
NtRp1775
(dp1776
g54
(dp1777
g74
g75
ssg63
g1771
sg56
(lp1778
S'is_pypy'
p1779
asbag49
(g70
g51
NtRp1780
(dp1781
g54
(dp1782
g81
g82
ssg63
g1771
sg56
(lp1783
S':'
asbag49
(g70
g51
NtRp1784
(dp1785
g54
(dp1786
sg63
g1771
sg56
(lp1787
g49
(g50
g51
NtRp1788
(dp1789
g54
(dp1790
g62
I4
ssg63
g1784
sg56
(lp1791
g1443
asbasbasbag49
(g65
g51
NtRp1792
(dp1793
g54
(dp1794
sg63
g1261
sg56
(lp1795
g49
(g70
g51
NtRp1796
(dp1797
g54
(dp1798
g74
g75
ssg63
g1792
sg56
(lp1799
S'path_info'
p1800
asbag49
(g70
g51
NtRp1801
(dp1802
g54
(dp1803
g81
g82
ssg63
g1792
sg56
(lp1804
S':'
asbag49
(g70
g51
NtRp1805
(dp1806
g54
(dp1807
sg63
g1792
sg56
(lp1808
g49
(g50
g51
NtRp1809
(dp1810
g54
(dp1811
g62
I4
ssg63
g1805
sg56
(lp1812
S'/inplace/default/edit_clone/store'
p1813
asbasbasbag49
(g65
g51
NtRp1814
(dp1815
g54
(dp1816
sg63
g1261
sg56
(lp1817
g49
(g70
g51
NtRp1818
(dp1819
g54
(dp1820
g74
g75
ssg63
g1814
sg56
(lp1821
S'query_string'
p1822
asbag49
(g70
g51
NtRp1823
(dp1824
g54
(dp1825
g81
g82
ssg63
g1814
sg56
(lp1826
S':'
asbag49
(g70
g51
NtRp1827
(dp1828
g54
(dp1829
sg63
g1814
sg56
(lp1830
g49
(g50
g51
NtRp1831
(dp1832
g54
(dp1833
g62
I4
ssg63
g1827
sg56
(lp1834
S''
asbasbasbag49
(g65
g51
NtRp1835
(dp1836
g54
(dp1837
sg63
g1261
sg56
(lp1838
g49
(g70
g51
NtRp1839
(dp1840
g54
(dp1841
g74
g75
ssg63
g1835
sg56
(lp1842
S'remote_addr'
p1843
asbag49
(g70
g51
NtRp1844
(dp1845
g54
(dp1846
g81
g82
ssg63
g1835
sg56
(lp1847
S':'
asbag49
(g70
g51
NtRp1848
(dp1849
g54
(dp1850
sg63
g1835
sg56
(lp1851
g49
(g50
g51
NtRp1852
(dp1853
g54
(dp1854
g62
I4
ssg63
g1848
sg56
(lp1855
g195
asbasbasbag49
(g65
g51
NtRp1856
(dp1857
g54
(dp1858
sg63
g1261
sg56
(lp1859
g49
(g70
g51
NtRp1860
(dp1861
g54
(dp1862
g74
g75
ssg63
g1856
sg56
(lp1863
S'remote_port'
p1864
asbag49
(g70
g51
NtRp1865
(dp1866
g54
(dp1867
g81
g82
ssg63
g1856
sg56
(lp1868
S':'
asbag49
(g70
g51
NtRp1869
(dp1870
g54
(dp1871
sg63
g1856
sg56
(lp1872
g49
(g50
g51
NtRp1873
(dp1874
g54
(dp1875
g62
I4
ssg63
g1869
sg56
(lp1876
S'55642'
p1877
asbasbasbag49
(g65
g51
NtRp1878
(dp1879
g54
(dp1880
sg63
g1261
sg56
(lp1881
g49
(g70
g51
NtRp1882
(dp1883
g54
(dp1884
g74
g75
ssg63
g1878
sg56
(lp1885
S'request_method'
p1886
asbag49
(g70
g51
NtRp1887
(dp1888
g54
(dp1889
g81
g82
ssg63
g1878
sg56
(lp1890
S':'
asbag49
(g70
g51
NtRp1891
(dp1892
g54
(dp1893
sg63
g1878
sg56
(lp1894
g49
(g50
g51
NtRp1895
(dp1896
g54
(dp1897
g62
I4
ssg63
g1891
sg56
(lp1898
S'POST'
p1899
asbasbasbag49
(g65
g51
NtRp1900
(dp1901
g54
(dp1902
sg63
g1261
sg56
(lp1903
g49
(g70
g51
NtRp1904
(dp1905
g54
(dp1906
g74
g75
ssg63
g1900
sg56
(lp1907
S'script_name'
p1908
asbag49
(g70
g51
NtRp1909
(dp1910
g54
(dp1911
g81
g82
ssg63
g1900
sg56
(lp1912
S':'
asbag49
(g70
g51
NtRp1913
(dp1914
g54
(dp1915
sg63
g1900
sg56
(lp1916
g49
(g50
g51
NtRp1917
(dp1918
g54
(dp1919
g62
I4
ssg63
g1913
sg56
(lp1920
S''
asbasbasbag49
(g65
g51
NtRp1921
(dp1922
g54
(dp1923
sg63
g1261
sg56
(lp1924
g49
(g70
g51
NtRp1925
(dp1926
g54
(dp1927
g74
g75
ssg63
g1921
sg56
(lp1928
S'server_name'
p1929
asbag49
(g70
g51
NtRp1930
(dp1931
g54
(dp1932
g81
g82
ssg63
g1921
sg56
(lp1933
S':'
asbag49
(g70
g51
NtRp1934
(dp1935
g54
(dp1936
sg63
g1921
sg56
(lp1937
g49
(g50
g51
NtRp1938
(dp1939
g54
(dp1940
g62
I4
ssg63
g1934
sg56
(lp1941
S'massimo-di-pierros-macbook-2.local'
p1942
asbasbasbag49
(g65
g51
NtRp1943
(dp1944
g54
(dp1945
sg63
g1261
sg56
(lp1946
g49
(g70
g51
NtRp1947
(dp1948
g54
(dp1949
g74
g75
ssg63
g1943
sg56
(lp1950
S'server_port'
p1951
asbag49
(g70
g51
NtRp1952
(dp1953
g54
(dp1954
g81
g82
ssg63
g1943
sg56
(lp1955
S':'
asbag49
(g70
g51
NtRp1956
(dp1957
g54
(dp1958
sg63
g1943
sg56
(lp1959
g49
(g50
g51
NtRp1960
(dp1961
g54
(dp1962
g62
I4
ssg63
g1956
sg56
(lp1963
S'8000'
p1964
asbasbasbag49
(g65
g51
NtRp1965
(dp1966
g54
(dp1967
sg63
g1261
sg56
(lp1968
g49
(g70
g51
NtRp1969
(dp1970
g54
(dp1971
g74
g75
ssg63
g1965
sg56
(lp1972
S'server_protocol'
p1973
asbag49
(g70
g51
NtRp1974
(dp1975
g54
(dp1976
g81
g82
ssg63
g1965
sg56
(lp1977
S':'
asbag49
(g70
g51
NtRp1978
(dp1979
g54
(dp1980
sg63
g1965
sg56
(lp1981
g49
(g50
g51
NtRp1982
(dp1983
g54
(dp1984
g62
I4
ssg63
g1978
sg56
(lp1985
S'HTTP/1.1'
p1986
asbasbasbag49
(g65
g51
NtRp1987
(dp1988
g54
(dp1989
sg63
g1261
sg56
(lp1990
g49
(g70
g51
NtRp1991
(dp1992
g54
(dp1993
g74
g75
ssg63
g1987
sg56
(lp1994
S'server_software'
p1995
asbag49
(g70
g51
NtRp1996
(dp1997
g54
(dp1998
g81
g82
ssg63
g1987
sg56
(lp1999
S':'
asbag49
(g70
g51
NtRp2000
(dp2001
g54
(dp2002
sg63
g1987
sg56
(lp2003
g49
(g50
g51
NtRp2004
(dp2005
g54
(dp2006
g62
I4
ssg63
g2000
sg56
(lp2007
S'Rocket 1.2.4'
p2008
asbasbasbag49
(g65
g51
NtRp2009
(dp2010
g54
(dp2011
sg63
g1261
sg56
(lp2012
g49
(g70
g51
NtRp2013
(dp2014
g54
(dp2015
g74
g75
ssg63
g2009
sg56
(lp2016
S'web2py_crontype'
p2017
asbag49
(g70
g51
NtRp2018
(dp2019
g54
(dp2020
g81
g82
ssg63
g2009
sg56
(lp2021
S':'
asbag49
(g70
g51
NtRp2022
(dp2023
g54
(dp2024
sg63
g2009
sg56
(lp2025
g49
(g50
g51
NtRp2026
(dp2027
g54
(dp2028
g62
I4
ssg63
g2022
sg56
(lp2029
S'hard'
p2030
asbasbasbag49
(g65
g51
NtRp2031
(dp2032
g54
(dp2033
sg63
g1261
sg56
(lp2034
g49
(g70
g51
NtRp2035
(dp2036
g54
(dp2037
g74
g75
ssg63
g2031
sg56
(lp2038
S'web2py_path'
p2039
asbag49
(g70
g51
NtRp2040
(dp2041
g54
(dp2042
g81
g82
ssg63
g2031
sg56
(lp2043
S':'
asbag49
(g70
g51
NtRp2044
(dp2045
g54
(dp2046
sg63
g2031
sg56
(lp2047
g49
(g50
g51
NtRp2048
(dp2049
g54
(dp2050
g62
I4
ssg63
g2044
sg56
(lp2051
g1308
asbasbasbag49
(g65
g51
NtRp2052
(dp2053
g54
(dp2054
sg63
g1261
sg56
(lp2055
g49
(g70
g51
NtRp2056
(dp2057
g54
(dp2058
g74
g75
ssg63
g2052
sg56
(lp2059
S'web2py_version'
p2060
asbag49
(g70
g51
NtRp2061
(dp2062
g54
(dp2063
g81
g82
ssg63
g2052
sg56
(lp2064
S':'
asbag49
(g70
g51
NtRp2065
(dp2066
g54
(dp2067
sg63
g2052
sg56
(lp2068
g49
(g50
g51
NtRp2069
(dp2070
g54
(dp2071
g62
I4
ssg63
g2065
sg56
(lp2072
g49
(g58
g51
NtRp2073
(dp2074
g54
(dp2075
g62
I3
ssg63
Nsg56
(lp2076
g49
(g65
g51
NtRp2077
(dp2078
g54
(dp2079
sg63
g2073
sg56
(lp2080
g49
(g70
g51
NtRp2081
(dp2082
g54
(dp2083
sg63
g2077
sg56
(lp2084
g49
(g50
g51
NtRp2085
(dp2086
g54
(dp2087
g62
I3
ssg63
g2081
sg56
(lp2088
S'1'
asbasbasbag49
(g65
g51
NtRp2089
(dp2090
g54
(dp2091
sg63
g2073
sg56
(lp2092
g49
(g70
g51
NtRp2093
(dp2094
g54
(dp2095
sg63
g2089
sg56
(lp2096
g49
(g50
g51
NtRp2097
(dp2098
g54
(dp2099
g62
I3
ssg63
g2093
sg56
(lp2100
S'99'
p2101
asbasbasbag49
(g65
g51
NtRp2102
(dp2103
g54
(dp2104
sg63
g2073
sg56
(lp2105
g49
(g70
g51
NtRp2106
(dp2107
g54
(dp2108
sg63
g2102
sg56
(lp2109
g49
(g50
g51
NtRp2110
(dp2111
g54
(dp2112
g62
I3
ssg63
g2106
sg56
(lp2113
S'3'
asbasbasbag49
(g65
g51
NtRp2114
(dp2115
g54
(dp2116
sg63
g2073
sg56
(lp2117
g49
(g70
g51
NtRp2118
(dp2119
g54
(dp2120
sg63
g2114
sg56
(lp2121
g49
(g50
g51
NtRp2122
(dp2123
g54
(dp2124
g62
I3
ssg63
g2118
sg56
(lp2125
S'datetime.datetime(2011, 12, 9, 21, 5, 4)'
p2126
asbasbasbag49
(g65
g51
NtRp2127
(dp2128
g54
(dp2129
sg63
g2073
sg56
(lp2130
g49
(g70
g51
NtRp2131
(dp2132
g54
(dp2133
sg63
g2127
sg56
(lp2134
g49
(g50
g51
NtRp2135
(dp2136
g54
(dp2137
g62
I3
ssg63
g2131
sg56
(lp2138
S'stable'
p2139
asbasbasbasbasbasbasbag49
(g65
g51
NtRp2140
(dp2141
g54
(dp2142
sg63
g1261
sg56
(lp2143
g49
(g70
g51
NtRp2144
(dp2145
g54
(dp2146
g74
g75
ssg63
g2140
sg56
(lp2147
S'wsgi_errors'
p2148
asbag49
(g70
g51
NtRp2149
(dp2150
g54
(dp2151
g81
g82
ssg63
g2140
sg56
(lp2152
S':'
asbag49
(g70
g51
NtRp2153
(dp2154
g54
(dp2155
sg63
g2140
sg56
(lp2156
g49
(g50
g51
NtRp2157
(dp2158
g54
(dp2159
g62
I4
ssg63
g2153
sg56
(lp2160
S"<open file '<stderr>', mode 'w' at 0x1620b0>"
p2161
asbasbasbag49
(g65
g51
NtRp2162
(dp2163
g54
(dp2164
sg63
g1261
sg56
(lp2165
g49
(g70
g51
NtRp2166
(dp2167
g54
(dp2168
g74
g75
ssg63
g2162
sg56
(lp2169
S'wsgi_file_wrapper'
p2170
asbag49
(g70
g51
NtRp2171
(dp2172
g54
(dp2173
g81
g82
ssg63
g2162
sg56
(lp2174
S':'
asbag49
(g70
g51
NtRp2175
(dp2176
g54
(dp2177
sg63
g2162
sg56
(lp2178
g49
(g50
g51
NtRp2179
(dp2180
g54
(dp2181
g62
I4
ssg63
g2175
sg56
(lp2182
S'<class wsgiref.util.FileWrapper at 0x7c2840>'
p2183
asbasbasbag49
(g65
g51
NtRp2184
(dp2185
g54
(dp2186
sg63
g1261
sg56
(lp2187
g49
(g70
g51
NtRp2188
(dp2189
g54
(dp2190
g74
g75
ssg63
g2184
sg56
(lp2191
S'wsgi_input'
p2192
asbag49
(g70
g51
NtRp2193
(dp2194
g54
(dp2195
g81
g82
ssg63
g2184
sg56
(lp2196
S':'
asbag49
(g70
g51
NtRp2197
(dp2198
g54
(dp2199
sg63
g2184
sg56
(lp2200
g49
(g50
g51
NtRp2201
(dp2202
g54
(dp2203
g62
I4
ssg63
g2197
sg56
(lp2204
S'<socket._fileobject object at 0x1e99230>'
p2205
asbasbasbag49
(g65
g51
NtRp2206
(dp2207
g54
(dp2208
sg63
g1261
sg56
(lp2209
g49
(g70
g51
NtRp2210
(dp2211
g54
(dp2212
g74
g75
ssg63
g2206
sg56
(lp2213
S'wsgi_multiprocess'
p2214
asbag49
(g70
g51
NtRp2215
(dp2216
g54
(dp2217
g81
g82
ssg63
g2206
sg56
(lp2218
S':'
asbag49
(g70
g51
NtRp2219
(dp2220
g54
(dp2221
sg63
g2206
sg56
(lp2222
g49
(g50
g51
NtRp2223
(dp2224
g54
(dp2225
g62
I4
ssg63
g2219
sg56
(lp2226
g1443
asbasbasbag49
(g65
g51
NtRp2227
(dp2228
g54
(dp2229
sg63
g1261
sg56
(lp2230
g49
(g70
g51
NtRp2231
(dp2232
g54
(dp2233
g74
g75
ssg63
g2227
sg56
(lp2234
S'wsgi_multithread'
p2235
asbag49
(g70
g51
NtRp2236
(dp2237
g54
(dp2238
g81
g82
ssg63
g2227
sg56
(lp2239
S':'
asbag49
(g70
g51
NtRp2240
(dp2241
g54
(dp2242
sg63
g2227
sg56
(lp2243
g49
(g50
g51
NtRp2244
(dp2245
g54
(dp2246
g62
I4
ssg63
g2240
sg56
(lp2247
g92
asbasbasbag49
(g65
g51
NtRp2248
(dp2249
g54
(dp2250
sg63
g1261
sg56
(lp2251
g49
(g70
g51
NtRp2252
(dp2253
g54
(dp2254
g74
g75
ssg63
g2248
sg56
(lp2255
S'wsgi_run_once'
p2256
asbag49
(g70
g51
NtRp2257
(dp2258
g54
(dp2259
g81
g82
ssg63
g2248
sg56
(lp2260
S':'
asbag49
(g70
g51
NtRp2261
(dp2262
g54
(dp2263
sg63
g2248
sg56
(lp2264
g49
(g50
g51
NtRp2265
(dp2266
g54
(dp2267
g62
I4
ssg63
g2261
sg56
(lp2268
g1443
asbasbasbag49
(g65
g51
NtRp2269
(dp2270
g54
(dp2271
sg63
g1261
sg56
(lp2272
g49
(g70
g51
NtRp2273
(dp2274
g54
(dp2275
g74
g75
ssg63
g2269
sg56
(lp2276
S'wsgi_url_scheme'
p2277
asbag49
(g70
g51
NtRp2278
(dp2279
g54
(dp2280
g81
g82
ssg63
g2269
sg56
(lp2281
S':'
asbag49
(g70
g51
NtRp2282
(dp2283
g54
(dp2284
sg63
g2269
sg56
(lp2285
g49
(g50
g51
NtRp2286
(dp2287
g54
(dp2288
g62
I4
ssg63
g2282
sg56
(lp2289
S'http'
p2290
asbasbasbag49
(g65
g51
NtRp2291
(dp2292
g54
(dp2293
sg63
g1261
sg56
(lp2294
g49
(g70
g51
NtRp2295
(dp2296
g54
(dp2297
g74
g75
ssg63
g2291
sg56
(lp2298
S'wsgi_version'
p2299
asbag49
(g70
g51
NtRp2300
(dp2301
g54
(dp2302
g81
g82
ssg63
g2291
sg56
(lp2303
S':'
asbag49
(g70
g51
NtRp2304
(dp2305
g54
(dp2306
sg63
g2291
sg56
(lp2307
g49
(g50
g51
NtRp2308
(dp2309
g54
(dp2310
g62
I4
ssg63
g2304
sg56
(lp2311
g49
(g58
g51
NtRp2312
(dp2313
g54
(dp2314
g62
I3
ssg63
Nsg56
(lp2315
g49
(g65
g51
NtRp2316
(dp2317
g54
(dp2318
sg63
g2312
sg56
(lp2319
g49
(g70
g51
NtRp2320
(dp2321
g54
(dp2322
sg63
g2316
sg56
(lp2323
g49
(g50
g51
NtRp2324
(dp2325
g54
(dp2326
g62
I3
ssg63
g2320
sg56
(lp2327
S'1'
asbasbasbag49
(g65
g51
NtRp2328
(dp2329
g54
(dp2330
sg63
g2312
sg56
(lp2331
g49
(g70
g51
NtRp2332
(dp2333
g54
(dp2334
sg63
g2328
sg56
(lp2335
g49
(g50
g51
NtRp2336
(dp2337
g54
(dp2338
g62
I3
ssg63
g2332
sg56
(lp2339
S'0'
asbasbasbasbasbasbasbasbasbasbasbag49
(g65
g51
NtRp2340
(dp2341
g54
(dp2342
sg63
g59
sg56
(lp2343
g49
(g70
g51
NtRp2344
(dp2345
g54
(dp2346
g74
g75
ssg63
g2340
sg56
(lp2347
S'extension'
p2348
asbag49
(g70
g51
NtRp2349
(dp2350
g54
(dp2351
g81
g82
ssg63
g2340
sg56
(lp2352
S':'
asbag49
(g70
g51
NtRp2353
(dp2354
g54
(dp2355
sg63
g2340
sg56
(lp2356
g49
(g50
g51
NtRp2357
(dp2358
g54
(dp2359
g62
I5
ssg63
g2353
sg56
(lp2360
S'html'
p2361
asbasbasbag49
(g65
g51
NtRp2362
(dp2363
g54
(dp2364
sg63
g59
sg56
(lp2365
g49
(g70
g51
NtRp2366
(dp2367
g54
(dp2368
g74
g75
ssg63
g2362
sg56
(lp2369
S'folder'
p2370
asbag49
(g70
g51
NtRp2371
(dp2372
g54
(dp2373
g81
g82
ssg63
g2362
sg56
(lp2374
S':'
asbag49
(g70
g51
NtRp2375
(dp2376
g54
(dp2377
sg63
g2362
sg56
(lp2378
g49
(g50
g51
NtRp2379
(dp2380
g54
(dp2381
g62
I5
ssg63
g2375
sg56
(lp2382
S'/Users/mdipierro/Dropbox/web2py/applications/inplace/'
p2383
asbasbasbag49
(g65
g51
NtRp2384
(dp2385
g54
(dp2386
sg63
g59
sg56
(lp2387
g49
(g70
g51
NtRp2388
(dp2389
g54
(dp2390
g74
g75
ssg63
g2384
sg56
(lp2391
S'function'
p2392
asbag49
(g70
g51
NtRp2393
(dp2394
g54
(dp2395
g81
g82
ssg63
g2384
sg56
(lp2396
S':'
asbag49
(g70
g51
NtRp2397
(dp2398
g54
(dp2399
sg63
g2384
sg56
(lp2400
g49
(g50
g51
NtRp2401
(dp2402
g54
(dp2403
g62
I5
ssg63
g2397
sg56
(lp2404
S'edit_clone'
p2405
asbasbasbag49
(g65
g51
NtRp2406
(dp2407
g54
(dp2408
sg63
g59
sg56
(lp2409
g49
(g70
g51
NtRp2410
(dp2411
g54
(dp2412
g74
g75
ssg63
g2406
sg56
(lp2413
S'get_vars'
p2414
asbag49
(g70
g51
NtRp2415
(dp2416
g54
(dp2417
g81
g82
ssg63
g2406
sg56
(lp2418
S':'
asbag49
(g70
g51
NtRp2419
(dp2420
g54
(dp2421
sg63
g2406
sg56
(lp2422
g49
(g50
g51
NtRp2423
(dp2424
g54
(dp2425
g62
I5
ssg63
g2419
sg56
(lp2426
g49
(g58
g51
NtRp2427
(dp2428
g54
(dp2429
g62
I4
ssg63
Nsg56
(lp2430
sbasbasbasbag49
(g65
g51
NtRp2431
(dp2432
g54
(dp2433
sg63
g59
sg56
(lp2434
g49
(g70
g51
NtRp2435
(dp2436
g54
(dp2437
g74
g75
ssg63
g2431
sg56
(lp2438
S'global_settings'
p2439
asbag49
(g70
g51
NtRp2440
(dp2441
g54
(dp2442
g81
g82
ssg63
g2431
sg56
(lp2443
S':'
asbag49
(g70
g51
NtRp2444
(dp2445
g54
(dp2446
sg63
g2431
sg56
(lp2447
g49
(g50
g51
NtRp2448
(dp2449
g54
(dp2450
g62
I5
ssg63
g2444
sg56
(lp2451
g49
(g58
g51
NtRp2452
(dp2453
g54
(dp2454
g62
I4
ssg63
Nsg56
(lp2455
g49
(g65
g51
NtRp2456
(dp2457
g54
(dp2458
sg63
g2452
sg56
(lp2459
g49
(g70
g51
NtRp2460
(dp2461
g54
(dp2462
g74
g75
ssg63
g2456
sg56
(lp2463
g1273
asbag49
(g70
g51
NtRp2464
(dp2465
g54
(dp2466
g81
g82
ssg63
g2456
sg56
(lp2467
S':'
asbag49
(g70
g51
NtRp2468
(dp2469
g54
(dp2470
sg63
g2456
sg56
(lp2471
g49
(g50
g51
NtRp2472
(dp2473
g54
(dp2474
g62
I4
ssg63
g2468
sg56
(lp2475
S"set(['/Users/mdipierro/Dropbox/web2py/applications/inplace/', '/Users/mdipierro/Dropbox/web2py/applications/cms/', '/Users/mdipierro/Dropbox/web2py/applications/admin/'])"
p2476
asbasbasbag49
(g65
g51
NtRp2477
(dp2478
g54
(dp2479
sg63
g2452
sg56
(lp2480
g49
(g70
g51
NtRp2481
(dp2482
g54
(dp2483
g74
g75
ssg63
g2477
sg56
(lp2484
g1295
asbag49
(g70
g51
NtRp2485
(dp2486
g54
(dp2487
g81
g82
ssg63
g2477
sg56
(lp2488
S':'
asbag49
(g70
g51
NtRp2489
(dp2490
g54
(dp2491
sg63
g2477
sg56
(lp2492
g49
(g50
g51
NtRp2493
(dp2494
g54
(dp2495
g62
I4
ssg63
g2489
sg56
(lp2496
g1308
asbasbasbag49
(g65
g51
NtRp2497
(dp2498
g54
(dp2499
sg63
g2452
sg56
(lp2500
g49
(g70
g51
NtRp2501
(dp2502
g54
(dp2503
g74
g75
ssg63
g2497
sg56
(lp2504
g1317
asbag49
(g70
g51
NtRp2505
(dp2506
g54
(dp2507
g81
g82
ssg63
g2497
sg56
(lp2508
S':'
asbag49
(g70
g51
NtRp2509
(dp2510
g54
(dp2511
sg63
g2497
sg56
(lp2512
g49
(g50
g51
NtRp2513
(dp2514
g54
(dp2515
g62
I4
ssg63
g2509
sg56
(lp2516
g49
(g58
g51
NtRp2517
(dp2518
g54
(dp2519
g62
I3
ssg63
Nsg56
(lp2520
sbasbasbasbag49
(g65
g51
NtRp2521
(dp2522
g54
(dp2523
sg63
g2452
sg56
(lp2524
g49
(g70
g51
NtRp2525
(dp2526
g54
(dp2527
g74
g75
ssg63
g2521
sg56
(lp2528
g1342
asbag49
(g70
g51
NtRp2529
(dp2530
g54
(dp2531
g81
g82
ssg63
g2521
sg56
(lp2532
S':'
asbag49
(g70
g51
NtRp2533
(dp2534
g54
(dp2535
sg63
g2521
sg56
(lp2536
g49
(g50
g51
NtRp2537
(dp2538
g54
(dp2539
g62
I4
ssg63
g2533
sg56
(lp2540
S"<Values at 0x153a378: {'verbose': False, 'ip': '127.0.0.1', 'shutdown_timeout': 5, 'taskbar': False, 'nocron': False, 'pid_filename': 'httpserver.pid', 'maxthreads': None, 'softcron': False, 'server_name': 'massimo-di-pierros-macbook-2.local', 'bpython': False, 'nogui': False, 'port': 8000, 'extcron': False, 'debuglevel': 30, 'test': None, 'folder': '/Users/mdipierro/Dropbox/web2py', 'config': '', 'import_models': False, 'winservice': '', 'shell': None, 'run': '', 'log_filename': 'httpserver.log', 'args': [''], 'socket_timeout': 1, 'ssl_ca_certificate': None, 'scheduler': None, 'profiler_filename': None, 'ssl_private_key': '', 'password': 'hello', 'request_queue_size': 5, 'ssl_certificate': '', 'cronjob': False, 'numthreads': None, 'quiet': False, 'interfaces': None, 'minthreads': None, 'timeout': 10, 'plain': False, 'nobanner': False}>"
p2541
asbasbasbag49
(g65
g51
NtRp2542
(dp2543
g54
(dp2544
sg63
g2452
sg56
(lp2545
g49
(g70
g51
NtRp2546
(dp2547
g54
(dp2548
g74
g75
ssg63
g2542
sg56
(lp2549
g1408
asbag49
(g70
g51
NtRp2550
(dp2551
g54
(dp2552
g81
g82
ssg63
g2542
sg56
(lp2553
S':'
asbag49
(g70
g51
NtRp2554
(dp2555
g54
(dp2556
sg63
g2542
sg56
(lp2557
g49
(g50
g51
NtRp2558
(dp2559
g54
(dp2560
g62
I4
ssg63
g2554
sg56
(lp2561
S'set([])'
p2562
asbasbasbag49
(g65
g51
NtRp2563
(dp2564
g54
(dp2565
sg63
g2452
sg56
(lp2566
g49
(g70
g51
NtRp2567
(dp2568
g54
(dp2569
g74
g75
ssg63
g2563
sg56
(lp2570
g1430
asbag49
(g70
g51
NtRp2571
(dp2572
g54
(dp2573
g81
g82
ssg63
g2563
sg56
(lp2574
S':'
asbag49
(g70
g51
NtRp2575
(dp2576
g54
(dp2577
sg63
g2563
sg56
(lp2578
g49
(g50
g51
NtRp2579
(dp2580
g54
(dp2581
g62
I4
ssg63
g2575
sg56
(lp2582
g1443
asbasbasbag49
(g65
g51
NtRp2583
(dp2584
g54
(dp2585
sg63
g2452
sg56
(lp2586
g49
(g70
g51
NtRp2587
(dp2588
g54
(dp2589
g74
g75
ssg63
g2583
sg56
(lp2590
g1452
asbag49
(g70
g51
NtRp2591
(dp2592
g54
(dp2593
g81
g82
ssg63
g2583
sg56
(lp2594
S':'
asbag49
(g70
g51
NtRp2595
(dp2596
g54
(dp2597
sg63
g2583
sg56
(lp2598
g49
(g50
g51
NtRp2599
(dp2600
g54
(dp2601
g62
I4
ssg63
g2595
sg56
(lp2602
g1465
asbasbasbag49
(g65
g51
NtRp2603
(dp2604
g54
(dp2605
sg63
g2452
sg56
(lp2606
g49
(g70
g51
NtRp2607
(dp2608
g54
(dp2609
g74
g75
ssg63
g2603
sg56
(lp2610
g1758
asbag49
(g70
g51
NtRp2611
(dp2612
g54
(dp2613
g81
g82
ssg63
g2603
sg56
(lp2614
S':'
asbag49
(g70
g51
NtRp2615
(dp2616
g54
(dp2617
sg63
g2603
sg56
(lp2618
g49
(g50
g51
NtRp2619
(dp2620
g54
(dp2621
g62
I4
ssg63
g2615
sg56
(lp2622
g1443
asbasbasbag49
(g65
g51
NtRp2623
(dp2624
g54
(dp2625
sg63
g2452
sg56
(lp2626
g49
(g70
g51
NtRp2627
(dp2628
g54
(dp2629
g74
g75
ssg63
g2623
sg56
(lp2630
g1779
asbag49
(g70
g51
NtRp2631
(dp2632
g54
(dp2633
g81
g82
ssg63
g2623
sg56
(lp2634
S':'
asbag49
(g70
g51
NtRp2635
(dp2636
g54
(dp2637
sg63
g2623
sg56
(lp2638
g49
(g50
g51
NtRp2639
(dp2640
g54
(dp2641
g62
I4
ssg63
g2635
sg56
(lp2642
g1443
asbasbasbag49
(g65
g51
NtRp2643
(dp2644
g54
(dp2645
sg63
g2452
sg56
(lp2646
g49
(g70
g51
NtRp2647
(dp2648
g54
(dp2649
g74
g75
ssg63
g2643
sg56
(lp2650
g2017
asbag49
(g70
g51
NtRp2651
(dp2652
g54
(dp2653
g81
g82
ssg63
g2643
sg56
(lp2654
S':'
asbag49
(g70
g51
NtRp2655
(dp2656
g54
(dp2657
sg63
g2643
sg56
(lp2658
g49
(g50
g51
NtRp2659
(dp2660
g54
(dp2661
g62
I4
ssg63
g2655
sg56
(lp2662
g2030
asbasbasbag49
(g65
g51
NtRp2663
(dp2664
g54
(dp2665
sg63
g2452
sg56
(lp2666
g49
(g70
g51
NtRp2667
(dp2668
g54
(dp2669
g74
g75
ssg63
g2663
sg56
(lp2670
g2060
asbag49
(g70
g51
NtRp2671
(dp2672
g54
(dp2673
g81
g82
ssg63
g2663
sg56
(lp2674
S':'
asbag49
(g70
g51
NtRp2675
(dp2676
g54
(dp2677
sg63
g2663
sg56
(lp2678
g49
(g50
g51
NtRp2679
(dp2680
g54
(dp2681
g62
I4
ssg63
g2675
sg56
(lp2682
g49
(g58
g51
NtRp2683
(dp2684
g54
(dp2685
g62
I3
ssg63
Nsg56
(lp2686
g49
(g65
g51
NtRp2687
(dp2688
g54
(dp2689
sg63
g2683
sg56
(lp2690
g49
(g70
g51
NtRp2691
(dp2692
g54
(dp2693
sg63
g2687
sg56
(lp2694
g49
(g50
g51
NtRp2695
(dp2696
g54
(dp2697
g62
I3
ssg63
g2691
sg56
(lp2698
S'1'
asbasbasbag49
(g65
g51
NtRp2699
(dp2700
g54
(dp2701
sg63
g2683
sg56
(lp2702
g49
(g70
g51
NtRp2703
(dp2704
g54
(dp2705
sg63
g2699
sg56
(lp2706
g49
(g50
g51
NtRp2707
(dp2708
g54
(dp2709
g62
I3
ssg63
g2703
sg56
(lp2710
S'99'
p2711
asbasbasbag49
(g65
g51
NtRp2712
(dp2713
g54
(dp2714
sg63
g2683
sg56
(lp2715
g49
(g70
g51
NtRp2716
(dp2717
g54
(dp2718
sg63
g2712
sg56
(lp2719
g49
(g50
g51
NtRp2720
(dp2721
g54
(dp2722
g62
I3
ssg63
g2716
sg56
(lp2723
S'3'
asbasbasbag49
(g65
g51
NtRp2724
(dp2725
g54
(dp2726
sg63
g2683
sg56
(lp2727
g49
(g70
g51
NtRp2728
(dp2729
g54
(dp2730
sg63
g2724
sg56
(lp2731
g49
(g50
g51
NtRp2732
(dp2733
g54
(dp2734
g62
I3
ssg63
g2728
sg56
(lp2735
S'datetime.datetime(2011, 12, 9, 21, 5, 4)'
p2736
asbasbasbag49
(g65
g51
NtRp2737
(dp2738
g54
(dp2739
sg63
g2683
sg56
(lp2740
g49
(g70
g51
NtRp2741
(dp2742
g54
(dp2743
sg63
g2737
sg56
(lp2744
g49
(g50
g51
NtRp2745
(dp2746
g54
(dp2747
g62
I3
ssg63
g2741
sg56
(lp2748
g2139
asbasbasbasbasbasbasbasbasbasbasbag49
(g65
g51
NtRp2749
(dp2750
g54
(dp2751
sg63
g59
sg56
(lp2752
g49
(g70
g51
NtRp2753
(dp2754
g54
(dp2755
g74
g75
ssg63
g2749
sg56
(lp2756
S'is_https'
p2757
asbag49
(g70
g51
NtRp2758
(dp2759
g54
(dp2760
g81
g82
ssg63
g2749
sg56
(lp2761
S':'
asbag49
(g70
g51
NtRp2762
(dp2763
g54
(dp2764
sg63
g2749
sg56
(lp2765
g49
(g50
g51
NtRp2766
(dp2767
g54
(dp2768
g62
I5
ssg63
g2762
sg56
(lp2769
g1443
asbasbasbag49
(g65
g51
NtRp2770
(dp2771
g54
(dp2772
sg63
g59
sg56
(lp2773
g49
(g70
g51
NtRp2774
(dp2775
g54
(dp2776
g74
g75
ssg63
g2770
sg56
(lp2777
S'is_local'
p2778
asbag49
(g70
g51
NtRp2779
(dp2780
g54
(dp2781
g81
g82
ssg63
g2770
sg56
(lp2782
S':'
asbag49
(g70
g51
NtRp2783
(dp2784
g54
(dp2785
sg63
g2770
sg56
(lp2786
g49
(g50
g51
NtRp2787
(dp2788
g54
(dp2789
g62
I5
ssg63
g2783
sg56
(lp2790
g92
asbasbasbag49
(g65
g51
NtRp2791
(dp2792
g54
(dp2793
sg63
g59
sg56
(lp2794
g49
(g70
g51
NtRp2795
(dp2796
g54
(dp2797
g74
g75
ssg63
g2791
sg56
(lp2798
S'is_restful'
p2799
asbag49
(g70
g51
NtRp2800
(dp2801
g54
(dp2802
g81
g82
ssg63
g2791
sg56
(lp2803
S':'
asbag49
(g70
g51
NtRp2804
(dp2805
g54
(dp2806
sg63
g2791
sg56
(lp2807
g49
(g50
g51
NtRp2808
(dp2809
g54
(dp2810
g62
I5
ssg63
g2804
sg56
(lp2811
g1443
asbasbasbag49
(g65
g51
NtRp2812
(dp2813
g54
(dp2814
sg63
g59
sg56
(lp2815
g49
(g70
g51
NtRp2816
(dp2817
g54
(dp2818
g74
g75
ssg63
g2812
sg56
(lp2819
S'now'
p2820
asbag49
(g70
g51
NtRp2821
(dp2822
g54
(dp2823
g81
g82
ssg63
g2812
sg56
(lp2824
S':'
asbag49
(g70
g51
NtRp2825
(dp2826
g54
(dp2827
sg63
g2812
sg56
(lp2828
g49
(g50
g51
NtRp2829
(dp2830
g54
(dp2831
g62
I5
ssg63
g2825
sg56
(lp2832
S'datetime.datetime(2011, 12, 11, 17, 10, 31, 887046)'
p2833
asbasbasbag49
(g65
g51
NtRp2834
(dp2835
g54
(dp2836
sg63
g59
sg56
(lp2837
g49
(g70
g51
NtRp2838
(dp2839
g54
(dp2840
g74
g75
ssg63
g2834
sg56
(lp2841
S'post_vars'
p2842
asbag49
(g70
g51
NtRp2843
(dp2844
g54
(dp2845
g81
g82
ssg63
g2834
sg56
(lp2846
S':'
asbag49
(g70
g51
NtRp2847
(dp2848
g54
(dp2849
sg63
g2834
sg56
(lp2850
g49
(g50
g51
NtRp2851
(dp2852
g54
(dp2853
g62
I5
ssg63
g2847
sg56
(lp2854
g49
(g58
g51
NtRp2855
(dp2856
g54
(dp2857
g62
I4
ssg63
Nsg56
(lp2858
g49
(g65
g51
NtRp2859
(dp2860
g54
(dp2861
sg63
g2855
sg56
(lp2862
g49
(g70
g51
NtRp2863
(dp2864
g54
(dp2865
g74
g75
ssg63
g2859
sg56
(lp2866
S'html'
p2867
asbag49
(g70
g51
NtRp2868
(dp2869
g54
(dp2870
g81
g82
ssg63
g2859
sg56
(lp2871
S':'
asbag49
(g70
g51
NtRp2872
(dp2873
g54
(dp2874
sg63
g2859
sg56
(lp2875
g49
(g50
g51
NtRp2876
(dp2877
g54
(dp2878
g62
I4
ssg63
g2872
sg56
(lp2879
S'<iframe id="a2apage_sm_ifr" height="1" width="1" style="border-top-width: 0px; border-right-width: 0px; border-bottom-width: 0px; border-left-width: 0px; border-style: initial; border-color: initial; border-image: initial; left: 0px; top: 0px; position: absolute; z-index: 100000; display: none; " transparency="true" allowtransparency="true" frameborder="0" src="http://static.addtoany.com/menu/sm7.html#type=page&amp;event=load&amp;url=http%3A%2F%2F127.0.0.1%3A8000%2Finplace%2Fdefault%2Fedit_clone%3Furl%3Dhttp%253A%252F%252Fweb2py.com&amp;referrer=http%3A%2F%2F127.0.0.1%3A8000%2Finplace%2Fdefault%2Fedit%3Furl%3Dhttp%253A%252F%252Fweb2py.com"></iframe><div style="position: static; "><div id="a2apage_dropdown" class="a2a_menu" onmouseover="a2a.onMouseOver_stay()" onmouseout="a2a.onMouseOut_delay()"><div class="a2a_menu_inside"><div id="a2apage_title_container" class="a2a_menu_title_container" style="display: none; "><input id="a2apage_title" class="a2a_menu_title"></div><div class="a2apage_wide a2a_wide"><div class="a2a_tabs a2a_tabs_default"><div id="a2apage_DEFAULT" class="a2a_tab_selected" style="margin-right: 1px; " onclick="return a2a.tabs.open(\'DEFAULT\')"><span class="a2a_i_share">Share</span></div></div><div class="a2a_tabs"><div title="Share via email" id="a2apage_EMAIL" style="margin-right: 1px; " onclick="return a2a.tabs.open(\'EMAIL\')"><span class="a2a_i_email"></span></div></div><div class="a2a_tabs"><div onclick="a2a.bmBrowser()" title="Bookmark in your browser" id="a2apage_BROWSER" style="margin-left: 1px; "><span class="a2a_i_bookmark"></span></div></div></div><div class="a2a_clear"></div><div id="a2apage_find_container" class="a2a_menu_find_container" style=""><input id="a2apage_find" class="a2a_menu_find" type="text" onclick="a2a.focus_find()" onkeyup="a2a.do_find()" autocomplete="off" onfocus="a2a[\'page\'].find_focused=true;a2a.onMouseOver_stay()" title="Instantly find any service"><span id="a2apage_find_icon" class="a2a_i_find" onclick="a2a.focus_find()"></span></div><div id="a2apage_cols_container" class="a2a_cols_container"><div class="a2a_col1" id="a2apage_col1" style=""><a id="a2apage_live" rel="nofollow" class="a2a_i a2a_sss" href="/" target="_blank"><span class="a2a_i_live">Messenger</span></a><a id="a2apage_facebook" rel="nofollow" class="a2a_i" href="/" target="_blank"><span class="a2a_i_facebook">Facebook</span></a><a id="a2apage_twitter" rel="nofollow" class="a2a_i" href="/" target="_blank"><span class="a2a_i_twitter">Twitter</span></a><a id="a2apage_google_plus" rel="nofollow" class="a2a_i" href="/" target="_blank"><span class="a2a_i_google">Google </span></a><a id="a2apage_delicious" rel="nofollow" class="a2a_i" href="/" target="_blank"><span class="a2a_i_delicious">Delicious</span></a><a id="a2apage_digg" rel="nofollow" class="a2a_i" href="/" target="_blank"><span class="a2a_i_digg">Digg</span></a><a id="a2apage_google_bookmarks" rel="nofollow" class="a2a_i" href="/" target="_blank"><span class="a2a_i_google">Google Bookmarks</span></a><a id="a2apage_myspace" rel="nofollow" class="a2a_i" href="/" target="_blank"><span class="a2a_i_myspace">MySpace</span></a><a id="a2apage_stumbleupon" rel="nofollow" class="a2a_i" href="/" target="_blank"><span class="a2a_i_stumbleupon">StumbleUpon</span></a><a id="a2apage_reddit" rel="nofollow" class="a2a_i" href="/" target="_blank"><span class="a2a_i_reddit">Reddit</span></a><a id="a2apage_vodpod" rel="nofollow" class="a2a_i" href="/" target="_blank" style="display: none; "><span class="a2a_i_vodpod">Vodpod</span></a><a id="a2apage_yahoo_bookmarks" rel="nofollow" class="a2a_i" href="/" target="_blank" style="display: none; "><span class="a2a_i_yahoo">Yahoo Bookmarks</span></a><a id="a2apage_bebo" rel="nofollow" class="a2a_i" href="/" target="_blank" style="display: none; "><span class="a2a_i_bebo">Bebo</span></a><a id="a2apage_mister_wong" rel="nofollow" class="a2a_i" href="/" target="_blank" style="display: none; "><span class="a2a_i_mister-wong">Mister-Wong</span></a><a id="a2apage_wordpress" rel="nofollow" class="a2a_i" href="/" target="_blank" style="display: none; "><span class="a2a_i_wordpress">WordPress</span></a><a id="a2apage_google_reader" rel="nofollow" class="a2a_i" href="/" target="_blank" style="display: none; "><span class="a2a_i_reader">Google Reader</span></a><a id="a2apage_orkut" rel="nofollow" class="a2a_i" href="/" target="_blank" style="display: none; "><span class="a2a_i_orkut">Orkut</span></a><a id="a2apage_xing" rel="nofollow" class="a2a_i" href="/" target="_blank" style="display: none; "><span class="a2a_i_xing">XING</span></a><a id="a2apage_evernote" rel="nofollow" class="a2a_i" href="/" target="_blank" style="display: none; "><span class="a2a_i_evernote">Evernote</span></a><a id="a2apage_netvibes_share" rel="nofollow" class="a2a_i" href="/" target="_blank" style="display: none; "><span class="a2a_i_netvibes">Netvibes Share</span></a><a id="a2apage_strands" rel="nofollow" class="a2a_i" href="/" target="_blank" style="display: none; "><span class="a2a_i_strands">Strands</span></a><a id="a2apage_posterous" rel="nofollow" class="a2a_i" href="/" target="_blank" style="display: none; "><span class="a2a_i_posterous">Posterous</span></a><a id="a2apage_business_exchange" rel="nofollow" class="a2a_i" href="/" target="_blank" style="display: none; "><span class="a2a_i_business_exchange">Business Exchange</span></a><a id="a2apage_arto" rel="nofollow" class="a2a_i" href="/" target="_blank" style="display: none; "><span class="a2a_i_arto">Arto</span></a><a id="a2apage_tipd" rel="nofollow" class="a2a_i" href="/" target="_blank" style="display: none; "><span class="a2a_i_tipd">Tipd</span></a><a id="a2apage_smaknews" rel="nofollow" class="a2a_i" href="/" target="_blank" style="display: none; "><span class="a2a_i_smaknews">SmakNews</span></a><a id="a2apage_plurk" rel="nofollow" class="a2a_i" href="/" target="_blank" style="display: none; "><span class="a2a_i_plurk">Plurk</span></a><a id="a2apage_aim" rel="nofollow" class="a2a_i" href="/" target="_blank" style="display: none; "><span class="a2a_i_aim">AIM</span></a><a id="a2apage_yahoo_messenger" rel="nofollow" class="a2a_i" href="/" target="_blank" style="display: none; "><span class="a2a_i_yim">Yahoo Messenger</span></a><a id="a2apage_identi_ca" rel="nofollow" class="a2a_i" href="/" target="_blank" style="display: none; "><span class="a2a_i_identica">Identi.ca</span></a><a id="a2apage_mozillaca" rel="nofollow" class="a2a_i" href="/" target="_blank" style="display: none; "><span class="a2a_i_mozillaca">Mozillaca</span></a><a id="a2apage_blogger_post" rel="nofollow" class="a2a_i" href="/" target="_blank" style="display: none; "><span class="a2a_i_blogger">Blogger Post</span></a><a id="a2apage_typepad_post" rel="nofollow" class="a2a_i" href="/" target="_blank" style="display: none; "><span class="a2a_i_typepad">TypePad Post</span></a><a id="a2apage_box_net" rel="nofollow" class="a2a_i" href="/" target="_blank" style="display: none; "><span class="a2a_i_box">Box.net</span></a><a id="a2apage_netlog" rel="nofollow" class="a2a_i" href="/" target="_blank" style="display: none; "><span class="a2a_i_netlog">Netlog</span></a><a id="a2apage_technorati_favorites" rel="nofollow" class="a2a_i" href="/" target="_blank" style="display: none; "><span class="a2a_i_technorati">Technorati Favorites</span></a><a id="a2apage_citeulike" rel="nofollow" class="a2a_i" href="/" target="_blank" style="display: none; "><span class="a2a_i_citeulike">CiteULike</span></a><a id="a2apage_jumptags" rel="nofollow" class="a2a_i" href="/" target="_blank" style="display: none; "><span class="a2a_i_jumptags">Jumptags</span></a><a id="a2apage_hemidemi" rel="nofollow" class="a2a_i" href="/" target="_blank" style="display: none; "><span class="a2a_i_hemidemi">Hemidemi</span></a><a id="a2apage_funp" rel="nofollow" class="a2a_i" href="/" target="_blank" style="display: none; "><span class="a2a_i_funp">FunP</span></a><a id="a2apage_instapaper" rel="nofollow" class="a2a_i" href="/" target="_blank" style="display: none; "><span class="a2a_i_instapaper">Instapaper</span></a><a id="a2apage_phonefavs" rel="nofollow" class="a2a_i" href="/" target="_blank" style="display: none; "><span class="a2a_i_phonefavs">PhoneFavs</span></a><a id="a2apage_xerpi" rel="nofollow" class="a2a_i" href="/" target="_blank" style="display: none; "><span class="a2a_i_xerpi">Xerpi</span></a><a id="a2apage_netvouz" rel="nofollow" class="a2a_i" href="/" target="_blank" style="display: none; "><span class="a2a_i_netvouz">Netvouz</span></a><a id="a2apage_wink" rel="nofollow" class="a2a_i" href="/" target="_blank" style="display: none; "><span class="a2a_i_wink">Wink</span></a><a id="a2apage_diigo" rel="nofollow" class="a2a_i" href="/" target="_blank" style="display: none; "><span class="a2a_i_diigo">Diigo</span></a><a id="a2apage_bibsonomy" rel="nofollow" class="a2a_i" href="/" target="_blank" style="display: none; "><span class="a2a_i_bibsonomy">BibSonomy</span></a><a id="a2apage_blogmarks" rel="nofollow" class="a2a_i" href="/" target="_blank" style="display: none; "><span class="a2a_i_blogmarks">BlogMarks</span></a><a id="a2apage_tailrank" rel="nofollow" class="a2a_i" href="/" target="_blank" style="display: none; "><span class="a2a_i_tailrank">Tailrank</span></a><a id="a2apage_startaid" rel="nofollow" class="a2a_i" href="/" target="_blank" style="display: none; "><span class="a2a_i_startaid">StartAid</span></a><a id="a2apage_kledy" rel="nofollow" class="a2a_i" href="/" target="_blank" style="display: none; "><span class="a2a_i_kledy">Kledy</span></a><a id="a2apage_khabbr" rel="nofollow" class="a2a_i" href="/" target="_blank" style="display: none; "><span class="a2a_i_khabbr">Khabbr</span></a><a id="a2apage_meneame" rel="nofollow" class="a2a_i" href="/" target="_blank" style="display: none; "><span class="a2a_i_meneame">Meneame</span></a><a id="a2apage_yoolink" rel="nofollow" class="a2a_i" href="/" target="_blank" style="display: none; "><span class="a2a_i_yoolink">Yoolink</span></a><a id="a2apage_bookmarks_fr" rel="nofollow" class="a2a_i" href="/" target="_blank" style="display: none; "><span class="a2a_i_bookmarks_fr">Bookmarks.fr</span></a><a id="a2apage_technotizie" rel="nofollow" class="a2a_i" href="/" target="_blank" style="display: none; "><span class="a2a_i_technotizie">Technotizie</span></a><a id="a2apage_newsvine" rel="nofollow" class="a2a_i" href="/" target="_blank" style="display: none; "><span class="a2a_i_newsvine">NewsVine</span></a><a id="a2apage_multiply" rel="nofollow" class="a2a_i" href="/" target="_blank" style="display: none; "><span class="a2a_i_multiply">Multiply</span></a><a id="a2apage_friendfeed" rel="nofollow" class="a2a_i" href="/" target="_blank" style="display: none; "><span class="a2a_i_friendfeed">FriendFeed</span></a><a id="a2apage_plaxo_pulse" rel="nofollow" class="a2a_i" href="/" target="_blank" style="display: none; "><span class="a2a_i_plaxo">Plaxo Pulse</span></a><a id="a2apage_ping" rel="nofollow" class="a2a_i" href="/" target="_blank" style="display: none; "><span class="a2a_i_ping">Ping</span></a><a id="a2apage_squidoo" rel="nofollow" class="a2a_i" href="/" target="_blank" style="display: none; "><span class="a2a_i_squidoo">Squidoo</span></a><a id="a2apage_protopage_bookmarks" rel="nofollow" class="a2a_i" href="/" target="_blank" style="display: none; "><span class="a2a_i_protopage">Protopage Bookmarks</span></a><a id="a2apage_blinklist" rel="nofollow" class="a2a_i" href="/" target="_blank" style="display: none; "><span class="a2a_i_blinklist">Blinklist</span></a><a id="a2apage_faves" rel="nofollow" class="a2a_i" href="/" target="_blank" style="display: none; "><span class="a2a_i_faves">Faves</span></a><a id="a2apage_yigg" rel="nofollow" class="a2a_i" href="/" target="_blank" style="display: none; "><span class="a2a_i_yigg">YiGG</span></a><a id="a2apage_webnews" rel="nofollow" class="a2a_i" href="/" target="_blank" style="display: none; "><span class="a2a_i_webnews">Webnews</span></a><a id="a2apage_segnalo" rel="nofollow" class="a2a_i" href="/" target="_blank" style="display: none; "><span class="a2a_i_segnalo">Segnalo</span></a><a id="a2apage_pusha" rel="nofollow" class="a2a_i" href="/" target="_blank" style="display: none; "><span class="a2a_i_pusha">Pusha</span></a><a id="a2apage_youmob" rel="nofollow" class="a2a_i" href="/" target="_blank" style="display: none; "><span class="a2a_i_youmob">YouMob</span></a><a id="a2apage_slashdot" rel="nofollow" class="a2a_i" href="/" target="_blank" style="display: none; "><span class="a2a_i_slashdot">Slashdot</span></a><a id="a2apage_fark" rel="nofollow" class="a2a_i" href="/" target="_blank" style="display: none; "><span class="a2a_i_fark">Fark</span></a><a id="a2apage_allvoices" rel="nofollow" class="a2a_i" href="/" target="_blank" style="display: none; "><span class="a2a_i_allvoices">Allvoices</span></a><a id="a2apage_jamespot" rel="nofollow" class="a2a_i" href="/" target="_blank" style="display: none; "><span class="a2a_i_jamespot">Jamespot</span></a><a id="a2apage_imera_brazil" rel="nofollow" class="a2a_i" href="/" target="_blank" style="display: none; "><span class="a2a_i_imera">Imera Brazil</span></a><a id="a2apage_twiddla" rel="nofollow" class="a2a_i" href="/" target="_blank" style="display: none; "><span class="a2a_i_twiddla">Twiddla</span></a><a id="a2apage_linkagogo" rel="nofollow" class="a2a_i" href="/" target="_blank" style="display: none; "><span class="a2a_i_linkagogo">LinkaGoGo</span></a><a id="a2apage_unalog" rel="nofollow" class="a2a_i" href="/" target="_blank" style="display: none; "><span class="a2a_i_unalog">unalog</span></a><a id="a2apage_hugg" rel="nofollow" class="a2a_i" href="/" target="_blank" style="display: none; "><span class="a2a_i_hugg">Hugg</span></a><a id="a2apage_diglog" rel="nofollow" class="a2a_i" href="/" target="_blank" style="display: none; "><span class="a2a_i_diglog">Diglog</span></a><a id="a2apage_nowpublic" rel="nofollow" class="a2a_i" href="/" target="_blank" style="display: none; "><span class="a2a_i_nowpublic">NowPublic</span></a><a id="a2apage_tumblr" rel="nofollow" class="a2a_i" href="/" target="_blank" style="display: none; "><span class="a2a_i_tumblr">Tumblr</span></a><a id="a2apage_livejournal" rel="nofollow" class="a2a_i" href="/" target="_blank" style="display: none; "><span class="a2a_i_livejournal">LiveJournal</span></a><a id="a2apage_current" rel="nofollow" class="a2a_i" href="/" target="_blank" style="display: none; "><span class="a2a_i_current">Current</span></a><a id="a2apage_hellotxt" rel="nofollow" class="a2a_i" href="/" target="_blank" style="display: none; "><span class="a2a_i_hellotxt">HelloTxt</span></a><a id="a2apage_spurl" rel="nofollow" class="a2a_i" href="/" target="_blank" style="display: none; "><span class="a2a_i_spurl">Spurl</span></a><a id="a2apage_yample" rel="nofollow" class="a2a_i" href="/" target="_blank" style="display: none; "><span class="a2a_i_yample">Yample</span></a><a id="a2apage_oneview" rel="nofollow" class="a2a_i" href="/" target="_blank" style="display: none; "><span class="a2a_i_oneview">Oneview</span></a><a id="a2apage_linkatopia" rel="nofollow" class="a2a_i" href="/" target="_blank" style="display: none; "><span class="a2a_i_linkatopia">Linkatopia</span></a><a id="a2apage_simpy" rel="nofollow" class="a2a_i" href="/" target="_blank" style="display: none; "><span class="a2a_i_simpy">Simpy</span></a><a id="a2apage_linkedin" rel="nofollow" class="a2a_i" href="/" target="_blank" style="display: none; "><span class="a2a_i_linkedin">LinkedIn</span></a><a id="a2apage_buddymarks" rel="nofollow" class="a2a_i" href="/" target="_blank" style="display: none; "><span class="a2a_i_buddymarks">BuddyMarks</span></a><a id="a2apage_ask_com_mystuff" rel="nofollow" class="a2a_i" href="/" target="_blank" style="display: none; "><span class="a2a_i_ask">Ask.com MyStuff</span></a><a id="a2apage_viadeo" rel="nofollow" class="a2a_i" href="/" target="_blank" style="display: none; "><span class="a2a_i_viadeo">Viadeo</span></a><a id="a2apage_maple" rel="nofollow" class="a2a_i" href="/" target="_blank" style="display: none; "><span class="a2a_i_maple">Maple</span></a><a id="a2apage_wists" rel="nofollow" class="a2a_i" href="/" target="_blank" style="display: none; "><span class="a2a_i_wists">Wists</span></a><a id="a2apage_connotea" rel="nofollow" class="a2a_i" href="/" target="_blank" style="display: none; "><span class="a2a_i_connotea">Connotea</span></a><a id="a2apage_backflip" rel="nofollow" class="a2a_i" href="/" target="_blank" style="display: none; "><span class="a2a_i_backflip">Backflip</span></a><a id="a2apage_mylinkvault" rel="nofollow" class="a2a_i" href="/" target="_blank" style="display: none; "><span class="a2a_i_mylinkvault">MyLinkVault</span></a><a id="a2apage_sitejot" rel="nofollow" class="a2a_i" href="/" target="_blank" style="display: none; "><span class="a2a_i_sitejot">SiteJot</span></a><a id="a2apage_sphinn" rel="nofollow" class="a2a_i" href="/" target="_blank" style="display: none; "><span class="a2a_i_sphinn">Sphinn</span></a><a id="a2apage_dzone" rel="nofollow" class="a2a_i" href="/" target="_blank" style="display: none; "><span class="a2a_i_dzone">DZone</span></a><a id="a2apage_care2_news" rel="nofollow" class="a2a_i" href="/" target="_blank" style="display: none; "><span class="a2a_i_care2">Care2 News</span></a><a id="a2apage_hyves" rel="nofollow" class="a2a_i" href="/" target="_blank" style="display: none; "><span class="a2a_i_hyves">Hyves</span></a><a id="a2apage_sphere" rel="nofollow" class="a2a_i" href="/" target="_blank" style="display: none; "><span class="a2a_i_sphere">Sphere</span></a><a id="a2apage_bitty_browser" rel="nofollow" class="a2a_i" href="/" target="_blank" style="display: none; "><span class="a2a_i_bitty">Bitty Browser</span></a><a id="a2apage_gabbr" rel="nofollow" class="a2a_i" href="/" target="_blank" style="display: none; "><span class="a2a_i_gabbr">Gabbr</span></a><a id="a2apage_symbaloo_feeds" rel="nofollow" class="a2a_i" href="/" target="_blank" style="display: none; "><span class="a2a_i_symbaloo">Symbaloo Feeds</span></a><a id="a2apage_tagza" rel="nofollow" class="a2a_i" href="/" target="_blank" style="display: none; "><span class="a2a_i_tagza">Tagza</span></a><a id="a2apage_folkd" rel="nofollow" class="a2a_i" href="/" target="_blank" style="display: none; "><span class="a2a_i_folkd">Folkd</span></a><a id="a2apage_newstrust" rel="nofollow" class="a2a_i" href="/" target="_blank" style="display: none; "><span class="a2a_i_newstrust">NewsTrust</span></a><a id="a2apage_amazon_wish_list" rel="nofollow" class="a2a_i" href="/" target="_blank" style="display: none; "><span class="a2a_i_amazon">Amazon Wish List</span></a><a id="a2apage_printfriendly" rel="nofollow" class="a2a_i" href="/" target="_blank" style="display: none; "><span class="a2a_i_printfriendly">PrintFriendly</span></a><a id="a2apage_read_it_later" rel="nofollow" class="a2a_i" href="/" target="_blank" style="display: none; "><span class="a2a_i_read_it_later">Read It Later</span></a><a id="a2apage_tuenti" rel="nofollow" class="a2a_i" href="/" target="_blank" style="display: none; "><span class="a2a_i_tuenti">Tuenti</span></a><a id="a2apage_email" rel="nofollow" class="a2a_i" href="/" target="_blank" style="display: none; "><span class="a2a_i_email">Email</span></a><a id="a2apage_rediff" rel="nofollow" class="a2a_i" href="/" target="_blank" style="display: none; "><span class="a2a_i_rediff">Rediff MyPage</span></a></div><div id="a2apage_2_col1" style="display: none; "><a id="a2apage_google_gmail" rel="nofollow" class="a2a_i" href="/" target="_blank"><span class="a2a_i_gmail">Google Gmail</span></a><a id="a2apage_yahoo_mail" rel="nofollow" class="a2a_i" href="/" target="_blank"><span class="a2a_i_yahoo">Yahoo Mail</span></a><a id="a2apage_hotmail" rel="nofollow" class="a2a_i" href="/" target="_blank"><span class="a2a_i_live">Hotmail</span></a><a id="a2apage_aol_mail" rel="nofollow" class="a2a_i" href="/" target="_blank"><span class="a2a_i_aol">AOL Mail</span></a><a id="a2apage_any_email" rel="nofollow" class="a2a_i a2a_emailer" href="/" target="_blank"><span class="a2a_i_email">Any email</span></a><a id="a2apage_email_client" rel="nofollow" class="a2a_i a2a_emailer a2a_email_client" href="/" target=""><span class="a2a_i_outlook">&nbsp;</span><span class="a2a_i_windows_mail">&nbsp;</span><span class="a2a_i_apple_mail">&nbsp;</span><span class="a2a_i_thunderbird">&nbsp;</span></a></div><div class="a2a_clear"></div></div><div id="a2apage_note_BROWSER" class="a2a_note" style="display:none"></div><div class="a2apage_wide a2a_wide" style=""><a href="javascript:void(0)" id="a2apage_show_more_less" class="a2a_menu_show_more_less" onclick="return a2a.show_more_less(0)" onmouseover="img=this.firstChild;if(a2a.c.color_arrow_hover==\'fff\'){if(img.className.indexOf(\'_wt\')==-1)img.className =\'_wt\'}else img.className=img.className.replace(/_wt/,\'\')" onmouseout="img=this.firstChild;if(a2a.c.color_arrow==\'fff\'){if(img.className.indexOf(\'_wt\')==-1)img.className =\'_wt\'}else img.className=img.className.replace(/_wt/,\'\')" title="Show all"><span class="a2a_i_darr"></span></a></div><div class="a2a_menu_powered_by" id="a2apage_powered_by" onmouseover="if(this.innerHTML!=this.orig&amp;&amp;!window.opera)this.innerHTML=this.orig;this.style.textAlign=\'center\'" style="">By <a href="http://share.lockerz.com/" target="_blank" title="Share Buttons">Lockerz</a></div></div></div></div>\n  <div class="wrapper"><!-- for sticky footer -->\n    <div class="flash" style="display: none; "></div>\n    <div class="header">\n      <div class="container">\n        <div class="sixteen columns">\n\t  <img src="http://web2py.com/examples/static/images/web2py_logo.png">\n          <h5></h5>\n        </div>\n        <div class="sixteen columns statusbar">\n          <div id="menu"><ul class="sf-menu"><li><a href="http://web2py.com/examples/default/index">Home</a></li><li><a href="http://web2py.com/examples/default/what">About</a></li><li><a href="http://web2py.com/examples/default/download">Download</a></li><li><a href="http://web2py.com/examples/default/documentation">Docs &amp; Resources</a></li><li><a href="http://web2py.com/examples/default/support">Support</a></li><li><a href="http://web2py.com/examples/default/who">Contributors</a></li></ul>\n            <!-- AddToAny BEGIN -->\n            <div style="float:right;padding-top:6px;" class="a2a_kit a2a_default_style">\n            <a class="a2a_dd" href="http://www.addtoany.com/share_save#url=http%3A%2F%2F127.0.0.1%3A8000%2Finplace%2Fdefault%2Fedit_clone%3Furl%3Dhttp%253A%252F%252Fweb2py.com&amp;title=web2py%20Web%20Framework&amp;description="><span class="a2a_img a2a_img_text a2a_i_a2a"></span>Share</a><div style="clear: both; "></div></div>\n            <script type="text/javascript" src="http://static.addtoany.com/menu/page.js"></script>\n            <!-- AddToAny END -->\n          </div>\n\t  <div class="sixteen columns announce">\n\t    <a href="http://www.infoworld.com/d/open-source-software/bossie-awards-2011-the-best-open-source-application-development-software-171759-0&amp;current=10&amp;last=1#slideshowTop">2011 BOSSIE AWARD FOR OPEN SOURCE DEVELOPMENT SOFTWARE</a>\n          </div>\n\t</div>\n      </div>\n    </div>\n    <div class="main">\n      <div class="container mainbody">\n        <div class="sixteen columns">\n          <div class="ten columns center">\n<center>\n  <img src="http://web2py.com/examples/static/images/tag-cloud-color-small.png">\n</center>\n<h3>WEB2PY<sup>TM</sup> WEB FRAMEWORK</h3>\n<p>Free</p>\n          </div>\n          <div class="five columns">\n<div style="text-align:center">\n  <a href="http://web2py.com/book"><img src="http://web2py.com/examples/static/images/tablet.png" alt="Tablet"></a><br>\n  <a href="http://www.lulu.com/product/paperback/web2py-book-(4th-edition)/18738286"><img src="http://static.lulu.com/images/services/buy_now_buttons/us/book.gif?20111206124946" border="0" alt="Support independent publishing: Buy this book on Lulu."></a><br>\n  <a class="button" href="http://web2py.com/examples/default/download" style="width:90%">DOWNLOAD NOW</a><br>\n  <a class="button" href="http://web2py.com/demo_admin" style="width:90%">ONLINE DEMO</a><br>\n  <a class="button" href="http://web2py.com/poweredby" style="width:90%">SITES POWERED</a>\n</div>\n          </div>\n        </div>\n      </div><!-- container -->\n<div class="container">\n  <div class="sixteen columns">\n    <div class="five columns">\n      <h3><a href="http://web2py.com/examples/default/about">BATTERIES INCLUDED</a></h3>\n      <p>Everything you need in one package including fast multi-threaded web server, SQL database and web-based interface. No third party dependencies but works with <a href="/examples/default/what">third party tools</a>.</p>\n    </div>\n    <div class="five columns">\n      <h3><a href="http://web2py.com/demo_admin">WEB-BASED IDE</a></h3>\n      <p>Create, modify, deploy and manage application from anywhere using your browser. One web2py instance can run multiple web sites using different databases. Try the <a href="http://web2py.com/demo_admin">interactive demo</a>.</p>\n    </div>\n    <div class="five columns">\n      <h3><a href="http://web2py.com/examples/default/documentation">EXTENSIVE DOCS</a></h3>\n      <p>Start with some <a href="http://web2py.com/examples/default/examples">quick examples</a>, then read the <a href="http://web2py.com/book">reference manual</a>, watch <a href="http://vimeo.com/album/178500">videos</a>, and join a <a href="http://web2py.com/examples/default/usergroups">user group</a> for discussion. Take advantage of the <a href="http://web2py.com/layouts">layouts</a>, <a href="http://dev.s-cubism.com/web2py_plugins">plugins</a>, and <a href="http://web2pyslices.com">recipes</a>.</p>\n    </div>\n  </div>\n</div>\n<div class="container">\n  <div class="sixteen columns">\n    <img src="http://web2py.com/examples/static/images/shadow-bottom.png" width="100%">\n    <div class="five columns">\n      <em>\n\t<p>web2py rules! as a sysadmin I like the no installation and no configuration approach a lot)</p>\n      </em>\n      <span class="right">\n\t<a href="http://twitter.com/#!/jkogut/status/61414554273447936"><em>kjogut</em></a>\n      </span>\n    </div>\n    <div class="five columns">\n      <em>\n\t<p>Get Things Done - Faster, Better and More Easily with web2py</p>\n      </em>\n      <span class="right">\n\t<a href="http://twitter.com/#!/rochacbruno/status/73583156044890112"><em>Bruno Rocha</em></a>\n      </span>\n    </div>\n    <div class="five columns">\n      <em>\n\t<p>If you are still learning python, web2py is best tool by far</p>\n      </em>\n      <span class="right">\n\t<a href="http://twitter.com/#!/pbreit/status/48260905775017984"><em>pbreit</em></a>\n      </span>\n    </div>\n  </div>\n</div>\n    </div><!-- main -->\n    <div class="push"></div>\n  </div><!-- wrapper -->\n  <div class="footer">\n    <div class="container header">\n      <div class="sixteen columns">\n         <!-- this is default footer -->\n        <div class="footer-content">\n          Copyright \xa9 2011\n\t  - User communities in <a href="https://groups.google.com/forum/?fromgroups#!forum/web2py" target="_blank">English</a><a>, </a><a href="https://groups.google.com/forum/?fromgroups#!forum/web2py-fr" target="_blank">French</a>, <a href="https://groups.google.com/forum/?fromgroups#!forum/web2py-japan" target="_blank">Japanese</a>, <a href="https://groups.google.com/forum/?fromgroups#!forum/web2py-users-brazil" target="_blank">Portuguese</a>, and <a href="https://groups.google.com/forum/?fromgroups#!forum/web2py-usuarios" target="_blank">Spanish</a>.\n          <div style="float: right;">\n            <a href="http://www.web2py.com/" style="float: left; padding-right: 6px;">\n            <img style="padding-bottom: 0;" src="http://web2py.com/examples/static/images/poweredby.png">\n            </a>\n          </div>\n        </div>\n      </div>\n    </div><!-- container -->\n  </div><!-- footer -->\n  <!--[if lt IE 7 ]>\n\t<script src="http://web2py.com/examples/static/js/dd_belatedpng.js"></script>\n\t<script> DD_belatedPNG.fix(\'img, .png_bg\'); //fix any <img> or .png_bg background-images </script>\n\t<![endif]-->\n\n\n'
p2880
asbasbasbasbasbasbasbag49
(g65
g51
NtRp2881
(dp2882
g54
(dp2883
sg63
g59
sg56
(lp2884
g49
(g70
g51
NtRp2885
(dp2886
g54
(dp2887
g74
g75
ssg63
g2881
sg56
(lp2888
S'raw_args'
p2889
asbag49
(g70
g51
NtRp2890
(dp2891
g54
(dp2892
g81
g82
ssg63
g2881
sg56
(lp2893
S':'
asbag49
(g70
g51
NtRp2894
(dp2895
g54
(dp2896
sg63
g2881
sg56
(lp2897
g49
(g50
g51
NtRp2898
(dp2899
g54
(dp2900
g62
I5
ssg63
g2894
sg56
(lp2901
S'store'
p2902
asbasbasbag49
(g65
g51
NtRp2903
(dp2904
g54
(dp2905
sg63
g59
sg56
(lp2906
g49
(g70
g51
NtRp2907
(dp2908
g54
(dp2909
g74
g75
ssg63
g2903
sg56
(lp2910
S'url'
p2911
asbag49
(g70
g51
NtRp2912
(dp2913
g54
(dp2914
g81
g82
ssg63
g2903
sg56
(lp2915
S':'
asbag49
(g70
g51
NtRp2916
(dp2917
g54
(dp2918
sg63
g2903
sg56
(lp2919
g49
(g50
g51
NtRp2920
(dp2921
g54
(dp2922
g62
I5
ssg63
g2916
sg56
(lp2923
S'/inplace/default/edit_clone/store'
p2924
asbasbasbag49
(g65
g51
NtRp2925
(dp2926
g54
(dp2927
sg63
g59
sg56
(lp2928
g49
(g70
g51
NtRp2929
(dp2930
g54
(dp2931
g74
g75
ssg63
g2925
sg56
(lp2932
S'utcnow'
p2933
asbag49
(g70
g51
NtRp2934
(dp2935
g54
(dp2936
g81
g82
ssg63
g2925
sg56
(lp2937
S':'
asbag49
(g70
g51
NtRp2938
(dp2939
g54
(dp2940
sg63
g2925
sg56
(lp2941
g49
(g50
g51
NtRp2942
(dp2943
g54
(dp2944
g62
I5
ssg63
g2938
sg56
(lp2945
S'datetime.datetime(2011, 12, 11, 23, 10, 31, 887057)'
p2946
asbasbasbag49
(g65
g51
NtRp2947
(dp2948
g54
(dp2949
sg63
g59
sg56
(lp2950
g49
(g70
g51
NtRp2951
(dp2952
g54
(dp2953
g74
g75
ssg63
g2947
sg56
(lp2954
S'uuid'
p2955
asbag49
(g70
g51
NtRp2956
(dp2957
g54
(dp2958
g81
g82
ssg63
g2947
sg56
(lp2959
S':'
asbag49
(g70
g51
NtRp2960
(dp2961
g54
(dp2962
sg63
g2947
sg56
(lp2963
g49
(g50
g51
NtRp2964
(dp2965
g54
(dp2966
g62
I5
ssg63
g2960
sg56
(lp2967
S'inplace/127.0.0.1.2011-12-11.17-10-31.4f5e2044-ae56-4c51-b54d-c36d509a6774'
p2968
asbasbasbag49
(g65
g51
NtRp2969
(dp2970
g54
(dp2971
sg63
g59
sg56
(lp2972
g49
(g70
g51
NtRp2973
(dp2974
g54
(dp2975
g74
g75
ssg63
g2969
sg56
(lp2976
S'vars'
p2977
asbag49
(g70
g51
NtRp2978
(dp2979
g54
(dp2980
g81
g82
ssg63
g2969
sg56
(lp2981
S':'
asbag49
(g70
g51
NtRp2982
(dp2983
g54
(dp2984
sg63
g2969
sg56
(lp2985
g49
(g50
g51
NtRp2986
(dp2987
g54
(dp2988
g62
I5
ssg63
g2982
sg56
(lp2989
g49
(g58
g51
NtRp2990
(dp2991
g54
(dp2992
g62
I4
ssg63
Nsg56
(lp2993
g49
(g65
g51
NtRp2994
(dp2995
g54
(dp2996
sg63
g2990
sg56
(lp2997
g49
(g70
g51
NtRp2998
(dp2999
g54
(dp3000
g74
g75
ssg63
g2994
sg56
(lp3001
g2867
asbag49
(g70
g51
NtRp3002
(dp3003
g54
(dp3004
g81
g82
ssg63
g2994
sg56
(lp3005
S':'
asbag49
(g70
g51
NtRp3006
(dp3007
g54
(dp3008
sg63
g2994
sg56
(lp3009
g49
(g50
g51
NtRp3010
(dp3011
g54
(dp3012
g62
I4
ssg63
g3006
sg56
(lp3013
g2880
asbasbasbasbasbasbasbag49
(g65
g51
NtRp3014
(dp3015
g54
(dp3016
sg63
g59
sg56
(lp3017
g49
(g70
g51
NtRp3018
(dp3019
g54
(dp3020
g74
g75
ssg63
g3014
sg56
(lp3021
S'wsgi'
p3022
asbag49
(g70
g51
NtRp3023
(dp3024
g54
(dp3025
g81
g82
ssg63
g3014
sg56
(lp3026
S':'
asbag49
(g70
g51
NtRp3027
(dp3028
g54
(dp3029
sg63
g3014
sg56
(lp3030
g49
(g50
g51
NtRp3031
(dp3032
g54
(dp3033
g62
I5
ssg63
g3027
sg56
(lp3034
g49
(g58
g51
NtRp3035
(dp3036
g54
(dp3037
g62
I4
ssg63
Nsg56
(lp3038
g49
(g65
g51
NtRp3039
(dp3040
g54
(dp3041
sg63
g3035
sg56
(lp3042
g49
(g70
g51
NtRp3043
(dp3044
g54
(dp3045
g74
g75
ssg63
g3039
sg56
(lp3046
S'environ'
p3047
asbag49
(g70
g51
NtRp3048
(dp3049
g54
(dp3050
g81
g82
ssg63
g3039
sg56
(lp3051
S':'
asbag49
(g70
g51
NtRp3052
(dp3053
g54
(dp3054
sg63
g3039
sg56
(lp3055
g49
(g50
g51
NtRp3056
(dp3057
g54
(dp3058
g62
I4
ssg63
g3052
sg56
(lp3059
g49
(g58
g51
NtRp3060
(dp3061
g54
(dp3062
g62
I3
ssg63
Nsg56
(lp3063
g49
(g65
g51
NtRp3064
(dp3065
g54
(dp3066
sg63
g3060
sg56
(lp3067
g49
(g70
g51
NtRp3068
(dp3069
g54
(dp3070
g74
g75
ssg63
g3064
sg56
(lp3071
S'CONTENT_LENGTH'
p3072
asbag49
(g70
g51
NtRp3073
(dp3074
g54
(dp3075
g81
g82
ssg63
g3064
sg56
(lp3076
S':'
asbag49
(g70
g51
NtRp3077
(dp3078
g54
(dp3079
sg63
g3064
sg56
(lp3080
g49
(g50
g51
NtRp3081
(dp3082
g54
(dp3083
g62
I3
ssg63
g3077
sg56
(lp3084
g1377
asbasbasbag49
(g65
g51
NtRp3085
(dp3086
g54
(dp3087
sg63
g3060
sg56
(lp3088
g49
(g70
g51
NtRp3089
(dp3090
g54
(dp3091
g74
g75
ssg63
g3085
sg56
(lp3092
S'CONTENT_TYPE'
p3093
asbag49
(g70
g51
NtRp3094
(dp3095
g54
(dp3096
g81
g82
ssg63
g3085
sg56
(lp3097
S':'
asbag49
(g70
g51
NtRp3098
(dp3099
g54
(dp3100
sg63
g3085
sg56
(lp3101
g49
(g50
g51
NtRp3102
(dp3103
g54
(dp3104
g62
I3
ssg63
g3098
sg56
(lp3105
g1399
asbasbasbag49
(g65
g51
NtRp3106
(dp3107
g54
(dp3108
sg63
g3060
sg56
(lp3109
g49
(g70
g51
NtRp3110
(dp3111
g54
(dp3112
g74
g75
ssg63
g3106
sg56
(lp3113
S'HTTP_ACCEPT'
p3114
asbag49
(g70
g51
NtRp3115
(dp3116
g54
(dp3117
g81
g82
ssg63
g3106
sg56
(lp3118
S':'
asbag49
(g70
g51
NtRp3119
(dp3120
g54
(dp3121
sg63
g3106
sg56
(lp3122
g49
(g50
g51
NtRp3123
(dp3124
g54
(dp3125
g62
I3
ssg63
g3119
sg56
(lp3126
g1487
asbasbasbag49
(g65
g51
NtRp3127
(dp3128
g54
(dp3129
sg63
g3060
sg56
(lp3130
g49
(g70
g51
NtRp3131
(dp3132
g54
(dp3133
g74
g75
ssg63
g3127
sg56
(lp3134
S'HTTP_ACCEPT_CHARSET'
p3135
asbag49
(g70
g51
NtRp3136
(dp3137
g54
(dp3138
g81
g82
ssg63
g3127
sg56
(lp3139
S':'
asbag49
(g70
g51
NtRp3140
(dp3141
g54
(dp3142
sg63
g3127
sg56
(lp3143
g49
(g50
g51
NtRp3144
(dp3145
g54
(dp3146
g62
I3
ssg63
g3140
sg56
(lp3147
g1509
asbasbasbag49
(g65
g51
NtRp3148
(dp3149
g54
(dp3150
sg63
g3060
sg56
(lp3151
g49
(g70
g51
NtRp3152
(dp3153
g54
(dp3154
g74
g75
ssg63
g3148
sg56
(lp3155
S'HTTP_ACCEPT_ENCODING'
p3156
asbag49
(g70
g51
NtRp3157
(dp3158
g54
(dp3159
g81
g82
ssg63
g3148
sg56
(lp3160
S':'
asbag49
(g70
g51
NtRp3161
(dp3162
g54
(dp3163
sg63
g3148
sg56
(lp3164
g49
(g50
g51
NtRp3165
(dp3166
g54
(dp3167
g62
I3
ssg63
g3161
sg56
(lp3168
g1531
asbasbasbag49
(g65
g51
NtRp3169
(dp3170
g54
(dp3171
sg63
g3060
sg56
(lp3172
g49
(g70
g51
NtRp3173
(dp3174
g54
(dp3175
g74
g75
ssg63
g3169
sg56
(lp3176
S'HTTP_ACCEPT_LANGUAGE'
p3177
asbag49
(g70
g51
NtRp3178
(dp3179
g54
(dp3180
g81
g82
ssg63
g3169
sg56
(lp3181
S':'
asbag49
(g70
g51
NtRp3182
(dp3183
g54
(dp3184
sg63
g3169
sg56
(lp3185
g49
(g50
g51
NtRp3186
(dp3187
g54
(dp3188
g62
I3
ssg63
g3182
sg56
(lp3189
g1553
asbasbasbag49
(g65
g51
NtRp3190
(dp3191
g54
(dp3192
sg63
g3060
sg56
(lp3193
g49
(g70
g51
NtRp3194
(dp3195
g54
(dp3196
g74
g75
ssg63
g3190
sg56
(lp3197
S'HTTP_CONNECTION'
p3198
asbag49
(g70
g51
NtRp3199
(dp3200
g54
(dp3201
g81
g82
ssg63
g3190
sg56
(lp3202
S':'
asbag49
(g70
g51
NtRp3203
(dp3204
g54
(dp3205
sg63
g3190
sg56
(lp3206
g49
(g50
g51
NtRp3207
(dp3208
g54
(dp3209
g62
I3
ssg63
g3203
sg56
(lp3210
g1575
asbasbasbag49
(g65
g51
NtRp3211
(dp3212
g54
(dp3213
sg63
g3060
sg56
(lp3214
g49
(g70
g51
NtRp3215
(dp3216
g54
(dp3217
g74
g75
ssg63
g3211
sg56
(lp3218
S'HTTP_CONTENT_LENGTH'
p3219
asbag49
(g70
g51
NtRp3220
(dp3221
g54
(dp3222
g81
g82
ssg63
g3211
sg56
(lp3223
S':'
asbag49
(g70
g51
NtRp3224
(dp3225
g54
(dp3226
sg63
g3211
sg56
(lp3227
g49
(g50
g51
NtRp3228
(dp3229
g54
(dp3230
g62
I3
ssg63
g3224
sg56
(lp3231
g1377
asbasbasbag49
(g65
g51
NtRp3232
(dp3233
g54
(dp3234
sg63
g3060
sg56
(lp3235
g49
(g70
g51
NtRp3236
(dp3237
g54
(dp3238
g74
g75
ssg63
g3232
sg56
(lp3239
S'HTTP_CONTENT_TYPE'
p3240
asbag49
(g70
g51
NtRp3241
(dp3242
g54
(dp3243
g81
g82
ssg63
g3232
sg56
(lp3244
S':'
asbag49
(g70
g51
NtRp3245
(dp3246
g54
(dp3247
sg63
g3232
sg56
(lp3248
g49
(g50
g51
NtRp3249
(dp3250
g54
(dp3251
g62
I3
ssg63
g3245
sg56
(lp3252
g1399
asbasbasbag49
(g65
g51
NtRp3253
(dp3254
g54
(dp3255
sg63
g3060
sg56
(lp3256
g49
(g70
g51
NtRp3257
(dp3258
g54
(dp3259
g74
g75
ssg63
g3253
sg56
(lp3260
S'HTTP_COOKIE'
p3261
asbag49
(g70
g51
NtRp3262
(dp3263
g54
(dp3264
g81
g82
ssg63
g3253
sg56
(lp3265
S':'
asbag49
(g70
g51
NtRp3266
(dp3267
g54
(dp3268
sg63
g3253
sg56
(lp3269
g49
(g50
g51
NtRp3270
(dp3271
g54
(dp3272
g62
I3
ssg63
g3266
sg56
(lp3273
g1639
asbasbasbag49
(g65
g51
NtRp3274
(dp3275
g54
(dp3276
sg63
g3060
sg56
(lp3277
g49
(g70
g51
NtRp3278
(dp3279
g54
(dp3280
g74
g75
ssg63
g3274
sg56
(lp3281
S'HTTP_HOST'
p3282
asbag49
(g70
g51
NtRp3283
(dp3284
g54
(dp3285
g81
g82
ssg63
g3274
sg56
(lp3286
S':'
asbag49
(g70
g51
NtRp3287
(dp3288
g54
(dp3289
sg63
g3274
sg56
(lp3290
g49
(g50
g51
NtRp3291
(dp3292
g54
(dp3293
g62
I3
ssg63
g3287
sg56
(lp3294
g1661
asbasbasbag49
(g65
g51
NtRp3295
(dp3296
g54
(dp3297
sg63
g3060
sg56
(lp3298
g49
(g70
g51
NtRp3299
(dp3300
g54
(dp3301
g74
g75
ssg63
g3295
sg56
(lp3302
S'HTTP_ORIGIN'
p3303
asbag49
(g70
g51
NtRp3304
(dp3305
g54
(dp3306
g81
g82
ssg63
g3295
sg56
(lp3307
S':'
asbag49
(g70
g51
NtRp3308
(dp3309
g54
(dp3310
sg63
g3295
sg56
(lp3311
g49
(g50
g51
NtRp3312
(dp3313
g54
(dp3314
g62
I3
ssg63
g3308
sg56
(lp3315
g1683
asbasbasbag49
(g65
g51
NtRp3316
(dp3317
g54
(dp3318
sg63
g3060
sg56
(lp3319
g49
(g70
g51
NtRp3320
(dp3321
g54
(dp3322
g74
g75
ssg63
g3316
sg56
(lp3323
S'HTTP_REFERER'
p3324
asbag49
(g70
g51
NtRp3325
(dp3326
g54
(dp3327
g81
g82
ssg63
g3316
sg56
(lp3328
S':'
asbag49
(g70
g51
NtRp3329
(dp3330
g54
(dp3331
sg63
g3316
sg56
(lp3332
g49
(g50
g51
NtRp3333
(dp3334
g54
(dp3335
g62
I3
ssg63
g3329
sg56
(lp3336
g1705
asbasbasbag49
(g65
g51
NtRp3337
(dp3338
g54
(dp3339
sg63
g3060
sg56
(lp3340
g49
(g70
g51
NtRp3341
(dp3342
g54
(dp3343
g74
g75
ssg63
g3337
sg56
(lp3344
S'HTTP_USER_AGENT'
p3345
asbag49
(g70
g51
NtRp3346
(dp3347
g54
(dp3348
g81
g82
ssg63
g3337
sg56
(lp3349
S':'
asbag49
(g70
g51
NtRp3350
(dp3351
g54
(dp3352
sg63
g3337
sg56
(lp3353
g49
(g50
g51
NtRp3354
(dp3355
g54
(dp3356
g62
I3
ssg63
g3350
sg56
(lp3357
g1727
asbasbasbag49
(g65
g51
NtRp3358
(dp3359
g54
(dp3360
sg63
g3060
sg56
(lp3361
g49
(g70
g51
NtRp3362
(dp3363
g54
(dp3364
g74
g75
ssg63
g3358
sg56
(lp3365
S'HTTP_X_REQUESTED_WITH'
p3366
asbag49
(g70
g51
NtRp3367
(dp3368
g54
(dp3369
g81
g82
ssg63
g3358
sg56
(lp3370
S':'
asbag49
(g70
g51
NtRp3371
(dp3372
g54
(dp3373
sg63
g3358
sg56
(lp3374
g49
(g50
g51
NtRp3375
(dp3376
g54
(dp3377
g62
I3
ssg63
g3371
sg56
(lp3378
g1749
asbasbasbag49
(g65
g51
NtRp3379
(dp3380
g54
(dp3381
sg63
g3060
sg56
(lp3382
g49
(g70
g51
NtRp3383
(dp3384
g54
(dp3385
g74
g75
ssg63
g3379
sg56
(lp3386
S'PATH_INFO'
p3387
asbag49
(g70
g51
NtRp3388
(dp3389
g54
(dp3390
g81
g82
ssg63
g3379
sg56
(lp3391
S':'
asbag49
(g70
g51
NtRp3392
(dp3393
g54
(dp3394
sg63
g3379
sg56
(lp3395
g49
(g50
g51
NtRp3396
(dp3397
g54
(dp3398
g62
I3
ssg63
g3392
sg56
(lp3399
g1813
asbasbasbag49
(g65
g51
NtRp3400
(dp3401
g54
(dp3402
sg63
g3060
sg56
(lp3403
g49
(g70
g51
NtRp3404
(dp3405
g54
(dp3406
g74
g75
ssg63
g3400
sg56
(lp3407
S'QUERY_STRING'
p3408
asbag49
(g70
g51
NtRp3409
(dp3410
g54
(dp3411
g81
g82
ssg63
g3400
sg56
(lp3412
S':'
asbag49
(g70
g51
NtRp3413
(dp3414
g54
(dp3415
sg63
g3400
sg56
(lp3416
g49
(g50
g51
NtRp3417
(dp3418
g54
(dp3419
g62
I3
ssg63
g3413
sg56
(lp3420
S''
asbasbasbag49
(g65
g51
NtRp3421
(dp3422
g54
(dp3423
sg63
g3060
sg56
(lp3424
g49
(g70
g51
NtRp3425
(dp3426
g54
(dp3427
g74
g75
ssg63
g3421
sg56
(lp3428
S'REMOTE_ADDR'
p3429
asbag49
(g70
g51
NtRp3430
(dp3431
g54
(dp3432
g81
g82
ssg63
g3421
sg56
(lp3433
S':'
asbag49
(g70
g51
NtRp3434
(dp3435
g54
(dp3436
sg63
g3421
sg56
(lp3437
g49
(g50
g51
NtRp3438
(dp3439
g54
(dp3440
g62
I3
ssg63
g3434
sg56
(lp3441
g195
asbasbasbag49
(g65
g51
NtRp3442
(dp3443
g54
(dp3444
sg63
g3060
sg56
(lp3445
g49
(g70
g51
NtRp3446
(dp3447
g54
(dp3448
g74
g75
ssg63
g3442
sg56
(lp3449
S'REMOTE_PORT'
p3450
asbag49
(g70
g51
NtRp3451
(dp3452
g54
(dp3453
g81
g82
ssg63
g3442
sg56
(lp3454
S':'
asbag49
(g70
g51
NtRp3455
(dp3456
g54
(dp3457
sg63
g3442
sg56
(lp3458
g49
(g50
g51
NtRp3459
(dp3460
g54
(dp3461
g62
I3
ssg63
g3455
sg56
(lp3462
g1877
asbasbasbag49
(g65
g51
NtRp3463
(dp3464
g54
(dp3465
sg63
g3060
sg56
(lp3466
g49
(g70
g51
NtRp3467
(dp3468
g54
(dp3469
g74
g75
ssg63
g3463
sg56
(lp3470
S'REQUEST_METHOD'
p3471
asbag49
(g70
g51
NtRp3472
(dp3473
g54
(dp3474
g81
g82
ssg63
g3463
sg56
(lp3475
S':'
asbag49
(g70
g51
NtRp3476
(dp3477
g54
(dp3478
sg63
g3463
sg56
(lp3479
g49
(g50
g51
NtRp3480
(dp3481
g54
(dp3482
g62
I3
ssg63
g3476
sg56
(lp3483
g1899
asbasbasbag49
(g65
g51
NtRp3484
(dp3485
g54
(dp3486
sg63
g3060
sg56
(lp3487
g49
(g70
g51
NtRp3488
(dp3489
g54
(dp3490
g74
g75
ssg63
g3484
sg56
(lp3491
S'SCRIPT_NAME'
p3492
asbag49
(g70
g51
NtRp3493
(dp3494
g54
(dp3495
g81
g82
ssg63
g3484
sg56
(lp3496
S':'
asbag49
(g70
g51
NtRp3497
(dp3498
g54
(dp3499
sg63
g3484
sg56
(lp3500
g49
(g50
g51
NtRp3501
(dp3502
g54
(dp3503
g62
I3
ssg63
g3497
sg56
(lp3504
S''
asbasbasbag49
(g65
g51
NtRp3505
(dp3506
g54
(dp3507
sg63
g3060
sg56
(lp3508
g49
(g70
g51
NtRp3509
(dp3510
g54
(dp3511
g74
g75
ssg63
g3505
sg56
(lp3512
S'SERVER_NAME'
p3513
asbag49
(g70
g51
NtRp3514
(dp3515
g54
(dp3516
g81
g82
ssg63
g3505
sg56
(lp3517
S':'
asbag49
(g70
g51
NtRp3518
(dp3519
g54
(dp3520
sg63
g3505
sg56
(lp3521
g49
(g50
g51
NtRp3522
(dp3523
g54
(dp3524
g62
I3
ssg63
g3518
sg56
(lp3525
g1942
asbasbasbag49
(g65
g51
NtRp3526
(dp3527
g54
(dp3528
sg63
g3060
sg56
(lp3529
g49
(g70
g51
NtRp3530
(dp3531
g54
(dp3532
g74
g75
ssg63
g3526
sg56
(lp3533
S'SERVER_PORT'
p3534
asbag49
(g70
g51
NtRp3535
(dp3536
g54
(dp3537
g81
g82
ssg63
g3526
sg56
(lp3538
S':'
asbag49
(g70
g51
NtRp3539
(dp3540
g54
(dp3541
sg63
g3526
sg56
(lp3542
g49
(g50
g51
NtRp3543
(dp3544
g54
(dp3545
g62
I3
ssg63
g3539
sg56
(lp3546
g1964
asbasbasbag49
(g65
g51
NtRp3547
(dp3548
g54
(dp3549
sg63
g3060
sg56
(lp3550
g49
(g70
g51
NtRp3551
(dp3552
g54
(dp3553
g74
g75
ssg63
g3547
sg56
(lp3554
S'SERVER_PROTOCOL'
p3555
asbag49
(g70
g51
NtRp3556
(dp3557
g54
(dp3558
g81
g82
ssg63
g3547
sg56
(lp3559
S':'
asbag49
(g70
g51
NtRp3560
(dp3561
g54
(dp3562
sg63
g3547
sg56
(lp3563
g49
(g50
g51
NtRp3564
(dp3565
g54
(dp3566
g62
I3
ssg63
g3560
sg56
(lp3567
g1986
asbasbasbag49
(g65
g51
NtRp3568
(dp3569
g54
(dp3570
sg63
g3060
sg56
(lp3571
g49
(g70
g51
NtRp3572
(dp3573
g54
(dp3574
g74
g75
ssg63
g3568
sg56
(lp3575
S'SERVER_SOFTWARE'
p3576
asbag49
(g70
g51
NtRp3577
(dp3578
g54
(dp3579
g81
g82
ssg63
g3568
sg56
(lp3580
S':'
asbag49
(g70
g51
NtRp3581
(dp3582
g54
(dp3583
sg63
g3568
sg56
(lp3584
g49
(g50
g51
NtRp3585
(dp3586
g54
(dp3587
g62
I3
ssg63
g3581
sg56
(lp3588
g2008
asbasbasbag49
(g65
g51
NtRp3589
(dp3590
g54
(dp3591
sg63
g3060
sg56
(lp3592
g49
(g70
g51
NtRp3593
(dp3594
g54
(dp3595
g74
g75
ssg63
g3589
sg56
(lp3596
S'wsgi.errors'
p3597
asbag49
(g70
g51
NtRp3598
(dp3599
g54
(dp3600
g81
g82
ssg63
g3589
sg56
(lp3601
S':'
asbag49
(g70
g51
NtRp3602
(dp3603
g54
(dp3604
sg63
g3589
sg56
(lp3605
g49
(g50
g51
NtRp3606
(dp3607
g54
(dp3608
g62
I3
ssg63
g3602
sg56
(lp3609
S"<open file '<stderr>', mode 'w' at 0x1620b0>"
p3610
asbasbasbag49
(g65
g51
NtRp3611
(dp3612
g54
(dp3613
sg63
g3060
sg56
(lp3614
g49
(g70
g51
NtRp3615
(dp3616
g54
(dp3617
g74
g75
ssg63
g3611
sg56
(lp3618
S'wsgi.file_wrapper'
p3619
asbag49
(g70
g51
NtRp3620
(dp3621
g54
(dp3622
g81
g82
ssg63
g3611
sg56
(lp3623
S':'
asbag49
(g70
g51
NtRp3624
(dp3625
g54
(dp3626
sg63
g3611
sg56
(lp3627
g49
(g50
g51
NtRp3628
(dp3629
g54
(dp3630
g62
I3
ssg63
g3624
sg56
(lp3631
S'<class wsgiref.util.FileWrapper at 0x7c2840>'
p3632
asbasbasbag49
(g65
g51
NtRp3633
(dp3634
g54
(dp3635
sg63
g3060
sg56
(lp3636
g49
(g70
g51
NtRp3637
(dp3638
g54
(dp3639
g74
g75
ssg63
g3633
sg56
(lp3640
S'wsgi.input'
p3641
asbag49
(g70
g51
NtRp3642
(dp3643
g54
(dp3644
g81
g82
ssg63
g3633
sg56
(lp3645
S':'
asbag49
(g70
g51
NtRp3646
(dp3647
g54
(dp3648
sg63
g3633
sg56
(lp3649
g49
(g50
g51
NtRp3650
(dp3651
g54
(dp3652
g62
I3
ssg63
g3646
sg56
(lp3653
S"<open file '<fdopen>', mode 'w+b' at 0x1c7c8d8>"
p3654
asbasbasbag49
(g65
g51
NtRp3655
(dp3656
g54
(dp3657
sg63
g3060
sg56
(lp3658
g49
(g70
g51
NtRp3659
(dp3660
g54
(dp3661
g74
g75
ssg63
g3655
sg56
(lp3662
S'wsgi.multiprocess'
p3663
asbag49
(g70
g51
NtRp3664
(dp3665
g54
(dp3666
g81
g82
ssg63
g3655
sg56
(lp3667
S':'
asbag49
(g70
g51
NtRp3668
(dp3669
g54
(dp3670
sg63
g3655
sg56
(lp3671
g49
(g50
g51
NtRp3672
(dp3673
g54
(dp3674
g62
I3
ssg63
g3668
sg56
(lp3675
g1443
asbasbasbag49
(g65
g51
NtRp3676
(dp3677
g54
(dp3678
sg63
g3060
sg56
(lp3679
g49
(g70
g51
NtRp3680
(dp3681
g54
(dp3682
g74
g75
ssg63
g3676
sg56
(lp3683
S'wsgi.multithread'
p3684
asbag49
(g70
g51
NtRp3685
(dp3686
g54
(dp3687
g81
g82
ssg63
g3676
sg56
(lp3688
S':'
asbag49
(g70
g51
NtRp3689
(dp3690
g54
(dp3691
sg63
g3676
sg56
(lp3692
g49
(g50
g51
NtRp3693
(dp3694
g54
(dp3695
g62
I3
ssg63
g3689
sg56
(lp3696
g92
asbasbasbag49
(g65
g51
NtRp3697
(dp3698
g54
(dp3699
sg63
g3060
sg56
(lp3700
g49
(g70
g51
NtRp3701
(dp3702
g54
(dp3703
g74
g75
ssg63
g3697
sg56
(lp3704
S'wsgi.run_once'
p3705
asbag49
(g70
g51
NtRp3706
(dp3707
g54
(dp3708
g81
g82
ssg63
g3697
sg56
(lp3709
S':'
asbag49
(g70
g51
NtRp3710
(dp3711
g54
(dp3712
sg63
g3697
sg56
(lp3713
g49
(g50
g51
NtRp3714
(dp3715
g54
(dp3716
g62
I3
ssg63
g3710
sg56
(lp3717
g1443
asbasbasbag49
(g65
g51
NtRp3718
(dp3719
g54
(dp3720
sg63
g3060
sg56
(lp3721
g49
(g70
g51
NtRp3722
(dp3723
g54
(dp3724
g74
g75
ssg63
g3718
sg56
(lp3725
S'wsgi.url_scheme'
p3726
asbag49
(g70
g51
NtRp3727
(dp3728
g54
(dp3729
g81
g82
ssg63
g3718
sg56
(lp3730
S':'
asbag49
(g70
g51
NtRp3731
(dp3732
g54
(dp3733
sg63
g3718
sg56
(lp3734
g49
(g50
g51
NtRp3735
(dp3736
g54
(dp3737
g62
I3
ssg63
g3731
sg56
(lp3738
g2290
asbasbasbag49
(g65
g51
NtRp3739
(dp3740
g54
(dp3741
sg63
g3060
sg56
(lp3742
g49
(g70
g51
NtRp3743
(dp3744
g54
(dp3745
g74
g75
ssg63
g3739
sg56
(lp3746
S'wsgi.version'
p3747
asbag49
(g70
g51
NtRp3748
(dp3749
g54
(dp3750
g81
g82
ssg63
g3739
sg56
(lp3751
S':'
asbag49
(g70
g51
NtRp3752
(dp3753
g54
(dp3754
sg63
g3739
sg56
(lp3755
g49
(g50
g51
NtRp3756
(dp3757
g54
(dp3758
g62
I3
ssg63
g3752
sg56
(lp3759
S'1'
asbasbasbasbasbasbasbasbasbasbasbasbasbsS'frames'
p3760
(lp3761
(dp3762
S'file'
p3763
S'/Users/mdipierro/Dropbox/web2py/gluon/restricted.py'
p3764
sS'dump'
p3765
(dp3766
S'environment'
p3767
S"{'A': <class 'gluon.html.A'>, 'Auth': <class 'gluon.tools.Auth'>, 'B': <class 'gluon.html.B'>, 'BEAUTIFY': <class 'gluon.html.BEAUTIFY'>, 'BODY': <class 'gluon.html.BODY'>, 'BR': <class 'gluon.html.BR'>, 'BUTTON': <class 'gluon.html.BUTTON'>, 'CAT': <class 'gluon.html.CAT'>, 'CENTER': <class 'gluon.html.CENTER'>, 'CLEANUP': <class 'gluon.validators.CLEANUP'>, ...}"
p3768
sS'ccode'
p3769
S'<code object <module> at 0x112c8d8, file "/Users...ications/inplace/controllers/default.py", line 4>'
p3770
ssS'lnum'
p3771
I204
sS'lines'
p3772
(dp3773
I199
S'    try:'
p3774
sI200
S'        if type(code) == types.CodeType:'
p3775
sI201
S'            ccode = code'
p3776
sI202
S'        else:'
p3777
sI203
S'            ccode = compile2(code,layer)'
p3778
sI204
S'        exec ccode in environment'
p3779
sI205
S'    except HTTP:'
p3780
sI206
S'        raise'
p3781
sI207
S'    except RestrictedError:'
p3782
sI208
S'        # do not encapsulate (obfuscate) the original RestrictedError'
p3783
ssS'call'
p3784
S"(code='# -*- coding: utf-8 -*-\\n# developed by Massimo D...s()\\n\\nresponse._vars=response._caller(edit_clone)\\n', environment={'A': <class 'gluon.html.A'>, 'Auth': <class 'gluon.tools.Auth'>, 'B': <class 'gluon.html.B'>, 'BEAUTIFY': <class 'gluon.html.BEAUTIFY'>, 'BODY': <class 'gluon.html.BODY'>, 'BR': <class 'gluon.html.BR'>, 'BUTTON': <class 'gluon.html.BUTTON'>, 'CAT': <class 'gluon.html.CAT'>, 'CENTER': <class 'gluon.html.CENTER'>, 'CLEANUP': <class 'gluon.validators.CLEANUP'>, ...}, layer='/Users/mdipierro/Dropbox/web2py/applications/inplace/controllers/default.py')"
p3785
sS'func'
p3786
S'restricted'
p3787
sa(dp3788
g3763
S'/Users/mdipierro/Dropbox/web2py/applications/inplace/controllers/default.py'
p3789
sg3765
(dp3790
sg3771
I100
sg3772
(dp3791
I96
S'    form = SQLFORM(db.cms_folder,ofolder,deletable=True)\\'
p3792
sI97
S"        .process(next=URL('folder',args=folder.id))"
p3793
sI98
S'    return locals()'
p3794
sI89
S'@auth.requires_login()'
p3795
sI90
S'def edit_folder():'
p3796
sI91
S'    folder = db.cms_folder(request.args(0),created_by=auth.user.id)'
p3797
sI92
S'    db.cms_folder.parent_folder.default=folder.id'
p3798
sI93
S'    db.cms_folder.name.requires=IS_NOT_IN_DB('
p3799
sI94
S"        db(db.cms_folder.parent_folder==folder.id),'cms_folder.name')"
p3800
sI95
S'    ofolder = db.cms_folder(request.args(1),created_by=auth.user.id)'
p3801
ssg3784
S'()'
p3802
sg3786
S'<module>'
p3803
sa(dp3804
g3763
S'/Users/mdipierro/Dropbox/web2py/gluon/globals.py'
p3805
sg3765
(dp3806
S'self'
p3807
S'undefined'
p3808
sS'f'
S'<function edit_clone at 0x1f6d930>'
p3809
ssg3771
I172
sg3772
(dp3810
I167
S'        self.meta = Storage()      # used by web2py_ajax.html'
p3811
sI168
S'        self.menu = []             # used by the default view layout'
p3812
sI169
S'        self.files = []            # used by web2py_ajax.html'
p3813
sI170
S'        self.generic_patterns = [] # patterns to allow generic views'
p3814
sI171
S'        self._vars = None'
p3815
sI172
S'        self._caller = lambda f: f()'
p3816
sI173
S'        self._view_environment = None'
p3817
sI174
S'        self._custom_commit = None'
p3818
sI175
S'        self._custom_rollback = None'
p3819
sI176
S''
ssg3784
S'(f=<function edit_clone at 0x1f6d930>)'
p3820
sg3786
S'<lambda>'
p3821
sa(dp3822
g3763
S'/Users/mdipierro/Dropbox/web2py/gluon/tools.py'
p3823
sg3765
(dp3824
S'action'
p3825
S'<function edit_clone at 0x1f6d970>'
p3826
sS'a'
S'()'
p3827
sS'b'
g39
ssg3771
I2533
sg3772
(dp3828
I2528
S'                # otherwise case 3 would be ok.'
p3829
sI2529
S'                if not (callable(condition) and condition() == True) and not condition == True:'
p3830
sI2530
S'                    current.session.flash = self.messages.access_denied'
p3831
sI2531
S'                    return call_or_redirect('
p3832
sI2532
S'                        self.settings.on_failed_authorization)'
p3833
sI2533
S'                return action(*a, **b)'
p3834
sI2534
S'            f.__doc__ = action.__doc__'
p3835
sI2535
S'            f.__name__ = action.__name__'
p3836
sI2536
S'            f.__dict__.update(action.__dict__)'
p3837
sI2537
S'            return f'
p3838
ssg3784
S'(*a=(), **b={})'
p3839
sg3786
S'f'
sa(dp3840
g3763
S'/Users/mdipierro/Dropbox/web2py/applications/inplace/controllers/default.py'
p3841
sg3765
(dp3842
S'session.new_html'
p3843
S"'\\n<!DOCTYPE html>\\n<!-- paulirish.com/2008/conditi...mages </script>\\n\\t<![endif]-->\\n  \\n</body>\\n</html>\\n'"
p3844
sS'global session'
p3845
S"<Storage {'new_html': '\\n<!DOCTYPE html>\\n<!-- p...login]': '3234f121-3c4f-4b0b-99c3-a248f4409a2f'}>"
p3846
sS'html'
p3847
g3808
sS'session.html'
p3848
S"'\\n<!DOCTYPE html>\\n<!-- paulirish.com/2008/conditi...mages </script>\\n\\t<![endif]-->\\n  \\n</body>\\n</html>\\n'"
p3849
sS'session.html.split'
p3850
S'<built-in method split of str object at 0x248ae00>'
p3851
ssg3771
I31
sg3772
(dp3852
I32
S"        return 'ok'"
p3853
sI33
S'    url = request.vars.url'
p3854
sI34
S'    try:'
p3855
sI35
S'        html = urllib.urlopen(url).read()'
p3856
sI26
S'    session._unlock(response)'
p3857
sI27
S'    import urllib,re'
p3858
sI28
S"    if request.args(0)=='post':"
p3859
sI29
S"        return request.vars.value or ''"
p3860
sI30
S"    elif request.args(0)=='store':"
p3861
sI31
S"        session.new_html = session.html.split('<body')[0]+'<body>'+html+'</body></html>'"
p3862
ssg3784
S'()'
p3863
sg3786
S'edit_clone'
p3864
sasS'pyver'
p3865
S'Python 2.5.4: /usr/bin/python2.5'
p3866
sS'session'
p3867
g49
(g50
g51
NtRp3868
(dp3869
g54
(dp3870
sg56
(lp3871
g49
(g58
g51
NtRp3872
(dp3873
g54
(dp3874
g62
I5
ssg63
Nsg56
(lp3875
g49
(g65
g51
NtRp3876
(dp3877
g54
(dp3878
sg63
g3872
sg56
(lp3879
g49
(g70
g51
NtRp3880
(dp3881
g54
(dp3882
g74
g75
ssg63
g3876
sg56
(lp3883
S'auth'
p3884
asbag49
(g70
g51
NtRp3885
(dp3886
g54
(dp3887
g81
g82
ssg63
g3876
sg56
(lp3888
S':'
asbag49
(g70
g51
NtRp3889
(dp3890
g54
(dp3891
sg63
g3876
sg56
(lp3892
g49
(g50
g51
NtRp3893
(dp3894
g54
(dp3895
g62
I5
ssg63
g3889
sg56
(lp3896
g49
(g58
g51
NtRp3897
(dp3898
g54
(dp3899
g62
I4
ssg63
Nsg56
(lp3900
g49
(g65
g51
NtRp3901
(dp3902
g54
(dp3903
sg63
g3897
sg56
(lp3904
g49
(g70
g51
NtRp3905
(dp3906
g54
(dp3907
g74
g75
ssg63
g3901
sg56
(lp3908
S'expiration'
p3909
asbag49
(g70
g51
NtRp3910
(dp3911
g54
(dp3912
g81
g82
ssg63
g3901
sg56
(lp3913
S':'
asbag49
(g70
g51
NtRp3914
(dp3915
g54
(dp3916
sg63
g3901
sg56
(lp3917
g49
(g50
g51
NtRp3918
(dp3919
g54
(dp3920
g62
I4
ssg63
g3914
sg56
(lp3921
S'3600'
p3922
asbasbasbag49
(g65
g51
NtRp3923
(dp3924
g54
(dp3925
sg63
g3897
sg56
(lp3926
g49
(g70
g51
NtRp3927
(dp3928
g54
(dp3929
g74
g75
ssg63
g3923
sg56
(lp3930
S'hmac_key'
p3931
asbag49
(g70
g51
NtRp3932
(dp3933
g54
(dp3934
g81
g82
ssg63
g3923
sg56
(lp3935
S':'
asbag49
(g70
g51
NtRp3936
(dp3937
g54
(dp3938
sg63
g3923
sg56
(lp3939
g49
(g50
g51
NtRp3940
(dp3941
g54
(dp3942
g62
I4
ssg63
g3936
sg56
(lp3943
S'c624a9b0-4bfe-4ee3-8a28-a5bb6f563b19'
p3944
asbasbasbag49
(g65
g51
NtRp3945
(dp3946
g54
(dp3947
sg63
g3897
sg56
(lp3948
g49
(g70
g51
NtRp3949
(dp3950
g54
(dp3951
g74
g75
ssg63
g3945
sg56
(lp3952
S'last_visit'
p3953
asbag49
(g70
g51
NtRp3954
(dp3955
g54
(dp3956
g81
g82
ssg63
g3945
sg56
(lp3957
S':'
asbag49
(g70
g51
NtRp3958
(dp3959
g54
(dp3960
sg63
g3945
sg56
(lp3961
g49
(g50
g51
NtRp3962
(dp3963
g54
(dp3964
g62
I4
ssg63
g3958
sg56
(lp3965
S'datetime.datetime(2011, 12, 11, 17, 9, 2, 695099)'
p3966
asbasbasbag49
(g65
g51
NtRp3967
(dp3968
g54
(dp3969
sg63
g3897
sg56
(lp3970
g49
(g70
g51
NtRp3971
(dp3972
g54
(dp3973
g74
g75
ssg63
g3967
sg56
(lp3974
S'user'
p3975
asbag49
(g70
g51
NtRp3976
(dp3977
g54
(dp3978
g81
g82
ssg63
g3967
sg56
(lp3979
S':'
asbag49
(g70
g51
NtRp3980
(dp3981
g54
(dp3982
sg63
g3967
sg56
(lp3983
g49
(g50
g51
NtRp3984
(dp3985
g54
(dp3986
g62
I4
ssg63
g3980
sg56
(lp3987
g49
(g58
g51
NtRp3988
(dp3989
g54
(dp3990
g62
I3
ssg63
Nsg56
(lp3991
g49
(g65
g51
NtRp3992
(dp3993
g54
(dp3994
sg63
g3988
sg56
(lp3995
g49
(g70
g51
NtRp3996
(dp3997
g54
(dp3998
g74
g75
ssg63
g3992
sg56
(lp3999
S'email'
p4000
asbag49
(g70
g51
NtRp4001
(dp4002
g54
(dp4003
g81
g82
ssg63
g3992
sg56
(lp4004
S':'
asbag49
(g70
g51
NtRp4005
(dp4006
g54
(dp4007
sg63
g3992
sg56
(lp4008
g49
(g50
g51
NtRp4009
(dp4010
g54
(dp4011
g62
I3
ssg63
g4005
sg56
(lp4012
S'mdipierro@cs.depaul.edu'
p4013
asbasbasbag49
(g65
g51
NtRp4014
(dp4015
g54
(dp4016
sg63
g3988
sg56
(lp4017
g49
(g70
g51
NtRp4018
(dp4019
g54
(dp4020
g74
g75
ssg63
g4014
sg56
(lp4021
S'first_name'
p4022
asbag49
(g70
g51
NtRp4023
(dp4024
g54
(dp4025
g81
g82
ssg63
g4014
sg56
(lp4026
S':'
asbag49
(g70
g51
NtRp4027
(dp4028
g54
(dp4029
sg63
g4014
sg56
(lp4030
g49
(g50
g51
NtRp4031
(dp4032
g54
(dp4033
g62
I3
ssg63
g4027
sg56
(lp4034
S'Massimo'
p4035
asbasbasbag49
(g65
g51
NtRp4036
(dp4037
g54
(dp4038
sg63
g3988
sg56
(lp4039
g49
(g70
g51
NtRp4040
(dp4041
g54
(dp4042
g74
g75
ssg63
g4036
sg56
(lp4043
S'id'
p4044
asbag49
(g70
g51
NtRp4045
(dp4046
g54
(dp4047
g81
g82
ssg63
g4036
sg56
(lp4048
S':'
asbag49
(g70
g51
NtRp4049
(dp4050
g54
(dp4051
sg63
g4036
sg56
(lp4052
g49
(g50
g51
NtRp4053
(dp4054
g54
(dp4055
g62
I3
ssg63
g4049
sg56
(lp4056
S'1'
asbasbasbag49
(g65
g51
NtRp4057
(dp4058
g54
(dp4059
sg63
g3988
sg56
(lp4060
g49
(g70
g51
NtRp4061
(dp4062
g54
(dp4063
g74
g75
ssg63
g4057
sg56
(lp4064
S'last_name'
p4065
asbag49
(g70
g51
NtRp4066
(dp4067
g54
(dp4068
g81
g82
ssg63
g4057
sg56
(lp4069
S':'
asbag49
(g70
g51
NtRp4070
(dp4071
g54
(dp4072
sg63
g4057
sg56
(lp4073
g49
(g50
g51
NtRp4074
(dp4075
g54
(dp4076
g62
I3
ssg63
g4070
sg56
(lp4077
S'Di Pierro'
p4078
asbasbasbag49
(g65
g51
NtRp4079
(dp4080
g54
(dp4081
sg63
g3988
sg56
(lp4082
g49
(g70
g51
NtRp4083
(dp4084
g54
(dp4085
g74
g75
ssg63
g4079
sg56
(lp4086
S'password'
p4087
asbag49
(g70
g51
NtRp4088
(dp4089
g54
(dp4090
g81
g82
ssg63
g4079
sg56
(lp4091
S':'
asbag49
(g70
g51
NtRp4092
(dp4093
g54
(dp4094
sg63
g4079
sg56
(lp4095
g49
(g50
g51
NtRp4096
(dp4097
g54
(dp4098
g62
I3
ssg63
g4092
sg56
(lp4099
S'12923092f4d9e86e56018b9cdd790947'
p4100
asbasbasbag49
(g65
g51
NtRp4101
(dp4102
g54
(dp4103
sg63
g3988
sg56
(lp4104
g49
(g70
g51
NtRp4105
(dp4106
g54
(dp4107
g74
g75
ssg63
g4101
sg56
(lp4108
S'registration_id'
p4109
asbag49
(g70
g51
NtRp4110
(dp4111
g54
(dp4112
g81
g82
ssg63
g4101
sg56
(lp4113
S':'
asbag49
(g70
g51
NtRp4114
(dp4115
g54
(dp4116
sg63
g4101
sg56
(lp4117
g49
(g50
g51
NtRp4118
(dp4119
g54
(dp4120
g62
I3
ssg63
g4114
sg56
(lp4121
S''
asbasbasbag49
(g65
g51
NtRp4122
(dp4123
g54
(dp4124
sg63
g3988
sg56
(lp4125
g49
(g70
g51
NtRp4126
(dp4127
g54
(dp4128
g74
g75
ssg63
g4122
sg56
(lp4129
S'registration_key'
p4130
asbag49
(g70
g51
NtRp4131
(dp4132
g54
(dp4133
g81
g82
ssg63
g4122
sg56
(lp4134
S':'
asbag49
(g70
g51
NtRp4135
(dp4136
g54
(dp4137
sg63
g4122
sg56
(lp4138
g49
(g50
g51
NtRp4139
(dp4140
g54
(dp4141
g62
I3
ssg63
g4135
sg56
(lp4142
S''
asbasbasbag49
(g65
g51
NtRp4143
(dp4144
g54
(dp4145
sg63
g3988
sg56
(lp4146
g49
(g70
g51
NtRp4147
(dp4148
g54
(dp4149
g74
g75
ssg63
g4143
sg56
(lp4150
S'reset_password_key'
p4151
asbag49
(g70
g51
NtRp4152
(dp4153
g54
(dp4154
g81
g82
ssg63
g4143
sg56
(lp4155
S':'
asbag49
(g70
g51
NtRp4156
(dp4157
g54
(dp4158
sg63
g4143
sg56
(lp4159
g49
(g50
g51
NtRp4160
(dp4161
g54
(dp4162
g62
I3
ssg63
g4156
sg56
(lp4163
S''
asbasbasbasbasbasbasbasbasbasbasbag49
(g65
g51
NtRp4164
(dp4165
g54
(dp4166
sg63
g3872
sg56
(lp4167
g49
(g70
g51
NtRp4168
(dp4169
g54
(dp4170
g74
g75
ssg63
g4164
sg56
(lp4171
S'html'
p4172
asbag49
(g70
g51
NtRp4173
(dp4174
g54
(dp4175
g81
g82
ssg63
g4164
sg56
(lp4176
S':'
asbag49
(g70
g51
NtRp4177
(dp4178
g54
(dp4179
sg63
g4164
sg56
(lp4180
g49
(g50
g51
NtRp4181
(dp4182
g54
(dp4183
g62
I5
ssg63
g4177
sg56
(lp4184
S'\n<!DOCTYPE html>\n<!-- paulirish.com/2008/conditional-stylesheets-vs-css-hacks-answer-neither/ -->\n<!--[if lt IE 7]><html class="ie ie6 ie-lte9 ie-lte8 ie-lte7 no-js" lang="en"> <![endif]-->\n<!--[if IE 7]><html class="ie ie7 ie-lte9 ie-lte8 ie-lte7 no-js" lang="en"> <![endif]-->\n<!--[if IE 8]><html class="ie ie8 ie-lte9 ie-lte8 no-js" lang="en"> <![endif]-->\n<!--[if IE 9]><html class="ie9 ie-lte9 no-js" lang="en"> <![endif]-->\n<!--[if (gt IE 9)|!(IE)]><!--> <html class="no-js" lang="en"> <!--<![endif]-->\n<head>\n  <meta charset="utf-8" />\n  <!-- www.phpied.com/conditional-comments-block-downloads/ -->\n  <!-- Always force latest IE rendering engine\n\t   (even in intranet) & Chrome Frame\n\t   Remove this if you use the .htaccess -->\n  <!--[if IE]>\n    <meta http-equiv="X-UA-Compatible" content="IE=edge">\n  <![endif]-->\n  \n  <title>web2py Web Framework</title>\n  \n  <!-- http://dev.w3.org/html5/markup/meta.name.html -->\n  <meta name="application-name" content="examples" />\n  \n  <!-- Speaking of Google, don\'t forget to set your site up:\n\t   http://google.com/webmasters -->\n  <meta name="google-site-verification" content="" />\n\n  <!--  Mobile Viewport Fix\n\t  j.mp/mobileviewport & davidbcalhoun.com/2010/viewport-metatag\n\t  device-width: Occupy full width of the screen in its current orientation\n\t  initial-scale = 1.0 retains dimensions instead of zooming out if page height > device height\n\t  user-scalable = yes allows the user to zoom in -->\n  <meta name="viewport" content="width=device-width, initial-scale=1.0, user-scalable=yes">\n  \n  <!-- Place favicon.ico and apple-touch-icon.png in the root of your domain and delete these references -->\n  <link rel="shortcut icon" href="/examples/static/favicon.ico" type="image/x-icon">\n  <link rel="apple-touch-icon" href="/examples/static/favicon.png">\n\n  <!-- All JavaScript at the bottom, except for Modernizr which enables \n\t   HTML5 elements & feature detects -->\n  <script src="/examples/static/js/modernizr.custom.js"></script>  \n\n  <!-- include stylesheets -->\n  \n\n  <script type="text/javascript"><!--\n    // These variables are used by the web2py_ajax_init function in web2py_ajax.js (which is loaded below).\n    var w2p_ajax_confirm_message = "Are you sure you want to delete this object?";\n    var w2p_ajax_date_format = "%Y-%m-%d";\n    var w2p_ajax_datetime_format = "%Y-%m-%d %H:%M:%S";\n    //--></script>\n<script src="/examples/static/js/jquery.js" type="text/javascript"></script><link href="/examples/static/css/calendar.css" rel="stylesheet" type="text/css" /><script src="/examples/static/js/calendar.js" type="text/javascript"></script><script src="/examples/static/js/web2py.js" type="text/javascript"></script><link href="/examples/static/css/skeleton.css" rel="stylesheet" type="text/css" /><link href="/examples/static/css/web2py.css" rel="stylesheet" type="text/css" /><link href="/examples/static/css/examples.css" rel="stylesheet" type="text/css" /><link href="/examples/static/css/superfish.css" rel="stylesheet" type="text/css" /><script src="/examples/static/js/superfish.js" type="text/javascript"></script>\n\n\n  <script type="text/javascript">\n    jQuery(function(){jQuery(\'.sf-menu\').superfish();});\n  </script>\n\n  \n\n  <!-- uncomment here to load jquery-ui\n  <link rel="stylesheet" href="http://ajax.googleapis.com/ajax/libs/jqueryui/1.8.16/themes/base/jquery-ui.css" type="text/css" media="all" />\n  <script src="http://ajax.googleapis.com/ajax/libs/jqueryui/1.8.16/jquery-ui.min.js" type="text/javascript"></script>\n  uncomment to load jquery-ui //-->\n  </style>\n</head>\n<body>\n  <div class="wrapper"><!-- for sticky footer -->    \n    <div class="flash"></div>    \n    <div class="header">\n      <div class="container">\n        <div class="sixteen columns">\n\t  <img src="/examples/static/images/web2py_logo.png" />\n          <h5></h5>\n        </div>\n        \n        <div class="sixteen columns statusbar">\n\t  \n\t  \n          <div id="menu"><ul class="sf-menu"><li><a href="/examples/default/index">Home</a></li><li><a href="/examples/default/what">About</a></li><li><a href="/examples/default/download">Download</a></li><li><a href="/examples/default/documentation">Docs &amp; Resources</a></li><li><a href="/examples/default/support">Support</a></li><li><a href="/examples/default/who">Contributors</a></li></ul>\n\t    \n            <!-- AddToAny BEGIN -->\n            <div style="float:right;padding-top:6px;" class="a2a_kit a2a_default_style">\n            <a class="a2a_dd" href="http://www.addtoany.com/share_save">Share</a></div>\n            <script type="text/javascript" src="http://static.addtoany.com/menu/page.js"></script>\n            <!-- AddToAny END -->\n          </div>\n\t  \n\t  <div class="sixteen columns announce">\n\t    <a href="http://www.infoworld.com/d/open-source-software/bossie-awards-2011-the-best-open-source-application-development-software-171759-0&current=10&last=1#slideshowTop">2011 BOSSIE AWARD FOR OPEN SOURCE DEVELOPMENT SOFTWARE</a>\n          </div>\n\t</div>\n      </div>\n    </div>\n    <div class="main">\n      <div class="container mainbody">\t\n        <div class="sixteen columns">\n          <div class="ten columns center">\n            \n            \n\n<center>\n  <img src="/examples/static/images/tag-cloud-color-small.png"/>\n</center>\n\n<h3>WEB2PY<sup>TM</sup> WEB FRAMEWORK</h3>\n<p>Free open source full-stack framework for rapid development of fast, scalable, <a href="http://www.web2py.com/book/default/chapter/01#security" target="_blank">secure</a> and portable database-driven web-based applications. Written and programmable in <a href="http://www.python.org" target="_blank">Python</a>. <a href="http://www.gnu.org/licenses/lgpl.html">LGPLv3 License</a>.\nCurrent version: 1.99.3 (2011-12-09 16:18:03) stable</p>\n\n\n\n\n\n\n            \n          </div>\n          \n          \n          <div class="five columns">\n            \n<div style="text-align:center">\n  <a href="http://web2py.com/book"><img src="/examples/static/images/tablet.png" alt="Tablet" /></a><br/>\n  <a href="http://www.lulu.com/product/paperback/web2py-book-(4th-edition)/18738286"><img src="http://static.lulu.com/images/services/buy_now_buttons/us/book.gif?20111206124946" border="0" alt="Support independent publishing: Buy this book on Lulu."></a><br/>\n  <a class="button" href="/examples/default/download" style="width:90%">DOWNLOAD NOW</a><br/>\n  <a class="button" href="http://web2py.com/demo_admin" style="width:90%">ONLINE DEMO</a><br/>\n  <a class="button" href="http://web2py.com/poweredby" style="width:90%">SITES POWERED</a>\n</div>\n\n          </div>    \n          \n        </div>\n      </div><!-- container -->\n      \n<div class="container">\n  <div class="sixteen columns">\n    <div class="five columns">\n      <h3><a href="/examples/default/about">BATTERIES INCLUDED</a></h3>\n      <p>Everything you need in one package including fast multi-threaded web server, SQL database and web-based interface. No third party dependencies but works with <a href=/examples/default/what>third party tools</a>.</p>\n    </div>\n    <div class="five columns">\n      <h3><a href="http://web2py.com/demo_admin">WEB-BASED IDE</a></h3>\n      <p>Create, modify, deploy and manage application from anywhere using your browser. One web2py instance can run multiple web sites using different databases. Try the <a href="http://web2py.com/demo_admin">interactive demo</a>.</p>\n    </div>\n    <div class="five columns">\n      <h3><a href="/examples/default/documentation">EXTENSIVE DOCS</a></h3>\n      <p>Start with some <a href="/examples/default/examples">quick examples</a>, then read the <a href="http://web2py.com/book">reference manual</a>, watch <a href="http://vimeo.com/album/178500">videos</a>, and join a <a href="/examples/default/usergroups">user group</a> for discussion. Take advantage of the <a href="http://web2py.com/layouts">layouts</a>, <a href="http://dev.s-cubism.com/web2py_plugins">plugins</a>, and <a href="http://web2pyslices.com">recipes</a>.</p>\n    </div>\n  </div>\n</div>\n<div class="container">\n  <div class="sixteen columns">\n    <img src="/examples/static/images/shadow-bottom.png" width="100%"/>\n    \n    <div class="five columns">\n      <em>\n\t<p>web2py rules! as a sysadmin I like the no installation and no configuration approach a lot)</p>\n      </em>\n      <span class="right">\n\t<a href="http://twitter.com/#!/jkogut/status/61414554273447936"><em>kjogut</em></a>\n      </span>\n    </div>\n    \n    <div class="five columns">\n      <em>\n\t<p>Get Things Done - Faster, Better and More Easily with web2py</p>\n      </em>\n      <span class="right">\n\t<a href="http://twitter.com/#!/rochacbruno/status/73583156044890112"><em>Bruno Rocha</em></a>\n      </span>\n    </div>\n    \n    <div class="five columns">\n      <em>\n\t<p>If you are still learning python, web2py is best tool by far</p>\n      </em>\n      <span class="right">\n\t<a href="http://twitter.com/#!/pbreit/status/48260905775017984"><em>pbreit</em></a>\n      </span>\n    </div>\n    \n  </div>\n</div>\n      \n      \n    </div><!-- main -->\n    \n    <div class="push"></div>\n  </div><!-- wrapper -->\n\n  <div class="footer">\n    <div class="container header">    \n      <div class="sixteen columns">\n         <!-- this is default footer -->\n        <div class="footer-content" >\n          Copyright &#169; 2011\n\t  - User communities in <a href="https://groups.google.com/forum/?fromgroups#!forum/web2py" target="_blank">English<a>, <a href="https://groups.google.com/forum/?fromgroups#!forum/web2py-fr" target="_blank">French</a>, <a href="https://groups.google.com/forum/?fromgroups#!forum/web2py-japan" target="_blank">Japanese</a>, <a href="https://groups.google.com/forum/?fromgroups#!forum/web2py-users-brazil" target="_blank">Portuguese</a>, and <a href="https://groups.google.com/forum/?fromgroups#!forum/web2py-usuarios" target="_blank">Spanish</a>.\n          <div style="float: right;">\n            <a href="http://www.web2py.com/" style="float: left; padding-right: 6px;">\n            <img style="padding-bottom: 0;" src="/examples/static/images/poweredby.png"/>\n            </a>\n          </div>\n        </div>\n        \t\n      </div>\n    </div><!-- container -->\n  </div><!-- footer -->\n  \n  <!--[if lt IE 7 ]>\n\t<script src="/examples/static/js/dd_belatedpng.js"></script>\n\t<script> DD_belatedPNG.fix(\'img, .png_bg\'); //fix any <img> or .png_bg background-images </script>\n\t<![endif]-->\n  \n</body>\n</html>\n'
p4185
asbasbasbag49
(g65
g51
NtRp4186
(dp4187
g54
(dp4188
sg63
g3872
sg56
(lp4189
g49
(g70
g51
NtRp4190
(dp4191
g54
(dp4192
g74
g75
ssg63
g4186
sg56
(lp4193
S'injected'
p4194
asbag49
(g70
g51
NtRp4195
(dp4196
g54
(dp4197
g81
g82
ssg63
g4186
sg56
(lp4198
S':'
asbag49
(g70
g51
NtRp4199
(dp4200
g54
(dp4201
sg63
g4186
sg56
(lp4202
g49
(g50
g51
NtRp4203
(dp4204
g54
(dp4205
g62
I5
ssg63
g4199
sg56
(lp4206
S'<script src="/inplace/static/js/inject.js" language="javascript"></script>'
p4207
asbasbasbag49
(g65
g51
NtRp4208
(dp4209
g54
(dp4210
sg63
g3872
sg56
(lp4211
g49
(g70
g51
NtRp4212
(dp4213
g54
(dp4214
g74
g75
ssg63
g4208
sg56
(lp4215
S'new_html'
p4216
asbag49
(g70
g51
NtRp4217
(dp4218
g54
(dp4219
g81
g82
ssg63
g4208
sg56
(lp4220
S':'
asbag49
(g70
g51
NtRp4221
(dp4222
g54
(dp4223
sg63
g4208
sg56
(lp4224
g49
(g50
g51
NtRp4225
(dp4226
g54
(dp4227
g62
I5
ssg63
g4221
sg56
(lp4228
g4185
asbasbasbag49
(g65
g51
NtRp4229
(dp4230
g54
(dp4231
sg63
g3872
sg56
(lp4232
g49
(g70
g51
NtRp4233
(dp4234
g54
(dp4235
g74
g75
ssg63
g4229
sg56
(lp4236
S'url'
p4237
asbag49
(g70
g51
NtRp4238
(dp4239
g54
(dp4240
g81
g82
ssg63
g4229
sg56
(lp4241
S':'
asbag49
(g70
g51
NtRp4242
(dp4243
g54
(dp4244
sg63
g4229
sg56
(lp4245
g49
(g50
g51
NtRp4246
(dp4247
g54
(dp4248
g62
I5
ssg63
g4242
sg56
(lp4249
S'http://web2py.com'
p4250
asbasbasbasbasbsS'etype'
p4251
S"<type 'exceptions.UnboundLocalError'>"
p4252
sS'date'
p4253
S'Sun Dec 11 17:10:31 2011'
p4254
sS'response'
p4255
g49
(g50
g51
NtRp4256
(dp4257
g54
(dp4258
sg56
(lp4259
g49
(g58
g51
NtRp4260
(dp4261
g54
(dp4262
g62
I5
ssg63
Nsg56
(lp4263
g49
(g65
g51
NtRp4264
(dp4265
g54
(dp4266
sg63
g4260
sg56
(lp4267
g49
(g70
g51
NtRp4268
(dp4269
g54
(dp4270
g74
g75
ssg63
g4264
sg56
(lp4271
g160
asbag49
(g70
g51
NtRp4272
(dp4273
g54
(dp4274
g81
g82
ssg63
g4264
sg56
(lp4275
S':'
asbag49
(g70
g51
NtRp4276
(dp4277
g54
(dp4278
sg63
g4264
sg56
(lp4279
g49
(g50
g51
NtRp4280
(dp4281
g54
(dp4282
g62
I5
ssg63
g4276
sg56
(lp4283
S'<cStringIO.StringO object at 0x10b29c0>'
p4284
asbasbasbag49
(g65
g51
NtRp4285
(dp4286
g54
(dp4287
sg63
g4260
sg56
(lp4288
g49
(g70
g51
NtRp4289
(dp4290
g54
(dp4291
g74
g75
ssg63
g4285
sg56
(lp4292
g226
asbag49
(g70
g51
NtRp4293
(dp4294
g54
(dp4295
g81
g82
ssg63
g4285
sg56
(lp4296
S':'
asbag49
(g70
g51
NtRp4297
(dp4298
g54
(dp4299
sg63
g4285
sg56
(lp4300
g49
(g50
g51
NtRp4301
(dp4302
g54
(dp4303
g62
I5
ssg63
g4297
sg56
(lp4304
g49
(g58
g51
NtRp4305
(dp4306
g54
(dp4307
g62
I4
ssg63
Nsg56
(lp4308
g49
(g65
g51
NtRp4309
(dp4310
g54
(dp4311
sg63
g4305
sg56
(lp4312
g49
(g70
g51
NtRp4313
(dp4314
g54
(dp4315
g74
g75
ssg63
g4309
sg56
(lp4316
S'session_id_inplace'
p4317
asbag49
(g70
g51
NtRp4318
(dp4319
g54
(dp4320
g81
g82
ssg63
g4309
sg56
(lp4321
S':'
asbag49
(g70
g51
NtRp4322
(dp4323
g54
(dp4324
sg63
g4309
sg56
(lp4325
g49
(g50
g51
NtRp4326
(dp4327
g54
(dp4328
g62
I4
ssg63
g4322
sg56
(lp4329
g49
(g58
g51
NtRp4330
(dp4331
g54
(dp4332
g62
I3
ssg63
Nsg56
(lp4333
g49
(g65
g51
NtRp4334
(dp4335
g54
(dp4336
sg63
g4330
sg56
(lp4337
g49
(g70
g51
NtRp4338
(dp4339
g54
(dp4340
g74
g75
ssg63
g4334
sg56
(lp4341
g276
asbag49
(g70
g51
NtRp4342
(dp4343
g54
(dp4344
g81
g82
ssg63
g4334
sg56
(lp4345
S':'
asbag49
(g70
g51
NtRp4346
(dp4347
g54
(dp4348
sg63
g4334
sg56
(lp4349
g49
(g50
g51
NtRp4350
(dp4351
g54
(dp4352
g62
I3
ssg63
g4346
sg56
(lp4353
S''
asbasbasbag49
(g65
g51
NtRp4354
(dp4355
g54
(dp4356
sg63
g4330
sg56
(lp4357
g49
(g70
g51
NtRp4358
(dp4359
g54
(dp4360
g74
g75
ssg63
g4354
sg56
(lp4361
g297
asbag49
(g70
g51
NtRp4362
(dp4363
g54
(dp4364
g81
g82
ssg63
g4354
sg56
(lp4365
S':'
asbag49
(g70
g51
NtRp4366
(dp4367
g54
(dp4368
sg63
g4354
sg56
(lp4369
g49
(g50
g51
NtRp4370
(dp4371
g54
(dp4372
g62
I3
ssg63
g4366
sg56
(lp4373
S''
asbasbasbag49
(g65
g51
NtRp4374
(dp4375
g54
(dp4376
sg63
g4330
sg56
(lp4377
g49
(g70
g51
NtRp4378
(dp4379
g54
(dp4380
g74
g75
ssg63
g4374
sg56
(lp4381
g318
asbag49
(g70
g51
NtRp4382
(dp4383
g54
(dp4384
g81
g82
ssg63
g4374
sg56
(lp4385
S':'
asbag49
(g70
g51
NtRp4386
(dp4387
g54
(dp4388
sg63
g4374
sg56
(lp4389
g49
(g50
g51
NtRp4390
(dp4391
g54
(dp4392
g62
I3
ssg63
g4386
sg56
(lp4393
S''
asbasbasbag49
(g65
g51
NtRp4394
(dp4395
g54
(dp4396
sg63
g4330
sg56
(lp4397
g49
(g70
g51
NtRp4398
(dp4399
g54
(dp4400
g74
g75
ssg63
g4394
sg56
(lp4401
g339
asbag49
(g70
g51
NtRp4402
(dp4403
g54
(dp4404
g81
g82
ssg63
g4394
sg56
(lp4405
S':'
asbag49
(g70
g51
NtRp4406
(dp4407
g54
(dp4408
sg63
g4394
sg56
(lp4409
g49
(g50
g51
NtRp4410
(dp4411
g54
(dp4412
g62
I3
ssg63
g4406
sg56
(lp4413
S''
asbasbasbag49
(g65
g51
NtRp4414
(dp4415
g54
(dp4416
sg63
g4330
sg56
(lp4417
g49
(g70
g51
NtRp4418
(dp4419
g54
(dp4420
g74
g75
ssg63
g4414
sg56
(lp4421
g360
asbag49
(g70
g51
NtRp4422
(dp4423
g54
(dp4424
g81
g82
ssg63
g4414
sg56
(lp4425
S':'
asbag49
(g70
g51
NtRp4426
(dp4427
g54
(dp4428
sg63
g4414
sg56
(lp4429
g49
(g50
g51
NtRp4430
(dp4431
g54
(dp4432
g62
I3
ssg63
g4426
sg56
(lp4433
S'/'
asbasbasbag49
(g65
g51
NtRp4434
(dp4435
g54
(dp4436
sg63
g4330
sg56
(lp4437
g49
(g70
g51
NtRp4438
(dp4439
g54
(dp4440
g74
g75
ssg63
g4434
sg56
(lp4441
g381
asbag49
(g70
g51
NtRp4442
(dp4443
g54
(dp4444
g81
g82
ssg63
g4434
sg56
(lp4445
S':'
asbag49
(g70
g51
NtRp4446
(dp4447
g54
(dp4448
sg63
g4434
sg56
(lp4449
g49
(g50
g51
NtRp4450
(dp4451
g54
(dp4452
g62
I3
ssg63
g4446
sg56
(lp4453
S''
asbasbasbag49
(g65
g51
NtRp4454
(dp4455
g54
(dp4456
sg63
g4330
sg56
(lp4457
g49
(g70
g51
NtRp4458
(dp4459
g54
(dp4460
g74
g75
ssg63
g4454
sg56
(lp4461
g402
asbag49
(g70
g51
NtRp4462
(dp4463
g54
(dp4464
g81
g82
ssg63
g4454
sg56
(lp4465
S':'
asbag49
(g70
g51
NtRp4466
(dp4467
g54
(dp4468
sg63
g4454
sg56
(lp4469
g49
(g50
g51
NtRp4470
(dp4471
g54
(dp4472
g62
I3
ssg63
g4466
sg56
(lp4473
S''
asbasbasbasbasbasbasbasbasbasbasbag49
(g65
g51
NtRp4474
(dp4475
g54
(dp4476
sg63
g4260
sg56
(lp4477
g49
(g70
g51
NtRp4478
(dp4479
g54
(dp4480
g74
g75
ssg63
g4474
sg56
(lp4481
S'files'
p4482
asbag49
(g70
g51
NtRp4483
(dp4484
g54
(dp4485
g81
g82
ssg63
g4474
sg56
(lp4486
S':'
asbag49
(g70
g51
NtRp4487
(dp4488
g54
(dp4489
sg63
g4474
sg56
(lp4490
g49
(g50
g51
NtRp4491
(dp4492
g54
(dp4493
g62
I5
ssg63
g4487
sg56
(lp4494
g49
(g58
g51
NtRp4495
(dp4496
g54
(dp4497
g62
I4
ssg63
Nsg56
(lp4498
sbasbasbasbag49
(g65
g51
NtRp4499
(dp4500
g54
(dp4501
sg63
g4260
sg56
(lp4502
g49
(g70
g51
NtRp4503
(dp4504
g54
(dp4505
g74
g75
ssg63
g4499
sg56
(lp4506
S'flash'
p4507
asbag49
(g70
g51
NtRp4508
(dp4509
g54
(dp4510
g81
g82
ssg63
g4499
sg56
(lp4511
S':'
asbag49
(g70
g51
NtRp4512
(dp4513
g54
(dp4514
sg63
g4499
sg56
(lp4515
g49
(g50
g51
NtRp4516
(dp4517
g54
(dp4518
g62
I5
ssg63
g4512
sg56
(lp4519
S''
asbasbasbag49
(g65
g51
NtRp4520
(dp4521
g54
(dp4522
sg63
g4260
sg56
(lp4523
g49
(g70
g51
NtRp4524
(dp4525
g54
(dp4526
g74
g75
ssg63
g4520
sg56
(lp4527
S'generic_patterns'
p4528
asbag49
(g70
g51
NtRp4529
(dp4530
g54
(dp4531
g81
g82
ssg63
g4520
sg56
(lp4532
S':'
asbag49
(g70
g51
NtRp4533
(dp4534
g54
(dp4535
sg63
g4520
sg56
(lp4536
g49
(g50
g51
NtRp4537
(dp4538
g54
(dp4539
g62
I5
ssg63
g4533
sg56
(lp4540
g49
(g58
g51
NtRp4541
(dp4542
g54
(dp4543
g62
I4
ssg63
Nsg56
(lp4544
g49
(g65
g51
NtRp4545
(dp4546
g54
(dp4547
sg63
g4541
sg56
(lp4548
g49
(g70
g51
NtRp4549
(dp4550
g54
(dp4551
sg63
g4545
sg56
(lp4552
g49
(g50
g51
NtRp4553
(dp4554
g54
(dp4555
g62
I4
ssg63
g4549
sg56
(lp4556
S'*'
asbasbasbasbasbasbasbag49
(g65
g51
NtRp4557
(dp4558
g54
(dp4559
sg63
g4260
sg56
(lp4560
g49
(g70
g51
NtRp4561
(dp4562
g54
(dp4563
g74
g75
ssg63
g4557
sg56
(lp4564
S'headers'
p4565
asbag49
(g70
g51
NtRp4566
(dp4567
g54
(dp4568
g81
g82
ssg63
g4557
sg56
(lp4569
S':'
asbag49
(g70
g51
NtRp4570
(dp4571
g54
(dp4572
sg63
g4557
sg56
(lp4573
g49
(g50
g51
NtRp4574
(dp4575
g54
(dp4576
g62
I5
ssg63
g4570
sg56
(lp4577
g49
(g58
g51
NtRp4578
(dp4579
g54
(dp4580
g62
I4
ssg63
Nsg56
(lp4581
g49
(g65
g51
NtRp4582
(dp4583
g54
(dp4584
sg63
g4578
sg56
(lp4585
g49
(g70
g51
NtRp4586
(dp4587
g54
(dp4588
g74
g75
ssg63
g4582
sg56
(lp4589
S'Cache-Control'
p4590
asbag49
(g70
g51
NtRp4591
(dp4592
g54
(dp4593
g81
g82
ssg63
g4582
sg56
(lp4594
S':'
asbag49
(g70
g51
NtRp4595
(dp4596
g54
(dp4597
sg63
g4582
sg56
(lp4598
g49
(g50
g51
NtRp4599
(dp4600
g54
(dp4601
g62
I4
ssg63
g4595
sg56
(lp4602
S'no-store, no-cache, must-revalidate, post-check=0, pre-check=0'
p4603
asbasbasbag49
(g65
g51
NtRp4604
(dp4605
g54
(dp4606
sg63
g4578
sg56
(lp4607
g49
(g70
g51
NtRp4608
(dp4609
g54
(dp4610
g74
g75
ssg63
g4604
sg56
(lp4611
S'Content-Type'
p4612
asbag49
(g70
g51
NtRp4613
(dp4614
g54
(dp4615
g81
g82
ssg63
g4604
sg56
(lp4616
S':'
asbag49
(g70
g51
NtRp4617
(dp4618
g54
(dp4619
sg63
g4604
sg56
(lp4620
g49
(g50
g51
NtRp4621
(dp4622
g54
(dp4623
g62
I4
ssg63
g4617
sg56
(lp4624
S'text/html; charset=utf-8'
p4625
asbasbasbag49
(g65
g51
NtRp4626
(dp4627
g54
(dp4628
sg63
g4578
sg56
(lp4629
g49
(g70
g51
NtRp4630
(dp4631
g54
(dp4632
g74
g75
ssg63
g4626
sg56
(lp4633
S'Expires'
p4634
asbag49
(g70
g51
NtRp4635
(dp4636
g54
(dp4637
g81
g82
ssg63
g4626
sg56
(lp4638
S':'
asbag49
(g70
g51
NtRp4639
(dp4640
g54
(dp4641
sg63
g4626
sg56
(lp4642
g49
(g50
g51
NtRp4643
(dp4644
g54
(dp4645
g62
I4
ssg63
g4639
sg56
(lp4646
S'Sun, 11 Dec 2011 23:10:31 GMT'
p4647
asbasbasbag49
(g65
g51
NtRp4648
(dp4649
g54
(dp4650
sg63
g4578
sg56
(lp4651
g49
(g70
g51
NtRp4652
(dp4653
g54
(dp4654
g74
g75
ssg63
g4648
sg56
(lp4655
S'Pragma'
p4656
asbag49
(g70
g51
NtRp4657
(dp4658
g54
(dp4659
g81
g82
ssg63
g4648
sg56
(lp4660
S':'
asbag49
(g70
g51
NtRp4661
(dp4662
g54
(dp4663
sg63
g4648
sg56
(lp4664
g49
(g50
g51
NtRp4665
(dp4666
g54
(dp4667
g62
I4
ssg63
g4661
sg56
(lp4668
S'no-cache'
p4669
asbasbasbag49
(g65
g51
NtRp4670
(dp4671
g54
(dp4672
sg63
g4578
sg56
(lp4673
g49
(g70
g51
NtRp4674
(dp4675
g54
(dp4676
g74
g75
ssg63
g4670
sg56
(lp4677
S'X-Powered-By'
p4678
asbag49
(g70
g51
NtRp4679
(dp4680
g54
(dp4681
g81
g82
ssg63
g4670
sg56
(lp4682
S':'
asbag49
(g70
g51
NtRp4683
(dp4684
g54
(dp4685
sg63
g4670
sg56
(lp4686
g49
(g50
g51
NtRp4687
(dp4688
g54
(dp4689
g62
I4
ssg63
g4683
sg56
(lp4690
S'web2py'
p4691
asbasbasbasbasbasbasbag49
(g65
g51
NtRp4692
(dp4693
g54
(dp4694
sg63
g4260
sg56
(lp4695
g49
(g70
g51
NtRp4696
(dp4697
g54
(dp4698
g74
g75
ssg63
g4692
sg56
(lp4699
S'menu'
p4700
asbag49
(g70
g51
NtRp4701
(dp4702
g54
(dp4703
g81
g82
ssg63
g4692
sg56
(lp4704
S':'
asbag49
(g70
g51
NtRp4705
(dp4706
g54
(dp4707
sg63
g4692
sg56
(lp4708
g49
(g50
g51
NtRp4709
(dp4710
g54
(dp4711
g62
I5
ssg63
g4705
sg56
(lp4712
g49
(g58
g51
NtRp4713
(dp4714
g54
(dp4715
g62
I4
ssg63
Nsg56
(lp4716
sbasbasbasbag49
(g65
g51
NtRp4717
(dp4718
g54
(dp4719
sg63
g4260
sg56
(lp4720
g49
(g70
g51
NtRp4721
(dp4722
g54
(dp4723
g74
g75
ssg63
g4717
sg56
(lp4724
S'meta'
p4725
asbag49
(g70
g51
NtRp4726
(dp4727
g54
(dp4728
g81
g82
ssg63
g4717
sg56
(lp4729
S':'
asbag49
(g70
g51
NtRp4730
(dp4731
g54
(dp4732
sg63
g4717
sg56
(lp4733
g49
(g50
g51
NtRp4734
(dp4735
g54
(dp4736
g62
I5
ssg63
g4730
sg56
(lp4737
g49
(g58
g51
NtRp4738
(dp4739
g54
(dp4740
g62
I4
ssg63
Nsg56
(lp4741
sbasbasbasbag49
(g65
g51
NtRp4742
(dp4743
g54
(dp4744
sg63
g4260
sg56
(lp4745
g49
(g70
g51
NtRp4746
(dp4747
g54
(dp4748
g74
g75
ssg63
g4742
sg56
(lp4749
S'postprocessing'
p4750
asbag49
(g70
g51
NtRp4751
(dp4752
g54
(dp4753
g81
g82
ssg63
g4742
sg56
(lp4754
S':'
asbag49
(g70
g51
NtRp4755
(dp4756
g54
(dp4757
sg63
g4742
sg56
(lp4758
g49
(g50
g51
NtRp4759
(dp4760
g54
(dp4761
g62
I5
ssg63
g4755
sg56
(lp4762
g49
(g58
g51
NtRp4763
(dp4764
g54
(dp4765
g62
I4
ssg63
Nsg56
(lp4766
sbasbasbasbag49
(g65
g51
NtRp4767
(dp4768
g54
(dp4769
sg63
g4260
sg56
(lp4770
g49
(g70
g51
NtRp4771
(dp4772
g54
(dp4773
g74
g75
ssg63
g4767
sg56
(lp4774
S'session_file'
p4775
asbag49
(g70
g51
NtRp4776
(dp4777
g54
(dp4778
g81
g82
ssg63
g4767
sg56
(lp4779
S':'
asbag49
(g70
g51
NtRp4780
(dp4781
g54
(dp4782
sg63
g4767
sg56
(lp4783
g49
(g50
g51
NtRp4784
(dp4785
g54
(dp4786
g62
I5
ssg63
g4780
sg56
(lp4787
S"<open file '/Users/mdipierro/Dropbox/web2py/applications/inplace/sessions/127.0.0.1-b67af904-b8cf-469d-95b3-18285a004db1', mode 'rb+' at 0x112cf98>"
p4788
asbasbasbag49
(g65
g51
NtRp4789
(dp4790
g54
(dp4791
sg63
g4260
sg56
(lp4792
g49
(g70
g51
NtRp4793
(dp4794
g54
(dp4795
g74
g75
ssg63
g4789
sg56
(lp4796
S'session_filename'
p4797
asbag49
(g70
g51
NtRp4798
(dp4799
g54
(dp4800
g81
g82
ssg63
g4789
sg56
(lp4801
S':'
asbag49
(g70
g51
NtRp4802
(dp4803
g54
(dp4804
sg63
g4789
sg56
(lp4805
g49
(g50
g51
NtRp4806
(dp4807
g54
(dp4808
g62
I5
ssg63
g4802
sg56
(lp4809
S'/Users/mdipierro/Dropbox/web2py/applications/inplace/sessions/127.0.0.1-b67af904-b8cf-469d-95b3-18285a004db1'
p4810
asbasbasbag49
(g65
g51
NtRp4811
(dp4812
g54
(dp4813
sg63
g4260
sg56
(lp4814
g49
(g70
g51
NtRp4815
(dp4816
g54
(dp4817
g74
g75
ssg63
g4811
sg56
(lp4818
S'session_id'
p4819
asbag49
(g70
g51
NtRp4820
(dp4821
g54
(dp4822
g81
g82
ssg63
g4811
sg56
(lp4823
S':'
asbag49
(g70
g51
NtRp4824
(dp4825
g54
(dp4826
sg63
g4811
sg56
(lp4827
g49
(g50
g51
NtRp4828
(dp4829
g54
(dp4830
g62
I5
ssg63
g4824
sg56
(lp4831
S'127.0.0.1-b67af904-b8cf-469d-95b3-18285a004db1'
p4832
asbasbasbag49
(g65
g51
NtRp4833
(dp4834
g54
(dp4835
sg63
g4260
sg56
(lp4836
g49
(g70
g51
NtRp4837
(dp4838
g54
(dp4839
g74
g75
ssg63
g4833
sg56
(lp4840
S'session_id_name'
p4841
asbag49
(g70
g51
NtRp4842
(dp4843
g54
(dp4844
g81
g82
ssg63
g4833
sg56
(lp4845
S':'
asbag49
(g70
g51
NtRp4846
(dp4847
g54
(dp4848
sg63
g4833
sg56
(lp4849
g49
(g50
g51
NtRp4850
(dp4851
g54
(dp4852
g62
I5
ssg63
g4846
sg56
(lp4853
g4317
asbasbasbag49
(g65
g51
NtRp4854
(dp4855
g54
(dp4856
sg63
g4260
sg56
(lp4857
g49
(g70
g51
NtRp4858
(dp4859
g54
(dp4860
g74
g75
ssg63
g4854
sg56
(lp4861
S'session_locked'
p4862
asbag49
(g70
g51
NtRp4863
(dp4864
g54
(dp4865
g81
g82
ssg63
g4854
sg56
(lp4866
S':'
asbag49
(g70
g51
NtRp4867
(dp4868
g54
(dp4869
sg63
g4854
sg56
(lp4870
g49
(g50
g51
NtRp4871
(dp4872
g54
(dp4873
g62
I5
ssg63
g4867
sg56
(lp4874
g1443
asbasbasbag49
(g65
g51
NtRp4875
(dp4876
g54
(dp4877
sg63
g4260
sg56
(lp4878
g49
(g70
g51
NtRp4879
(dp4880
g54
(dp4881
g74
g75
ssg63
g4875
sg56
(lp4882
S'session_new'
p4883
asbag49
(g70
g51
NtRp4884
(dp4885
g54
(dp4886
g81
g82
ssg63
g4875
sg56
(lp4887
S':'
asbag49
(g70
g51
NtRp4888
(dp4889
g54
(dp4890
sg63
g4875
sg56
(lp4891
g49
(g50
g51
NtRp4892
(dp4893
g54
(dp4894
g62
I5
ssg63
g4888
sg56
(lp4895
g1443
asbasbasbag49
(g65
g51
NtRp4896
(dp4897
g54
(dp4898
sg63
g4260
sg56
(lp4899
g49
(g70
g51
NtRp4900
(dp4901
g54
(dp4902
g74
g75
ssg63
g4896
sg56
(lp4903
S'status'
p4904
asbag49
(g70
g51
NtRp4905
(dp4906
g54
(dp4907
g81
g82
ssg63
g4896
sg56
(lp4908
S':'
asbag49
(g70
g51
NtRp4909
(dp4910
g54
(dp4911
sg63
g4896
sg56
(lp4912
g49
(g50
g51
NtRp4913
(dp4914
g54
(dp4915
g62
I5
ssg63
g4909
sg56
(lp4916
S'200'
p4917
asbasbasbag49
(g65
g51
NtRp4918
(dp4919
g54
(dp4920
sg63
g4260
sg56
(lp4921
g49
(g70
g51
NtRp4922
(dp4923
g54
(dp4924
g74
g75
ssg63
g4918
sg56
(lp4925
S'subtitle'
p4926
asbag49
(g70
g51
NtRp4927
(dp4928
g54
(dp4929
g81
g82
ssg63
g4918
sg56
(lp4930
S':'
asbag49
(g70
g51
NtRp4931
(dp4932
g54
(dp4933
sg63
g4918
sg56
(lp4934
g49
(g50
g51
NtRp4935
(dp4936
g54
(dp4937
g62
I5
ssg63
g4931
sg56
(lp4938
S'The revolutionary CMS'
p4939
asbasbasbag49
(g65
g51
NtRp4940
(dp4941
g54
(dp4942
sg63
g4260
sg56
(lp4943
g49
(g70
g51
NtRp4944
(dp4945
g54
(dp4946
g74
g75
ssg63
g4940
sg56
(lp4947
S'title'
p4948
asbag49
(g70
g51
NtRp4949
(dp4950
g54
(dp4951
g81
g82
ssg63
g4940
sg56
(lp4952
S':'
asbag49
(g70
g51
NtRp4953
(dp4954
g54
(dp4955
sg63
g4940
sg56
(lp4956
g49
(g50
g51
NtRp4957
(dp4958
g54
(dp4959
g62
I5
ssg63
g4953
sg56
(lp4960
S'InPlace'
p4961
asbasbasbag49
(g65
g51
NtRp4962
(dp4963
g54
(dp4964
sg63
g4260
sg56
(lp4965
g49
(g70
g51
NtRp4966
(dp4967
g54
(dp4968
g74
g75
ssg63
g4962
sg56
(lp4969
g2955
asbag49
(g70
g51
NtRp4970
(dp4971
g54
(dp4972
g81
g82
ssg63
g4962
sg56
(lp4973
S':'
asbag49
(g70
g51
NtRp4974
(dp4975
g54
(dp4976
sg63
g4962
sg56
(lp4977
g49
(g50
g51
NtRp4978
(dp4979
g54
(dp4980
g62
I5
ssg63
g4974
sg56
(lp4981
g2968
asbasbasbag49
(g65
g51
NtRp4982
(dp4983
g54
(dp4984
sg63
g4260
sg56
(lp4985
g49
(g70
g51
NtRp4986
(dp4987
g54
(dp4988
g74
g75
ssg63
g4982
sg56
(lp4989
S'view'
p4990
asbag49
(g70
g51
NtRp4991
(dp4992
g54
(dp4993
g81
g82
ssg63
g4982
sg56
(lp4994
S':'
asbag49
(g70
g51
NtRp4995
(dp4996
g54
(dp4997
sg63
g4982
sg56
(lp4998
g49
(g50
g51
NtRp4999
(dp5000
g54
(dp5001
g62
I5
ssg63
g4995
sg56
(lp5002
S'default/edit_clone.html'
p5003
asbasbasbasbasbsS'locals'
p5004
(dp5005
S're'
p5006
S"<module 're' from '/System/Library/Frameworks/Python.framework/Versions/2.5/lib/python2.5/re.py'>"
p5007
sS'urllib'
p5008
S"<module 'urllib' from '/System/Library/Framework....framework/Versions/2.5/lib/python2.5/urllib.py'>"
p5009
sssS'traceback'
p5010
S'Traceback (most recent call last):\n  File "/Users/mdipierro/Dropbox/web2py/gluon/restricted.py", line 204, in restricted\n    exec ccode in environment\n  File "/Users/mdipierro/Dropbox/web2py/applications/inplace/controllers/default.py", line 100, in <module>\n  File "/Users/mdipierro/Dropbox/web2py/gluon/globals.py", line 172, in <lambda>\n    self._caller = lambda f: f()\n  File "/Users/mdipierro/Dropbox/web2py/gluon/tools.py", line 2533, in f\n    return action(*a, **b)\n  File "/Users/mdipierro/Dropbox/web2py/applications/inplace/controllers/default.py", line 31, in edit_clone\n    session.new_html = session.html.split(\'<body\')[0]+\'<body>\'+html+\'</body></html>\'\nUnboundLocalError: local variable \'html\' referenced before assignment\n'
p5011
s.