(dp1
S'output'
p2
S"<type 'exceptions.UnboundLocalError'> local variable 'html' referenced before assignment"
p3
sS'layer'
p4
S'/Users/mdipierro/Dropbox/web2py/applications/inplace/controllers/default.py'
p5
sS'code'
p6
S'# -*- coding: utf-8 -*-\n# developed by Massimo Di Pierro, BSD License\n\nresponse.title = \'InPlace\'\nresponse.subtitle = \'The revolutionary CMS\'\n\n@auth.requires_login()\ndef index():\n    form=SQLFORM.factory(Field(\'url\',requires=IS_URL(),default=\'http://web2py.com\'))\n    if form.process().accepted:\n        redirect(URL(\'edit\',vars=dict(url=form.vars.url)))\n    clones = db(db.clone).select()\n    return locals()\n\n@auth.requires_login()\ndef delete():\n    db(db.clone.id==request.args(0))(db.clone.created_by==auth.user.id).delete()\n    redirect(URL(\'index\'))\n\n@auth.requires_login()\ndef edit():\n    return locals()\n\n@auth.requires_login()\ndef edit_clone():\n    session._unlock(response)                    \n    import urllib,re\n    if request.args(0)==\'post\':\n        return request.vars.value or \'\'\n    elif request.args(0)==\'store\':\n        session.new_html = session.html.split(\'<body\')[0]+\'<body>\'+html+\'</body></html>\'\n        return \'ok\'\n    url = request.vars.url\n    try:\n        html = urllib.urlopen(url).read()\n    except IOError:\n        session.flash = \'web page does not exist!\'\n        redirect(URL(\'index\'))\n    session.url = url\n    session.new_html = session.html = html\n    html = re.sub(\'\\s+[\\n]\',\'\\n\',html)\n    html = re.sub(\'>[ \\t]+<\',\'> <\',html)\n    html = re.sub(\'(src|SRC)\\s*=\\s*"/(?!/)\',\'src="\'+\'/\'.join(url.split(\'/\')[:3])+\'/\',html)\n    html = re.sub(\'(src|SRC)\\s*=\\s*"(?!(/|http))\',\'src="\'+\'/\'.join(url.split(\'/\'))+\'/\',html)\n    html = re.sub(\'(href|HREF)\\s*=\\s*"/(?!/)\',\'href="\'+\'/\'.join(url.split(\'/\')[:3])+\'/\',html)\n    html = re.sub(\'(href|HREF)\\s*=\\s*"(?!(/|http))\',\'href="\'+\'/\'.join(url.split(\'/\'))+\'/\',html)\n    html = re.sub(\'url\\(/(?!/)\',\'url(\'+\'/\'.join(url.split(\'/\')[:3])+\'/\',html)\n    html = re.sub(\'url\\((?!(/|http))\',\'url(\'+\'/\'.join(url.split(\'/\'))+\'/\',html)\n    inject = \'<script src="%s" language="javascript"></script>\' % URL(\'static\',\'js/inject.js\')\n    html = html.replace(\'</head>\',inject+\'</head>\')\n    return html\n\n@auth.requires_login()\ndef clone():\n    id = db.clone.insert(url=session.url,html=session.new_html)\n    redirect(URL(\'page\',args=id))\n\ndef page():\n    if request.args(0)==\'clone\': redirect(URL(\'index\'))\n    return db.clone(request.args(0)).html\n\ndef user():\n    return dict(form=auth())\n\n@auth.requires_login()\ndef folder():\n    folder = db.cms_folder(request.args(0),created_by=auth.user.id)\n    if not folder:\n        if db(db.cms_folder).isempty():\n            db.cms_folder.insert(name=\'root\',parent_folder=0,created_by=auth.user.id)\n        folder = db.cms_folder(parent_folder=0,created_by=auth.user.id)\n    folder.path, f = [folder.name], folder.parent_folder\n    while f: folder.path, f = [A(f.name,_href=URL(\'folder\',args=f))]+folder.path, f.parent_folder\n    files = db(db.cms_file.folder==folder.id).select(orderby=db.cms_file.name)\n    folders = db(db.cms_folder.parent_folder==folder.id).select(orderby=db.cms_folder.name)\n    return locals()\n\n@auth.requires_login()\ndef edit_file():\n    folder = db.cms_folder(request.args(0),created_by=auth.user.id)\n    db.cms_file.folder.default=folder.id\n    db.cms_file.name.requires=IS_NOT_IN_DB(\n        db(db.cms_file.folder==folder.id),\'cms_file.name\')\n    file = db.cms_file(request.args(1),created_by=auth.user.id)\n    form = SQLFORM(db.cms_file,file,deletable=True)\\\n        .process(next=URL(\'folder\',args=folder.id))\n    return locals()\n\n@auth.requires_login()\ndef edit_folder():\n    folder = db.cms_folder(request.args(0),created_by=auth.user.id)\n    db.cms_folder.parent_folder.default=folder.id\n    db.cms_folder.name.requires=IS_NOT_IN_DB(\n        db(db.cms_folder.parent_folder==folder.id),\'cms_folder.name\')\n    ofolder = db.cms_folder(request.args(1),created_by=auth.user.id)\n    form = SQLFORM(db.cms_folder,ofolder,deletable=True)\\\n        .process(next=URL(\'folder\',args=folder.id))\n    return locals()\n\nresponse._vars=response._caller(edit_clone)\n'
p7
sS'snapshot'
p8
(dp9
S'exception'
p10
(dp11
S'__hash__'
p12
S"<method-wrapper '__hash__' of exceptions.UnboundLocalError object at 0x1094f80>"
p13
sS'__setattr__'
p14
S"<method-wrapper '__setattr__' of exceptions.UnboundLocalError object at 0x1094f80>"
p15
sS'__reduce_ex__'
p16
S'<built-in method __reduce_ex__ of exceptions.UnboundLocalError object at 0x1094f80>'
p17
sS'__getslice__'
p18
S"<method-wrapper '__getslice__' of exceptions.UnboundLocalError object at 0x1094f80>"
p19
sS'__getitem__'
p20
S"<method-wrapper '__getitem__' of exceptions.UnboundLocalError object at 0x1094f80>"
p21
sS'__setstate__'
p22
S'<built-in method __setstate__ of exceptions.UnboundLocalError object at 0x1094f80>'
p23
sS'__reduce__'
p24
S'<built-in method __reduce__ of exceptions.UnboundLocalError object at 0x1094f80>'
p25
sS'__str__'
p26
S"<method-wrapper '__str__' of exceptions.UnboundLocalError object at 0x1094f80>"
p27
sS'args'
p28
S'("local variable \'html\' referenced before assignment",)'
p29
sS'__getattribute__'
p30
S"<method-wrapper '__getattribute__' of exceptions.UnboundLocalError object at 0x1094f80>"
p31
sS'__class__'
p32
S"<type 'exceptions.UnboundLocalError'>"
p33
sS'__delattr__'
p34
S"<method-wrapper '__delattr__' of exceptions.UnboundLocalError object at 0x1094f80>"
p35
sS'__repr__'
p36
S"<method-wrapper '__repr__' of exceptions.UnboundLocalError object at 0x1094f80>"
p37
sS'__dict__'
p38
S'{}'
p39
sS'__doc__'
p40
S"'Local name referenced but not bound to a value.'"
p41
sS'__init__'
p42
S"<method-wrapper '__init__' of exceptions.UnboundLocalError object at 0x1094f80>"
p43
sS'__new__'
p44
S'<built-in method __new__ of type object at 0xdc080>'
p45
ssS'evalue'
p46
S"local variable 'html' referenced before assignment"
p47
sS'request'
p48
ccopy_reg
_reconstructor
p49
(cgluon.html
BEAUTIFY
p50
c__builtin__
object
p51
NtRp52
(dp53
S'attributes'
p54
(dp55
sS'components'
p56
(lp57
g49
(cgluon.html
TABLE
p58
g51
NtRp59
(dp60
g54
(dp61
S'level'
p62
I5
ssS'parent'
p63
Nsg56
(lp64
g49
(cgluon.html
TR
p65
g51
NtRp66
(dp67
g54
(dp68
sg63
g59
sg56
(lp69
g49
(cgluon.html
TD
p70
g51
NtRp71
(dp72
g54
(dp73
S'_style'
p74
S'font-weight:bold;vertical-align:top'
p75
ssg63
g66
sg56
(lp76
S'ajax'
p77
asbag49
(g70
g51
NtRp78
(dp79
g54
(dp80
S'_valign'
p81
S'top'
p82
ssg63
g66
sg56
(lp83
S':'
asbag49
(g70
g51
NtRp84
(dp85
g54
(dp86
sg63
g66
sg56
(lp87
g49
(g50
g51
NtRp88
(dp89
g54
(dp90
g62
I5
ssg63
g84
sg56
(lp91
S'False'
p92
asbasbasbag49
(g65
g51
NtRp93
(dp94
g54
(dp95
sg63
g59
sg56
(lp96
g49
(g70
g51
NtRp97
(dp98
g54
(dp99
g74
g75
ssg63
g93
sg56
(lp100
S'application'
p101
asbag49
(g70
g51
NtRp102
(dp103
g54
(dp104
g81
g82
ssg63
g93
sg56
(lp105
S':'
asbag49
(g70
g51
NtRp106
(dp107
g54
(dp108
sg63
g93
sg56
(lp109
g49
(g50
g51
NtRp110
(dp111
g54
(dp112
g62
I5
ssg63
g106
sg56
(lp113
S'inplace'
p114
asbasbasbag49
(g65
g51
NtRp115
(dp116
g54
(dp117
sg63
g59
sg56
(lp118
g49
(g70
g51
NtRp119
(dp120
g54
(dp121
g74
g75
ssg63
g115
sg56
(lp122
g28
asbag49
(g70
g51
NtRp123
(dp124
g54
(dp125
g81
g82
ssg63
g115
sg56
(lp126
S':'
asbag49
(g70
g51
NtRp127
(dp128
g54
(dp129
sg63
g115
sg56
(lp130
g49
(g50
g51
NtRp131
(dp132
g54
(dp133
g62
I5
ssg63
g127
sg56
(lp134
g49
(g58
g51
NtRp135
(dp136
g54
(dp137
g62
I4
ssg63
Nsg56
(lp138
g49
(g65
g51
NtRp139
(dp140
g54
(dp141
sg63
g135
sg56
(lp142
g49
(g70
g51
NtRp143
(dp144
g54
(dp145
sg63
g139
sg56
(lp146
g49
(g50
g51
NtRp147
(dp148
g54
(dp149
g62
I4
ssg63
g143
sg56
(lp150
S'store'
p151
asbasbasbasbasbasbasbag49
(g65
g51
NtRp152
(dp153
g54
(dp154
sg63
g59
sg56
(lp155
g49
(g70
g51
NtRp156
(dp157
g54
(dp158
g74
g75
ssg63
g152
sg56
(lp159
S'body'
p160
asbag49
(g70
g51
NtRp161
(dp162
g54
(dp163
g81
g82
ssg63
g152
sg56
(lp164
S':'
asbag49
(g70
g51
NtRp165
(dp166
g54
(dp167
sg63
g152
sg56
(lp168
g49
(g50
g51
NtRp169
(dp170
g54
(dp171
g62
I5
ssg63
g165
sg56
(lp172
S'<cStringIO.StringO object at 0x1e82380>'
p173
asbasbasbag49
(g65
g51
NtRp174
(dp175
g54
(dp176
sg63
g59
sg56
(lp177
g49
(g70
g51
NtRp178
(dp179
g54
(dp180
g74
g75
ssg63
g174
sg56
(lp181
S'client'
p182
asbag49
(g70
g51
NtRp183
(dp184
g54
(dp185
g81
g82
ssg63
g174
sg56
(lp186
S':'
asbag49
(g70
g51
NtRp187
(dp188
g54
(dp189
sg63
g174
sg56
(lp190
g49
(g50
g51
NtRp191
(dp192
g54
(dp193
g62
I5
ssg63
g187
sg56
(lp194
S'127.0.0.1'
p195
asbasbasbag49
(g65
g51
NtRp196
(dp197
g54
(dp198
sg63
g59
sg56
(lp199
g49
(g70
g51
NtRp200
(dp201
g54
(dp202
g74
g75
ssg63
g196
sg56
(lp203
S'controller'
p204
asbag49
(g70
g51
NtRp205
(dp206
g54
(dp207
g81
g82
ssg63
g196
sg56
(lp208
S':'
asbag49
(g70
g51
NtRp209
(dp210
g54
(dp211
sg63
g196
sg56
(lp212
g49
(g50
g51
NtRp213
(dp214
g54
(dp215
g62
I5
ssg63
g209
sg56
(lp216
S'default'
p217
asbasbasbag49
(g65
g51
NtRp218
(dp219
g54
(dp220
sg63
g59
sg56
(lp221
g49
(g70
g51
NtRp222
(dp223
g54
(dp224
g74
g75
ssg63
g218
sg56
(lp225
S'cookies'
p226
asbag49
(g70
g51
NtRp227
(dp228
g54
(dp229
g81
g82
ssg63
g218
sg56
(lp230
S':'
asbag49
(g70
g51
NtRp231
(dp232
g54
(dp233
sg63
g218
sg56
(lp234
g49
(g50
g51
NtRp235
(dp236
g54
(dp237
g62
I5
ssg63
g231
sg56
(lp238
g49
(g58
g51
NtRp239
(dp240
g54
(dp241
g62
I4
ssg63
Nsg56
(lp242
g49
(g65
g51
NtRp243
(dp244
g54
(dp245
sg63
g239
sg56
(lp246
g49
(g70
g51
NtRp247
(dp248
g54
(dp249
g74
g75
ssg63
g243
sg56
(lp250
S'el-finder-last-finder'
p251
asbag49
(g70
g51
NtRp252
(dp253
g54
(dp254
g81
g82
ssg63
g243
sg56
(lp255
S':'
asbag49
(g70
g51
NtRp256
(dp257
g54
(dp258
sg63
g243
sg56
(lp259
g49
(g50
g51
NtRp260
(dp261
g54
(dp262
g62
I4
ssg63
g256
sg56
(lp263
g49
(g58
g51
NtRp264
(dp265
g54
(dp266
g62
I3
ssg63
Nsg56
(lp267
g49
(g65
g51
NtRp268
(dp269
g54
(dp270
sg63
g264
sg56
(lp271
g49
(g70
g51
NtRp272
(dp273
g54
(dp274
g74
g75
ssg63
g268
sg56
(lp275
S'comment'
p276
asbag49
(g70
g51
NtRp277
(dp278
g54
(dp279
g81
g82
ssg63
g268
sg56
(lp280
S':'
asbag49
(g70
g51
NtRp281
(dp282
g54
(dp283
sg63
g268
sg56
(lp284
g49
(g50
g51
NtRp285
(dp286
g54
(dp287
g62
I3
ssg63
g281
sg56
(lp288
S''
asbasbasbag49
(g65
g51
NtRp289
(dp290
g54
(dp291
sg63
g264
sg56
(lp292
g49
(g70
g51
NtRp293
(dp294
g54
(dp295
g74
g75
ssg63
g289
sg56
(lp296
S'domain'
p297
asbag49
(g70
g51
NtRp298
(dp299
g54
(dp300
g81
g82
ssg63
g289
sg56
(lp301
S':'
asbag49
(g70
g51
NtRp302
(dp303
g54
(dp304
sg63
g289
sg56
(lp305
g49
(g50
g51
NtRp306
(dp307
g54
(dp308
g62
I3
ssg63
g302
sg56
(lp309
S''
asbasbasbag49
(g65
g51
NtRp310
(dp311
g54
(dp312
sg63
g264
sg56
(lp313
g49
(g70
g51
NtRp314
(dp315
g54
(dp316
g74
g75
ssg63
g310
sg56
(lp317
S'expires'
p318
asbag49
(g70
g51
NtRp319
(dp320
g54
(dp321
g81
g82
ssg63
g310
sg56
(lp322
S':'
asbag49
(g70
g51
NtRp323
(dp324
g54
(dp325
sg63
g310
sg56
(lp326
g49
(g50
g51
NtRp327
(dp328
g54
(dp329
g62
I3
ssg63
g323
sg56
(lp330
S''
asbasbasbag49
(g65
g51
NtRp331
(dp332
g54
(dp333
sg63
g264
sg56
(lp334
g49
(g70
g51
NtRp335
(dp336
g54
(dp337
g74
g75
ssg63
g331
sg56
(lp338
S'max-age'
p339
asbag49
(g70
g51
NtRp340
(dp341
g54
(dp342
g81
g82
ssg63
g331
sg56
(lp343
S':'
asbag49
(g70
g51
NtRp344
(dp345
g54
(dp346
sg63
g331
sg56
(lp347
g49
(g50
g51
NtRp348
(dp349
g54
(dp350
g62
I3
ssg63
g344
sg56
(lp351
S''
asbasbasbag49
(g65
g51
NtRp352
(dp353
g54
(dp354
sg63
g264
sg56
(lp355
g49
(g70
g51
NtRp356
(dp357
g54
(dp358
g74
g75
ssg63
g352
sg56
(lp359
S'path'
p360
asbag49
(g70
g51
NtRp361
(dp362
g54
(dp363
g81
g82
ssg63
g352
sg56
(lp364
S':'
asbag49
(g70
g51
NtRp365
(dp366
g54
(dp367
sg63
g352
sg56
(lp368
g49
(g50
g51
NtRp369
(dp370
g54
(dp371
g62
I3
ssg63
g365
sg56
(lp372
S''
asbasbasbag49
(g65
g51
NtRp373
(dp374
g54
(dp375
sg63
g264
sg56
(lp376
g49
(g70
g51
NtRp377
(dp378
g54
(dp379
g74
g75
ssg63
g373
sg56
(lp380
S'secure'
p381
asbag49
(g70
g51
NtRp382
(dp383
g54
(dp384
g81
g82
ssg63
g373
sg56
(lp385
S':'
asbag49
(g70
g51
NtRp386
(dp387
g54
(dp388
sg63
g373
sg56
(lp389
g49
(g50
g51
NtRp390
(dp391
g54
(dp392
g62
I3
ssg63
g386
sg56
(lp393
S''
asbasbasbag49
(g65
g51
NtRp394
(dp395
g54
(dp396
sg63
g264
sg56
(lp397
g49
(g70
g51
NtRp398
(dp399
g54
(dp400
g74
g75
ssg63
g394
sg56
(lp401
S'version'
p402
asbag49
(g70
g51
NtRp403
(dp404
g54
(dp405
g81
g82
ssg63
g394
sg56
(lp406
S':'
asbag49
(g70
g51
NtRp407
(dp408
g54
(dp409
sg63
g394
sg56
(lp410
g49
(g50
g51
NtRp411
(dp412
g54
(dp413
g62
I3
ssg63
g407
sg56
(lp414
S''
asbasbasbasbasbasbasbag49
(g65
g51
NtRp415
(dp416
g54
(dp417
sg63
g239
sg56
(lp418
g49
(g70
g51
NtRp419
(dp420
g54
(dp421
g74
g75
ssg63
g415
sg56
(lp422
S'registered'
p423
asbag49
(g70
g51
NtRp424
(dp425
g54
(dp426
g81
g82
ssg63
g415
sg56
(lp427
S':'
asbag49
(g70
g51
NtRp428
(dp429
g54
(dp430
sg63
g415
sg56
(lp431
g49
(g50
g51
NtRp432
(dp433
g54
(dp434
g62
I4
ssg63
g428
sg56
(lp435
g49
(g58
g51
NtRp436
(dp437
g54
(dp438
g62
I3
ssg63
Nsg56
(lp439
g49
(g65
g51
NtRp440
(dp441
g54
(dp442
sg63
g436
sg56
(lp443
g49
(g70
g51
NtRp444
(dp445
g54
(dp446
g74
g75
ssg63
g440
sg56
(lp447
g276
asbag49
(g70
g51
NtRp448
(dp449
g54
(dp450
g81
g82
ssg63
g440
sg56
(lp451
S':'
asbag49
(g70
g51
NtRp452
(dp453
g54
(dp454
sg63
g440
sg56
(lp455
g49
(g50
g51
NtRp456
(dp457
g54
(dp458
g62
I3
ssg63
g452
sg56
(lp459
S''
asbasbasbag49
(g65
g51
NtRp460
(dp461
g54
(dp462
sg63
g436
sg56
(lp463
g49
(g70
g51
NtRp464
(dp465
g54
(dp466
g74
g75
ssg63
g460
sg56
(lp467
g297
asbag49
(g70
g51
NtRp468
(dp469
g54
(dp470
g81
g82
ssg63
g460
sg56
(lp471
S':'
asbag49
(g70
g51
NtRp472
(dp473
g54
(dp474
sg63
g460
sg56
(lp475
g49
(g50
g51
NtRp476
(dp477
g54
(dp478
g62
I3
ssg63
g472
sg56
(lp479
S''
asbasbasbag49
(g65
g51
NtRp480
(dp481
g54
(dp482
sg63
g436
sg56
(lp483
g49
(g70
g51
NtRp484
(dp485
g54
(dp486
g74
g75
ssg63
g480
sg56
(lp487
g318
asbag49
(g70
g51
NtRp488
(dp489
g54
(dp490
g81
g82
ssg63
g480
sg56
(lp491
S':'
asbag49
(g70
g51
NtRp492
(dp493
g54
(dp494
sg63
g480
sg56
(lp495
g49
(g50
g51
NtRp496
(dp497
g54
(dp498
g62
I3
ssg63
g492
sg56
(lp499
S''
asbasbasbag49
(g65
g51
NtRp500
(dp501
g54
(dp502
sg63
g436
sg56
(lp503
g49
(g70
g51
NtRp504
(dp505
g54
(dp506
g74
g75
ssg63
g500
sg56
(lp507
g339
asbag49
(g70
g51
NtRp508
(dp509
g54
(dp510
g81
g82
ssg63
g500
sg56
(lp511
S':'
asbag49
(g70
g51
NtRp512
(dp513
g54
(dp514
sg63
g500
sg56
(lp515
g49
(g50
g51
NtRp516
(dp517
g54
(dp518
g62
I3
ssg63
g512
sg56
(lp519
S''
asbasbasbag49
(g65
g51
NtRp520
(dp521
g54
(dp522
sg63
g436
sg56
(lp523
g49
(g70
g51
NtRp524
(dp525
g54
(dp526
g74
g75
ssg63
g520
sg56
(lp527
g360
asbag49
(g70
g51
NtRp528
(dp529
g54
(dp530
g81
g82
ssg63
g520
sg56
(lp531
S':'
asbag49
(g70
g51
NtRp532
(dp533
g54
(dp534
sg63
g520
sg56
(lp535
g49
(g50
g51
NtRp536
(dp537
g54
(dp538
g62
I3
ssg63
g532
sg56
(lp539
S''
asbasbasbag49
(g65
g51
NtRp540
(dp541
g54
(dp542
sg63
g436
sg56
(lp543
g49
(g70
g51
NtRp544
(dp545
g54
(dp546
g74
g75
ssg63
g540
sg56
(lp547
g381
asbag49
(g70
g51
NtRp548
(dp549
g54
(dp550
g81
g82
ssg63
g540
sg56
(lp551
S':'
asbag49
(g70
g51
NtRp552
(dp553
g54
(dp554
sg63
g540
sg56
(lp555
g49
(g50
g51
NtRp556
(dp557
g54
(dp558
g62
I3
ssg63
g552
sg56
(lp559
S''
asbasbasbag49
(g65
g51
NtRp560
(dp561
g54
(dp562
sg63
g436
sg56
(lp563
g49
(g70
g51
NtRp564
(dp565
g54
(dp566
g74
g75
ssg63
g560
sg56
(lp567
g402
asbag49
(g70
g51
NtRp568
(dp569
g54
(dp570
g81
g82
ssg63
g560
sg56
(lp571
S':'
asbag49
(g70
g51
NtRp572
(dp573
g54
(dp574
sg63
g560
sg56
(lp575
g49
(g50
g51
NtRp576
(dp577
g54
(dp578
g62
I3
ssg63
g572
sg56
(lp579
S''
asbasbasbasbasbasbasbag49
(g65
g51
NtRp580
(dp581
g54
(dp582
sg63
g239
sg56
(lp583
g49
(g70
g51
NtRp584
(dp585
g54
(dp586
g74
g75
ssg63
g580
sg56
(lp587
S's_nr'
p588
asbag49
(g70
g51
NtRp589
(dp590
g54
(dp591
g81
g82
ssg63
g580
sg56
(lp592
S':'
asbag49
(g70
g51
NtRp593
(dp594
g54
(dp595
sg63
g580
sg56
(lp596
g49
(g50
g51
NtRp597
(dp598
g54
(dp599
g62
I4
ssg63
g593
sg56
(lp600
g49
(g58
g51
NtRp601
(dp602
g54
(dp603
g62
I3
ssg63
Nsg56
(lp604
g49
(g65
g51
NtRp605
(dp606
g54
(dp607
sg63
g601
sg56
(lp608
g49
(g70
g51
NtRp609
(dp610
g54
(dp611
g74
g75
ssg63
g605
sg56
(lp612
g276
asbag49
(g70
g51
NtRp613
(dp614
g54
(dp615
g81
g82
ssg63
g605
sg56
(lp616
S':'
asbag49
(g70
g51
NtRp617
(dp618
g54
(dp619
sg63
g605
sg56
(lp620
g49
(g50
g51
NtRp621
(dp622
g54
(dp623
g62
I3
ssg63
g617
sg56
(lp624
S''
asbasbasbag49
(g65
g51
NtRp625
(dp626
g54
(dp627
sg63
g601
sg56
(lp628
g49
(g70
g51
NtRp629
(dp630
g54
(dp631
g74
g75
ssg63
g625
sg56
(lp632
g297
asbag49
(g70
g51
NtRp633
(dp634
g54
(dp635
g81
g82
ssg63
g625
sg56
(lp636
S':'
asbag49
(g70
g51
NtRp637
(dp638
g54
(dp639
sg63
g625
sg56
(lp640
g49
(g50
g51
NtRp641
(dp642
g54
(dp643
g62
I3
ssg63
g637
sg56
(lp644
S''
asbasbasbag49
(g65
g51
NtRp645
(dp646
g54
(dp647
sg63
g601
sg56
(lp648
g49
(g70
g51
NtRp649
(dp650
g54
(dp651
g74
g75
ssg63
g645
sg56
(lp652
g318
asbag49
(g70
g51
NtRp653
(dp654
g54
(dp655
g81
g82
ssg63
g645
sg56
(lp656
S':'
asbag49
(g70
g51
NtRp657
(dp658
g54
(dp659
sg63
g645
sg56
(lp660
g49
(g50
g51
NtRp661
(dp662
g54
(dp663
g62
I3
ssg63
g657
sg56
(lp664
S''
asbasbasbag49
(g65
g51
NtRp665
(dp666
g54
(dp667
sg63
g601
sg56
(lp668
g49
(g70
g51
NtRp669
(dp670
g54
(dp671
g74
g75
ssg63
g665
sg56
(lp672
g339
asbag49
(g70
g51
NtRp673
(dp674
g54
(dp675
g81
g82
ssg63
g665
sg56
(lp676
S':'
asbag49
(g70
g51
NtRp677
(dp678
g54
(dp679
sg63
g665
sg56
(lp680
g49
(g50
g51
NtRp681
(dp682
g54
(dp683
g62
I3
ssg63
g677
sg56
(lp684
S''
asbasbasbag49
(g65
g51
NtRp685
(dp686
g54
(dp687
sg63
g601
sg56
(lp688
g49
(g70
g51
NtRp689
(dp690
g54
(dp691
g74
g75
ssg63
g685
sg56
(lp692
g360
asbag49
(g70
g51
NtRp693
(dp694
g54
(dp695
g81
g82
ssg63
g685
sg56
(lp696
S':'
asbag49
(g70
g51
NtRp697
(dp698
g54
(dp699
sg63
g685
sg56
(lp700
g49
(g50
g51
NtRp701
(dp702
g54
(dp703
g62
I3
ssg63
g697
sg56
(lp704
S''
asbasbasbag49
(g65
g51
NtRp705
(dp706
g54
(dp707
sg63
g601
sg56
(lp708
g49
(g70
g51
NtRp709
(dp710
g54
(dp711
g74
g75
ssg63
g705
sg56
(lp712
g381
asbag49
(g70
g51
NtRp713
(dp714
g54
(dp715
g81
g82
ssg63
g705
sg56
(lp716
S':'
asbag49
(g70
g51
NtRp717
(dp718
g54
(dp719
sg63
g705
sg56
(lp720
g49
(g50
g51
NtRp721
(dp722
g54
(dp723
g62
I3
ssg63
g717
sg56
(lp724
S''
asbasbasbag49
(g65
g51
NtRp725
(dp726
g54
(dp727
sg63
g601
sg56
(lp728
g49
(g70
g51
NtRp729
(dp730
g54
(dp731
g74
g75
ssg63
g725
sg56
(lp732
g402
asbag49
(g70
g51
NtRp733
(dp734
g54
(dp735
g81
g82
ssg63
g725
sg56
(lp736
S':'
asbag49
(g70
g51
NtRp737
(dp738
g54
(dp739
sg63
g725
sg56
(lp740
g49
(g50
g51
NtRp741
(dp742
g54
(dp743
g62
I3
ssg63
g737
sg56
(lp744
S''
asbasbasbasbasbasbasbag49
(g65
g51
NtRp745
(dp746
g54
(dp747
sg63
g239
sg56
(lp748
g49
(g70
g51
NtRp749
(dp750
g54
(dp751
g74
g75
ssg63
g745
sg56
(lp752
S'session_id_admin'
p753
asbag49
(g70
g51
NtRp754
(dp755
g54
(dp756
g81
g82
ssg63
g745
sg56
(lp757
S':'
asbag49
(g70
g51
NtRp758
(dp759
g54
(dp760
sg63
g745
sg56
(lp761
g49
(g50
g51
NtRp762
(dp763
g54
(dp764
g62
I4
ssg63
g758
sg56
(lp765
g49
(g58
g51
NtRp766
(dp767
g54
(dp768
g62
I3
ssg63
Nsg56
(lp769
g49
(g65
g51
NtRp770
(dp771
g54
(dp772
sg63
g766
sg56
(lp773
g49
(g70
g51
NtRp774
(dp775
g54
(dp776
g74
g75
ssg63
g770
sg56
(lp777
g276
asbag49
(g70
g51
NtRp778
(dp779
g54
(dp780
g81
g82
ssg63
g770
sg56
(lp781
S':'
asbag49
(g70
g51
NtRp782
(dp783
g54
(dp784
sg63
g770
sg56
(lp785
g49
(g50
g51
NtRp786
(dp787
g54
(dp788
g62
I3
ssg63
g782
sg56
(lp789
S''
asbasbasbag49
(g65
g51
NtRp790
(dp791
g54
(dp792
sg63
g766
sg56
(lp793
g49
(g70
g51
NtRp794
(dp795
g54
(dp796
g74
g75
ssg63
g790
sg56
(lp797
g297
asbag49
(g70
g51
NtRp798
(dp799
g54
(dp800
g81
g82
ssg63
g790
sg56
(lp801
S':'
asbag49
(g70
g51
NtRp802
(dp803
g54
(dp804
sg63
g790
sg56
(lp805
g49
(g50
g51
NtRp806
(dp807
g54
(dp808
g62
I3
ssg63
g802
sg56
(lp809
S''
asbasbasbag49
(g65
g51
NtRp810
(dp811
g54
(dp812
sg63
g766
sg56
(lp813
g49
(g70
g51
NtRp814
(dp815
g54
(dp816
g74
g75
ssg63
g810
sg56
(lp817
g318
asbag49
(g70
g51
NtRp818
(dp819
g54
(dp820
g81
g82
ssg63
g810
sg56
(lp821
S':'
asbag49
(g70
g51
NtRp822
(dp823
g54
(dp824
sg63
g810
sg56
(lp825
g49
(g50
g51
NtRp826
(dp827
g54
(dp828
g62
I3
ssg63
g822
sg56
(lp829
S''
asbasbasbag49
(g65
g51
NtRp830
(dp831
g54
(dp832
sg63
g766
sg56
(lp833
g49
(g70
g51
NtRp834
(dp835
g54
(dp836
g74
g75
ssg63
g830
sg56
(lp837
g339
asbag49
(g70
g51
NtRp838
(dp839
g54
(dp840
g81
g82
ssg63
g830
sg56
(lp841
S':'
asbag49
(g70
g51
NtRp842
(dp843
g54
(dp844
sg63
g830
sg56
(lp845
g49
(g50
g51
NtRp846
(dp847
g54
(dp848
g62
I3
ssg63
g842
sg56
(lp849
S''
asbasbasbag49
(g65
g51
NtRp850
(dp851
g54
(dp852
sg63
g766
sg56
(lp853
g49
(g70
g51
NtRp854
(dp855
g54
(dp856
g74
g75
ssg63
g850
sg56
(lp857
g360
asbag49
(g70
g51
NtRp858
(dp859
g54
(dp860
g81
g82
ssg63
g850
sg56
(lp861
S':'
asbag49
(g70
g51
NtRp862
(dp863
g54
(dp864
sg63
g850
sg56
(lp865
g49
(g50
g51
NtRp866
(dp867
g54
(dp868
g62
I3
ssg63
g862
sg56
(lp869
S''
asbasbasbag49
(g65
g51
NtRp870
(dp871
g54
(dp872
sg63
g766
sg56
(lp873
g49
(g70
g51
NtRp874
(dp875
g54
(dp876
g74
g75
ssg63
g870
sg56
(lp877
g381
asbag49
(g70
g51
NtRp878
(dp879
g54
(dp880
g81
g82
ssg63
g870
sg56
(lp881
S':'
asbag49
(g70
g51
NtRp882
(dp883
g54
(dp884
sg63
g870
sg56
(lp885
g49
(g50
g51
NtRp886
(dp887
g54
(dp888
g62
I3
ssg63
g882
sg56
(lp889
S''
asbasbasbag49
(g65
g51
NtRp890
(dp891
g54
(dp892
sg63
g766
sg56
(lp893
g49
(g70
g51
NtRp894
(dp895
g54
(dp896
g74
g75
ssg63
g890
sg56
(lp897
g402
asbag49
(g70
g51
NtRp898
(dp899
g54
(dp900
g81
g82
ssg63
g890
sg56
(lp901
S':'
asbag49
(g70
g51
NtRp902
(dp903
g54
(dp904
sg63
g890
sg56
(lp905
g49
(g50
g51
NtRp906
(dp907
g54
(dp908
g62
I3
ssg63
g902
sg56
(lp909
S''
asbasbasbasbasbasbasbag49
(g65
g51
NtRp910
(dp911
g54
(dp912
sg63
g239
sg56
(lp913
g49
(g70
g51
NtRp914
(dp915
g54
(dp916
g74
g75
ssg63
g910
sg56
(lp917
S'session_id_cms'
p918
asbag49
(g70
g51
NtRp919
(dp920
g54
(dp921
g81
g82
ssg63
g910
sg56
(lp922
S':'
asbag49
(g70
g51
NtRp923
(dp924
g54
(dp925
sg63
g910
sg56
(lp926
g49
(g50
g51
NtRp927
(dp928
g54
(dp929
g62
I4
ssg63
g923
sg56
(lp930
g49
(g58
g51
NtRp931
(dp932
g54
(dp933
g62
I3
ssg63
Nsg56
(lp934
g49
(g65
g51
NtRp935
(dp936
g54
(dp937
sg63
g931
sg56
(lp938
g49
(g70
g51
NtRp939
(dp940
g54
(dp941
g74
g75
ssg63
g935
sg56
(lp942
g276
asbag49
(g70
g51
NtRp943
(dp944
g54
(dp945
g81
g82
ssg63
g935
sg56
(lp946
S':'
asbag49
(g70
g51
NtRp947
(dp948
g54
(dp949
sg63
g935
sg56
(lp950
g49
(g50
g51
NtRp951
(dp952
g54
(dp953
g62
I3
ssg63
g947
sg56
(lp954
S''
asbasbasbag49
(g65
g51
NtRp955
(dp956
g54
(dp957
sg63
g931
sg56
(lp958
g49
(g70
g51
NtRp959
(dp960
g54
(dp961
g74
g75
ssg63
g955
sg56
(lp962
g297
asbag49
(g70
g51
NtRp963
(dp964
g54
(dp965
g81
g82
ssg63
g955
sg56
(lp966
S':'
asbag49
(g70
g51
NtRp967
(dp968
g54
(dp969
sg63
g955
sg56
(lp970
g49
(g50
g51
NtRp971
(dp972
g54
(dp973
g62
I3
ssg63
g967
sg56
(lp974
S''
asbasbasbag49
(g65
g51
NtRp975
(dp976
g54
(dp977
sg63
g931
sg56
(lp978
g49
(g70
g51
NtRp979
(dp980
g54
(dp981
g74
g75
ssg63
g975
sg56
(lp982
g318
asbag49
(g70
g51
NtRp983
(dp984
g54
(dp985
g81
g82
ssg63
g975
sg56
(lp986
S':'
asbag49
(g70
g51
NtRp987
(dp988
g54
(dp989
sg63
g975
sg56
(lp990
g49
(g50
g51
NtRp991
(dp992
g54
(dp993
g62
I3
ssg63
g987
sg56
(lp994
S''
asbasbasbag49
(g65
g51
NtRp995
(dp996
g54
(dp997
sg63
g931
sg56
(lp998
g49
(g70
g51
NtRp999
(dp1000
g54
(dp1001
g74
g75
ssg63
g995
sg56
(lp1002
g339
asbag49
(g70
g51
NtRp1003
(dp1004
g54
(dp1005
g81
g82
ssg63
g995
sg56
(lp1006
S':'
asbag49
(g70
g51
NtRp1007
(dp1008
g54
(dp1009
sg63
g995
sg56
(lp1010
g49
(g50
g51
NtRp1011
(dp1012
g54
(dp1013
g62
I3
ssg63
g1007
sg56
(lp1014
S''
asbasbasbag49
(g65
g51
NtRp1015
(dp1016
g54
(dp1017
sg63
g931
sg56
(lp1018
g49
(g70
g51
NtRp1019
(dp1020
g54
(dp1021
g74
g75
ssg63
g1015
sg56
(lp1022
g360
asbag49
(g70
g51
NtRp1023
(dp1024
g54
(dp1025
g81
g82
ssg63
g1015
sg56
(lp1026
S':'
asbag49
(g70
g51
NtRp1027
(dp1028
g54
(dp1029
sg63
g1015
sg56
(lp1030
g49
(g50
g51
NtRp1031
(dp1032
g54
(dp1033
g62
I3
ssg63
g1027
sg56
(lp1034
S''
asbasbasbag49
(g65
g51
NtRp1035
(dp1036
g54
(dp1037
sg63
g931
sg56
(lp1038
g49
(g70
g51
NtRp1039
(dp1040
g54
(dp1041
g74
g75
ssg63
g1035
sg56
(lp1042
g381
asbag49
(g70
g51
NtRp1043
(dp1044
g54
(dp1045
g81
g82
ssg63
g1035
sg56
(lp1046
S':'
asbag49
(g70
g51
NtRp1047
(dp1048
g54
(dp1049
sg63
g1035
sg56
(lp1050
g49
(g50
g51
NtRp1051
(dp1052
g54
(dp1053
g62
I3
ssg63
g1047
sg56
(lp1054
S''
asbasbasbag49
(g65
g51
NtRp1055
(dp1056
g54
(dp1057
sg63
g931
sg56
(lp1058
g49
(g70
g51
NtRp1059
(dp1060
g54
(dp1061
g74
g75
ssg63
g1055
sg56
(lp1062
g402
asbag49
(g70
g51
NtRp1063
(dp1064
g54
(dp1065
g81
g82
ssg63
g1055
sg56
(lp1066
S':'
asbag49
(g70
g51
NtRp1067
(dp1068
g54
(dp1069
sg63
g1055
sg56
(lp1070
g49
(g50
g51
NtRp1071
(dp1072
g54
(dp1073
g62
I3
ssg63
g1067
sg56
(lp1074
S''
asbasbasbasbasbasbasbag49
(g65
g51
NtRp1075
(dp1076
g54
(dp1077
sg63
g239
sg56
(lp1078
g49
(g70
g51
NtRp1079
(dp1080
g54
(dp1081
g74
g75
ssg63
g1075
sg56
(lp1082
S'session_id_inplace'
p1083
asbag49
(g70
g51
NtRp1084
(dp1085
g54
(dp1086
g81
g82
ssg63
g1075
sg56
(lp1087
S':'
asbag49
(g70
g51
NtRp1088
(dp1089
g54
(dp1090
sg63
g1075
sg56
(lp1091
g49
(g50
g51
NtRp1092
(dp1093
g54
(dp1094
g62
I4
ssg63
g1088
sg56
(lp1095
g49
(g58
g51
NtRp1096
(dp1097
g54
(dp1098
g62
I3
ssg63
Nsg56
(lp1099
g49
(g65
g51
NtRp1100
(dp1101
g54
(dp1102
sg63
g1096
sg56
(lp1103
g49
(g70
g51
NtRp1104
(dp1105
g54
(dp1106
g74
g75
ssg63
g1100
sg56
(lp1107
g276
asbag49
(g70
g51
NtRp1108
(dp1109
g54
(dp1110
g81
g82
ssg63
g1100
sg56
(lp1111
S':'
asbag49
(g70
g51
NtRp1112
(dp1113
g54
(dp1114
sg63
g1100
sg56
(lp1115
g49
(g50
g51
NtRp1116
(dp1117
g54
(dp1118
g62
I3
ssg63
g1112
sg56
(lp1119
S''
asbasbasbag49
(g65
g51
NtRp1120
(dp1121
g54
(dp1122
sg63
g1096
sg56
(lp1123
g49
(g70
g51
NtRp1124
(dp1125
g54
(dp1126
g74
g75
ssg63
g1120
sg56
(lp1127
g297
asbag49
(g70
g51
NtRp1128
(dp1129
g54
(dp1130
g81
g82
ssg63
g1120
sg56
(lp1131
S':'
asbag49
(g70
g51
NtRp1132
(dp1133
g54
(dp1134
sg63
g1120
sg56
(lp1135
g49
(g50
g51
NtRp1136
(dp1137
g54
(dp1138
g62
I3
ssg63
g1132
sg56
(lp1139
S''
asbasbasbag49
(g65
g51
NtRp1140
(dp1141
g54
(dp1142
sg63
g1096
sg56
(lp1143
g49
(g70
g51
NtRp1144
(dp1145
g54
(dp1146
g74
g75
ssg63
g1140
sg56
(lp1147
g318
asbag49
(g70
g51
NtRp1148
(dp1149
g54
(dp1150
g81
g82
ssg63
g1140
sg56
(lp1151
S':'
asbag49
(g70
g51
NtRp1152
(dp1153
g54
(dp1154
sg63
g1140
sg56
(lp1155
g49
(g50
g51
NtRp1156
(dp1157
g54
(dp1158
g62
I3
ssg63
g1152
sg56
(lp1159
S''
asbasbasbag49
(g65
g51
NtRp1160
(dp1161
g54
(dp1162
sg63
g1096
sg56
(lp1163
g49
(g70
g51
NtRp1164
(dp1165
g54
(dp1166
g74
g75
ssg63
g1160
sg56
(lp1167
g339
asbag49
(g70
g51
NtRp1168
(dp1169
g54
(dp1170
g81
g82
ssg63
g1160
sg56
(lp1171
S':'
asbag49
(g70
g51
NtRp1172
(dp1173
g54
(dp1174
sg63
g1160
sg56
(lp1175
g49
(g50
g51
NtRp1176
(dp1177
g54
(dp1178
g62
I3
ssg63
g1172
sg56
(lp1179
S''
asbasbasbag49
(g65
g51
NtRp1180
(dp1181
g54
(dp1182
sg63
g1096
sg56
(lp1183
g49
(g70
g51
NtRp1184
(dp1185
g54
(dp1186
g74
g75
ssg63
g1180
sg56
(lp1187
g360
asbag49
(g70
g51
NtRp1188
(dp1189
g54
(dp1190
g81
g82
ssg63
g1180
sg56
(lp1191
S':'
asbag49
(g70
g51
NtRp1192
(dp1193
g54
(dp1194
sg63
g1180
sg56
(lp1195
g49
(g50
g51
NtRp1196
(dp1197
g54
(dp1198
g62
I3
ssg63
g1192
sg56
(lp1199
S''
asbasbasbag49
(g65
g51
NtRp1200
(dp1201
g54
(dp1202
sg63
g1096
sg56
(lp1203
g49
(g70
g51
NtRp1204
(dp1205
g54
(dp1206
g74
g75
ssg63
g1200
sg56
(lp1207
g381
asbag49
(g70
g51
NtRp1208
(dp1209
g54
(dp1210
g81
g82
ssg63
g1200
sg56
(lp1211
S':'
asbag49
(g70
g51
NtRp1212
(dp1213
g54
(dp1214
sg63
g1200
sg56
(lp1215
g49
(g50
g51
NtRp1216
(dp1217
g54
(dp1218
g62
I3
ssg63
g1212
sg56
(lp1219
S''
asbasbasbag49
(g65
g51
NtRp1220
(dp1221
g54
(dp1222
sg63
g1096
sg56
(lp1223
g49
(g70
g51
NtRp1224
(dp1225
g54
(dp1226
g74
g75
ssg63
g1220
sg56
(lp1227
g402
asbag49
(g70
g51
NtRp1228
(dp1229
g54
(dp1230
g81
g82
ssg63
g1220
sg56
(lp1231
S':'
asbag49
(g70
g51
NtRp1232
(dp1233
g54
(dp1234
sg63
g1220
sg56
(lp1235
g49
(g50
g51
NtRp1236
(dp1237
g54
(dp1238
g62
I3
ssg63
g1232
sg56
(lp1239
S''
asbasbasbasbasbasbasbasbasbasbasbag49
(g65
g51
NtRp1240
(dp1241
g54
(dp1242
sg63
g59
sg56
(lp1243
g49
(g70
g51
NtRp1244
(dp1245
g54
(dp1246
g74
g75
ssg63
g1240
sg56
(lp1247
S'env'
p1248
asbag49
(g70
g51
NtRp1249
(dp1250
g54
(dp1251
g81
g82
ssg63
g1240
sg56
(lp1252
S':'
asbag49
(g70
g51
NtRp1253
(dp1254
g54
(dp1255
sg63
g1240
sg56
(lp1256
g49
(g50
g51
NtRp1257
(dp1258
g54
(dp1259
g62
I5
ssg63
g1253
sg56
(lp1260
g49
(g58
g51
NtRp1261
(dp1262
g54
(dp1263
g62
I4
ssg63
Nsg56
(lp1264
g49
(g65
g51
NtRp1265
(dp1266
g54
(dp1267
sg63
g1261
sg56
(lp1268
g49
(g70
g51
NtRp1269
(dp1270
g54
(dp1271
g74
g75
ssg63
g1265
sg56
(lp1272
S'app_folders'
p1273
asbag49
(g70
g51
NtRp1274
(dp1275
g54
(dp1276
g81
g82
ssg63
g1265
sg56
(lp1277
S':'
asbag49
(g70
g51
NtRp1278
(dp1279
g54
(dp1280
sg63
g1265
sg56
(lp1281
g49
(g50
g51
NtRp1282
(dp1283
g54
(dp1284
g62
I4
ssg63
g1278
sg56
(lp1285
S"set(['/Users/mdipierro/Dropbox/web2py/applications/inplace/', '/Users/mdipierro/Dropbox/web2py/applications/cms/', '/Users/mdipierro/Dropbox/web2py/applications/admin/'])"
p1286
asbasbasbag49
(g65
g51
NtRp1287
(dp1288
g54
(dp1289
sg63
g1261
sg56
(lp1290
g49
(g70
g51
NtRp1291
(dp1292
g54
(dp1293
g74
g75
ssg63
g1287
sg56
(lp1294
S'applications_parent'
p1295
asbag49
(g70
g51
NtRp1296
(dp1297
g54
(dp1298
g81
g82
ssg63
g1287
sg56
(lp1299
S':'
asbag49
(g70
g51
NtRp1300
(dp1301
g54
(dp1302
sg63
g1287
sg56
(lp1303
g49
(g50
g51
NtRp1304
(dp1305
g54
(dp1306
g62
I4
ssg63
g1300
sg56
(lp1307
S'/Users/mdipierro/Dropbox/web2py'
p1308
asbasbasbag49
(g65
g51
NtRp1309
(dp1310
g54
(dp1311
sg63
g1261
sg56
(lp1312
g49
(g70
g51
NtRp1313
(dp1314
g54
(dp1315
g74
g75
ssg63
g1309
sg56
(lp1316
S'cmd_args'
p1317
asbag49
(g70
g51
NtRp1318
(dp1319
g54
(dp1320
g81
g82
ssg63
g1309
sg56
(lp1321
S':'
asbag49
(g70
g51
NtRp1322
(dp1323
g54
(dp1324
sg63
g1309
sg56
(lp1325
g49
(g50
g51
NtRp1326
(dp1327
g54
(dp1328
g62
I4
ssg63
g1322
sg56
(lp1329
g49
(g58
g51
NtRp1330
(dp1331
g54
(dp1332
g62
I3
ssg63
Nsg56
(lp1333
sbasbasbasbag49
(g65
g51
NtRp1334
(dp1335
g54
(dp1336
sg63
g1261
sg56
(lp1337
g49
(g70
g51
NtRp1338
(dp1339
g54
(dp1340
g74
g75
ssg63
g1334
sg56
(lp1341
S'cmd_options'
p1342
asbag49
(g70
g51
NtRp1343
(dp1344
g54
(dp1345
g81
g82
ssg63
g1334
sg56
(lp1346
S':'
asbag49
(g70
g51
NtRp1347
(dp1348
g54
(dp1349
sg63
g1334
sg56
(lp1350
g49
(g50
g51
NtRp1351
(dp1352
g54
(dp1353
g62
I4
ssg63
g1347
sg56
(lp1354
S"<Values at 0x153a378: {'verbose': False, 'ip': '127.0.0.1', 'shutdown_timeout': 5, 'taskbar': False, 'nocron': False, 'pid_filename': 'httpserver.pid', 'maxthreads': None, 'softcron': False, 'server_name': 'massimo-di-pierros-macbook-2.local', 'bpython': False, 'nogui': False, 'port': 8000, 'extcron': False, 'debuglevel': 30, 'test': None, 'folder': '/Users/mdipierro/Dropbox/web2py', 'config': '', 'import_models': False, 'winservice': '', 'shell': None, 'run': '', 'log_filename': 'httpserver.log', 'args': [''], 'socket_timeout': 1, 'ssl_ca_certificate': None, 'scheduler': None, 'profiler_filename': None, 'ssl_private_key': '', 'password': 'hello', 'request_queue_size': 5, 'ssl_certificate': '', 'cronjob': False, 'numthreads': None, 'quiet': False, 'interfaces': None, 'minthreads': None, 'timeout': 10, 'plain': False, 'nobanner': False}>"
p1355
asbasbasbag49
(g65
g51
NtRp1356
(dp1357
g54
(dp1358
sg63
g1261
sg56
(lp1359
g49
(g70
g51
NtRp1360
(dp1361
g54
(dp1362
g74
g75
ssg63
g1356
sg56
(lp1363
S'db_sessions'
p1364
asbag49
(g70
g51
NtRp1365
(dp1366
g54
(dp1367
g81
g82
ssg63
g1356
sg56
(lp1368
S':'
asbag49
(g70
g51
NtRp1369
(dp1370
g54
(dp1371
sg63
g1356
sg56
(lp1372
g49
(g50
g51
NtRp1373
(dp1374
g54
(dp1375
g62
I4
ssg63
g1369
sg56
(lp1376
S'set([])'
p1377
asbasbasbag49
(g65
g51
NtRp1378
(dp1379
g54
(dp1380
sg63
g1261
sg56
(lp1381
g49
(g70
g51
NtRp1382
(dp1383
g54
(dp1384
g74
g75
ssg63
g1378
sg56
(lp1385
S'debugging'
p1386
asbag49
(g70
g51
NtRp1387
(dp1388
g54
(dp1389
g81
g82
ssg63
g1378
sg56
(lp1390
S':'
asbag49
(g70
g51
NtRp1391
(dp1392
g54
(dp1393
sg63
g1378
sg56
(lp1394
g49
(g50
g51
NtRp1395
(dp1396
g54
(dp1397
g62
I4
ssg63
g1391
sg56
(lp1398
g92
asbasbasbag49
(g65
g51
NtRp1399
(dp1400
g54
(dp1401
sg63
g1261
sg56
(lp1402
g49
(g70
g51
NtRp1403
(dp1404
g54
(dp1405
g74
g75
ssg63
g1399
sg56
(lp1406
S'gluon_parent'
p1407
asbag49
(g70
g51
NtRp1408
(dp1409
g54
(dp1410
g81
g82
ssg63
g1399
sg56
(lp1411
S':'
asbag49
(g70
g51
NtRp1412
(dp1413
g54
(dp1414
sg63
g1399
sg56
(lp1415
g49
(g50
g51
NtRp1416
(dp1417
g54
(dp1418
g62
I4
ssg63
g1412
sg56
(lp1419
S'/Users/mdipierro/Dropbox/web2py'
p1420
asbasbasbag49
(g65
g51
NtRp1421
(dp1422
g54
(dp1423
sg63
g1261
sg56
(lp1424
g49
(g70
g51
NtRp1425
(dp1426
g54
(dp1427
g74
g75
ssg63
g1421
sg56
(lp1428
S'http_accept'
p1429
asbag49
(g70
g51
NtRp1430
(dp1431
g54
(dp1432
g81
g82
ssg63
g1421
sg56
(lp1433
S':'
asbag49
(g70
g51
NtRp1434
(dp1435
g54
(dp1436
sg63
g1421
sg56
(lp1437
g49
(g50
g51
NtRp1438
(dp1439
g54
(dp1440
g62
I4
ssg63
g1434
sg56
(lp1441
S'text/html,application/xhtml+xml,application/xml;q=0.9,*/*;q=0.8'
p1442
asbasbasbag49
(g65
g51
NtRp1443
(dp1444
g54
(dp1445
sg63
g1261
sg56
(lp1446
g49
(g70
g51
NtRp1447
(dp1448
g54
(dp1449
g74
g75
ssg63
g1443
sg56
(lp1450
S'http_accept_charset'
p1451
asbag49
(g70
g51
NtRp1452
(dp1453
g54
(dp1454
g81
g82
ssg63
g1443
sg56
(lp1455
S':'
asbag49
(g70
g51
NtRp1456
(dp1457
g54
(dp1458
sg63
g1443
sg56
(lp1459
g49
(g50
g51
NtRp1460
(dp1461
g54
(dp1462
g62
I4
ssg63
g1456
sg56
(lp1463
S'ISO-8859-1,utf-8;q=0.7,*;q=0.3'
p1464
asbasbasbag49
(g65
g51
NtRp1465
(dp1466
g54
(dp1467
sg63
g1261
sg56
(lp1468
g49
(g70
g51
NtRp1469
(dp1470
g54
(dp1471
g74
g75
ssg63
g1465
sg56
(lp1472
S'http_accept_encoding'
p1473
asbag49
(g70
g51
NtRp1474
(dp1475
g54
(dp1476
g81
g82
ssg63
g1465
sg56
(lp1477
S':'
asbag49
(g70
g51
NtRp1478
(dp1479
g54
(dp1480
sg63
g1465
sg56
(lp1481
g49
(g50
g51
NtRp1482
(dp1483
g54
(dp1484
g62
I4
ssg63
g1478
sg56
(lp1485
S'gzip,deflate,sdch'
p1486
asbasbasbag49
(g65
g51
NtRp1487
(dp1488
g54
(dp1489
sg63
g1261
sg56
(lp1490
g49
(g70
g51
NtRp1491
(dp1492
g54
(dp1493
g74
g75
ssg63
g1487
sg56
(lp1494
S'http_accept_language'
p1495
asbag49
(g70
g51
NtRp1496
(dp1497
g54
(dp1498
g81
g82
ssg63
g1487
sg56
(lp1499
S':'
asbag49
(g70
g51
NtRp1500
(dp1501
g54
(dp1502
sg63
g1487
sg56
(lp1503
g49
(g50
g51
NtRp1504
(dp1505
g54
(dp1506
g62
I4
ssg63
g1500
sg56
(lp1507
S'en,en-US;q=0.8,de-DE;q=0.6,de;q=0.4,it-IT;q=0.2,it;q=0.2,ja;q=0.2'
p1508
asbasbasbag49
(g65
g51
NtRp1509
(dp1510
g54
(dp1511
sg63
g1261
sg56
(lp1512
g49
(g70
g51
NtRp1513
(dp1514
g54
(dp1515
g74
g75
ssg63
g1509
sg56
(lp1516
S'http_connection'
p1517
asbag49
(g70
g51
NtRp1518
(dp1519
g54
(dp1520
g81
g82
ssg63
g1509
sg56
(lp1521
S':'
asbag49
(g70
g51
NtRp1522
(dp1523
g54
(dp1524
sg63
g1509
sg56
(lp1525
g49
(g50
g51
NtRp1526
(dp1527
g54
(dp1528
g62
I4
ssg63
g1522
sg56
(lp1529
S'keep-alive'
p1530
asbasbasbag49
(g65
g51
NtRp1531
(dp1532
g54
(dp1533
sg63
g1261
sg56
(lp1534
g49
(g70
g51
NtRp1535
(dp1536
g54
(dp1537
g74
g75
ssg63
g1531
sg56
(lp1538
S'http_cookie'
p1539
asbag49
(g70
g51
NtRp1540
(dp1541
g54
(dp1542
g81
g82
ssg63
g1531
sg56
(lp1543
S':'
asbag49
(g70
g51
NtRp1544
(dp1545
g54
(dp1546
sg63
g1531
sg56
(lp1547
g49
(g50
g51
NtRp1548
(dp1549
g54
(dp1550
g62
I4
ssg63
g1544
sg56
(lp1551
S'registered=yes; __utma_a2a=1369166446.1335515545.1303958619.1316700181.1318215879.74; el-finder-last-finder=4f5a448a961f1931173928a6b6d9d4d2; s_nr=1323495907438-New; __qca=P0-1359637726-1323501662225; _chartbeat2=ha3n2egp47d2hmo0.1323501662417; __utma=96992031.1452952453.1313221394.1323533094.1323638999.6; __utmc=96992031; __utmz=96992031.1313221394.1.1.utmcsr=(direct)|utmccn=(direct)|utmcmd=(none); session_id_cms=127.0.0.1-f4c1e56e-4f4d-4936-aaf7-92fdd3a97f53; session_id_admin=127.0.0.1-6d70af03-6639-4a47-9ec3-7df3afc84ddd; session_id_inplace=127.0.0.1-b67af904-b8cf-469d-95b3-18285a004db1'
p1552
asbasbasbag49
(g65
g51
NtRp1553
(dp1554
g54
(dp1555
sg63
g1261
sg56
(lp1556
g49
(g70
g51
NtRp1557
(dp1558
g54
(dp1559
g74
g75
ssg63
g1553
sg56
(lp1560
S'http_host'
p1561
asbag49
(g70
g51
NtRp1562
(dp1563
g54
(dp1564
g81
g82
ssg63
g1553
sg56
(lp1565
S':'
asbag49
(g70
g51
NtRp1566
(dp1567
g54
(dp1568
sg63
g1553
sg56
(lp1569
g49
(g50
g51
NtRp1570
(dp1571
g54
(dp1572
g62
I4
ssg63
g1566
sg56
(lp1573
S'127.0.0.1:8000'
p1574
asbasbasbag49
(g65
g51
NtRp1575
(dp1576
g54
(dp1577
sg63
g1261
sg56
(lp1578
g49
(g70
g51
NtRp1579
(dp1580
g54
(dp1581
g74
g75
ssg63
g1575
sg56
(lp1582
S'http_user_agent'
p1583
asbag49
(g70
g51
NtRp1584
(dp1585
g54
(dp1586
g81
g82
ssg63
g1575
sg56
(lp1587
S':'
asbag49
(g70
g51
NtRp1588
(dp1589
g54
(dp1590
sg63
g1575
sg56
(lp1591
g49
(g50
g51
NtRp1592
(dp1593
g54
(dp1594
g62
I4
ssg63
g1588
sg56
(lp1595
S'Mozilla/5.0 (Macintosh; Intel Mac OS X 10_6_8) AppleWebKit/535.7 (KHTML, like Gecko) Chrome/16.0.912.63 Safari/535.7'
p1596
asbasbasbag49
(g65
g51
NtRp1597
(dp1598
g54
(dp1599
sg63
g1261
sg56
(lp1600
g49
(g70
g51
NtRp1601
(dp1602
g54
(dp1603
g74
g75
ssg63
g1597
sg56
(lp1604
S'is_jython'
p1605
asbag49
(g70
g51
NtRp1606
(dp1607
g54
(dp1608
g81
g82
ssg63
g1597
sg56
(lp1609
S':'
asbag49
(g70
g51
NtRp1610
(dp1611
g54
(dp1612
sg63
g1597
sg56
(lp1613
g49
(g50
g51
NtRp1614
(dp1615
g54
(dp1616
g62
I4
ssg63
g1610
sg56
(lp1617
g92
asbasbasbag49
(g65
g51
NtRp1618
(dp1619
g54
(dp1620
sg63
g1261
sg56
(lp1621
g49
(g70
g51
NtRp1622
(dp1623
g54
(dp1624
g74
g75
ssg63
g1618
sg56
(lp1625
S'is_pypy'
p1626
asbag49
(g70
g51
NtRp1627
(dp1628
g54
(dp1629
g81
g82
ssg63
g1618
sg56
(lp1630
S':'
asbag49
(g70
g51
NtRp1631
(dp1632
g54
(dp1633
sg63
g1618
sg56
(lp1634
g49
(g50
g51
NtRp1635
(dp1636
g54
(dp1637
g62
I4
ssg63
g1631
sg56
(lp1638
g92
asbasbasbag49
(g65
g51
NtRp1639
(dp1640
g54
(dp1641
sg63
g1261
sg56
(lp1642
g49
(g70
g51
NtRp1643
(dp1644
g54
(dp1645
g74
g75
ssg63
g1639
sg56
(lp1646
S'path_info'
p1647
asbag49
(g70
g51
NtRp1648
(dp1649
g54
(dp1650
g81
g82
ssg63
g1639
sg56
(lp1651
S':'
asbag49
(g70
g51
NtRp1652
(dp1653
g54
(dp1654
sg63
g1639
sg56
(lp1655
g49
(g50
g51
NtRp1656
(dp1657
g54
(dp1658
g62
I4
ssg63
g1652
sg56
(lp1659
S'/inplace/default/edit_clone/store'
p1660
asbasbasbag49
(g65
g51
NtRp1661
(dp1662
g54
(dp1663
sg63
g1261
sg56
(lp1664
g49
(g70
g51
NtRp1665
(dp1666
g54
(dp1667
g74
g75
ssg63
g1661
sg56
(lp1668
S'query_string'
p1669
asbag49
(g70
g51
NtRp1670
(dp1671
g54
(dp1672
g81
g82
ssg63
g1661
sg56
(lp1673
S':'
asbag49
(g70
g51
NtRp1674
(dp1675
g54
(dp1676
sg63
g1661
sg56
(lp1677
g49
(g50
g51
NtRp1678
(dp1679
g54
(dp1680
g62
I4
ssg63
g1674
sg56
(lp1681
S''
asbasbasbag49
(g65
g51
NtRp1682
(dp1683
g54
(dp1684
sg63
g1261
sg56
(lp1685
g49
(g70
g51
NtRp1686
(dp1687
g54
(dp1688
g74
g75
ssg63
g1682
sg56
(lp1689
S'remote_addr'
p1690
asbag49
(g70
g51
NtRp1691
(dp1692
g54
(dp1693
g81
g82
ssg63
g1682
sg56
(lp1694
S':'
asbag49
(g70
g51
NtRp1695
(dp1696
g54
(dp1697
sg63
g1682
sg56
(lp1698
g49
(g50
g51
NtRp1699
(dp1700
g54
(dp1701
g62
I4
ssg63
g1695
sg56
(lp1702
g195
asbasbasbag49
(g65
g51
NtRp1703
(dp1704
g54
(dp1705
sg63
g1261
sg56
(lp1706
g49
(g70
g51
NtRp1707
(dp1708
g54
(dp1709
g74
g75
ssg63
g1703
sg56
(lp1710
S'remote_port'
p1711
asbag49
(g70
g51
NtRp1712
(dp1713
g54
(dp1714
g81
g82
ssg63
g1703
sg56
(lp1715
S':'
asbag49
(g70
g51
NtRp1716
(dp1717
g54
(dp1718
sg63
g1703
sg56
(lp1719
g49
(g50
g51
NtRp1720
(dp1721
g54
(dp1722
g62
I4
ssg63
g1716
sg56
(lp1723
S'55658'
p1724
asbasbasbag49
(g65
g51
NtRp1725
(dp1726
g54
(dp1727
sg63
g1261
sg56
(lp1728
g49
(g70
g51
NtRp1729
(dp1730
g54
(dp1731
g74
g75
ssg63
g1725
sg56
(lp1732
S'request_method'
p1733
asbag49
(g70
g51
NtRp1734
(dp1735
g54
(dp1736
g81
g82
ssg63
g1725
sg56
(lp1737
S':'
asbag49
(g70
g51
NtRp1738
(dp1739
g54
(dp1740
sg63
g1725
sg56
(lp1741
g49
(g50
g51
NtRp1742
(dp1743
g54
(dp1744
g62
I4
ssg63
g1738
sg56
(lp1745
S'GET'
p1746
asbasbasbag49
(g65
g51
NtRp1747
(dp1748
g54
(dp1749
sg63
g1261
sg56
(lp1750
g49
(g70
g51
NtRp1751
(dp1752
g54
(dp1753
g74
g75
ssg63
g1747
sg56
(lp1754
S'script_name'
p1755
asbag49
(g70
g51
NtRp1756
(dp1757
g54
(dp1758
g81
g82
ssg63
g1747
sg56
(lp1759
S':'
asbag49
(g70
g51
NtRp1760
(dp1761
g54
(dp1762
sg63
g1747
sg56
(lp1763
g49
(g50
g51
NtRp1764
(dp1765
g54
(dp1766
g62
I4
ssg63
g1760
sg56
(lp1767
S''
asbasbasbag49
(g65
g51
NtRp1768
(dp1769
g54
(dp1770
sg63
g1261
sg56
(lp1771
g49
(g70
g51
NtRp1772
(dp1773
g54
(dp1774
g74
g75
ssg63
g1768
sg56
(lp1775
S'server_name'
p1776
asbag49
(g70
g51
NtRp1777
(dp1778
g54
(dp1779
g81
g82
ssg63
g1768
sg56
(lp1780
S':'
asbag49
(g70
g51
NtRp1781
(dp1782
g54
(dp1783
sg63
g1768
sg56
(lp1784
g49
(g50
g51
NtRp1785
(dp1786
g54
(dp1787
g62
I4
ssg63
g1781
sg56
(lp1788
S'massimo-di-pierros-macbook-2.local'
p1789
asbasbasbag49
(g65
g51
NtRp1790
(dp1791
g54
(dp1792
sg63
g1261
sg56
(lp1793
g49
(g70
g51
NtRp1794
(dp1795
g54
(dp1796
g74
g75
ssg63
g1790
sg56
(lp1797
S'server_port'
p1798
asbag49
(g70
g51
NtRp1799
(dp1800
g54
(dp1801
g81
g82
ssg63
g1790
sg56
(lp1802
S':'
asbag49
(g70
g51
NtRp1803
(dp1804
g54
(dp1805
sg63
g1790
sg56
(lp1806
g49
(g50
g51
NtRp1807
(dp1808
g54
(dp1809
g62
I4
ssg63
g1803
sg56
(lp1810
S'8000'
p1811
asbasbasbag49
(g65
g51
NtRp1812
(dp1813
g54
(dp1814
sg63
g1261
sg56
(lp1815
g49
(g70
g51
NtRp1816
(dp1817
g54
(dp1818
g74
g75
ssg63
g1812
sg56
(lp1819
S'server_protocol'
p1820
asbag49
(g70
g51
NtRp1821
(dp1822
g54
(dp1823
g81
g82
ssg63
g1812
sg56
(lp1824
S':'
asbag49
(g70
g51
NtRp1825
(dp1826
g54
(dp1827
sg63
g1812
sg56
(lp1828
g49
(g50
g51
NtRp1829
(dp1830
g54
(dp1831
g62
I4
ssg63
g1825
sg56
(lp1832
S'HTTP/1.1'
p1833
asbasbasbag49
(g65
g51
NtRp1834
(dp1835
g54
(dp1836
sg63
g1261
sg56
(lp1837
g49
(g70
g51
NtRp1838
(dp1839
g54
(dp1840
g74
g75
ssg63
g1834
sg56
(lp1841
S'server_software'
p1842
asbag49
(g70
g51
NtRp1843
(dp1844
g54
(dp1845
g81
g82
ssg63
g1834
sg56
(lp1846
S':'
asbag49
(g70
g51
NtRp1847
(dp1848
g54
(dp1849
sg63
g1834
sg56
(lp1850
g49
(g50
g51
NtRp1851
(dp1852
g54
(dp1853
g62
I4
ssg63
g1847
sg56
(lp1854
S'Rocket 1.2.4'
p1855
asbasbasbag49
(g65
g51
NtRp1856
(dp1857
g54
(dp1858
sg63
g1261
sg56
(lp1859
g49
(g70
g51
NtRp1860
(dp1861
g54
(dp1862
g74
g75
ssg63
g1856
sg56
(lp1863
S'web2py_crontype'
p1864
asbag49
(g70
g51
NtRp1865
(dp1866
g54
(dp1867
g81
g82
ssg63
g1856
sg56
(lp1868
S':'
asbag49
(g70
g51
NtRp1869
(dp1870
g54
(dp1871
sg63
g1856
sg56
(lp1872
g49
(g50
g51
NtRp1873
(dp1874
g54
(dp1875
g62
I4
ssg63
g1869
sg56
(lp1876
S'hard'
p1877
asbasbasbag49
(g65
g51
NtRp1878
(dp1879
g54
(dp1880
sg63
g1261
sg56
(lp1881
g49
(g70
g51
NtRp1882
(dp1883
g54
(dp1884
g74
g75
ssg63
g1878
sg56
(lp1885
S'web2py_path'
p1886
asbag49
(g70
g51
NtRp1887
(dp1888
g54
(dp1889
g81
g82
ssg63
g1878
sg56
(lp1890
S':'
asbag49
(g70
g51
NtRp1891
(dp1892
g54
(dp1893
sg63
g1878
sg56
(lp1894
g49
(g50
g51
NtRp1895
(dp1896
g54
(dp1897
g62
I4
ssg63
g1891
sg56
(lp1898
g1308
asbasbasbag49
(g65
g51
NtRp1899
(dp1900
g54
(dp1901
sg63
g1261
sg56
(lp1902
g49
(g70
g51
NtRp1903
(dp1904
g54
(dp1905
g74
g75
ssg63
g1899
sg56
(lp1906
S'web2py_version'
p1907
asbag49
(g70
g51
NtRp1908
(dp1909
g54
(dp1910
g81
g82
ssg63
g1899
sg56
(lp1911
S':'
asbag49
(g70
g51
NtRp1912
(dp1913
g54
(dp1914
sg63
g1899
sg56
(lp1915
g49
(g50
g51
NtRp1916
(dp1917
g54
(dp1918
g62
I4
ssg63
g1912
sg56
(lp1919
g49
(g58
g51
NtRp1920
(dp1921
g54
(dp1922
g62
I3
ssg63
Nsg56
(lp1923
g49
(g65
g51
NtRp1924
(dp1925
g54
(dp1926
sg63
g1920
sg56
(lp1927
g49
(g70
g51
NtRp1928
(dp1929
g54
(dp1930
sg63
g1924
sg56
(lp1931
g49
(g50
g51
NtRp1932
(dp1933
g54
(dp1934
g62
I3
ssg63
g1928
sg56
(lp1935
S'1'
asbasbasbag49
(g65
g51
NtRp1936
(dp1937
g54
(dp1938
sg63
g1920
sg56
(lp1939
g49
(g70
g51
NtRp1940
(dp1941
g54
(dp1942
sg63
g1936
sg56
(lp1943
g49
(g50
g51
NtRp1944
(dp1945
g54
(dp1946
g62
I3
ssg63
g1940
sg56
(lp1947
S'99'
p1948
asbasbasbag49
(g65
g51
NtRp1949
(dp1950
g54
(dp1951
sg63
g1920
sg56
(lp1952
g49
(g70
g51
NtRp1953
(dp1954
g54
(dp1955
sg63
g1949
sg56
(lp1956
g49
(g50
g51
NtRp1957
(dp1958
g54
(dp1959
g62
I3
ssg63
g1953
sg56
(lp1960
S'3'
asbasbasbag49
(g65
g51
NtRp1961
(dp1962
g54
(dp1963
sg63
g1920
sg56
(lp1964
g49
(g70
g51
NtRp1965
(dp1966
g54
(dp1967
sg63
g1961
sg56
(lp1968
g49
(g50
g51
NtRp1969
(dp1970
g54
(dp1971
g62
I3
ssg63
g1965
sg56
(lp1972
S'datetime.datetime(2011, 12, 9, 21, 5, 4)'
p1973
asbasbasbag49
(g65
g51
NtRp1974
(dp1975
g54
(dp1976
sg63
g1920
sg56
(lp1977
g49
(g70
g51
NtRp1978
(dp1979
g54
(dp1980
sg63
g1974
sg56
(lp1981
g49
(g50
g51
NtRp1982
(dp1983
g54
(dp1984
g62
I3
ssg63
g1978
sg56
(lp1985
S'stable'
p1986
asbasbasbasbasbasbasbag49
(g65
g51
NtRp1987
(dp1988
g54
(dp1989
sg63
g1261
sg56
(lp1990
g49
(g70
g51
NtRp1991
(dp1992
g54
(dp1993
g74
g75
ssg63
g1987
sg56
(lp1994
S'wsgi_errors'
p1995
asbag49
(g70
g51
NtRp1996
(dp1997
g54
(dp1998
g81
g82
ssg63
g1987
sg56
(lp1999
S':'
asbag49
(g70
g51
NtRp2000
(dp2001
g54
(dp2002
sg63
g1987
sg56
(lp2003
g49
(g50
g51
NtRp2004
(dp2005
g54
(dp2006
g62
I4
ssg63
g2000
sg56
(lp2007
S"<open file '<stderr>', mode 'w' at 0x1620b0>"
p2008
asbasbasbag49
(g65
g51
NtRp2009
(dp2010
g54
(dp2011
sg63
g1261
sg56
(lp2012
g49
(g70
g51
NtRp2013
(dp2014
g54
(dp2015
g74
g75
ssg63
g2009
sg56
(lp2016
S'wsgi_file_wrapper'
p2017
asbag49
(g70
g51
NtRp2018
(dp2019
g54
(dp2020
g81
g82
ssg63
g2009
sg56
(lp2021
S':'
asbag49
(g70
g51
NtRp2022
(dp2023
g54
(dp2024
sg63
g2009
sg56
(lp2025
g49
(g50
g51
NtRp2026
(dp2027
g54
(dp2028
g62
I4
ssg63
g2022
sg56
(lp2029
S'<class wsgiref.util.FileWrapper at 0x7c2840>'
p2030
asbasbasbag49
(g65
g51
NtRp2031
(dp2032
g54
(dp2033
sg63
g1261
sg56
(lp2034
g49
(g70
g51
NtRp2035
(dp2036
g54
(dp2037
g74
g75
ssg63
g2031
sg56
(lp2038
S'wsgi_input'
p2039
asbag49
(g70
g51
NtRp2040
(dp2041
g54
(dp2042
g81
g82
ssg63
g2031
sg56
(lp2043
S':'
asbag49
(g70
g51
NtRp2044
(dp2045
g54
(dp2046
sg63
g2031
sg56
(lp2047
g49
(g50
g51
NtRp2048
(dp2049
g54
(dp2050
g62
I4
ssg63
g2044
sg56
(lp2051
S'<socket._fileobject object at 0x14be830>'
p2052
asbasbasbag49
(g65
g51
NtRp2053
(dp2054
g54
(dp2055
sg63
g1261
sg56
(lp2056
g49
(g70
g51
NtRp2057
(dp2058
g54
(dp2059
g74
g75
ssg63
g2053
sg56
(lp2060
S'wsgi_multiprocess'
p2061
asbag49
(g70
g51
NtRp2062
(dp2063
g54
(dp2064
g81
g82
ssg63
g2053
sg56
(lp2065
S':'
asbag49
(g70
g51
NtRp2066
(dp2067
g54
(dp2068
sg63
g2053
sg56
(lp2069
g49
(g50
g51
NtRp2070
(dp2071
g54
(dp2072
g62
I4
ssg63
g2066
sg56
(lp2073
g92
asbasbasbag49
(g65
g51
NtRp2074
(dp2075
g54
(dp2076
sg63
g1261
sg56
(lp2077
g49
(g70
g51
NtRp2078
(dp2079
g54
(dp2080
g74
g75
ssg63
g2074
sg56
(lp2081
S'wsgi_multithread'
p2082
asbag49
(g70
g51
NtRp2083
(dp2084
g54
(dp2085
g81
g82
ssg63
g2074
sg56
(lp2086
S':'
asbag49
(g70
g51
NtRp2087
(dp2088
g54
(dp2089
sg63
g2074
sg56
(lp2090
g49
(g50
g51
NtRp2091
(dp2092
g54
(dp2093
g62
I4
ssg63
g2087
sg56
(lp2094
S'True'
p2095
asbasbasbag49
(g65
g51
NtRp2096
(dp2097
g54
(dp2098
sg63
g1261
sg56
(lp2099
g49
(g70
g51
NtRp2100
(dp2101
g54
(dp2102
g74
g75
ssg63
g2096
sg56
(lp2103
S'wsgi_run_once'
p2104
asbag49
(g70
g51
NtRp2105
(dp2106
g54
(dp2107
g81
g82
ssg63
g2096
sg56
(lp2108
S':'
asbag49
(g70
g51
NtRp2109
(dp2110
g54
(dp2111
sg63
g2096
sg56
(lp2112
g49
(g50
g51
NtRp2113
(dp2114
g54
(dp2115
g62
I4
ssg63
g2109
sg56
(lp2116
g92
asbasbasbag49
(g65
g51
NtRp2117
(dp2118
g54
(dp2119
sg63
g1261
sg56
(lp2120
g49
(g70
g51
NtRp2121
(dp2122
g54
(dp2123
g74
g75
ssg63
g2117
sg56
(lp2124
S'wsgi_url_scheme'
p2125
asbag49
(g70
g51
NtRp2126
(dp2127
g54
(dp2128
g81
g82
ssg63
g2117
sg56
(lp2129
S':'
asbag49
(g70
g51
NtRp2130
(dp2131
g54
(dp2132
sg63
g2117
sg56
(lp2133
g49
(g50
g51
NtRp2134
(dp2135
g54
(dp2136
g62
I4
ssg63
g2130
sg56
(lp2137
S'http'
p2138
asbasbasbag49
(g65
g51
NtRp2139
(dp2140
g54
(dp2141
sg63
g1261
sg56
(lp2142
g49
(g70
g51
NtRp2143
(dp2144
g54
(dp2145
g74
g75
ssg63
g2139
sg56
(lp2146
S'wsgi_version'
p2147
asbag49
(g70
g51
NtRp2148
(dp2149
g54
(dp2150
g81
g82
ssg63
g2139
sg56
(lp2151
S':'
asbag49
(g70
g51
NtRp2152
(dp2153
g54
(dp2154
sg63
g2139
sg56
(lp2155
g49
(g50
g51
NtRp2156
(dp2157
g54
(dp2158
g62
I4
ssg63
g2152
sg56
(lp2159
g49
(g58
g51
NtRp2160
(dp2161
g54
(dp2162
g62
I3
ssg63
Nsg56
(lp2163
g49
(g65
g51
NtRp2164
(dp2165
g54
(dp2166
sg63
g2160
sg56
(lp2167
g49
(g70
g51
NtRp2168
(dp2169
g54
(dp2170
sg63
g2164
sg56
(lp2171
g49
(g50
g51
NtRp2172
(dp2173
g54
(dp2174
g62
I3
ssg63
g2168
sg56
(lp2175
S'1'
asbasbasbag49
(g65
g51
NtRp2176
(dp2177
g54
(dp2178
sg63
g2160
sg56
(lp2179
g49
(g70
g51
NtRp2180
(dp2181
g54
(dp2182
sg63
g2176
sg56
(lp2183
g49
(g50
g51
NtRp2184
(dp2185
g54
(dp2186
g62
I3
ssg63
g2180
sg56
(lp2187
S'0'
asbasbasbasbasbasbasbasbasbasbasbag49
(g65
g51
NtRp2188
(dp2189
g54
(dp2190
sg63
g59
sg56
(lp2191
g49
(g70
g51
NtRp2192
(dp2193
g54
(dp2194
g74
g75
ssg63
g2188
sg56
(lp2195
S'extension'
p2196
asbag49
(g70
g51
NtRp2197
(dp2198
g54
(dp2199
g81
g82
ssg63
g2188
sg56
(lp2200
S':'
asbag49
(g70
g51
NtRp2201
(dp2202
g54
(dp2203
sg63
g2188
sg56
(lp2204
g49
(g50
g51
NtRp2205
(dp2206
g54
(dp2207
g62
I5
ssg63
g2201
sg56
(lp2208
S'html'
p2209
asbasbasbag49
(g65
g51
NtRp2210
(dp2211
g54
(dp2212
sg63
g59
sg56
(lp2213
g49
(g70
g51
NtRp2214
(dp2215
g54
(dp2216
g74
g75
ssg63
g2210
sg56
(lp2217
S'folder'
p2218
asbag49
(g70
g51
NtRp2219
(dp2220
g54
(dp2221
g81
g82
ssg63
g2210
sg56
(lp2222
S':'
asbag49
(g70
g51
NtRp2223
(dp2224
g54
(dp2225
sg63
g2210
sg56
(lp2226
g49
(g50
g51
NtRp2227
(dp2228
g54
(dp2229
g62
I5
ssg63
g2223
sg56
(lp2230
S'/Users/mdipierro/Dropbox/web2py/applications/inplace/'
p2231
asbasbasbag49
(g65
g51
NtRp2232
(dp2233
g54
(dp2234
sg63
g59
sg56
(lp2235
g49
(g70
g51
NtRp2236
(dp2237
g54
(dp2238
g74
g75
ssg63
g2232
sg56
(lp2239
S'function'
p2240
asbag49
(g70
g51
NtRp2241
(dp2242
g54
(dp2243
g81
g82
ssg63
g2232
sg56
(lp2244
S':'
asbag49
(g70
g51
NtRp2245
(dp2246
g54
(dp2247
sg63
g2232
sg56
(lp2248
g49
(g50
g51
NtRp2249
(dp2250
g54
(dp2251
g62
I5
ssg63
g2245
sg56
(lp2252
S'edit_clone'
p2253
asbasbasbag49
(g65
g51
NtRp2254
(dp2255
g54
(dp2256
sg63
g59
sg56
(lp2257
g49
(g70
g51
NtRp2258
(dp2259
g54
(dp2260
g74
g75
ssg63
g2254
sg56
(lp2261
S'get_vars'
p2262
asbag49
(g70
g51
NtRp2263
(dp2264
g54
(dp2265
g81
g82
ssg63
g2254
sg56
(lp2266
S':'
asbag49
(g70
g51
NtRp2267
(dp2268
g54
(dp2269
sg63
g2254
sg56
(lp2270
g49
(g50
g51
NtRp2271
(dp2272
g54
(dp2273
g62
I5
ssg63
g2267
sg56
(lp2274
g49
(g58
g51
NtRp2275
(dp2276
g54
(dp2277
g62
I4
ssg63
Nsg56
(lp2278
sbasbasbasbag49
(g65
g51
NtRp2279
(dp2280
g54
(dp2281
sg63
g59
sg56
(lp2282
g49
(g70
g51
NtRp2283
(dp2284
g54
(dp2285
g74
g75
ssg63
g2279
sg56
(lp2286
S'global_settings'
p2287
asbag49
(g70
g51
NtRp2288
(dp2289
g54
(dp2290
g81
g82
ssg63
g2279
sg56
(lp2291
S':'
asbag49
(g70
g51
NtRp2292
(dp2293
g54
(dp2294
sg63
g2279
sg56
(lp2295
g49
(g50
g51
NtRp2296
(dp2297
g54
(dp2298
g62
I5
ssg63
g2292
sg56
(lp2299
g49
(g58
g51
NtRp2300
(dp2301
g54
(dp2302
g62
I4
ssg63
Nsg56
(lp2303
g49
(g65
g51
NtRp2304
(dp2305
g54
(dp2306
sg63
g2300
sg56
(lp2307
g49
(g70
g51
NtRp2308
(dp2309
g54
(dp2310
g74
g75
ssg63
g2304
sg56
(lp2311
g1273
asbag49
(g70
g51
NtRp2312
(dp2313
g54
(dp2314
g81
g82
ssg63
g2304
sg56
(lp2315
S':'
asbag49
(g70
g51
NtRp2316
(dp2317
g54
(dp2318
sg63
g2304
sg56
(lp2319
g49
(g50
g51
NtRp2320
(dp2321
g54
(dp2322
g62
I4
ssg63
g2316
sg56
(lp2323
S"set(['/Users/mdipierro/Dropbox/web2py/applications/inplace/', '/Users/mdipierro/Dropbox/web2py/applications/cms/', '/Users/mdipierro/Dropbox/web2py/applications/admin/'])"
p2324
asbasbasbag49
(g65
g51
NtRp2325
(dp2326
g54
(dp2327
sg63
g2300
sg56
(lp2328
g49
(g70
g51
NtRp2329
(dp2330
g54
(dp2331
g74
g75
ssg63
g2325
sg56
(lp2332
g1295
asbag49
(g70
g51
NtRp2333
(dp2334
g54
(dp2335
g81
g82
ssg63
g2325
sg56
(lp2336
S':'
asbag49
(g70
g51
NtRp2337
(dp2338
g54
(dp2339
sg63
g2325
sg56
(lp2340
g49
(g50
g51
NtRp2341
(dp2342
g54
(dp2343
g62
I4
ssg63
g2337
sg56
(lp2344
g1308
asbasbasbag49
(g65
g51
NtRp2345
(dp2346
g54
(dp2347
sg63
g2300
sg56
(lp2348
g49
(g70
g51
NtRp2349
(dp2350
g54
(dp2351
g74
g75
ssg63
g2345
sg56
(lp2352
g1317
asbag49
(g70
g51
NtRp2353
(dp2354
g54
(dp2355
g81
g82
ssg63
g2345
sg56
(lp2356
S':'
asbag49
(g70
g51
NtRp2357
(dp2358
g54
(dp2359
sg63
g2345
sg56
(lp2360
g49
(g50
g51
NtRp2361
(dp2362
g54
(dp2363
g62
I4
ssg63
g2357
sg56
(lp2364
g49
(g58
g51
NtRp2365
(dp2366
g54
(dp2367
g62
I3
ssg63
Nsg56
(lp2368
sbasbasbasbag49
(g65
g51
NtRp2369
(dp2370
g54
(dp2371
sg63
g2300
sg56
(lp2372
g49
(g70
g51
NtRp2373
(dp2374
g54
(dp2375
g74
g75
ssg63
g2369
sg56
(lp2376
g1342
asbag49
(g70
g51
NtRp2377
(dp2378
g54
(dp2379
g81
g82
ssg63
g2369
sg56
(lp2380
S':'
asbag49
(g70
g51
NtRp2381
(dp2382
g54
(dp2383
sg63
g2369
sg56
(lp2384
g49
(g50
g51
NtRp2385
(dp2386
g54
(dp2387
g62
I4
ssg63
g2381
sg56
(lp2388
S"<Values at 0x153a378: {'verbose': False, 'ip': '127.0.0.1', 'shutdown_timeout': 5, 'taskbar': False, 'nocron': False, 'pid_filename': 'httpserver.pid', 'maxthreads': None, 'softcron': False, 'server_name': 'massimo-di-pierros-macbook-2.local', 'bpython': False, 'nogui': False, 'port': 8000, 'extcron': False, 'debuglevel': 30, 'test': None, 'folder': '/Users/mdipierro/Dropbox/web2py', 'config': '', 'import_models': False, 'winservice': '', 'shell': None, 'run': '', 'log_filename': 'httpserver.log', 'args': [''], 'socket_timeout': 1, 'ssl_ca_certificate': None, 'scheduler': None, 'profiler_filename': None, 'ssl_private_key': '', 'password': 'hello', 'request_queue_size': 5, 'ssl_certificate': '', 'cronjob': False, 'numthreads': None, 'quiet': False, 'interfaces': None, 'minthreads': None, 'timeout': 10, 'plain': False, 'nobanner': False}>"
p2389
asbasbasbag49
(g65
g51
NtRp2390
(dp2391
g54
(dp2392
sg63
g2300
sg56
(lp2393
g49
(g70
g51
NtRp2394
(dp2395
g54
(dp2396
g74
g75
ssg63
g2390
sg56
(lp2397
g1364
asbag49
(g70
g51
NtRp2398
(dp2399
g54
(dp2400
g81
g82
ssg63
g2390
sg56
(lp2401
S':'
asbag49
(g70
g51
NtRp2402
(dp2403
g54
(dp2404
sg63
g2390
sg56
(lp2405
g49
(g50
g51
NtRp2406
(dp2407
g54
(dp2408
g62
I4
ssg63
g2402
sg56
(lp2409
S'set([])'
p2410
asbasbasbag49
(g65
g51
NtRp2411
(dp2412
g54
(dp2413
sg63
g2300
sg56
(lp2414
g49
(g70
g51
NtRp2415
(dp2416
g54
(dp2417
g74
g75
ssg63
g2411
sg56
(lp2418
g1386
asbag49
(g70
g51
NtRp2419
(dp2420
g54
(dp2421
g81
g82
ssg63
g2411
sg56
(lp2422
S':'
asbag49
(g70
g51
NtRp2423
(dp2424
g54
(dp2425
sg63
g2411
sg56
(lp2426
g49
(g50
g51
NtRp2427
(dp2428
g54
(dp2429
g62
I4
ssg63
g2423
sg56
(lp2430
g92
asbasbasbag49
(g65
g51
NtRp2431
(dp2432
g54
(dp2433
sg63
g2300
sg56
(lp2434
g49
(g70
g51
NtRp2435
(dp2436
g54
(dp2437
g74
g75
ssg63
g2431
sg56
(lp2438
g1407
asbag49
(g70
g51
NtRp2439
(dp2440
g54
(dp2441
g81
g82
ssg63
g2431
sg56
(lp2442
S':'
asbag49
(g70
g51
NtRp2443
(dp2444
g54
(dp2445
sg63
g2431
sg56
(lp2446
g49
(g50
g51
NtRp2447
(dp2448
g54
(dp2449
g62
I4
ssg63
g2443
sg56
(lp2450
g1420
asbasbasbag49
(g65
g51
NtRp2451
(dp2452
g54
(dp2453
sg63
g2300
sg56
(lp2454
g49
(g70
g51
NtRp2455
(dp2456
g54
(dp2457
g74
g75
ssg63
g2451
sg56
(lp2458
g1605
asbag49
(g70
g51
NtRp2459
(dp2460
g54
(dp2461
g81
g82
ssg63
g2451
sg56
(lp2462
S':'
asbag49
(g70
g51
NtRp2463
(dp2464
g54
(dp2465
sg63
g2451
sg56
(lp2466
g49
(g50
g51
NtRp2467
(dp2468
g54
(dp2469
g62
I4
ssg63
g2463
sg56
(lp2470
g92
asbasbasbag49
(g65
g51
NtRp2471
(dp2472
g54
(dp2473
sg63
g2300
sg56
(lp2474
g49
(g70
g51
NtRp2475
(dp2476
g54
(dp2477
g74
g75
ssg63
g2471
sg56
(lp2478
g1626
asbag49
(g70
g51
NtRp2479
(dp2480
g54
(dp2481
g81
g82
ssg63
g2471
sg56
(lp2482
S':'
asbag49
(g70
g51
NtRp2483
(dp2484
g54
(dp2485
sg63
g2471
sg56
(lp2486
g49
(g50
g51
NtRp2487
(dp2488
g54
(dp2489
g62
I4
ssg63
g2483
sg56
(lp2490
g92
asbasbasbag49
(g65
g51
NtRp2491
(dp2492
g54
(dp2493
sg63
g2300
sg56
(lp2494
g49
(g70
g51
NtRp2495
(dp2496
g54
(dp2497
g74
g75
ssg63
g2491
sg56
(lp2498
g1864
asbag49
(g70
g51
NtRp2499
(dp2500
g54
(dp2501
g81
g82
ssg63
g2491
sg56
(lp2502
S':'
asbag49
(g70
g51
NtRp2503
(dp2504
g54
(dp2505
sg63
g2491
sg56
(lp2506
g49
(g50
g51
NtRp2507
(dp2508
g54
(dp2509
g62
I4
ssg63
g2503
sg56
(lp2510
g1877
asbasbasbag49
(g65
g51
NtRp2511
(dp2512
g54
(dp2513
sg63
g2300
sg56
(lp2514
g49
(g70
g51
NtRp2515
(dp2516
g54
(dp2517
g74
g75
ssg63
g2511
sg56
(lp2518
g1907
asbag49
(g70
g51
NtRp2519
(dp2520
g54
(dp2521
g81
g82
ssg63
g2511
sg56
(lp2522
S':'
asbag49
(g70
g51
NtRp2523
(dp2524
g54
(dp2525
sg63
g2511
sg56
(lp2526
g49
(g50
g51
NtRp2527
(dp2528
g54
(dp2529
g62
I4
ssg63
g2523
sg56
(lp2530
g49
(g58
g51
NtRp2531
(dp2532
g54
(dp2533
g62
I3
ssg63
Nsg56
(lp2534
g49
(g65
g51
NtRp2535
(dp2536
g54
(dp2537
sg63
g2531
sg56
(lp2538
g49
(g70
g51
NtRp2539
(dp2540
g54
(dp2541
sg63
g2535
sg56
(lp2542
g49
(g50
g51
NtRp2543
(dp2544
g54
(dp2545
g62
I3
ssg63
g2539
sg56
(lp2546
S'1'
asbasbasbag49
(g65
g51
NtRp2547
(dp2548
g54
(dp2549
sg63
g2531
sg56
(lp2550
g49
(g70
g51
NtRp2551
(dp2552
g54
(dp2553
sg63
g2547
sg56
(lp2554
g49
(g50
g51
NtRp2555
(dp2556
g54
(dp2557
g62
I3
ssg63
g2551
sg56
(lp2558
S'99'
p2559
asbasbasbag49
(g65
g51
NtRp2560
(dp2561
g54
(dp2562
sg63
g2531
sg56
(lp2563
g49
(g70
g51
NtRp2564
(dp2565
g54
(dp2566
sg63
g2560
sg56
(lp2567
g49
(g50
g51
NtRp2568
(dp2569
g54
(dp2570
g62
I3
ssg63
g2564
sg56
(lp2571
S'3'
asbasbasbag49
(g65
g51
NtRp2572
(dp2573
g54
(dp2574
sg63
g2531
sg56
(lp2575
g49
(g70
g51
NtRp2576
(dp2577
g54
(dp2578
sg63
g2572
sg56
(lp2579
g49
(g50
g51
NtRp2580
(dp2581
g54
(dp2582
g62
I3
ssg63
g2576
sg56
(lp2583
S'datetime.datetime(2011, 12, 9, 21, 5, 4)'
p2584
asbasbasbag49
(g65
g51
NtRp2585
(dp2586
g54
(dp2587
sg63
g2531
sg56
(lp2588
g49
(g70
g51
NtRp2589
(dp2590
g54
(dp2591
sg63
g2585
sg56
(lp2592
g49
(g50
g51
NtRp2593
(dp2594
g54
(dp2595
g62
I3
ssg63
g2589
sg56
(lp2596
g1986
asbasbasbasbasbasbasbasbasbasbasbag49
(g65
g51
NtRp2597
(dp2598
g54
(dp2599
sg63
g59
sg56
(lp2600
g49
(g70
g51
NtRp2601
(dp2602
g54
(dp2603
g74
g75
ssg63
g2597
sg56
(lp2604
S'is_https'
p2605
asbag49
(g70
g51
NtRp2606
(dp2607
g54
(dp2608
g81
g82
ssg63
g2597
sg56
(lp2609
S':'
asbag49
(g70
g51
NtRp2610
(dp2611
g54
(dp2612
sg63
g2597
sg56
(lp2613
g49
(g50
g51
NtRp2614
(dp2615
g54
(dp2616
g62
I5
ssg63
g2610
sg56
(lp2617
g92
asbasbasbag49
(g65
g51
NtRp2618
(dp2619
g54
(dp2620
sg63
g59
sg56
(lp2621
g49
(g70
g51
NtRp2622
(dp2623
g54
(dp2624
g74
g75
ssg63
g2618
sg56
(lp2625
S'is_local'
p2626
asbag49
(g70
g51
NtRp2627
(dp2628
g54
(dp2629
g81
g82
ssg63
g2618
sg56
(lp2630
S':'
asbag49
(g70
g51
NtRp2631
(dp2632
g54
(dp2633
sg63
g2618
sg56
(lp2634
g49
(g50
g51
NtRp2635
(dp2636
g54
(dp2637
g62
I5
ssg63
g2631
sg56
(lp2638
g2095
asbasbasbag49
(g65
g51
NtRp2639
(dp2640
g54
(dp2641
sg63
g59
sg56
(lp2642
g49
(g70
g51
NtRp2643
(dp2644
g54
(dp2645
g74
g75
ssg63
g2639
sg56
(lp2646
S'is_restful'
p2647
asbag49
(g70
g51
NtRp2648
(dp2649
g54
(dp2650
g81
g82
ssg63
g2639
sg56
(lp2651
S':'
asbag49
(g70
g51
NtRp2652
(dp2653
g54
(dp2654
sg63
g2639
sg56
(lp2655
g49
(g50
g51
NtRp2656
(dp2657
g54
(dp2658
g62
I5
ssg63
g2652
sg56
(lp2659
g92
asbasbasbag49
(g65
g51
NtRp2660
(dp2661
g54
(dp2662
sg63
g59
sg56
(lp2663
g49
(g70
g51
NtRp2664
(dp2665
g54
(dp2666
g74
g75
ssg63
g2660
sg56
(lp2667
S'now'
p2668
asbag49
(g70
g51
NtRp2669
(dp2670
g54
(dp2671
g81
g82
ssg63
g2660
sg56
(lp2672
S':'
asbag49
(g70
g51
NtRp2673
(dp2674
g54
(dp2675
sg63
g2660
sg56
(lp2676
g49
(g50
g51
NtRp2677
(dp2678
g54
(dp2679
g62
I5
ssg63
g2673
sg56
(lp2680
S'datetime.datetime(2011, 12, 11, 17, 11, 7, 101064)'
p2681
asbasbasbag49
(g65
g51
NtRp2682
(dp2683
g54
(dp2684
sg63
g59
sg56
(lp2685
g49
(g70
g51
NtRp2686
(dp2687
g54
(dp2688
g74
g75
ssg63
g2682
sg56
(lp2689
S'post_vars'
p2690
asbag49
(g70
g51
NtRp2691
(dp2692
g54
(dp2693
g81
g82
ssg63
g2682
sg56
(lp2694
S':'
asbag49
(g70
g51
NtRp2695
(dp2696
g54
(dp2697
sg63
g2682
sg56
(lp2698
g49
(g50
g51
NtRp2699
(dp2700
g54
(dp2701
g62
I5
ssg63
g2695
sg56
(lp2702
g49
(g58
g51
NtRp2703
(dp2704
g54
(dp2705
g62
I4
ssg63
Nsg56
(lp2706
sbasbasbasbag49
(g65
g51
NtRp2707
(dp2708
g54
(dp2709
sg63
g59
sg56
(lp2710
g49
(g70
g51
NtRp2711
(dp2712
g54
(dp2713
g74
g75
ssg63
g2707
sg56
(lp2714
S'raw_args'
p2715
asbag49
(g70
g51
NtRp2716
(dp2717
g54
(dp2718
g81
g82
ssg63
g2707
sg56
(lp2719
S':'
asbag49
(g70
g51
NtRp2720
(dp2721
g54
(dp2722
sg63
g2707
sg56
(lp2723
g49
(g50
g51
NtRp2724
(dp2725
g54
(dp2726
g62
I5
ssg63
g2720
sg56
(lp2727
S'store'
p2728
asbasbasbag49
(g65
g51
NtRp2729
(dp2730
g54
(dp2731
sg63
g59
sg56
(lp2732
g49
(g70
g51
NtRp2733
(dp2734
g54
(dp2735
g74
g75
ssg63
g2729
sg56
(lp2736
S'url'
p2737
asbag49
(g70
g51
NtRp2738
(dp2739
g54
(dp2740
g81
g82
ssg63
g2729
sg56
(lp2741
S':'
asbag49
(g70
g51
NtRp2742
(dp2743
g54
(dp2744
sg63
g2729
sg56
(lp2745
g49
(g50
g51
NtRp2746
(dp2747
g54
(dp2748
g62
I5
ssg63
g2742
sg56
(lp2749
S'/inplace/default/edit_clone/store'
p2750
asbasbasbag49
(g65
g51
NtRp2751
(dp2752
g54
(dp2753
sg63
g59
sg56
(lp2754
g49
(g70
g51
NtRp2755
(dp2756
g54
(dp2757
g74
g75
ssg63
g2751
sg56
(lp2758
S'utcnow'
p2759
asbag49
(g70
g51
NtRp2760
(dp2761
g54
(dp2762
g81
g82
ssg63
g2751
sg56
(lp2763
S':'
asbag49
(g70
g51
NtRp2764
(dp2765
g54
(dp2766
sg63
g2751
sg56
(lp2767
g49
(g50
g51
NtRp2768
(dp2769
g54
(dp2770
g62
I5
ssg63
g2764
sg56
(lp2771
S'datetime.datetime(2011, 12, 11, 23, 11, 7, 101075)'
p2772
asbasbasbag49
(g65
g51
NtRp2773
(dp2774
g54
(dp2775
sg63
g59
sg56
(lp2776
g49
(g70
g51
NtRp2777
(dp2778
g54
(dp2779
g74
g75
ssg63
g2773
sg56
(lp2780
S'uuid'
p2781
asbag49
(g70
g51
NtRp2782
(dp2783
g54
(dp2784
g81
g82
ssg63
g2773
sg56
(lp2785
S':'
asbag49
(g70
g51
NtRp2786
(dp2787
g54
(dp2788
sg63
g2773
sg56
(lp2789
g49
(g50
g51
NtRp2790
(dp2791
g54
(dp2792
g62
I5
ssg63
g2786
sg56
(lp2793
S'inplace/127.0.0.1.2011-12-11.17-11-07.77ea22d0-6109-4c86-b9fa-0774d6d6ba2a'
p2794
asbasbasbag49
(g65
g51
NtRp2795
(dp2796
g54
(dp2797
sg63
g59
sg56
(lp2798
g49
(g70
g51
NtRp2799
(dp2800
g54
(dp2801
g74
g75
ssg63
g2795
sg56
(lp2802
S'vars'
p2803
asbag49
(g70
g51
NtRp2804
(dp2805
g54
(dp2806
g81
g82
ssg63
g2795
sg56
(lp2807
S':'
asbag49
(g70
g51
NtRp2808
(dp2809
g54
(dp2810
sg63
g2795
sg56
(lp2811
g49
(g50
g51
NtRp2812
(dp2813
g54
(dp2814
g62
I5
ssg63
g2808
sg56
(lp2815
g49
(g58
g51
NtRp2816
(dp2817
g54
(dp2818
g62
I4
ssg63
Nsg56
(lp2819
sbasbasbasbag49
(g65
g51
NtRp2820
(dp2821
g54
(dp2822
sg63
g59
sg56
(lp2823
g49
(g70
g51
NtRp2824
(dp2825
g54
(dp2826
g74
g75
ssg63
g2820
sg56
(lp2827
S'wsgi'
p2828
asbag49
(g70
g51
NtRp2829
(dp2830
g54
(dp2831
g81
g82
ssg63
g2820
sg56
(lp2832
S':'
asbag49
(g70
g51
NtRp2833
(dp2834
g54
(dp2835
sg63
g2820
sg56
(lp2836
g49
(g50
g51
NtRp2837
(dp2838
g54
(dp2839
g62
I5
ssg63
g2833
sg56
(lp2840
g49
(g58
g51
NtRp2841
(dp2842
g54
(dp2843
g62
I4
ssg63
Nsg56
(lp2844
g49
(g65
g51
NtRp2845
(dp2846
g54
(dp2847
sg63
g2841
sg56
(lp2848
g49
(g70
g51
NtRp2849
(dp2850
g54
(dp2851
g74
g75
ssg63
g2845
sg56
(lp2852
S'environ'
p2853
asbag49
(g70
g51
NtRp2854
(dp2855
g54
(dp2856
g81
g82
ssg63
g2845
sg56
(lp2857
S':'
asbag49
(g70
g51
NtRp2858
(dp2859
g54
(dp2860
sg63
g2845
sg56
(lp2861
g49
(g50
g51
NtRp2862
(dp2863
g54
(dp2864
g62
I4
ssg63
g2858
sg56
(lp2865
g49
(g58
g51
NtRp2866
(dp2867
g54
(dp2868
g62
I3
ssg63
Nsg56
(lp2869
g49
(g65
g51
NtRp2870
(dp2871
g54
(dp2872
sg63
g2866
sg56
(lp2873
g49
(g70
g51
NtRp2874
(dp2875
g54
(dp2876
g74
g75
ssg63
g2870
sg56
(lp2877
S'HTTP_ACCEPT'
p2878
asbag49
(g70
g51
NtRp2879
(dp2880
g54
(dp2881
g81
g82
ssg63
g2870
sg56
(lp2882
S':'
asbag49
(g70
g51
NtRp2883
(dp2884
g54
(dp2885
sg63
g2870
sg56
(lp2886
g49
(g50
g51
NtRp2887
(dp2888
g54
(dp2889
g62
I3
ssg63
g2883
sg56
(lp2890
g1442
asbasbasbag49
(g65
g51
NtRp2891
(dp2892
g54
(dp2893
sg63
g2866
sg56
(lp2894
g49
(g70
g51
NtRp2895
(dp2896
g54
(dp2897
g74
g75
ssg63
g2891
sg56
(lp2898
S'HTTP_ACCEPT_CHARSET'
p2899
asbag49
(g70
g51
NtRp2900
(dp2901
g54
(dp2902
g81
g82
ssg63
g2891
sg56
(lp2903
S':'
asbag49
(g70
g51
NtRp2904
(dp2905
g54
(dp2906
sg63
g2891
sg56
(lp2907
g49
(g50
g51
NtRp2908
(dp2909
g54
(dp2910
g62
I3
ssg63
g2904
sg56
(lp2911
g1464
asbasbasbag49
(g65
g51
NtRp2912
(dp2913
g54
(dp2914
sg63
g2866
sg56
(lp2915
g49
(g70
g51
NtRp2916
(dp2917
g54
(dp2918
g74
g75
ssg63
g2912
sg56
(lp2919
S'HTTP_ACCEPT_ENCODING'
p2920
asbag49
(g70
g51
NtRp2921
(dp2922
g54
(dp2923
g81
g82
ssg63
g2912
sg56
(lp2924
S':'
asbag49
(g70
g51
NtRp2925
(dp2926
g54
(dp2927
sg63
g2912
sg56
(lp2928
g49
(g50
g51
NtRp2929
(dp2930
g54
(dp2931
g62
I3
ssg63
g2925
sg56
(lp2932
g1486
asbasbasbag49
(g65
g51
NtRp2933
(dp2934
g54
(dp2935
sg63
g2866
sg56
(lp2936
g49
(g70
g51
NtRp2937
(dp2938
g54
(dp2939
g74
g75
ssg63
g2933
sg56
(lp2940
S'HTTP_ACCEPT_LANGUAGE'
p2941
asbag49
(g70
g51
NtRp2942
(dp2943
g54
(dp2944
g81
g82
ssg63
g2933
sg56
(lp2945
S':'
asbag49
(g70
g51
NtRp2946
(dp2947
g54
(dp2948
sg63
g2933
sg56
(lp2949
g49
(g50
g51
NtRp2950
(dp2951
g54
(dp2952
g62
I3
ssg63
g2946
sg56
(lp2953
g1508
asbasbasbag49
(g65
g51
NtRp2954
(dp2955
g54
(dp2956
sg63
g2866
sg56
(lp2957
g49
(g70
g51
NtRp2958
(dp2959
g54
(dp2960
g74
g75
ssg63
g2954
sg56
(lp2961
S'HTTP_CONNECTION'
p2962
asbag49
(g70
g51
NtRp2963
(dp2964
g54
(dp2965
g81
g82
ssg63
g2954
sg56
(lp2966
S':'
asbag49
(g70
g51
NtRp2967
(dp2968
g54
(dp2969
sg63
g2954
sg56
(lp2970
g49
(g50
g51
NtRp2971
(dp2972
g54
(dp2973
g62
I3
ssg63
g2967
sg56
(lp2974
g1530
asbasbasbag49
(g65
g51
NtRp2975
(dp2976
g54
(dp2977
sg63
g2866
sg56
(lp2978
g49
(g70
g51
NtRp2979
(dp2980
g54
(dp2981
g74
g75
ssg63
g2975
sg56
(lp2982
S'HTTP_COOKIE'
p2983
asbag49
(g70
g51
NtRp2984
(dp2985
g54
(dp2986
g81
g82
ssg63
g2975
sg56
(lp2987
S':'
asbag49
(g70
g51
NtRp2988
(dp2989
g54
(dp2990
sg63
g2975
sg56
(lp2991
g49
(g50
g51
NtRp2992
(dp2993
g54
(dp2994
g62
I3
ssg63
g2988
sg56
(lp2995
g1552
asbasbasbag49
(g65
g51
NtRp2996
(dp2997
g54
(dp2998
sg63
g2866
sg56
(lp2999
g49
(g70
g51
NtRp3000
(dp3001
g54
(dp3002
g74
g75
ssg63
g2996
sg56
(lp3003
S'HTTP_HOST'
p3004
asbag49
(g70
g51
NtRp3005
(dp3006
g54
(dp3007
g81
g82
ssg63
g2996
sg56
(lp3008
S':'
asbag49
(g70
g51
NtRp3009
(dp3010
g54
(dp3011
sg63
g2996
sg56
(lp3012
g49
(g50
g51
NtRp3013
(dp3014
g54
(dp3015
g62
I3
ssg63
g3009
sg56
(lp3016
g1574
asbasbasbag49
(g65
g51
NtRp3017
(dp3018
g54
(dp3019
sg63
g2866
sg56
(lp3020
g49
(g70
g51
NtRp3021
(dp3022
g54
(dp3023
g74
g75
ssg63
g3017
sg56
(lp3024
S'HTTP_USER_AGENT'
p3025
asbag49
(g70
g51
NtRp3026
(dp3027
g54
(dp3028
g81
g82
ssg63
g3017
sg56
(lp3029
S':'
asbag49
(g70
g51
NtRp3030
(dp3031
g54
(dp3032
sg63
g3017
sg56
(lp3033
g49
(g50
g51
NtRp3034
(dp3035
g54
(dp3036
g62
I3
ssg63
g3030
sg56
(lp3037
g1596
asbasbasbag49
(g65
g51
NtRp3038
(dp3039
g54
(dp3040
sg63
g2866
sg56
(lp3041
g49
(g70
g51
NtRp3042
(dp3043
g54
(dp3044
g74
g75
ssg63
g3038
sg56
(lp3045
S'PATH_INFO'
p3046
asbag49
(g70
g51
NtRp3047
(dp3048
g54
(dp3049
g81
g82
ssg63
g3038
sg56
(lp3050
S':'
asbag49
(g70
g51
NtRp3051
(dp3052
g54
(dp3053
sg63
g3038
sg56
(lp3054
g49
(g50
g51
NtRp3055
(dp3056
g54
(dp3057
g62
I3
ssg63
g3051
sg56
(lp3058
g1660
asbasbasbag49
(g65
g51
NtRp3059
(dp3060
g54
(dp3061
sg63
g2866
sg56
(lp3062
g49
(g70
g51
NtRp3063
(dp3064
g54
(dp3065
g74
g75
ssg63
g3059
sg56
(lp3066
S'QUERY_STRING'
p3067
asbag49
(g70
g51
NtRp3068
(dp3069
g54
(dp3070
g81
g82
ssg63
g3059
sg56
(lp3071
S':'
asbag49
(g70
g51
NtRp3072
(dp3073
g54
(dp3074
sg63
g3059
sg56
(lp3075
g49
(g50
g51
NtRp3076
(dp3077
g54
(dp3078
g62
I3
ssg63
g3072
sg56
(lp3079
S''
asbasbasbag49
(g65
g51
NtRp3080
(dp3081
g54
(dp3082
sg63
g2866
sg56
(lp3083
g49
(g70
g51
NtRp3084
(dp3085
g54
(dp3086
g74
g75
ssg63
g3080
sg56
(lp3087
S'REMOTE_ADDR'
p3088
asbag49
(g70
g51
NtRp3089
(dp3090
g54
(dp3091
g81
g82
ssg63
g3080
sg56
(lp3092
S':'
asbag49
(g70
g51
NtRp3093
(dp3094
g54
(dp3095
sg63
g3080
sg56
(lp3096
g49
(g50
g51
NtRp3097
(dp3098
g54
(dp3099
g62
I3
ssg63
g3093
sg56
(lp3100
g195
asbasbasbag49
(g65
g51
NtRp3101
(dp3102
g54
(dp3103
sg63
g2866
sg56
(lp3104
g49
(g70
g51
NtRp3105
(dp3106
g54
(dp3107
g74
g75
ssg63
g3101
sg56
(lp3108
S'REMOTE_PORT'
p3109
asbag49
(g70
g51
NtRp3110
(dp3111
g54
(dp3112
g81
g82
ssg63
g3101
sg56
(lp3113
S':'
asbag49
(g70
g51
NtRp3114
(dp3115
g54
(dp3116
sg63
g3101
sg56
(lp3117
g49
(g50
g51
NtRp3118
(dp3119
g54
(dp3120
g62
I3
ssg63
g3114
sg56
(lp3121
g1724
asbasbasbag49
(g65
g51
NtRp3122
(dp3123
g54
(dp3124
sg63
g2866
sg56
(lp3125
g49
(g70
g51
NtRp3126
(dp3127
g54
(dp3128
g74
g75
ssg63
g3122
sg56
(lp3129
S'REQUEST_METHOD'
p3130
asbag49
(g70
g51
NtRp3131
(dp3132
g54
(dp3133
g81
g82
ssg63
g3122
sg56
(lp3134
S':'
asbag49
(g70
g51
NtRp3135
(dp3136
g54
(dp3137
sg63
g3122
sg56
(lp3138
g49
(g50
g51
NtRp3139
(dp3140
g54
(dp3141
g62
I3
ssg63
g3135
sg56
(lp3142
g1746
asbasbasbag49
(g65
g51
NtRp3143
(dp3144
g54
(dp3145
sg63
g2866
sg56
(lp3146
g49
(g70
g51
NtRp3147
(dp3148
g54
(dp3149
g74
g75
ssg63
g3143
sg56
(lp3150
S'SCRIPT_NAME'
p3151
asbag49
(g70
g51
NtRp3152
(dp3153
g54
(dp3154
g81
g82
ssg63
g3143
sg56
(lp3155
S':'
asbag49
(g70
g51
NtRp3156
(dp3157
g54
(dp3158
sg63
g3143
sg56
(lp3159
g49
(g50
g51
NtRp3160
(dp3161
g54
(dp3162
g62
I3
ssg63
g3156
sg56
(lp3163
S''
asbasbasbag49
(g65
g51
NtRp3164
(dp3165
g54
(dp3166
sg63
g2866
sg56
(lp3167
g49
(g70
g51
NtRp3168
(dp3169
g54
(dp3170
g74
g75
ssg63
g3164
sg56
(lp3171
S'SERVER_NAME'
p3172
asbag49
(g70
g51
NtRp3173
(dp3174
g54
(dp3175
g81
g82
ssg63
g3164
sg56
(lp3176
S':'
asbag49
(g70
g51
NtRp3177
(dp3178
g54
(dp3179
sg63
g3164
sg56
(lp3180
g49
(g50
g51
NtRp3181
(dp3182
g54
(dp3183
g62
I3
ssg63
g3177
sg56
(lp3184
g1789
asbasbasbag49
(g65
g51
NtRp3185
(dp3186
g54
(dp3187
sg63
g2866
sg56
(lp3188
g49
(g70
g51
NtRp3189
(dp3190
g54
(dp3191
g74
g75
ssg63
g3185
sg56
(lp3192
S'SERVER_PORT'
p3193
asbag49
(g70
g51
NtRp3194
(dp3195
g54
(dp3196
g81
g82
ssg63
g3185
sg56
(lp3197
S':'
asbag49
(g70
g51
NtRp3198
(dp3199
g54
(dp3200
sg63
g3185
sg56
(lp3201
g49
(g50
g51
NtRp3202
(dp3203
g54
(dp3204
g62
I3
ssg63
g3198
sg56
(lp3205
g1811
asbasbasbag49
(g65
g51
NtRp3206
(dp3207
g54
(dp3208
sg63
g2866
sg56
(lp3209
g49
(g70
g51
NtRp3210
(dp3211
g54
(dp3212
g74
g75
ssg63
g3206
sg56
(lp3213
S'SERVER_PROTOCOL'
p3214
asbag49
(g70
g51
NtRp3215
(dp3216
g54
(dp3217
g81
g82
ssg63
g3206
sg56
(lp3218
S':'
asbag49
(g70
g51
NtRp3219
(dp3220
g54
(dp3221
sg63
g3206
sg56
(lp3222
g49
(g50
g51
NtRp3223
(dp3224
g54
(dp3225
g62
I3
ssg63
g3219
sg56
(lp3226
g1833
asbasbasbag49
(g65
g51
NtRp3227
(dp3228
g54
(dp3229
sg63
g2866
sg56
(lp3230
g49
(g70
g51
NtRp3231
(dp3232
g54
(dp3233
g74
g75
ssg63
g3227
sg56
(lp3234
S'SERVER_SOFTWARE'
p3235
asbag49
(g70
g51
NtRp3236
(dp3237
g54
(dp3238
g81
g82
ssg63
g3227
sg56
(lp3239
S':'
asbag49
(g70
g51
NtRp3240
(dp3241
g54
(dp3242
sg63
g3227
sg56
(lp3243
g49
(g50
g51
NtRp3244
(dp3245
g54
(dp3246
g62
I3
ssg63
g3240
sg56
(lp3247
g1855
asbasbasbag49
(g65
g51
NtRp3248
(dp3249
g54
(dp3250
sg63
g2866
sg56
(lp3251
g49
(g70
g51
NtRp3252
(dp3253
g54
(dp3254
g74
g75
ssg63
g3248
sg56
(lp3255
S'wsgi.errors'
p3256
asbag49
(g70
g51
NtRp3257
(dp3258
g54
(dp3259
g81
g82
ssg63
g3248
sg56
(lp3260
S':'
asbag49
(g70
g51
NtRp3261
(dp3262
g54
(dp3263
sg63
g3248
sg56
(lp3264
g49
(g50
g51
NtRp3265
(dp3266
g54
(dp3267
g62
I3
ssg63
g3261
sg56
(lp3268
S"<open file '<stderr>', mode 'w' at 0x1620b0>"
p3269
asbasbasbag49
(g65
g51
NtRp3270
(dp3271
g54
(dp3272
sg63
g2866
sg56
(lp3273
g49
(g70
g51
NtRp3274
(dp3275
g54
(dp3276
g74
g75
ssg63
g3270
sg56
(lp3277
S'wsgi.file_wrapper'
p3278
asbag49
(g70
g51
NtRp3279
(dp3280
g54
(dp3281
g81
g82
ssg63
g3270
sg56
(lp3282
S':'
asbag49
(g70
g51
NtRp3283
(dp3284
g54
(dp3285
sg63
g3270
sg56
(lp3286
g49
(g50
g51
NtRp3287
(dp3288
g54
(dp3289
g62
I3
ssg63
g3283
sg56
(lp3290
S'<class wsgiref.util.FileWrapper at 0x7c2840>'
p3291
asbasbasbag49
(g65
g51
NtRp3292
(dp3293
g54
(dp3294
sg63
g2866
sg56
(lp3295
g49
(g70
g51
NtRp3296
(dp3297
g54
(dp3298
g74
g75
ssg63
g3292
sg56
(lp3299
S'wsgi.input'
p3300
asbag49
(g70
g51
NtRp3301
(dp3302
g54
(dp3303
g81
g82
ssg63
g3292
sg56
(lp3304
S':'
asbag49
(g70
g51
NtRp3305
(dp3306
g54
(dp3307
sg63
g3292
sg56
(lp3308
g49
(g50
g51
NtRp3309
(dp3310
g54
(dp3311
g62
I3
ssg63
g3305
sg56
(lp3312
S'<cStringIO.StringO object at 0x1e82380>'
p3313
asbasbasbag49
(g65
g51
NtRp3314
(dp3315
g54
(dp3316
sg63
g2866
sg56
(lp3317
g49
(g70
g51
NtRp3318
(dp3319
g54
(dp3320
g74
g75
ssg63
g3314
sg56
(lp3321
S'wsgi.multiprocess'
p3322
asbag49
(g70
g51
NtRp3323
(dp3324
g54
(dp3325
g81
g82
ssg63
g3314
sg56
(lp3326
S':'
asbag49
(g70
g51
NtRp3327
(dp3328
g54
(dp3329
sg63
g3314
sg56
(lp3330
g49
(g50
g51
NtRp3331
(dp3332
g54
(dp3333
g62
I3
ssg63
g3327
sg56
(lp3334
g92
asbasbasbag49
(g65
g51
NtRp3335
(dp3336
g54
(dp3337
sg63
g2866
sg56
(lp3338
g49
(g70
g51
NtRp3339
(dp3340
g54
(dp3341
g74
g75
ssg63
g3335
sg56
(lp3342
S'wsgi.multithread'
p3343
asbag49
(g70
g51
NtRp3344
(dp3345
g54
(dp3346
g81
g82
ssg63
g3335
sg56
(lp3347
S':'
asbag49
(g70
g51
NtRp3348
(dp3349
g54
(dp3350
sg63
g3335
sg56
(lp3351
g49
(g50
g51
NtRp3352
(dp3353
g54
(dp3354
g62
I3
ssg63
g3348
sg56
(lp3355
g2095
asbasbasbag49
(g65
g51
NtRp3356
(dp3357
g54
(dp3358
sg63
g2866
sg56
(lp3359
g49
(g70
g51
NtRp3360
(dp3361
g54
(dp3362
g74
g75
ssg63
g3356
sg56
(lp3363
S'wsgi.run_once'
p3364
asbag49
(g70
g51
NtRp3365
(dp3366
g54
(dp3367
g81
g82
ssg63
g3356
sg56
(lp3368
S':'
asbag49
(g70
g51
NtRp3369
(dp3370
g54
(dp3371
sg63
g3356
sg56
(lp3372
g49
(g50
g51
NtRp3373
(dp3374
g54
(dp3375
g62
I3
ssg63
g3369
sg56
(lp3376
g92
asbasbasbag49
(g65
g51
NtRp3377
(dp3378
g54
(dp3379
sg63
g2866
sg56
(lp3380
g49
(g70
g51
NtRp3381
(dp3382
g54
(dp3383
g74
g75
ssg63
g3377
sg56
(lp3384
S'wsgi.url_scheme'
p3385
asbag49
(g70
g51
NtRp3386
(dp3387
g54
(dp3388
g81
g82
ssg63
g3377
sg56
(lp3389
S':'
asbag49
(g70
g51
NtRp3390
(dp3391
g54
(dp3392
sg63
g3377
sg56
(lp3393
g49
(g50
g51
NtRp3394
(dp3395
g54
(dp3396
g62
I3
ssg63
g3390
sg56
(lp3397
g2138
asbasbasbag49
(g65
g51
NtRp3398
(dp3399
g54
(dp3400
sg63
g2866
sg56
(lp3401
g49
(g70
g51
NtRp3402
(dp3403
g54
(dp3404
g74
g75
ssg63
g3398
sg56
(lp3405
S'wsgi.version'
p3406
asbag49
(g70
g51
NtRp3407
(dp3408
g54
(dp3409
g81
g82
ssg63
g3398
sg56
(lp3410
S':'
asbag49
(g70
g51
NtRp3411
(dp3412
g54
(dp3413
sg63
g3398
sg56
(lp3414
g49
(g50
g51
NtRp3415
(dp3416
g54
(dp3417
g62
I3
ssg63
g3411
sg56
(lp3418
S'1'
asbasbasbasbasbasbasbasbasbasbasbasbasbsS'frames'
p3419
(lp3420
(dp3421
S'file'
p3422
S'/Users/mdipierro/Dropbox/web2py/gluon/restricted.py'
p3423
sS'dump'
p3424
(dp3425
S'environment'
p3426
S"{'A': <class 'gluon.html.A'>, 'Auth': <class 'gluon.tools.Auth'>, 'B': <class 'gluon.html.B'>, 'BEAUTIFY': <class 'gluon.html.BEAUTIFY'>, 'BODY': <class 'gluon.html.BODY'>, 'BR': <class 'gluon.html.BR'>, 'BUTTON': <class 'gluon.html.BUTTON'>, 'CAT': <class 'gluon.html.CAT'>, 'CENTER': <class 'gluon.html.CENTER'>, 'CLEANUP': <class 'gluon.validators.CLEANUP'>, ...}"
p3427
sS'ccode'
p3428
S'<code object <module> at 0x1d71ec0, file "/Users...ications/inplace/controllers/default.py", line 4>'
p3429
ssS'lnum'
p3430
I204
sS'lines'
p3431
(dp3432
I199
S'    try:'
p3433
sI200
S'        if type(code) == types.CodeType:'
p3434
sI201
S'            ccode = code'
p3435
sI202
S'        else:'
p3436
sI203
S'            ccode = compile2(code,layer)'
p3437
sI204
S'        exec ccode in environment'
p3438
sI205
S'    except HTTP:'
p3439
sI206
S'        raise'
p3440
sI207
S'    except RestrictedError:'
p3441
sI208
S'        # do not encapsulate (obfuscate) the original RestrictedError'
p3442
ssS'call'
p3443
S"(code='# -*- coding: utf-8 -*-\\n# developed by Massimo D...s()\\n\\nresponse._vars=response._caller(edit_clone)\\n', environment={'A': <class 'gluon.html.A'>, 'Auth': <class 'gluon.tools.Auth'>, 'B': <class 'gluon.html.B'>, 'BEAUTIFY': <class 'gluon.html.BEAUTIFY'>, 'BODY': <class 'gluon.html.BODY'>, 'BR': <class 'gluon.html.BR'>, 'BUTTON': <class 'gluon.html.BUTTON'>, 'CAT': <class 'gluon.html.CAT'>, 'CENTER': <class 'gluon.html.CENTER'>, 'CLEANUP': <class 'gluon.validators.CLEANUP'>, ...}, layer='/Users/mdipierro/Dropbox/web2py/applications/inplace/controllers/default.py')"
p3444
sS'func'
p3445
S'restricted'
p3446
sa(dp3447
g3422
S'/Users/mdipierro/Dropbox/web2py/applications/inplace/controllers/default.py'
p3448
sg3424
(dp3449
sg3430
I100
sg3431
(dp3450
I96
S'    form = SQLFORM(db.cms_folder,ofolder,deletable=True)\\'
p3451
sI97
S"        .process(next=URL('folder',args=folder.id))"
p3452
sI98
S'    return locals()'
p3453
sI89
S'@auth.requires_login()'
p3454
sI90
S'def edit_folder():'
p3455
sI91
S'    folder = db.cms_folder(request.args(0),created_by=auth.user.id)'
p3456
sI92
S'    db.cms_folder.parent_folder.default=folder.id'
p3457
sI93
S'    db.cms_folder.name.requires=IS_NOT_IN_DB('
p3458
sI94
S"        db(db.cms_folder.parent_folder==folder.id),'cms_folder.name')"
p3459
sI95
S'    ofolder = db.cms_folder(request.args(1),created_by=auth.user.id)'
p3460
ssg3443
S'()'
p3461
sg3445
S'<module>'
p3462
sa(dp3463
g3422
S'/Users/mdipierro/Dropbox/web2py/gluon/globals.py'
p3464
sg3424
(dp3465
S'self'
p3466
S'undefined'
p3467
sS'f'
S'<function edit_clone at 0x1f6dc70>'
p3468
ssg3430
I172
sg3431
(dp3469
I167
S'        self.meta = Storage()      # used by web2py_ajax.html'
p3470
sI168
S'        self.menu = []             # used by the default view layout'
p3471
sI169
S'        self.files = []            # used by web2py_ajax.html'
p3472
sI170
S'        self.generic_patterns = [] # patterns to allow generic views'
p3473
sI171
S'        self._vars = None'
p3474
sI172
S'        self._caller = lambda f: f()'
p3475
sI173
S'        self._view_environment = None'
p3476
sI174
S'        self._custom_commit = None'
p3477
sI175
S'        self._custom_rollback = None'
p3478
sI176
S''
ssg3443
S'(f=<function edit_clone at 0x1f6dc70>)'
p3479
sg3445
S'<lambda>'
p3480
sa(dp3481
g3422
S'/Users/mdipierro/Dropbox/web2py/gluon/tools.py'
p3482
sg3424
(dp3483
S'action'
p3484
S'<function edit_clone at 0x1edd5f0>'
p3485
sS'a'
S'()'
p3486
sS'b'
g39
ssg3430
I2533
sg3431
(dp3487
I2528
S'                # otherwise case 3 would be ok.'
p3488
sI2529
S'                if not (callable(condition) and condition() == True) and not condition == True:'
p3489
sI2530
S'                    current.session.flash = self.messages.access_denied'
p3490
sI2531
S'                    return call_or_redirect('
p3491
sI2532
S'                        self.settings.on_failed_authorization)'
p3492
sI2533
S'                return action(*a, **b)'
p3493
sI2534
S'            f.__doc__ = action.__doc__'
p3494
sI2535
S'            f.__name__ = action.__name__'
p3495
sI2536
S'            f.__dict__.update(action.__dict__)'
p3496
sI2537
S'            return f'
p3497
ssg3443
S'(*a=(), **b={})'
p3498
sg3445
S'f'
sa(dp3499
g3422
S'/Users/mdipierro/Dropbox/web2py/applications/inplace/controllers/default.py'
p3500
sg3424
(dp3501
S'session.new_html'
p3502
S"'\\n<!DOCTYPE html>\\n<!-- paulirish.com/2008/conditi...mages </script>\\n\\t<![endif]-->\\n  \\n</body>\\n</html>\\n'"
p3503
sS'global session'
p3504
S"<Storage {'new_html': '\\n<!DOCTYPE html>\\n<!-- p...login]': '3234f121-3c4f-4b0b-99c3-a248f4409a2f'}>"
p3505
sS'html'
p3506
g3467
sS'session.html'
p3507
S"'\\n<!DOCTYPE html>\\n<!-- paulirish.com/2008/conditi...mages </script>\\n\\t<![endif]-->\\n  \\n</body>\\n</html>\\n'"
p3508
sS'session.html.split'
p3509
S'<built-in method split of str object at 0x214ee00>'
p3510
ssg3430
I31
sg3431
(dp3511
I32
S"        return 'ok'"
p3512
sI33
S'    url = request.vars.url'
p3513
sI34
S'    try:'
p3514
sI35
S'        html = urllib.urlopen(url).read()'
p3515
sI26
S'    session._unlock(response)'
p3516
sI27
S'    import urllib,re'
p3517
sI28
S"    if request.args(0)=='post':"
p3518
sI29
S"        return request.vars.value or ''"
p3519
sI30
S"    elif request.args(0)=='store':"
p3520
sI31
S"        session.new_html = session.html.split('<body')[0]+'<body>'+html+'</body></html>'"
p3521
ssg3443
S'()'
p3522
sg3445
S'edit_clone'
p3523
sasS'pyver'
p3524
S'Python 2.5.4: /usr/bin/python2.5'
p3525
sS'session'
p3526
g49
(g50
g51
NtRp3527
(dp3528
g54
(dp3529
sg56
(lp3530
g49
(g58
g51
NtRp3531
(dp3532
g54
(dp3533
g62
I5
ssg63
Nsg56
(lp3534
g49
(g65
g51
NtRp3535
(dp3536
g54
(dp3537
sg63
g3531
sg56
(lp3538
g49
(g70
g51
NtRp3539
(dp3540
g54
(dp3541
g74
g75
ssg63
g3535
sg56
(lp3542
S'auth'
p3543
asbag49
(g70
g51
NtRp3544
(dp3545
g54
(dp3546
g81
g82
ssg63
g3535
sg56
(lp3547
S':'
asbag49
(g70
g51
NtRp3548
(dp3549
g54
(dp3550
sg63
g3535
sg56
(lp3551
g49
(g50
g51
NtRp3552
(dp3553
g54
(dp3554
g62
I5
ssg63
g3548
sg56
(lp3555
g49
(g58
g51
NtRp3556
(dp3557
g54
(dp3558
g62
I4
ssg63
Nsg56
(lp3559
g49
(g65
g51
NtRp3560
(dp3561
g54
(dp3562
sg63
g3556
sg56
(lp3563
g49
(g70
g51
NtRp3564
(dp3565
g54
(dp3566
g74
g75
ssg63
g3560
sg56
(lp3567
S'expiration'
p3568
asbag49
(g70
g51
NtRp3569
(dp3570
g54
(dp3571
g81
g82
ssg63
g3560
sg56
(lp3572
S':'
asbag49
(g70
g51
NtRp3573
(dp3574
g54
(dp3575
sg63
g3560
sg56
(lp3576
g49
(g50
g51
NtRp3577
(dp3578
g54
(dp3579
g62
I4
ssg63
g3573
sg56
(lp3580
S'3600'
p3581
asbasbasbag49
(g65
g51
NtRp3582
(dp3583
g54
(dp3584
sg63
g3556
sg56
(lp3585
g49
(g70
g51
NtRp3586
(dp3587
g54
(dp3588
g74
g75
ssg63
g3582
sg56
(lp3589
S'hmac_key'
p3590
asbag49
(g70
g51
NtRp3591
(dp3592
g54
(dp3593
g81
g82
ssg63
g3582
sg56
(lp3594
S':'
asbag49
(g70
g51
NtRp3595
(dp3596
g54
(dp3597
sg63
g3582
sg56
(lp3598
g49
(g50
g51
NtRp3599
(dp3600
g54
(dp3601
g62
I4
ssg63
g3595
sg56
(lp3602
S'c624a9b0-4bfe-4ee3-8a28-a5bb6f563b19'
p3603
asbasbasbag49
(g65
g51
NtRp3604
(dp3605
g54
(dp3606
sg63
g3556
sg56
(lp3607
g49
(g70
g51
NtRp3608
(dp3609
g54
(dp3610
g74
g75
ssg63
g3604
sg56
(lp3611
S'last_visit'
p3612
asbag49
(g70
g51
NtRp3613
(dp3614
g54
(dp3615
g81
g82
ssg63
g3604
sg56
(lp3616
S':'
asbag49
(g70
g51
NtRp3617
(dp3618
g54
(dp3619
sg63
g3604
sg56
(lp3620
g49
(g50
g51
NtRp3621
(dp3622
g54
(dp3623
g62
I4
ssg63
g3617
sg56
(lp3624
S'datetime.datetime(2011, 12, 11, 17, 9, 2, 695099)'
p3625
asbasbasbag49
(g65
g51
NtRp3626
(dp3627
g54
(dp3628
sg63
g3556
sg56
(lp3629
g49
(g70
g51
NtRp3630
(dp3631
g54
(dp3632
g74
g75
ssg63
g3626
sg56
(lp3633
S'user'
p3634
asbag49
(g70
g51
NtRp3635
(dp3636
g54
(dp3637
g81
g82
ssg63
g3626
sg56
(lp3638
S':'
asbag49
(g70
g51
NtRp3639
(dp3640
g54
(dp3641
sg63
g3626
sg56
(lp3642
g49
(g50
g51
NtRp3643
(dp3644
g54
(dp3645
g62
I4
ssg63
g3639
sg56
(lp3646
g49
(g58
g51
NtRp3647
(dp3648
g54
(dp3649
g62
I3
ssg63
Nsg56
(lp3650
g49
(g65
g51
NtRp3651
(dp3652
g54
(dp3653
sg63
g3647
sg56
(lp3654
g49
(g70
g51
NtRp3655
(dp3656
g54
(dp3657
g74
g75
ssg63
g3651
sg56
(lp3658
S'email'
p3659
asbag49
(g70
g51
NtRp3660
(dp3661
g54
(dp3662
g81
g82
ssg63
g3651
sg56
(lp3663
S':'
asbag49
(g70
g51
NtRp3664
(dp3665
g54
(dp3666
sg63
g3651
sg56
(lp3667
g49
(g50
g51
NtRp3668
(dp3669
g54
(dp3670
g62
I3
ssg63
g3664
sg56
(lp3671
S'mdipierro@cs.depaul.edu'
p3672
asbasbasbag49
(g65
g51
NtRp3673
(dp3674
g54
(dp3675
sg63
g3647
sg56
(lp3676
g49
(g70
g51
NtRp3677
(dp3678
g54
(dp3679
g74
g75
ssg63
g3673
sg56
(lp3680
S'first_name'
p3681
asbag49
(g70
g51
NtRp3682
(dp3683
g54
(dp3684
g81
g82
ssg63
g3673
sg56
(lp3685
S':'
asbag49
(g70
g51
NtRp3686
(dp3687
g54
(dp3688
sg63
g3673
sg56
(lp3689
g49
(g50
g51
NtRp3690
(dp3691
g54
(dp3692
g62
I3
ssg63
g3686
sg56
(lp3693
S'Massimo'
p3694
asbasbasbag49
(g65
g51
NtRp3695
(dp3696
g54
(dp3697
sg63
g3647
sg56
(lp3698
g49
(g70
g51
NtRp3699
(dp3700
g54
(dp3701
g74
g75
ssg63
g3695
sg56
(lp3702
S'id'
p3703
asbag49
(g70
g51
NtRp3704
(dp3705
g54
(dp3706
g81
g82
ssg63
g3695
sg56
(lp3707
S':'
asbag49
(g70
g51
NtRp3708
(dp3709
g54
(dp3710
sg63
g3695
sg56
(lp3711
g49
(g50
g51
NtRp3712
(dp3713
g54
(dp3714
g62
I3
ssg63
g3708
sg56
(lp3715
S'1'
asbasbasbag49
(g65
g51
NtRp3716
(dp3717
g54
(dp3718
sg63
g3647
sg56
(lp3719
g49
(g70
g51
NtRp3720
(dp3721
g54
(dp3722
g74
g75
ssg63
g3716
sg56
(lp3723
S'last_name'
p3724
asbag49
(g70
g51
NtRp3725
(dp3726
g54
(dp3727
g81
g82
ssg63
g3716
sg56
(lp3728
S':'
asbag49
(g70
g51
NtRp3729
(dp3730
g54
(dp3731
sg63
g3716
sg56
(lp3732
g49
(g50
g51
NtRp3733
(dp3734
g54
(dp3735
g62
I3
ssg63
g3729
sg56
(lp3736
S'Di Pierro'
p3737
asbasbasbag49
(g65
g51
NtRp3738
(dp3739
g54
(dp3740
sg63
g3647
sg56
(lp3741
g49
(g70
g51
NtRp3742
(dp3743
g54
(dp3744
g74
g75
ssg63
g3738
sg56
(lp3745
S'password'
p3746
asbag49
(g70
g51
NtRp3747
(dp3748
g54
(dp3749
g81
g82
ssg63
g3738
sg56
(lp3750
S':'
asbag49
(g70
g51
NtRp3751
(dp3752
g54
(dp3753
sg63
g3738
sg56
(lp3754
g49
(g50
g51
NtRp3755
(dp3756
g54
(dp3757
g62
I3
ssg63
g3751
sg56
(lp3758
S'12923092f4d9e86e56018b9cdd790947'
p3759
asbasbasbag49
(g65
g51
NtRp3760
(dp3761
g54
(dp3762
sg63
g3647
sg56
(lp3763
g49
(g70
g51
NtRp3764
(dp3765
g54
(dp3766
g74
g75
ssg63
g3760
sg56
(lp3767
S'registration_id'
p3768
asbag49
(g70
g51
NtRp3769
(dp3770
g54
(dp3771
g81
g82
ssg63
g3760
sg56
(lp3772
S':'
asbag49
(g70
g51
NtRp3773
(dp3774
g54
(dp3775
sg63
g3760
sg56
(lp3776
g49
(g50
g51
NtRp3777
(dp3778
g54
(dp3779
g62
I3
ssg63
g3773
sg56
(lp3780
S''
asbasbasbag49
(g65
g51
NtRp3781
(dp3782
g54
(dp3783
sg63
g3647
sg56
(lp3784
g49
(g70
g51
NtRp3785
(dp3786
g54
(dp3787
g74
g75
ssg63
g3781
sg56
(lp3788
S'registration_key'
p3789
asbag49
(g70
g51
NtRp3790
(dp3791
g54
(dp3792
g81
g82
ssg63
g3781
sg56
(lp3793
S':'
asbag49
(g70
g51
NtRp3794
(dp3795
g54
(dp3796
sg63
g3781
sg56
(lp3797
g49
(g50
g51
NtRp3798
(dp3799
g54
(dp3800
g62
I3
ssg63
g3794
sg56
(lp3801
S''
asbasbasbag49
(g65
g51
NtRp3802
(dp3803
g54
(dp3804
sg63
g3647
sg56
(lp3805
g49
(g70
g51
NtRp3806
(dp3807
g54
(dp3808
g74
g75
ssg63
g3802
sg56
(lp3809
S'reset_password_key'
p3810
asbag49
(g70
g51
NtRp3811
(dp3812
g54
(dp3813
g81
g82
ssg63
g3802
sg56
(lp3814
S':'
asbag49
(g70
g51
NtRp3815
(dp3816
g54
(dp3817
sg63
g3802
sg56
(lp3818
g49
(g50
g51
NtRp3819
(dp3820
g54
(dp3821
g62
I3
ssg63
g3815
sg56
(lp3822
S''
asbasbasbasbasbasbasbasbasbasbasbag49
(g65
g51
NtRp3823
(dp3824
g54
(dp3825
sg63
g3531
sg56
(lp3826
g49
(g70
g51
NtRp3827
(dp3828
g54
(dp3829
g74
g75
ssg63
g3823
sg56
(lp3830
S'html'
p3831
asbag49
(g70
g51
NtRp3832
(dp3833
g54
(dp3834
g81
g82
ssg63
g3823
sg56
(lp3835
S':'
asbag49
(g70
g51
NtRp3836
(dp3837
g54
(dp3838
sg63
g3823
sg56
(lp3839
g49
(g50
g51
NtRp3840
(dp3841
g54
(dp3842
g62
I5
ssg63
g3836
sg56
(lp3843
S'\n<!DOCTYPE html>\n<!-- paulirish.com/2008/conditional-stylesheets-vs-css-hacks-answer-neither/ -->\n<!--[if lt IE 7]><html class="ie ie6 ie-lte9 ie-lte8 ie-lte7 no-js" lang="en"> <![endif]-->\n<!--[if IE 7]><html class="ie ie7 ie-lte9 ie-lte8 ie-lte7 no-js" lang="en"> <![endif]-->\n<!--[if IE 8]><html class="ie ie8 ie-lte9 ie-lte8 no-js" lang="en"> <![endif]-->\n<!--[if IE 9]><html class="ie9 ie-lte9 no-js" lang="en"> <![endif]-->\n<!--[if (gt IE 9)|!(IE)]><!--> <html class="no-js" lang="en"> <!--<![endif]-->\n<head>\n  <meta charset="utf-8" />\n  <!-- www.phpied.com/conditional-comments-block-downloads/ -->\n  <!-- Always force latest IE rendering engine\n\t   (even in intranet) & Chrome Frame\n\t   Remove this if you use the .htaccess -->\n  <!--[if IE]>\n    <meta http-equiv="X-UA-Compatible" content="IE=edge">\n  <![endif]-->\n  \n  <title>web2py Web Framework</title>\n  \n  <!-- http://dev.w3.org/html5/markup/meta.name.html -->\n  <meta name="application-name" content="examples" />\n  \n  <!-- Speaking of Google, don\'t forget to set your site up:\n\t   http://google.com/webmasters -->\n  <meta name="google-site-verification" content="" />\n\n  <!--  Mobile Viewport Fix\n\t  j.mp/mobileviewport & davidbcalhoun.com/2010/viewport-metatag\n\t  device-width: Occupy full width of the screen in its current orientation\n\t  initial-scale = 1.0 retains dimensions instead of zooming out if page height > device height\n\t  user-scalable = yes allows the user to zoom in -->\n  <meta name="viewport" content="width=device-width, initial-scale=1.0, user-scalable=yes">\n  \n  <!-- Place favicon.ico and apple-touch-icon.png in the root of your domain and delete these references -->\n  <link rel="shortcut icon" href="/examples/static/favicon.ico" type="image/x-icon">\n  <link rel="apple-touch-icon" href="/examples/static/favicon.png">\n\n  <!-- All JavaScript at the bottom, except for Modernizr which enables \n\t   HTML5 elements & feature detects -->\n  <script src="/examples/static/js/modernizr.custom.js"></script>  \n\n  <!-- include stylesheets -->\n  \n\n  <script type="text/javascript"><!--\n    // These variables are used by the web2py_ajax_init function in web2py_ajax.js (which is loaded below).\n    var w2p_ajax_confirm_message = "Are you sure you want to delete this object?";\n    var w2p_ajax_date_format = "%Y-%m-%d";\n    var w2p_ajax_datetime_format = "%Y-%m-%d %H:%M:%S";\n    //--></script>\n<script src="/examples/static/js/jquery.js" type="text/javascript"></script><link href="/examples/static/css/calendar.css" rel="stylesheet" type="text/css" /><script src="/examples/static/js/calendar.js" type="text/javascript"></script><script src="/examples/static/js/web2py.js" type="text/javascript"></script><link href="/examples/static/css/skeleton.css" rel="stylesheet" type="text/css" /><link href="/examples/static/css/web2py.css" rel="stylesheet" type="text/css" /><link href="/examples/static/css/examples.css" rel="stylesheet" type="text/css" /><link href="/examples/static/css/superfish.css" rel="stylesheet" type="text/css" /><script src="/examples/static/js/superfish.js" type="text/javascript"></script>\n\n\n  <script type="text/javascript">\n    jQuery(function(){jQuery(\'.sf-menu\').superfish();});\n  </script>\n\n  \n\n  <!-- uncomment here to load jquery-ui\n  <link rel="stylesheet" href="http://ajax.googleapis.com/ajax/libs/jqueryui/1.8.16/themes/base/jquery-ui.css" type="text/css" media="all" />\n  <script src="http://ajax.googleapis.com/ajax/libs/jqueryui/1.8.16/jquery-ui.min.js" type="text/javascript"></script>\n  uncomment to load jquery-ui //-->\n  </style>\n</head>\n<body>\n  <div class="wrapper"><!-- for sticky footer -->    \n    <div class="flash"></div>    \n    <div class="header">\n      <div class="container">\n        <div class="sixteen columns">\n\t  <img src="/examples/static/images/web2py_logo.png" />\n          <h5></h5>\n        </div>\n        \n        <div class="sixteen columns statusbar">\n\t  \n\t  \n          <div id="menu"><ul class="sf-menu"><li><a href="/examples/default/index">Home</a></li><li><a href="/examples/default/what">About</a></li><li><a href="/examples/default/download">Download</a></li><li><a href="/examples/default/documentation">Docs &amp; Resources</a></li><li><a href="/examples/default/support">Support</a></li><li><a href="/examples/default/who">Contributors</a></li></ul>\n\t    \n            <!-- AddToAny BEGIN -->\n            <div style="float:right;padding-top:6px;" class="a2a_kit a2a_default_style">\n            <a class="a2a_dd" href="http://www.addtoany.com/share_save">Share</a></div>\n            <script type="text/javascript" src="http://static.addtoany.com/menu/page.js"></script>\n            <!-- AddToAny END -->\n          </div>\n\t  \n\t  <div class="sixteen columns announce">\n\t    <a href="http://www.infoworld.com/d/open-source-software/bossie-awards-2011-the-best-open-source-application-development-software-171759-0&current=10&last=1#slideshowTop">2011 BOSSIE AWARD FOR OPEN SOURCE DEVELOPMENT SOFTWARE</a>\n          </div>\n\t</div>\n      </div>\n    </div>\n    <div class="main">\n      <div class="container mainbody">\t\n        <div class="sixteen columns">\n          <div class="ten columns center">\n            \n            \n\n<center>\n  <img src="/examples/static/images/tag-cloud-color-small.png"/>\n</center>\n\n<h3>WEB2PY<sup>TM</sup> WEB FRAMEWORK</h3>\n<p>Free open source full-stack framework for rapid development of fast, scalable, <a href="http://www.web2py.com/book/default/chapter/01#security" target="_blank">secure</a> and portable database-driven web-based applications. Written and programmable in <a href="http://www.python.org" target="_blank">Python</a>. <a href="http://www.gnu.org/licenses/lgpl.html">LGPLv3 License</a>.\nCurrent version: 1.99.3 (2011-12-09 16:18:03) stable</p>\n\n\n\n\n\n\n            \n          </div>\n          \n          \n          <div class="five columns">\n            \n<div style="text-align:center">\n  <a href="http://web2py.com/book"><img src="/examples/static/images/tablet.png" alt="Tablet" /></a><br/>\n  <a href="http://www.lulu.com/product/paperback/web2py-book-(4th-edition)/18738286"><img src="http://static.lulu.com/images/services/buy_now_buttons/us/book.gif?20111206124946" border="0" alt="Support independent publishing: Buy this book on Lulu."></a><br/>\n  <a class="button" href="/examples/default/download" style="width:90%">DOWNLOAD NOW</a><br/>\n  <a class="button" href="http://web2py.com/demo_admin" style="width:90%">ONLINE DEMO</a><br/>\n  <a class="button" href="http://web2py.com/poweredby" style="width:90%">SITES POWERED</a>\n</div>\n\n          </div>    \n          \n        </div>\n      </div><!-- container -->\n      \n<div class="container">\n  <div class="sixteen columns">\n    <div class="five columns">\n      <h3><a href="/examples/default/about">BATTERIES INCLUDED</a></h3>\n      <p>Everything you need in one package including fast multi-threaded web server, SQL database and web-based interface. No third party dependencies but works with <a href=/examples/default/what>third party tools</a>.</p>\n    </div>\n    <div class="five columns">\n      <h3><a href="http://web2py.com/demo_admin">WEB-BASED IDE</a></h3>\n      <p>Create, modify, deploy and manage application from anywhere using your browser. One web2py instance can run multiple web sites using different databases. Try the <a href="http://web2py.com/demo_admin">interactive demo</a>.</p>\n    </div>\n    <div class="five columns">\n      <h3><a href="/examples/default/documentation">EXTENSIVE DOCS</a></h3>\n      <p>Start with some <a href="/examples/default/examples">quick examples</a>, then read the <a href="http://web2py.com/book">reference manual</a>, watch <a href="http://vimeo.com/album/178500">videos</a>, and join a <a href="/examples/default/usergroups">user group</a> for discussion. Take advantage of the <a href="http://web2py.com/layouts">layouts</a>, <a href="http://dev.s-cubism.com/web2py_plugins">plugins</a>, and <a href="http://web2pyslices.com">recipes</a>.</p>\n    </div>\n  </div>\n</div>\n<div class="container">\n  <div class="sixteen columns">\n    <img src="/examples/static/images/shadow-bottom.png" width="100%"/>\n    \n    <div class="five columns">\n      <em>\n\t<p>web2py rules! as a sysadmin I like the no installation and no configuration approach a lot)</p>\n      </em>\n      <span class="right">\n\t<a href="http://twitter.com/#!/jkogut/status/61414554273447936"><em>kjogut</em></a>\n      </span>\n    </div>\n    \n    <div class="five columns">\n      <em>\n\t<p>Get Things Done - Faster, Better and More Easily with web2py</p>\n      </em>\n      <span class="right">\n\t<a href="http://twitter.com/#!/rochacbruno/status/73583156044890112"><em>Bruno Rocha</em></a>\n      </span>\n    </div>\n    \n    <div class="five columns">\n      <em>\n\t<p>If you are still learning python, web2py is best tool by far</p>\n      </em>\n      <span class="right">\n\t<a href="http://twitter.com/#!/pbreit/status/48260905775017984"><em>pbreit</em></a>\n      </span>\n    </div>\n    \n  </div>\n</div>\n      \n      \n    </div><!-- main -->\n    \n    <div class="push"></div>\n  </div><!-- wrapper -->\n\n  <div class="footer">\n    <div class="container header">    \n      <div class="sixteen columns">\n         <!-- this is default footer -->\n        <div class="footer-content" >\n          Copyright &#169; 2011\n\t  - User communities in <a href="https://groups.google.com/forum/?fromgroups#!forum/web2py" target="_blank">English<a>, <a href="https://groups.google.com/forum/?fromgroups#!forum/web2py-fr" target="_blank">French</a>, <a href="https://groups.google.com/forum/?fromgroups#!forum/web2py-japan" target="_blank">Japanese</a>, <a href="https://groups.google.com/forum/?fromgroups#!forum/web2py-users-brazil" target="_blank">Portuguese</a>, and <a href="https://groups.google.com/forum/?fromgroups#!forum/web2py-usuarios" target="_blank">Spanish</a>.\n          <div style="float: right;">\n            <a href="http://www.web2py.com/" style="float: left; padding-right: 6px;">\n            <img style="padding-bottom: 0;" src="/examples/static/images/poweredby.png"/>\n            </a>\n          </div>\n        </div>\n        \t\n      </div>\n    </div><!-- container -->\n  </div><!-- footer -->\n  \n  <!--[if lt IE 7 ]>\n\t<script src="/examples/static/js/dd_belatedpng.js"></script>\n\t<script> DD_belatedPNG.fix(\'img, .png_bg\'); //fix any <img> or .png_bg background-images </script>\n\t<![endif]-->\n  \n</body>\n</html>\n'
p3844
asbasbasbag49
(g65
g51
NtRp3845
(dp3846
g54
(dp3847
sg63
g3531
sg56
(lp3848
g49
(g70
g51
NtRp3849
(dp3850
g54
(dp3851
g74
g75
ssg63
g3845
sg56
(lp3852
S'injected'
p3853
asbag49
(g70
g51
NtRp3854
(dp3855
g54
(dp3856
g81
g82
ssg63
g3845
sg56
(lp3857
S':'
asbag49
(g70
g51
NtRp3858
(dp3859
g54
(dp3860
sg63
g3845
sg56
(lp3861
g49
(g50
g51
NtRp3862
(dp3863
g54
(dp3864
g62
I5
ssg63
g3858
sg56
(lp3865
S'<script src="/inplace/static/js/inject.js" language="javascript"></script>'
p3866
asbasbasbag49
(g65
g51
NtRp3867
(dp3868
g54
(dp3869
sg63
g3531
sg56
(lp3870
g49
(g70
g51
NtRp3871
(dp3872
g54
(dp3873
g74
g75
ssg63
g3867
sg56
(lp3874
S'new_html'
p3875
asbag49
(g70
g51
NtRp3876
(dp3877
g54
(dp3878
g81
g82
ssg63
g3867
sg56
(lp3879
S':'
asbag49
(g70
g51
NtRp3880
(dp3881
g54
(dp3882
sg63
g3867
sg56
(lp3883
g49
(g50
g51
NtRp3884
(dp3885
g54
(dp3886
g62
I5
ssg63
g3880
sg56
(lp3887
g3844
asbasbasbag49
(g65
g51
NtRp3888
(dp3889
g54
(dp3890
sg63
g3531
sg56
(lp3891
g49
(g70
g51
NtRp3892
(dp3893
g54
(dp3894
g74
g75
ssg63
g3888
sg56
(lp3895
S'url'
p3896
asbag49
(g70
g51
NtRp3897
(dp3898
g54
(dp3899
g81
g82
ssg63
g3888
sg56
(lp3900
S':'
asbag49
(g70
g51
NtRp3901
(dp3902
g54
(dp3903
sg63
g3888
sg56
(lp3904
g49
(g50
g51
NtRp3905
(dp3906
g54
(dp3907
g62
I5
ssg63
g3901
sg56
(lp3908
S'http://web2py.com'
p3909
asbasbasbasbasbsS'etype'
p3910
S"<type 'exceptions.UnboundLocalError'>"
p3911
sS'date'
p3912
S'Sun Dec 11 17:11:07 2011'
p3913
sS'response'
p3914
g49
(g50
g51
NtRp3915
(dp3916
g54
(dp3917
sg56
(lp3918
g49
(g58
g51
NtRp3919
(dp3920
g54
(dp3921
g62
I5
ssg63
Nsg56
(lp3922
g49
(g65
g51
NtRp3923
(dp3924
g54
(dp3925
sg63
g3919
sg56
(lp3926
g49
(g70
g51
NtRp3927
(dp3928
g54
(dp3929
g74
g75
ssg63
g3923
sg56
(lp3930
g160
asbag49
(g70
g51
NtRp3931
(dp3932
g54
(dp3933
g81
g82
ssg63
g3923
sg56
(lp3934
S':'
asbag49
(g70
g51
NtRp3935
(dp3936
g54
(dp3937
sg63
g3923
sg56
(lp3938
g49
(g50
g51
NtRp3939
(dp3940
g54
(dp3941
g62
I5
ssg63
g3935
sg56
(lp3942
S'<cStringIO.StringO object at 0x116db20>'
p3943
asbasbasbag49
(g65
g51
NtRp3944
(dp3945
g54
(dp3946
sg63
g3919
sg56
(lp3947
g49
(g70
g51
NtRp3948
(dp3949
g54
(dp3950
g74
g75
ssg63
g3944
sg56
(lp3951
g226
asbag49
(g70
g51
NtRp3952
(dp3953
g54
(dp3954
g81
g82
ssg63
g3944
sg56
(lp3955
S':'
asbag49
(g70
g51
NtRp3956
(dp3957
g54
(dp3958
sg63
g3944
sg56
(lp3959
g49
(g50
g51
NtRp3960
(dp3961
g54
(dp3962
g62
I5
ssg63
g3956
sg56
(lp3963
g49
(g58
g51
NtRp3964
(dp3965
g54
(dp3966
g62
I4
ssg63
Nsg56
(lp3967
g49
(g65
g51
NtRp3968
(dp3969
g54
(dp3970
sg63
g3964
sg56
(lp3971
g49
(g70
g51
NtRp3972
(dp3973
g54
(dp3974
g74
g75
ssg63
g3968
sg56
(lp3975
S'session_id_inplace'
p3976
asbag49
(g70
g51
NtRp3977
(dp3978
g54
(dp3979
g81
g82
ssg63
g3968
sg56
(lp3980
S':'
asbag49
(g70
g51
NtRp3981
(dp3982
g54
(dp3983
sg63
g3968
sg56
(lp3984
g49
(g50
g51
NtRp3985
(dp3986
g54
(dp3987
g62
I4
ssg63
g3981
sg56
(lp3988
g49
(g58
g51
NtRp3989
(dp3990
g54
(dp3991
g62
I3
ssg63
Nsg56
(lp3992
g49
(g65
g51
NtRp3993
(dp3994
g54
(dp3995
sg63
g3989
sg56
(lp3996
g49
(g70
g51
NtRp3997
(dp3998
g54
(dp3999
g74
g75
ssg63
g3993
sg56
(lp4000
g276
asbag49
(g70
g51
NtRp4001
(dp4002
g54
(dp4003
g81
g82
ssg63
g3993
sg56
(lp4004
S':'
asbag49
(g70
g51
NtRp4005
(dp4006
g54
(dp4007
sg63
g3993
sg56
(lp4008
g49
(g50
g51
NtRp4009
(dp4010
g54
(dp4011
g62
I3
ssg63
g4005
sg56
(lp4012
S''
asbasbasbag49
(g65
g51
NtRp4013
(dp4014
g54
(dp4015
sg63
g3989
sg56
(lp4016
g49
(g70
g51
NtRp4017
(dp4018
g54
(dp4019
g74
g75
ssg63
g4013
sg56
(lp4020
g297
asbag49
(g70
g51
NtRp4021
(dp4022
g54
(dp4023
g81
g82
ssg63
g4013
sg56
(lp4024
S':'
asbag49
(g70
g51
NtRp4025
(dp4026
g54
(dp4027
sg63
g4013
sg56
(lp4028
g49
(g50
g51
NtRp4029
(dp4030
g54
(dp4031
g62
I3
ssg63
g4025
sg56
(lp4032
S''
asbasbasbag49
(g65
g51
NtRp4033
(dp4034
g54
(dp4035
sg63
g3989
sg56
(lp4036
g49
(g70
g51
NtRp4037
(dp4038
g54
(dp4039
g74
g75
ssg63
g4033
sg56
(lp4040
g318
asbag49
(g70
g51
NtRp4041
(dp4042
g54
(dp4043
g81
g82
ssg63
g4033
sg56
(lp4044
S':'
asbag49
(g70
g51
NtRp4045
(dp4046
g54
(dp4047
sg63
g4033
sg56
(lp4048
g49
(g50
g51
NtRp4049
(dp4050
g54
(dp4051
g62
I3
ssg63
g4045
sg56
(lp4052
S''
asbasbasbag49
(g65
g51
NtRp4053
(dp4054
g54
(dp4055
sg63
g3989
sg56
(lp4056
g49
(g70
g51
NtRp4057
(dp4058
g54
(dp4059
g74
g75
ssg63
g4053
sg56
(lp4060
g339
asbag49
(g70
g51
NtRp4061
(dp4062
g54
(dp4063
g81
g82
ssg63
g4053
sg56
(lp4064
S':'
asbag49
(g70
g51
NtRp4065
(dp4066
g54
(dp4067
sg63
g4053
sg56
(lp4068
g49
(g50
g51
NtRp4069
(dp4070
g54
(dp4071
g62
I3
ssg63
g4065
sg56
(lp4072
S''
asbasbasbag49
(g65
g51
NtRp4073
(dp4074
g54
(dp4075
sg63
g3989
sg56
(lp4076
g49
(g70
g51
NtRp4077
(dp4078
g54
(dp4079
g74
g75
ssg63
g4073
sg56
(lp4080
g360
asbag49
(g70
g51
NtRp4081
(dp4082
g54
(dp4083
g81
g82
ssg63
g4073
sg56
(lp4084
S':'
asbag49
(g70
g51
NtRp4085
(dp4086
g54
(dp4087
sg63
g4073
sg56
(lp4088
g49
(g50
g51
NtRp4089
(dp4090
g54
(dp4091
g62
I3
ssg63
g4085
sg56
(lp4092
S'/'
asbasbasbag49
(g65
g51
NtRp4093
(dp4094
g54
(dp4095
sg63
g3989
sg56
(lp4096
g49
(g70
g51
NtRp4097
(dp4098
g54
(dp4099
g74
g75
ssg63
g4093
sg56
(lp4100
g381
asbag49
(g70
g51
NtRp4101
(dp4102
g54
(dp4103
g81
g82
ssg63
g4093
sg56
(lp4104
S':'
asbag49
(g70
g51
NtRp4105
(dp4106
g54
(dp4107
sg63
g4093
sg56
(lp4108
g49
(g50
g51
NtRp4109
(dp4110
g54
(dp4111
g62
I3
ssg63
g4105
sg56
(lp4112
S''
asbasbasbag49
(g65
g51
NtRp4113
(dp4114
g54
(dp4115
sg63
g3989
sg56
(lp4116
g49
(g70
g51
NtRp4117
(dp4118
g54
(dp4119
g74
g75
ssg63
g4113
sg56
(lp4120
g402
asbag49
(g70
g51
NtRp4121
(dp4122
g54
(dp4123
g81
g82
ssg63
g4113
sg56
(lp4124
S':'
asbag49
(g70
g51
NtRp4125
(dp4126
g54
(dp4127
sg63
g4113
sg56
(lp4128
g49
(g50
g51
NtRp4129
(dp4130
g54
(dp4131
g62
I3
ssg63
g4125
sg56
(lp4132
S''
asbasbasbasbasbasbasbasbasbasbasbag49
(g65
g51
NtRp4133
(dp4134
g54
(dp4135
sg63
g3919
sg56
(lp4136
g49
(g70
g51
NtRp4137
(dp4138
g54
(dp4139
g74
g75
ssg63
g4133
sg56
(lp4140
S'files'
p4141
asbag49
(g70
g51
NtRp4142
(dp4143
g54
(dp4144
g81
g82
ssg63
g4133
sg56
(lp4145
S':'
asbag49
(g70
g51
NtRp4146
(dp4147
g54
(dp4148
sg63
g4133
sg56
(lp4149
g49
(g50
g51
NtRp4150
(dp4151
g54
(dp4152
g62
I5
ssg63
g4146
sg56
(lp4153
g49
(g58
g51
NtRp4154
(dp4155
g54
(dp4156
g62
I4
ssg63
Nsg56
(lp4157
sbasbasbasbag49
(g65
g51
NtRp4158
(dp4159
g54
(dp4160
sg63
g3919
sg56
(lp4161
g49
(g70
g51
NtRp4162
(dp4163
g54
(dp4164
g74
g75
ssg63
g4158
sg56
(lp4165
S'flash'
p4166
asbag49
(g70
g51
NtRp4167
(dp4168
g54
(dp4169
g81
g82
ssg63
g4158
sg56
(lp4170
S':'
asbag49
(g70
g51
NtRp4171
(dp4172
g54
(dp4173
sg63
g4158
sg56
(lp4174
g49
(g50
g51
NtRp4175
(dp4176
g54
(dp4177
g62
I5
ssg63
g4171
sg56
(lp4178
S''
asbasbasbag49
(g65
g51
NtRp4179
(dp4180
g54
(dp4181
sg63
g3919
sg56
(lp4182
g49
(g70
g51
NtRp4183
(dp4184
g54
(dp4185
g74
g75
ssg63
g4179
sg56
(lp4186
S'generic_patterns'
p4187
asbag49
(g70
g51
NtRp4188
(dp4189
g54
(dp4190
g81
g82
ssg63
g4179
sg56
(lp4191
S':'
asbag49
(g70
g51
NtRp4192
(dp4193
g54
(dp4194
sg63
g4179
sg56
(lp4195
g49
(g50
g51
NtRp4196
(dp4197
g54
(dp4198
g62
I5
ssg63
g4192
sg56
(lp4199
g49
(g58
g51
NtRp4200
(dp4201
g54
(dp4202
g62
I4
ssg63
Nsg56
(lp4203
g49
(g65
g51
NtRp4204
(dp4205
g54
(dp4206
sg63
g4200
sg56
(lp4207
g49
(g70
g51
NtRp4208
(dp4209
g54
(dp4210
sg63
g4204
sg56
(lp4211
g49
(g50
g51
NtRp4212
(dp4213
g54
(dp4214
g62
I4
ssg63
g4208
sg56
(lp4215
S'*'
asbasbasbasbasbasbasbag49
(g65
g51
NtRp4216
(dp4217
g54
(dp4218
sg63
g3919
sg56
(lp4219
g49
(g70
g51
NtRp4220
(dp4221
g54
(dp4222
g74
g75
ssg63
g4216
sg56
(lp4223
S'headers'
p4224
asbag49
(g70
g51
NtRp4225
(dp4226
g54
(dp4227
g81
g82
ssg63
g4216
sg56
(lp4228
S':'
asbag49
(g70
g51
NtRp4229
(dp4230
g54
(dp4231
sg63
g4216
sg56
(lp4232
g49
(g50
g51
NtRp4233
(dp4234
g54
(dp4235
g62
I5
ssg63
g4229
sg56
(lp4236
g49
(g58
g51
NtRp4237
(dp4238
g54
(dp4239
g62
I4
ssg63
Nsg56
(lp4240
g49
(g65
g51
NtRp4241
(dp4242
g54
(dp4243
sg63
g4237
sg56
(lp4244
g49
(g70
g51
NtRp4245
(dp4246
g54
(dp4247
g74
g75
ssg63
g4241
sg56
(lp4248
S'Cache-Control'
p4249
asbag49
(g70
g51
NtRp4250
(dp4251
g54
(dp4252
g81
g82
ssg63
g4241
sg56
(lp4253
S':'
asbag49
(g70
g51
NtRp4254
(dp4255
g54
(dp4256
sg63
g4241
sg56
(lp4257
g49
(g50
g51
NtRp4258
(dp4259
g54
(dp4260
g62
I4
ssg63
g4254
sg56
(lp4261
S'no-store, no-cache, must-revalidate, post-check=0, pre-check=0'
p4262
asbasbasbag49
(g65
g51
NtRp4263
(dp4264
g54
(dp4265
sg63
g4237
sg56
(lp4266
g49
(g70
g51
NtRp4267
(dp4268
g54
(dp4269
g74
g75
ssg63
g4263
sg56
(lp4270
S'Content-Type'
p4271
asbag49
(g70
g51
NtRp4272
(dp4273
g54
(dp4274
g81
g82
ssg63
g4263
sg56
(lp4275
S':'
asbag49
(g70
g51
NtRp4276
(dp4277
g54
(dp4278
sg63
g4263
sg56
(lp4279
g49
(g50
g51
NtRp4280
(dp4281
g54
(dp4282
g62
I4
ssg63
g4276
sg56
(lp4283
S'text/html; charset=utf-8'
p4284
asbasbasbag49
(g65
g51
NtRp4285
(dp4286
g54
(dp4287
sg63
g4237
sg56
(lp4288
g49
(g70
g51
NtRp4289
(dp4290
g54
(dp4291
g74
g75
ssg63
g4285
sg56
(lp4292
S'Expires'
p4293
asbag49
(g70
g51
NtRp4294
(dp4295
g54
(dp4296
g81
g82
ssg63
g4285
sg56
(lp4297
S':'
asbag49
(g70
g51
NtRp4298
(dp4299
g54
(dp4300
sg63
g4285
sg56
(lp4301
g49
(g50
g51
NtRp4302
(dp4303
g54
(dp4304
g62
I4
ssg63
g4298
sg56
(lp4305
S'Sun, 11 Dec 2011 23:11:07 GMT'
p4306
asbasbasbag49
(g65
g51
NtRp4307
(dp4308
g54
(dp4309
sg63
g4237
sg56
(lp4310
g49
(g70
g51
NtRp4311
(dp4312
g54
(dp4313
g74
g75
ssg63
g4307
sg56
(lp4314
S'Pragma'
p4315
asbag49
(g70
g51
NtRp4316
(dp4317
g54
(dp4318
g81
g82
ssg63
g4307
sg56
(lp4319
S':'
asbag49
(g70
g51
NtRp4320
(dp4321
g54
(dp4322
sg63
g4307
sg56
(lp4323
g49
(g50
g51
NtRp4324
(dp4325
g54
(dp4326
g62
I4
ssg63
g4320
sg56
(lp4327
S'no-cache'
p4328
asbasbasbag49
(g65
g51
NtRp4329
(dp4330
g54
(dp4331
sg63
g4237
sg56
(lp4332
g49
(g70
g51
NtRp4333
(dp4334
g54
(dp4335
g74
g75
ssg63
g4329
sg56
(lp4336
S'X-Powered-By'
p4337
asbag49
(g70
g51
NtRp4338
(dp4339
g54
(dp4340
g81
g82
ssg63
g4329
sg56
(lp4341
S':'
asbag49
(g70
g51
NtRp4342
(dp4343
g54
(dp4344
sg63
g4329
sg56
(lp4345
g49
(g50
g51
NtRp4346
(dp4347
g54
(dp4348
g62
I4
ssg63
g4342
sg56
(lp4349
S'web2py'
p4350
asbasbasbasbasbasbasbag49
(g65
g51
NtRp4351
(dp4352
g54
(dp4353
sg63
g3919
sg56
(lp4354
g49
(g70
g51
NtRp4355
(dp4356
g54
(dp4357
g74
g75
ssg63
g4351
sg56
(lp4358
S'menu'
p4359
asbag49
(g70
g51
NtRp4360
(dp4361
g54
(dp4362
g81
g82
ssg63
g4351
sg56
(lp4363
S':'
asbag49
(g70
g51
NtRp4364
(dp4365
g54
(dp4366
sg63
g4351
sg56
(lp4367
g49
(g50
g51
NtRp4368
(dp4369
g54
(dp4370
g62
I5
ssg63
g4364
sg56
(lp4371
g49
(g58
g51
NtRp4372
(dp4373
g54
(dp4374
g62
I4
ssg63
Nsg56
(lp4375
sbasbasbasbag49
(g65
g51
NtRp4376
(dp4377
g54
(dp4378
sg63
g3919
sg56
(lp4379
g49
(g70
g51
NtRp4380
(dp4381
g54
(dp4382
g74
g75
ssg63
g4376
sg56
(lp4383
S'meta'
p4384
asbag49
(g70
g51
NtRp4385
(dp4386
g54
(dp4387
g81
g82
ssg63
g4376
sg56
(lp4388
S':'
asbag49
(g70
g51
NtRp4389
(dp4390
g54
(dp4391
sg63
g4376
sg56
(lp4392
g49
(g50
g51
NtRp4393
(dp4394
g54
(dp4395
g62
I5
ssg63
g4389
sg56
(lp4396
g49
(g58
g51
NtRp4397
(dp4398
g54
(dp4399
g62
I4
ssg63
Nsg56
(lp4400
sbasbasbasbag49
(g65
g51
NtRp4401
(dp4402
g54
(dp4403
sg63
g3919
sg56
(lp4404
g49
(g70
g51
NtRp4405
(dp4406
g54
(dp4407
g74
g75
ssg63
g4401
sg56
(lp4408
S'postprocessing'
p4409
asbag49
(g70
g51
NtRp4410
(dp4411
g54
(dp4412
g81
g82
ssg63
g4401
sg56
(lp4413
S':'
asbag49
(g70
g51
NtRp4414
(dp4415
g54
(dp4416
sg63
g4401
sg56
(lp4417
g49
(g50
g51
NtRp4418
(dp4419
g54
(dp4420
g62
I5
ssg63
g4414
sg56
(lp4421
g49
(g58
g51
NtRp4422
(dp4423
g54
(dp4424
g62
I4
ssg63
Nsg56
(lp4425
sbasbasbasbag49
(g65
g51
NtRp4426
(dp4427
g54
(dp4428
sg63
g3919
sg56
(lp4429
g49
(g70
g51
NtRp4430
(dp4431
g54
(dp4432
g74
g75
ssg63
g4426
sg56
(lp4433
S'session_file'
p4434
asbag49
(g70
g51
NtRp4435
(dp4436
g54
(dp4437
g81
g82
ssg63
g4426
sg56
(lp4438
S':'
asbag49
(g70
g51
NtRp4439
(dp4440
g54
(dp4441
sg63
g4426
sg56
(lp4442
g49
(g50
g51
NtRp4443
(dp4444
g54
(dp4445
g62
I5
ssg63
g4439
sg56
(lp4446
S"<open file '/Users/mdipierro/Dropbox/web2py/applications/inplace/sessions/127.0.0.1-b67af904-b8cf-469d-95b3-18285a004db1', mode 'rb+' at 0x1c7c2f0>"
p4447
asbasbasbag49
(g65
g51
NtRp4448
(dp4449
g54
(dp4450
sg63
g3919
sg56
(lp4451
g49
(g70
g51
NtRp4452
(dp4453
g54
(dp4454
g74
g75
ssg63
g4448
sg56
(lp4455
S'session_filename'
p4456
asbag49
(g70
g51
NtRp4457
(dp4458
g54
(dp4459
g81
g82
ssg63
g4448
sg56
(lp4460
S':'
asbag49
(g70
g51
NtRp4461
(dp4462
g54
(dp4463
sg63
g4448
sg56
(lp4464
g49
(g50
g51
NtRp4465
(dp4466
g54
(dp4467
g62
I5
ssg63
g4461
sg56
(lp4468
S'/Users/mdipierro/Dropbox/web2py/applications/inplace/sessions/127.0.0.1-b67af904-b8cf-469d-95b3-18285a004db1'
p4469
asbasbasbag49
(g65
g51
NtRp4470
(dp4471
g54
(dp4472
sg63
g3919
sg56
(lp4473
g49
(g70
g51
NtRp4474
(dp4475
g54
(dp4476
g74
g75
ssg63
g4470
sg56
(lp4477
S'session_id'
p4478
asbag49
(g70
g51
NtRp4479
(dp4480
g54
(dp4481
g81
g82
ssg63
g4470
sg56
(lp4482
S':'
asbag49
(g70
g51
NtRp4483
(dp4484
g54
(dp4485
sg63
g4470
sg56
(lp4486
g49
(g50
g51
NtRp4487
(dp4488
g54
(dp4489
g62
I5
ssg63
g4483
sg56
(lp4490
S'127.0.0.1-b67af904-b8cf-469d-95b3-18285a004db1'
p4491
asbasbasbag49
(g65
g51
NtRp4492
(dp4493
g54
(dp4494
sg63
g3919
sg56
(lp4495
g49
(g70
g51
NtRp4496
(dp4497
g54
(dp4498
g74
g75
ssg63
g4492
sg56
(lp4499
S'session_id_name'
p4500
asbag49
(g70
g51
NtRp4501
(dp4502
g54
(dp4503
g81
g82
ssg63
g4492
sg56
(lp4504
S':'
asbag49
(g70
g51
NtRp4505
(dp4506
g54
(dp4507
sg63
g4492
sg56
(lp4508
g49
(g50
g51
NtRp4509
(dp4510
g54
(dp4511
g62
I5
ssg63
g4505
sg56
(lp4512
g3976
asbasbasbag49
(g65
g51
NtRp4513
(dp4514
g54
(dp4515
sg63
g3919
sg56
(lp4516
g49
(g70
g51
NtRp4517
(dp4518
g54
(dp4519
g74
g75
ssg63
g4513
sg56
(lp4520
S'session_locked'
p4521
asbag49
(g70
g51
NtRp4522
(dp4523
g54
(dp4524
g81
g82
ssg63
g4513
sg56
(lp4525
S':'
asbag49
(g70
g51
NtRp4526
(dp4527
g54
(dp4528
sg63
g4513
sg56
(lp4529
g49
(g50
g51
NtRp4530
(dp4531
g54
(dp4532
g62
I5
ssg63
g4526
sg56
(lp4533
g92
asbasbasbag49
(g65
g51
NtRp4534
(dp4535
g54
(dp4536
sg63
g3919
sg56
(lp4537
g49
(g70
g51
NtRp4538
(dp4539
g54
(dp4540
g74
g75
ssg63
g4534
sg56
(lp4541
S'session_new'
p4542
asbag49
(g70
g51
NtRp4543
(dp4544
g54
(dp4545
g81
g82
ssg63
g4534
sg56
(lp4546
S':'
asbag49
(g70
g51
NtRp4547
(dp4548
g54
(dp4549
sg63
g4534
sg56
(lp4550
g49
(g50
g51
NtRp4551
(dp4552
g54
(dp4553
g62
I5
ssg63
g4547
sg56
(lp4554
g92
asbasbasbag49
(g65
g51
NtRp4555
(dp4556
g54
(dp4557
sg63
g3919
sg56
(lp4558
g49
(g70
g51
NtRp4559
(dp4560
g54
(dp4561
g74
g75
ssg63
g4555
sg56
(lp4562
S'status'
p4563
asbag49
(g70
g51
NtRp4564
(dp4565
g54
(dp4566
g81
g82
ssg63
g4555
sg56
(lp4567
S':'
asbag49
(g70
g51
NtRp4568
(dp4569
g54
(dp4570
sg63
g4555
sg56
(lp4571
g49
(g50
g51
NtRp4572
(dp4573
g54
(dp4574
g62
I5
ssg63
g4568
sg56
(lp4575
S'200'
p4576
asbasbasbag49
(g65
g51
NtRp4577
(dp4578
g54
(dp4579
sg63
g3919
sg56
(lp4580
g49
(g70
g51
NtRp4581
(dp4582
g54
(dp4583
g74
g75
ssg63
g4577
sg56
(lp4584
S'subtitle'
p4585
asbag49
(g70
g51
NtRp4586
(dp4587
g54
(dp4588
g81
g82
ssg63
g4577
sg56
(lp4589
S':'
asbag49
(g70
g51
NtRp4590
(dp4591
g54
(dp4592
sg63
g4577
sg56
(lp4593
g49
(g50
g51
NtRp4594
(dp4595
g54
(dp4596
g62
I5
ssg63
g4590
sg56
(lp4597
S'The revolutionary CMS'
p4598
asbasbasbag49
(g65
g51
NtRp4599
(dp4600
g54
(dp4601
sg63
g3919
sg56
(lp4602
g49
(g70
g51
NtRp4603
(dp4604
g54
(dp4605
g74
g75
ssg63
g4599
sg56
(lp4606
S'title'
p4607
asbag49
(g70
g51
NtRp4608
(dp4609
g54
(dp4610
g81
g82
ssg63
g4599
sg56
(lp4611
S':'
asbag49
(g70
g51
NtRp4612
(dp4613
g54
(dp4614
sg63
g4599
sg56
(lp4615
g49
(g50
g51
NtRp4616
(dp4617
g54
(dp4618
g62
I5
ssg63
g4612
sg56
(lp4619
S'InPlace'
p4620
asbasbasbag49
(g65
g51
NtRp4621
(dp4622
g54
(dp4623
sg63
g3919
sg56
(lp4624
g49
(g70
g51
NtRp4625
(dp4626
g54
(dp4627
g74
g75
ssg63
g4621
sg56
(lp4628
g2781
asbag49
(g70
g51
NtRp4629
(dp4630
g54
(dp4631
g81
g82
ssg63
g4621
sg56
(lp4632
S':'
asbag49
(g70
g51
NtRp4633
(dp4634
g54
(dp4635
sg63
g4621
sg56
(lp4636
g49
(g50
g51
NtRp4637
(dp4638
g54
(dp4639
g62
I5
ssg63
g4633
sg56
(lp4640
g2794
asbasbasbag49
(g65
g51
NtRp4641
(dp4642
g54
(dp4643
sg63
g3919
sg56
(lp4644
g49
(g70
g51
NtRp4645
(dp4646
g54
(dp4647
g74
g75
ssg63
g4641
sg56
(lp4648
S'view'
p4649
asbag49
(g70
g51
NtRp4650
(dp4651
g54
(dp4652
g81
g82
ssg63
g4641
sg56
(lp4653
S':'
asbag49
(g70
g51
NtRp4654
(dp4655
g54
(dp4656
sg63
g4641
sg56
(lp4657
g49
(g50
g51
NtRp4658
(dp4659
g54
(dp4660
g62
I5
ssg63
g4654
sg56
(lp4661
S'default/edit_clone.html'
p4662
asbasbasbasbasbsS'locals'
p4663
(dp4664
S're'
p4665
S"<module 're' from '/System/Library/Frameworks/Python.framework/Versions/2.5/lib/python2.5/re.py'>"
p4666
sS'urllib'
p4667
S"<module 'urllib' from '/System/Library/Framework....framework/Versions/2.5/lib/python2.5/urllib.py'>"
p4668
sssS'traceback'
p4669
S'Traceback (most recent call last):\n  File "/Users/mdipierro/Dropbox/web2py/gluon/restricted.py", line 204, in restricted\n    exec ccode in environment\n  File "/Users/mdipierro/Dropbox/web2py/applications/inplace/controllers/default.py", line 100, in <module>\n  File "/Users/mdipierro/Dropbox/web2py/gluon/globals.py", line 172, in <lambda>\n    self._caller = lambda f: f()\n  File "/Users/mdipierro/Dropbox/web2py/gluon/tools.py", line 2533, in f\n    return action(*a, **b)\n  File "/Users/mdipierro/Dropbox/web2py/applications/inplace/controllers/default.py", line 31, in edit_clone\n    session.new_html = session.html.split(\'<body\')[0]+\'<body>\'+html+\'</body></html>\'\nUnboundLocalError: local variable \'html\' referenced before assignment\n'
p4670
s.