(dp1
S'output'
p2
S"<type 'exceptions.NameError'> name 'reponse' is not defined"
p3
sS'layer'
p4
S'/Users/mdipierro/Dropbox/web2py/applications/plasmid/models/menu.py'
p5
sS'code'
p6
S"response.title = 'Plasmid'\nreponse.subtitle = 'The CMS that replicates pages'\n"
p7
sS'snapshot'
p8
(dp9
S'exception'
p10
(dp11
S'__hash__'
p12
S"<method-wrapper '__hash__' of exceptions.NameError object at 0x151fad0>"
p13
sS'__setattr__'
p14
S"<method-wrapper '__setattr__' of exceptions.NameError object at 0x151fad0>"
p15
sS'__reduce_ex__'
p16
S'<built-in method __reduce_ex__ of exceptions.NameError object at 0x151fad0>'
p17
sS'__getslice__'
p18
S"<method-wrapper '__getslice__' of exceptions.NameError object at 0x151fad0>"
p19
sS'__getitem__'
p20
S"<method-wrapper '__getitem__' of exceptions.NameError object at 0x151fad0>"
p21
sS'__setstate__'
p22
S'<built-in method __setstate__ of exceptions.NameError object at 0x151fad0>'
p23
sS'__reduce__'
p24
S'<built-in method __reduce__ of exceptions.NameError object at 0x151fad0>'
p25
sS'__str__'
p26
S"<method-wrapper '__str__' of exceptions.NameError object at 0x151fad0>"
p27
sS'args'
p28
S'("name \'reponse\' is not defined",)'
p29
sS'__getattribute__'
p30
S"<method-wrapper '__getattribute__' of exceptions.NameError object at 0x151fad0>"
p31
sS'__class__'
p32
S"<type 'exceptions.NameError'>"
p33
sS'__delattr__'
p34
S"<method-wrapper '__delattr__' of exceptions.NameError object at 0x151fad0>"
p35
sS'__repr__'
p36
S"<method-wrapper '__repr__' of exceptions.NameError object at 0x151fad0>"
p37
sS'__dict__'
p38
S'{}'
p39
sS'__doc__'
p40
S"'Name not found globally.'"
p41
sS'__init__'
p42
S"<method-wrapper '__init__' of exceptions.NameError object at 0x151fad0>"
p43
sS'__new__'
p44
S'<built-in method __new__ of type object at 0xdbfc0>'
p45
ssS'evalue'
p46
S"name 'reponse' is not defined"
p47
sS'request'
p48
ccopy_reg
_reconstructor
p49
(cgluon.html
BEAUTIFY
p50
c__builtin__
object
p51
NtRp52
(dp53
S'attributes'
p54
(dp55
sS'components'
p56
(lp57
g49
(cgluon.html
TABLE
p58
g51
NtRp59
(dp60
g54
(dp61
S'level'
p62
I5
ssS'parent'
p63
Nsg56
(lp64
g49
(cgluon.html
TR
p65
g51
NtRp66
(dp67
g54
(dp68
sg63
g59
sg56
(lp69
g49
(cgluon.html
TD
p70
g51
NtRp71
(dp72
g54
(dp73
S'_style'
p74
S'font-weight:bold;vertical-align:top'
p75
ssg63
g66
sg56
(lp76
S'ajax'
p77
asbag49
(g70
g51
NtRp78
(dp79
g54
(dp80
S'_valign'
p81
S'top'
p82
ssg63
g66
sg56
(lp83
S':'
asbag49
(g70
g51
NtRp84
(dp85
g54
(dp86
sg63
g66
sg56
(lp87
g49
(g50
g51
NtRp88
(dp89
g54
(dp90
g62
I5
ssg63
g84
sg56
(lp91
S'False'
p92
asbasbasbag49
(g65
g51
NtRp93
(dp94
g54
(dp95
sg63
g59
sg56
(lp96
g49
(g70
g51
NtRp97
(dp98
g54
(dp99
g74
g75
ssg63
g93
sg56
(lp100
S'application'
p101
asbag49
(g70
g51
NtRp102
(dp103
g54
(dp104
g81
g82
ssg63
g93
sg56
(lp105
S':'
asbag49
(g70
g51
NtRp106
(dp107
g54
(dp108
sg63
g93
sg56
(lp109
g49
(g50
g51
NtRp110
(dp111
g54
(dp112
g62
I5
ssg63
g106
sg56
(lp113
S'plasmid'
p114
asbasbasbag49
(g65
g51
NtRp115
(dp116
g54
(dp117
sg63
g59
sg56
(lp118
g49
(g70
g51
NtRp119
(dp120
g54
(dp121
g74
g75
ssg63
g115
sg56
(lp122
g28
asbag49
(g70
g51
NtRp123
(dp124
g54
(dp125
g81
g82
ssg63
g115
sg56
(lp126
S':'
asbag49
(g70
g51
NtRp127
(dp128
g54
(dp129
sg63
g115
sg56
(lp130
g49
(g50
g51
NtRp131
(dp132
g54
(dp133
g62
I5
ssg63
g127
sg56
(lp134
g49
(g58
g51
NtRp135
(dp136
g54
(dp137
g62
I4
ssg63
Nsg56
(lp138
sbasbasbasbag49
(g65
g51
NtRp139
(dp140
g54
(dp141
sg63
g59
sg56
(lp142
g49
(g70
g51
NtRp143
(dp144
g54
(dp145
g74
g75
ssg63
g139
sg56
(lp146
S'body'
p147
asbag49
(g70
g51
NtRp148
(dp149
g54
(dp150
g81
g82
ssg63
g139
sg56
(lp151
S':'
asbag49
(g70
g51
NtRp152
(dp153
g54
(dp154
sg63
g139
sg56
(lp155
g49
(g50
g51
NtRp156
(dp157
g54
(dp158
g62
I5
ssg63
g152
sg56
(lp159
S'<cStringIO.StringO object at 0x14be9e0>'
p160
asbasbasbag49
(g65
g51
NtRp161
(dp162
g54
(dp163
sg63
g59
sg56
(lp164
g49
(g70
g51
NtRp165
(dp166
g54
(dp167
g74
g75
ssg63
g161
sg56
(lp168
S'client'
p169
asbag49
(g70
g51
NtRp170
(dp171
g54
(dp172
g81
g82
ssg63
g161
sg56
(lp173
S':'
asbag49
(g70
g51
NtRp174
(dp175
g54
(dp176
sg63
g161
sg56
(lp177
g49
(g50
g51
NtRp178
(dp179
g54
(dp180
g62
I5
ssg63
g174
sg56
(lp181
S'127.0.0.1'
p182
asbasbasbag49
(g65
g51
NtRp183
(dp184
g54
(dp185
sg63
g59
sg56
(lp186
g49
(g70
g51
NtRp187
(dp188
g54
(dp189
g74
g75
ssg63
g183
sg56
(lp190
S'controller'
p191
asbag49
(g70
g51
NtRp192
(dp193
g54
(dp194
g81
g82
ssg63
g183
sg56
(lp195
S':'
asbag49
(g70
g51
NtRp196
(dp197
g54
(dp198
sg63
g183
sg56
(lp199
g49
(g50
g51
NtRp200
(dp201
g54
(dp202
g62
I5
ssg63
g196
sg56
(lp203
S'default'
p204
asbasbasbag49
(g65
g51
NtRp205
(dp206
g54
(dp207
sg63
g59
sg56
(lp208
g49
(g70
g51
NtRp209
(dp210
g54
(dp211
g74
g75
ssg63
g205
sg56
(lp212
S'cookies'
p213
asbag49
(g70
g51
NtRp214
(dp215
g54
(dp216
g81
g82
ssg63
g205
sg56
(lp217
S':'
asbag49
(g70
g51
NtRp218
(dp219
g54
(dp220
sg63
g205
sg56
(lp221
g49
(g50
g51
NtRp222
(dp223
g54
(dp224
g62
I5
ssg63
g218
sg56
(lp225
g49
(g58
g51
NtRp226
(dp227
g54
(dp228
g62
I4
ssg63
Nsg56
(lp229
g49
(g65
g51
NtRp230
(dp231
g54
(dp232
sg63
g226
sg56
(lp233
g49
(g70
g51
NtRp234
(dp235
g54
(dp236
g74
g75
ssg63
g230
sg56
(lp237
S'el-finder-last-finder'
p238
asbag49
(g70
g51
NtRp239
(dp240
g54
(dp241
g81
g82
ssg63
g230
sg56
(lp242
S':'
asbag49
(g70
g51
NtRp243
(dp244
g54
(dp245
sg63
g230
sg56
(lp246
g49
(g50
g51
NtRp247
(dp248
g54
(dp249
g62
I4
ssg63
g243
sg56
(lp250
g49
(g58
g51
NtRp251
(dp252
g54
(dp253
g62
I3
ssg63
Nsg56
(lp254
g49
(g65
g51
NtRp255
(dp256
g54
(dp257
sg63
g251
sg56
(lp258
g49
(g70
g51
NtRp259
(dp260
g54
(dp261
g74
g75
ssg63
g255
sg56
(lp262
S'comment'
p263
asbag49
(g70
g51
NtRp264
(dp265
g54
(dp266
g81
g82
ssg63
g255
sg56
(lp267
S':'
asbag49
(g70
g51
NtRp268
(dp269
g54
(dp270
sg63
g255
sg56
(lp271
g49
(g50
g51
NtRp272
(dp273
g54
(dp274
g62
I3
ssg63
g268
sg56
(lp275
S''
asbasbasbag49
(g65
g51
NtRp276
(dp277
g54
(dp278
sg63
g251
sg56
(lp279
g49
(g70
g51
NtRp280
(dp281
g54
(dp282
g74
g75
ssg63
g276
sg56
(lp283
S'domain'
p284
asbag49
(g70
g51
NtRp285
(dp286
g54
(dp287
g81
g82
ssg63
g276
sg56
(lp288
S':'
asbag49
(g70
g51
NtRp289
(dp290
g54
(dp291
sg63
g276
sg56
(lp292
g49
(g50
g51
NtRp293
(dp294
g54
(dp295
g62
I3
ssg63
g289
sg56
(lp296
S''
asbasbasbag49
(g65
g51
NtRp297
(dp298
g54
(dp299
sg63
g251
sg56
(lp300
g49
(g70
g51
NtRp301
(dp302
g54
(dp303
g74
g75
ssg63
g297
sg56
(lp304
S'expires'
p305
asbag49
(g70
g51
NtRp306
(dp307
g54
(dp308
g81
g82
ssg63
g297
sg56
(lp309
S':'
asbag49
(g70
g51
NtRp310
(dp311
g54
(dp312
sg63
g297
sg56
(lp313
g49
(g50
g51
NtRp314
(dp315
g54
(dp316
g62
I3
ssg63
g310
sg56
(lp317
S''
asbasbasbag49
(g65
g51
NtRp318
(dp319
g54
(dp320
sg63
g251
sg56
(lp321
g49
(g70
g51
NtRp322
(dp323
g54
(dp324
g74
g75
ssg63
g318
sg56
(lp325
S'max-age'
p326
asbag49
(g70
g51
NtRp327
(dp328
g54
(dp329
g81
g82
ssg63
g318
sg56
(lp330
S':'
asbag49
(g70
g51
NtRp331
(dp332
g54
(dp333
sg63
g318
sg56
(lp334
g49
(g50
g51
NtRp335
(dp336
g54
(dp337
g62
I3
ssg63
g331
sg56
(lp338
S''
asbasbasbag49
(g65
g51
NtRp339
(dp340
g54
(dp341
sg63
g251
sg56
(lp342
g49
(g70
g51
NtRp343
(dp344
g54
(dp345
g74
g75
ssg63
g339
sg56
(lp346
S'path'
p347
asbag49
(g70
g51
NtRp348
(dp349
g54
(dp350
g81
g82
ssg63
g339
sg56
(lp351
S':'
asbag49
(g70
g51
NtRp352
(dp353
g54
(dp354
sg63
g339
sg56
(lp355
g49
(g50
g51
NtRp356
(dp357
g54
(dp358
g62
I3
ssg63
g352
sg56
(lp359
S''
asbasbasbag49
(g65
g51
NtRp360
(dp361
g54
(dp362
sg63
g251
sg56
(lp363
g49
(g70
g51
NtRp364
(dp365
g54
(dp366
g74
g75
ssg63
g360
sg56
(lp367
S'secure'
p368
asbag49
(g70
g51
NtRp369
(dp370
g54
(dp371
g81
g82
ssg63
g360
sg56
(lp372
S':'
asbag49
(g70
g51
NtRp373
(dp374
g54
(dp375
sg63
g360
sg56
(lp376
g49
(g50
g51
NtRp377
(dp378
g54
(dp379
g62
I3
ssg63
g373
sg56
(lp380
S''
asbasbasbag49
(g65
g51
NtRp381
(dp382
g54
(dp383
sg63
g251
sg56
(lp384
g49
(g70
g51
NtRp385
(dp386
g54
(dp387
g74
g75
ssg63
g381
sg56
(lp388
S'version'
p389
asbag49
(g70
g51
NtRp390
(dp391
g54
(dp392
g81
g82
ssg63
g381
sg56
(lp393
S':'
asbag49
(g70
g51
NtRp394
(dp395
g54
(dp396
sg63
g381
sg56
(lp397
g49
(g50
g51
NtRp398
(dp399
g54
(dp400
g62
I3
ssg63
g394
sg56
(lp401
S''
asbasbasbasbasbasbasbag49
(g65
g51
NtRp402
(dp403
g54
(dp404
sg63
g226
sg56
(lp405
g49
(g70
g51
NtRp406
(dp407
g54
(dp408
g74
g75
ssg63
g402
sg56
(lp409
S'registered'
p410
asbag49
(g70
g51
NtRp411
(dp412
g54
(dp413
g81
g82
ssg63
g402
sg56
(lp414
S':'
asbag49
(g70
g51
NtRp415
(dp416
g54
(dp417
sg63
g402
sg56
(lp418
g49
(g50
g51
NtRp419
(dp420
g54
(dp421
g62
I4
ssg63
g415
sg56
(lp422
g49
(g58
g51
NtRp423
(dp424
g54
(dp425
g62
I3
ssg63
Nsg56
(lp426
g49
(g65
g51
NtRp427
(dp428
g54
(dp429
sg63
g423
sg56
(lp430
g49
(g70
g51
NtRp431
(dp432
g54
(dp433
g74
g75
ssg63
g427
sg56
(lp434
g263
asbag49
(g70
g51
NtRp435
(dp436
g54
(dp437
g81
g82
ssg63
g427
sg56
(lp438
S':'
asbag49
(g70
g51
NtRp439
(dp440
g54
(dp441
sg63
g427
sg56
(lp442
g49
(g50
g51
NtRp443
(dp444
g54
(dp445
g62
I3
ssg63
g439
sg56
(lp446
S''
asbasbasbag49
(g65
g51
NtRp447
(dp448
g54
(dp449
sg63
g423
sg56
(lp450
g49
(g70
g51
NtRp451
(dp452
g54
(dp453
g74
g75
ssg63
g447
sg56
(lp454
g284
asbag49
(g70
g51
NtRp455
(dp456
g54
(dp457
g81
g82
ssg63
g447
sg56
(lp458
S':'
asbag49
(g70
g51
NtRp459
(dp460
g54
(dp461
sg63
g447
sg56
(lp462
g49
(g50
g51
NtRp463
(dp464
g54
(dp465
g62
I3
ssg63
g459
sg56
(lp466
S''
asbasbasbag49
(g65
g51
NtRp467
(dp468
g54
(dp469
sg63
g423
sg56
(lp470
g49
(g70
g51
NtRp471
(dp472
g54
(dp473
g74
g75
ssg63
g467
sg56
(lp474
g305
asbag49
(g70
g51
NtRp475
(dp476
g54
(dp477
g81
g82
ssg63
g467
sg56
(lp478
S':'
asbag49
(g70
g51
NtRp479
(dp480
g54
(dp481
sg63
g467
sg56
(lp482
g49
(g50
g51
NtRp483
(dp484
g54
(dp485
g62
I3
ssg63
g479
sg56
(lp486
S''
asbasbasbag49
(g65
g51
NtRp487
(dp488
g54
(dp489
sg63
g423
sg56
(lp490
g49
(g70
g51
NtRp491
(dp492
g54
(dp493
g74
g75
ssg63
g487
sg56
(lp494
g326
asbag49
(g70
g51
NtRp495
(dp496
g54
(dp497
g81
g82
ssg63
g487
sg56
(lp498
S':'
asbag49
(g70
g51
NtRp499
(dp500
g54
(dp501
sg63
g487
sg56
(lp502
g49
(g50
g51
NtRp503
(dp504
g54
(dp505
g62
I3
ssg63
g499
sg56
(lp506
S''
asbasbasbag49
(g65
g51
NtRp507
(dp508
g54
(dp509
sg63
g423
sg56
(lp510
g49
(g70
g51
NtRp511
(dp512
g54
(dp513
g74
g75
ssg63
g507
sg56
(lp514
g347
asbag49
(g70
g51
NtRp515
(dp516
g54
(dp517
g81
g82
ssg63
g507
sg56
(lp518
S':'
asbag49
(g70
g51
NtRp519
(dp520
g54
(dp521
sg63
g507
sg56
(lp522
g49
(g50
g51
NtRp523
(dp524
g54
(dp525
g62
I3
ssg63
g519
sg56
(lp526
S''
asbasbasbag49
(g65
g51
NtRp527
(dp528
g54
(dp529
sg63
g423
sg56
(lp530
g49
(g70
g51
NtRp531
(dp532
g54
(dp533
g74
g75
ssg63
g527
sg56
(lp534
g368
asbag49
(g70
g51
NtRp535
(dp536
g54
(dp537
g81
g82
ssg63
g527
sg56
(lp538
S':'
asbag49
(g70
g51
NtRp539
(dp540
g54
(dp541
sg63
g527
sg56
(lp542
g49
(g50
g51
NtRp543
(dp544
g54
(dp545
g62
I3
ssg63
g539
sg56
(lp546
S''
asbasbasbag49
(g65
g51
NtRp547
(dp548
g54
(dp549
sg63
g423
sg56
(lp550
g49
(g70
g51
NtRp551
(dp552
g54
(dp553
g74
g75
ssg63
g547
sg56
(lp554
g389
asbag49
(g70
g51
NtRp555
(dp556
g54
(dp557
g81
g82
ssg63
g547
sg56
(lp558
S':'
asbag49
(g70
g51
NtRp559
(dp560
g54
(dp561
sg63
g547
sg56
(lp562
g49
(g50
g51
NtRp563
(dp564
g54
(dp565
g62
I3
ssg63
g559
sg56
(lp566
S''
asbasbasbasbasbasbasbag49
(g65
g51
NtRp567
(dp568
g54
(dp569
sg63
g226
sg56
(lp570
g49
(g70
g51
NtRp571
(dp572
g54
(dp573
g74
g75
ssg63
g567
sg56
(lp574
S's_cc'
p575
asbag49
(g70
g51
NtRp576
(dp577
g54
(dp578
g81
g82
ssg63
g567
sg56
(lp579
S':'
asbag49
(g70
g51
NtRp580
(dp581
g54
(dp582
sg63
g567
sg56
(lp583
g49
(g50
g51
NtRp584
(dp585
g54
(dp586
g62
I4
ssg63
g580
sg56
(lp587
g49
(g58
g51
NtRp588
(dp589
g54
(dp590
g62
I3
ssg63
Nsg56
(lp591
g49
(g65
g51
NtRp592
(dp593
g54
(dp594
sg63
g588
sg56
(lp595
g49
(g70
g51
NtRp596
(dp597
g54
(dp598
g74
g75
ssg63
g592
sg56
(lp599
g263
asbag49
(g70
g51
NtRp600
(dp601
g54
(dp602
g81
g82
ssg63
g592
sg56
(lp603
S':'
asbag49
(g70
g51
NtRp604
(dp605
g54
(dp606
sg63
g592
sg56
(lp607
g49
(g50
g51
NtRp608
(dp609
g54
(dp610
g62
I3
ssg63
g604
sg56
(lp611
S''
asbasbasbag49
(g65
g51
NtRp612
(dp613
g54
(dp614
sg63
g588
sg56
(lp615
g49
(g70
g51
NtRp616
(dp617
g54
(dp618
g74
g75
ssg63
g612
sg56
(lp619
g284
asbag49
(g70
g51
NtRp620
(dp621
g54
(dp622
g81
g82
ssg63
g612
sg56
(lp623
S':'
asbag49
(g70
g51
NtRp624
(dp625
g54
(dp626
sg63
g612
sg56
(lp627
g49
(g50
g51
NtRp628
(dp629
g54
(dp630
g62
I3
ssg63
g624
sg56
(lp631
S''
asbasbasbag49
(g65
g51
NtRp632
(dp633
g54
(dp634
sg63
g588
sg56
(lp635
g49
(g70
g51
NtRp636
(dp637
g54
(dp638
g74
g75
ssg63
g632
sg56
(lp639
g305
asbag49
(g70
g51
NtRp640
(dp641
g54
(dp642
g81
g82
ssg63
g632
sg56
(lp643
S':'
asbag49
(g70
g51
NtRp644
(dp645
g54
(dp646
sg63
g632
sg56
(lp647
g49
(g50
g51
NtRp648
(dp649
g54
(dp650
g62
I3
ssg63
g644
sg56
(lp651
S''
asbasbasbag49
(g65
g51
NtRp652
(dp653
g54
(dp654
sg63
g588
sg56
(lp655
g49
(g70
g51
NtRp656
(dp657
g54
(dp658
g74
g75
ssg63
g652
sg56
(lp659
g326
asbag49
(g70
g51
NtRp660
(dp661
g54
(dp662
g81
g82
ssg63
g652
sg56
(lp663
S':'
asbag49
(g70
g51
NtRp664
(dp665
g54
(dp666
sg63
g652
sg56
(lp667
g49
(g50
g51
NtRp668
(dp669
g54
(dp670
g62
I3
ssg63
g664
sg56
(lp671
S''
asbasbasbag49
(g65
g51
NtRp672
(dp673
g54
(dp674
sg63
g588
sg56
(lp675
g49
(g70
g51
NtRp676
(dp677
g54
(dp678
g74
g75
ssg63
g672
sg56
(lp679
g347
asbag49
(g70
g51
NtRp680
(dp681
g54
(dp682
g81
g82
ssg63
g672
sg56
(lp683
S':'
asbag49
(g70
g51
NtRp684
(dp685
g54
(dp686
sg63
g672
sg56
(lp687
g49
(g50
g51
NtRp688
(dp689
g54
(dp690
g62
I3
ssg63
g684
sg56
(lp691
S''
asbasbasbag49
(g65
g51
NtRp692
(dp693
g54
(dp694
sg63
g588
sg56
(lp695
g49
(g70
g51
NtRp696
(dp697
g54
(dp698
g74
g75
ssg63
g692
sg56
(lp699
g368
asbag49
(g70
g51
NtRp700
(dp701
g54
(dp702
g81
g82
ssg63
g692
sg56
(lp703
S':'
asbag49
(g70
g51
NtRp704
(dp705
g54
(dp706
sg63
g692
sg56
(lp707
g49
(g50
g51
NtRp708
(dp709
g54
(dp710
g62
I3
ssg63
g704
sg56
(lp711
S''
asbasbasbag49
(g65
g51
NtRp712
(dp713
g54
(dp714
sg63
g588
sg56
(lp715
g49
(g70
g51
NtRp716
(dp717
g54
(dp718
g74
g75
ssg63
g712
sg56
(lp719
g389
asbag49
(g70
g51
NtRp720
(dp721
g54
(dp722
g81
g82
ssg63
g712
sg56
(lp723
S':'
asbag49
(g70
g51
NtRp724
(dp725
g54
(dp726
sg63
g712
sg56
(lp727
g49
(g50
g51
NtRp728
(dp729
g54
(dp730
g62
I3
ssg63
g724
sg56
(lp731
S''
asbasbasbasbasbasbasbag49
(g65
g51
NtRp732
(dp733
g54
(dp734
sg63
g226
sg56
(lp735
g49
(g70
g51
NtRp736
(dp737
g54
(dp738
g74
g75
ssg63
g732
sg56
(lp739
S's_nr'
p740
asbag49
(g70
g51
NtRp741
(dp742
g54
(dp743
g81
g82
ssg63
g732
sg56
(lp744
S':'
asbag49
(g70
g51
NtRp745
(dp746
g54
(dp747
sg63
g732
sg56
(lp748
g49
(g50
g51
NtRp749
(dp750
g54
(dp751
g62
I4
ssg63
g745
sg56
(lp752
g49
(g58
g51
NtRp753
(dp754
g54
(dp755
g62
I3
ssg63
Nsg56
(lp756
g49
(g65
g51
NtRp757
(dp758
g54
(dp759
sg63
g753
sg56
(lp760
g49
(g70
g51
NtRp761
(dp762
g54
(dp763
g74
g75
ssg63
g757
sg56
(lp764
g263
asbag49
(g70
g51
NtRp765
(dp766
g54
(dp767
g81
g82
ssg63
g757
sg56
(lp768
S':'
asbag49
(g70
g51
NtRp769
(dp770
g54
(dp771
sg63
g757
sg56
(lp772
g49
(g50
g51
NtRp773
(dp774
g54
(dp775
g62
I3
ssg63
g769
sg56
(lp776
S''
asbasbasbag49
(g65
g51
NtRp777
(dp778
g54
(dp779
sg63
g753
sg56
(lp780
g49
(g70
g51
NtRp781
(dp782
g54
(dp783
g74
g75
ssg63
g777
sg56
(lp784
g284
asbag49
(g70
g51
NtRp785
(dp786
g54
(dp787
g81
g82
ssg63
g777
sg56
(lp788
S':'
asbag49
(g70
g51
NtRp789
(dp790
g54
(dp791
sg63
g777
sg56
(lp792
g49
(g50
g51
NtRp793
(dp794
g54
(dp795
g62
I3
ssg63
g789
sg56
(lp796
S''
asbasbasbag49
(g65
g51
NtRp797
(dp798
g54
(dp799
sg63
g753
sg56
(lp800
g49
(g70
g51
NtRp801
(dp802
g54
(dp803
g74
g75
ssg63
g797
sg56
(lp804
g305
asbag49
(g70
g51
NtRp805
(dp806
g54
(dp807
g81
g82
ssg63
g797
sg56
(lp808
S':'
asbag49
(g70
g51
NtRp809
(dp810
g54
(dp811
sg63
g797
sg56
(lp812
g49
(g50
g51
NtRp813
(dp814
g54
(dp815
g62
I3
ssg63
g809
sg56
(lp816
S''
asbasbasbag49
(g65
g51
NtRp817
(dp818
g54
(dp819
sg63
g753
sg56
(lp820
g49
(g70
g51
NtRp821
(dp822
g54
(dp823
g74
g75
ssg63
g817
sg56
(lp824
g326
asbag49
(g70
g51
NtRp825
(dp826
g54
(dp827
g81
g82
ssg63
g817
sg56
(lp828
S':'
asbag49
(g70
g51
NtRp829
(dp830
g54
(dp831
sg63
g817
sg56
(lp832
g49
(g50
g51
NtRp833
(dp834
g54
(dp835
g62
I3
ssg63
g829
sg56
(lp836
S''
asbasbasbag49
(g65
g51
NtRp837
(dp838
g54
(dp839
sg63
g753
sg56
(lp840
g49
(g70
g51
NtRp841
(dp842
g54
(dp843
g74
g75
ssg63
g837
sg56
(lp844
g347
asbag49
(g70
g51
NtRp845
(dp846
g54
(dp847
g81
g82
ssg63
g837
sg56
(lp848
S':'
asbag49
(g70
g51
NtRp849
(dp850
g54
(dp851
sg63
g837
sg56
(lp852
g49
(g50
g51
NtRp853
(dp854
g54
(dp855
g62
I3
ssg63
g849
sg56
(lp856
S''
asbasbasbag49
(g65
g51
NtRp857
(dp858
g54
(dp859
sg63
g753
sg56
(lp860
g49
(g70
g51
NtRp861
(dp862
g54
(dp863
g74
g75
ssg63
g857
sg56
(lp864
g368
asbag49
(g70
g51
NtRp865
(dp866
g54
(dp867
g81
g82
ssg63
g857
sg56
(lp868
S':'
asbag49
(g70
g51
NtRp869
(dp870
g54
(dp871
sg63
g857
sg56
(lp872
g49
(g50
g51
NtRp873
(dp874
g54
(dp875
g62
I3
ssg63
g869
sg56
(lp876
S''
asbasbasbag49
(g65
g51
NtRp877
(dp878
g54
(dp879
sg63
g753
sg56
(lp880
g49
(g70
g51
NtRp881
(dp882
g54
(dp883
g74
g75
ssg63
g877
sg56
(lp884
g389
asbag49
(g70
g51
NtRp885
(dp886
g54
(dp887
g81
g82
ssg63
g877
sg56
(lp888
S':'
asbag49
(g70
g51
NtRp889
(dp890
g54
(dp891
sg63
g877
sg56
(lp892
g49
(g50
g51
NtRp893
(dp894
g54
(dp895
g62
I3
ssg63
g889
sg56
(lp896
S''
asbasbasbasbasbasbasbag49
(g65
g51
NtRp897
(dp898
g54
(dp899
sg63
g226
sg56
(lp900
g49
(g70
g51
NtRp901
(dp902
g54
(dp903
g74
g75
ssg63
g897
sg56
(lp904
S's_sq'
p905
asbag49
(g70
g51
NtRp906
(dp907
g54
(dp908
g81
g82
ssg63
g897
sg56
(lp909
S':'
asbag49
(g70
g51
NtRp910
(dp911
g54
(dp912
sg63
g897
sg56
(lp913
g49
(g50
g51
NtRp914
(dp915
g54
(dp916
g62
I4
ssg63
g910
sg56
(lp917
g49
(g58
g51
NtRp918
(dp919
g54
(dp920
g62
I3
ssg63
Nsg56
(lp921
g49
(g65
g51
NtRp922
(dp923
g54
(dp924
sg63
g918
sg56
(lp925
g49
(g70
g51
NtRp926
(dp927
g54
(dp928
g74
g75
ssg63
g922
sg56
(lp929
g263
asbag49
(g70
g51
NtRp930
(dp931
g54
(dp932
g81
g82
ssg63
g922
sg56
(lp933
S':'
asbag49
(g70
g51
NtRp934
(dp935
g54
(dp936
sg63
g922
sg56
(lp937
g49
(g50
g51
NtRp938
(dp939
g54
(dp940
g62
I3
ssg63
g934
sg56
(lp941
S''
asbasbasbag49
(g65
g51
NtRp942
(dp943
g54
(dp944
sg63
g918
sg56
(lp945
g49
(g70
g51
NtRp946
(dp947
g54
(dp948
g74
g75
ssg63
g942
sg56
(lp949
g284
asbag49
(g70
g51
NtRp950
(dp951
g54
(dp952
g81
g82
ssg63
g942
sg56
(lp953
S':'
asbag49
(g70
g51
NtRp954
(dp955
g54
(dp956
sg63
g942
sg56
(lp957
g49
(g50
g51
NtRp958
(dp959
g54
(dp960
g62
I3
ssg63
g954
sg56
(lp961
S''
asbasbasbag49
(g65
g51
NtRp962
(dp963
g54
(dp964
sg63
g918
sg56
(lp965
g49
(g70
g51
NtRp966
(dp967
g54
(dp968
g74
g75
ssg63
g962
sg56
(lp969
g305
asbag49
(g70
g51
NtRp970
(dp971
g54
(dp972
g81
g82
ssg63
g962
sg56
(lp973
S':'
asbag49
(g70
g51
NtRp974
(dp975
g54
(dp976
sg63
g962
sg56
(lp977
g49
(g50
g51
NtRp978
(dp979
g54
(dp980
g62
I3
ssg63
g974
sg56
(lp981
S''
asbasbasbag49
(g65
g51
NtRp982
(dp983
g54
(dp984
sg63
g918
sg56
(lp985
g49
(g70
g51
NtRp986
(dp987
g54
(dp988
g74
g75
ssg63
g982
sg56
(lp989
g326
asbag49
(g70
g51
NtRp990
(dp991
g54
(dp992
g81
g82
ssg63
g982
sg56
(lp993
S':'
asbag49
(g70
g51
NtRp994
(dp995
g54
(dp996
sg63
g982
sg56
(lp997
g49
(g50
g51
NtRp998
(dp999
g54
(dp1000
g62
I3
ssg63
g994
sg56
(lp1001
S''
asbasbasbag49
(g65
g51
NtRp1002
(dp1003
g54
(dp1004
sg63
g918
sg56
(lp1005
g49
(g70
g51
NtRp1006
(dp1007
g54
(dp1008
g74
g75
ssg63
g1002
sg56
(lp1009
g347
asbag49
(g70
g51
NtRp1010
(dp1011
g54
(dp1012
g81
g82
ssg63
g1002
sg56
(lp1013
S':'
asbag49
(g70
g51
NtRp1014
(dp1015
g54
(dp1016
sg63
g1002
sg56
(lp1017
g49
(g50
g51
NtRp1018
(dp1019
g54
(dp1020
g62
I3
ssg63
g1014
sg56
(lp1021
S''
asbasbasbag49
(g65
g51
NtRp1022
(dp1023
g54
(dp1024
sg63
g918
sg56
(lp1025
g49
(g70
g51
NtRp1026
(dp1027
g54
(dp1028
g74
g75
ssg63
g1022
sg56
(lp1029
g368
asbag49
(g70
g51
NtRp1030
(dp1031
g54
(dp1032
g81
g82
ssg63
g1022
sg56
(lp1033
S':'
asbag49
(g70
g51
NtRp1034
(dp1035
g54
(dp1036
sg63
g1022
sg56
(lp1037
g49
(g50
g51
NtRp1038
(dp1039
g54
(dp1040
g62
I3
ssg63
g1034
sg56
(lp1041
S''
asbasbasbag49
(g65
g51
NtRp1042
(dp1043
g54
(dp1044
sg63
g918
sg56
(lp1045
g49
(g70
g51
NtRp1046
(dp1047
g54
(dp1048
g74
g75
ssg63
g1042
sg56
(lp1049
g389
asbag49
(g70
g51
NtRp1050
(dp1051
g54
(dp1052
g81
g82
ssg63
g1042
sg56
(lp1053
S':'
asbag49
(g70
g51
NtRp1054
(dp1055
g54
(dp1056
sg63
g1042
sg56
(lp1057
g49
(g50
g51
NtRp1058
(dp1059
g54
(dp1060
g62
I3
ssg63
g1054
sg56
(lp1061
S''
asbasbasbasbasbasbasbag49
(g65
g51
NtRp1062
(dp1063
g54
(dp1064
sg63
g226
sg56
(lp1065
g49
(g70
g51
NtRp1066
(dp1067
g54
(dp1068
g74
g75
ssg63
g1062
sg56
(lp1069
S'session_id_admin'
p1070
asbag49
(g70
g51
NtRp1071
(dp1072
g54
(dp1073
g81
g82
ssg63
g1062
sg56
(lp1074
S':'
asbag49
(g70
g51
NtRp1075
(dp1076
g54
(dp1077
sg63
g1062
sg56
(lp1078
g49
(g50
g51
NtRp1079
(dp1080
g54
(dp1081
g62
I4
ssg63
g1075
sg56
(lp1082
g49
(g58
g51
NtRp1083
(dp1084
g54
(dp1085
g62
I3
ssg63
Nsg56
(lp1086
g49
(g65
g51
NtRp1087
(dp1088
g54
(dp1089
sg63
g1083
sg56
(lp1090
g49
(g70
g51
NtRp1091
(dp1092
g54
(dp1093
g74
g75
ssg63
g1087
sg56
(lp1094
g263
asbag49
(g70
g51
NtRp1095
(dp1096
g54
(dp1097
g81
g82
ssg63
g1087
sg56
(lp1098
S':'
asbag49
(g70
g51
NtRp1099
(dp1100
g54
(dp1101
sg63
g1087
sg56
(lp1102
g49
(g50
g51
NtRp1103
(dp1104
g54
(dp1105
g62
I3
ssg63
g1099
sg56
(lp1106
S''
asbasbasbag49
(g65
g51
NtRp1107
(dp1108
g54
(dp1109
sg63
g1083
sg56
(lp1110
g49
(g70
g51
NtRp1111
(dp1112
g54
(dp1113
g74
g75
ssg63
g1107
sg56
(lp1114
g284
asbag49
(g70
g51
NtRp1115
(dp1116
g54
(dp1117
g81
g82
ssg63
g1107
sg56
(lp1118
S':'
asbag49
(g70
g51
NtRp1119
(dp1120
g54
(dp1121
sg63
g1107
sg56
(lp1122
g49
(g50
g51
NtRp1123
(dp1124
g54
(dp1125
g62
I3
ssg63
g1119
sg56
(lp1126
S''
asbasbasbag49
(g65
g51
NtRp1127
(dp1128
g54
(dp1129
sg63
g1083
sg56
(lp1130
g49
(g70
g51
NtRp1131
(dp1132
g54
(dp1133
g74
g75
ssg63
g1127
sg56
(lp1134
g305
asbag49
(g70
g51
NtRp1135
(dp1136
g54
(dp1137
g81
g82
ssg63
g1127
sg56
(lp1138
S':'
asbag49
(g70
g51
NtRp1139
(dp1140
g54
(dp1141
sg63
g1127
sg56
(lp1142
g49
(g50
g51
NtRp1143
(dp1144
g54
(dp1145
g62
I3
ssg63
g1139
sg56
(lp1146
S''
asbasbasbag49
(g65
g51
NtRp1147
(dp1148
g54
(dp1149
sg63
g1083
sg56
(lp1150
g49
(g70
g51
NtRp1151
(dp1152
g54
(dp1153
g74
g75
ssg63
g1147
sg56
(lp1154
g326
asbag49
(g70
g51
NtRp1155
(dp1156
g54
(dp1157
g81
g82
ssg63
g1147
sg56
(lp1158
S':'
asbag49
(g70
g51
NtRp1159
(dp1160
g54
(dp1161
sg63
g1147
sg56
(lp1162
g49
(g50
g51
NtRp1163
(dp1164
g54
(dp1165
g62
I3
ssg63
g1159
sg56
(lp1166
S''
asbasbasbag49
(g65
g51
NtRp1167
(dp1168
g54
(dp1169
sg63
g1083
sg56
(lp1170
g49
(g70
g51
NtRp1171
(dp1172
g54
(dp1173
g74
g75
ssg63
g1167
sg56
(lp1174
g347
asbag49
(g70
g51
NtRp1175
(dp1176
g54
(dp1177
g81
g82
ssg63
g1167
sg56
(lp1178
S':'
asbag49
(g70
g51
NtRp1179
(dp1180
g54
(dp1181
sg63
g1167
sg56
(lp1182
g49
(g50
g51
NtRp1183
(dp1184
g54
(dp1185
g62
I3
ssg63
g1179
sg56
(lp1186
S''
asbasbasbag49
(g65
g51
NtRp1187
(dp1188
g54
(dp1189
sg63
g1083
sg56
(lp1190
g49
(g70
g51
NtRp1191
(dp1192
g54
(dp1193
g74
g75
ssg63
g1187
sg56
(lp1194
g368
asbag49
(g70
g51
NtRp1195
(dp1196
g54
(dp1197
g81
g82
ssg63
g1187
sg56
(lp1198
S':'
asbag49
(g70
g51
NtRp1199
(dp1200
g54
(dp1201
sg63
g1187
sg56
(lp1202
g49
(g50
g51
NtRp1203
(dp1204
g54
(dp1205
g62
I3
ssg63
g1199
sg56
(lp1206
S''
asbasbasbag49
(g65
g51
NtRp1207
(dp1208
g54
(dp1209
sg63
g1083
sg56
(lp1210
g49
(g70
g51
NtRp1211
(dp1212
g54
(dp1213
g74
g75
ssg63
g1207
sg56
(lp1214
g389
asbag49
(g70
g51
NtRp1215
(dp1216
g54
(dp1217
g81
g82
ssg63
g1207
sg56
(lp1218
S':'
asbag49
(g70
g51
NtRp1219
(dp1220
g54
(dp1221
sg63
g1207
sg56
(lp1222
g49
(g50
g51
NtRp1223
(dp1224
g54
(dp1225
g62
I3
ssg63
g1219
sg56
(lp1226
S''
asbasbasbasbasbasbasbag49
(g65
g51
NtRp1227
(dp1228
g54
(dp1229
sg63
g226
sg56
(lp1230
g49
(g70
g51
NtRp1231
(dp1232
g54
(dp1233
g74
g75
ssg63
g1227
sg56
(lp1234
S'session_id_cms'
p1235
asbag49
(g70
g51
NtRp1236
(dp1237
g54
(dp1238
g81
g82
ssg63
g1227
sg56
(lp1239
S':'
asbag49
(g70
g51
NtRp1240
(dp1241
g54
(dp1242
sg63
g1227
sg56
(lp1243
g49
(g50
g51
NtRp1244
(dp1245
g54
(dp1246
g62
I4
ssg63
g1240
sg56
(lp1247
g49
(g58
g51
NtRp1248
(dp1249
g54
(dp1250
g62
I3
ssg63
Nsg56
(lp1251
g49
(g65
g51
NtRp1252
(dp1253
g54
(dp1254
sg63
g1248
sg56
(lp1255
g49
(g70
g51
NtRp1256
(dp1257
g54
(dp1258
g74
g75
ssg63
g1252
sg56
(lp1259
g263
asbag49
(g70
g51
NtRp1260
(dp1261
g54
(dp1262
g81
g82
ssg63
g1252
sg56
(lp1263
S':'
asbag49
(g70
g51
NtRp1264
(dp1265
g54
(dp1266
sg63
g1252
sg56
(lp1267
g49
(g50
g51
NtRp1268
(dp1269
g54
(dp1270
g62
I3
ssg63
g1264
sg56
(lp1271
S''
asbasbasbag49
(g65
g51
NtRp1272
(dp1273
g54
(dp1274
sg63
g1248
sg56
(lp1275
g49
(g70
g51
NtRp1276
(dp1277
g54
(dp1278
g74
g75
ssg63
g1272
sg56
(lp1279
g284
asbag49
(g70
g51
NtRp1280
(dp1281
g54
(dp1282
g81
g82
ssg63
g1272
sg56
(lp1283
S':'
asbag49
(g70
g51
NtRp1284
(dp1285
g54
(dp1286
sg63
g1272
sg56
(lp1287
g49
(g50
g51
NtRp1288
(dp1289
g54
(dp1290
g62
I3
ssg63
g1284
sg56
(lp1291
S''
asbasbasbag49
(g65
g51
NtRp1292
(dp1293
g54
(dp1294
sg63
g1248
sg56
(lp1295
g49
(g70
g51
NtRp1296
(dp1297
g54
(dp1298
g74
g75
ssg63
g1292
sg56
(lp1299
g305
asbag49
(g70
g51
NtRp1300
(dp1301
g54
(dp1302
g81
g82
ssg63
g1292
sg56
(lp1303
S':'
asbag49
(g70
g51
NtRp1304
(dp1305
g54
(dp1306
sg63
g1292
sg56
(lp1307
g49
(g50
g51
NtRp1308
(dp1309
g54
(dp1310
g62
I3
ssg63
g1304
sg56
(lp1311
S''
asbasbasbag49
(g65
g51
NtRp1312
(dp1313
g54
(dp1314
sg63
g1248
sg56
(lp1315
g49
(g70
g51
NtRp1316
(dp1317
g54
(dp1318
g74
g75
ssg63
g1312
sg56
(lp1319
g326
asbag49
(g70
g51
NtRp1320
(dp1321
g54
(dp1322
g81
g82
ssg63
g1312
sg56
(lp1323
S':'
asbag49
(g70
g51
NtRp1324
(dp1325
g54
(dp1326
sg63
g1312
sg56
(lp1327
g49
(g50
g51
NtRp1328
(dp1329
g54
(dp1330
g62
I3
ssg63
g1324
sg56
(lp1331
S''
asbasbasbag49
(g65
g51
NtRp1332
(dp1333
g54
(dp1334
sg63
g1248
sg56
(lp1335
g49
(g70
g51
NtRp1336
(dp1337
g54
(dp1338
g74
g75
ssg63
g1332
sg56
(lp1339
g347
asbag49
(g70
g51
NtRp1340
(dp1341
g54
(dp1342
g81
g82
ssg63
g1332
sg56
(lp1343
S':'
asbag49
(g70
g51
NtRp1344
(dp1345
g54
(dp1346
sg63
g1332
sg56
(lp1347
g49
(g50
g51
NtRp1348
(dp1349
g54
(dp1350
g62
I3
ssg63
g1344
sg56
(lp1351
S''
asbasbasbag49
(g65
g51
NtRp1352
(dp1353
g54
(dp1354
sg63
g1248
sg56
(lp1355
g49
(g70
g51
NtRp1356
(dp1357
g54
(dp1358
g74
g75
ssg63
g1352
sg56
(lp1359
g368
asbag49
(g70
g51
NtRp1360
(dp1361
g54
(dp1362
g81
g82
ssg63
g1352
sg56
(lp1363
S':'
asbag49
(g70
g51
NtRp1364
(dp1365
g54
(dp1366
sg63
g1352
sg56
(lp1367
g49
(g50
g51
NtRp1368
(dp1369
g54
(dp1370
g62
I3
ssg63
g1364
sg56
(lp1371
S''
asbasbasbag49
(g65
g51
NtRp1372
(dp1373
g54
(dp1374
sg63
g1248
sg56
(lp1375
g49
(g70
g51
NtRp1376
(dp1377
g54
(dp1378
g74
g75
ssg63
g1372
sg56
(lp1379
g389
asbag49
(g70
g51
NtRp1380
(dp1381
g54
(dp1382
g81
g82
ssg63
g1372
sg56
(lp1383
S':'
asbag49
(g70
g51
NtRp1384
(dp1385
g54
(dp1386
sg63
g1372
sg56
(lp1387
g49
(g50
g51
NtRp1388
(dp1389
g54
(dp1390
g62
I3
ssg63
g1384
sg56
(lp1391
S''
asbasbasbasbasbasbasbag49
(g65
g51
NtRp1392
(dp1393
g54
(dp1394
sg63
g226
sg56
(lp1395
g49
(g70
g51
NtRp1396
(dp1397
g54
(dp1398
g74
g75
ssg63
g1392
sg56
(lp1399
S'session_id_inplace'
p1400
asbag49
(g70
g51
NtRp1401
(dp1402
g54
(dp1403
g81
g82
ssg63
g1392
sg56
(lp1404
S':'
asbag49
(g70
g51
NtRp1405
(dp1406
g54
(dp1407
sg63
g1392
sg56
(lp1408
g49
(g50
g51
NtRp1409
(dp1410
g54
(dp1411
g62
I4
ssg63
g1405
sg56
(lp1412
g49
(g58
g51
NtRp1413
(dp1414
g54
(dp1415
g62
I3
ssg63
Nsg56
(lp1416
g49
(g65
g51
NtRp1417
(dp1418
g54
(dp1419
sg63
g1413
sg56
(lp1420
g49
(g70
g51
NtRp1421
(dp1422
g54
(dp1423
g74
g75
ssg63
g1417
sg56
(lp1424
g263
asbag49
(g70
g51
NtRp1425
(dp1426
g54
(dp1427
g81
g82
ssg63
g1417
sg56
(lp1428
S':'
asbag49
(g70
g51
NtRp1429
(dp1430
g54
(dp1431
sg63
g1417
sg56
(lp1432
g49
(g50
g51
NtRp1433
(dp1434
g54
(dp1435
g62
I3
ssg63
g1429
sg56
(lp1436
S''
asbasbasbag49
(g65
g51
NtRp1437
(dp1438
g54
(dp1439
sg63
g1413
sg56
(lp1440
g49
(g70
g51
NtRp1441
(dp1442
g54
(dp1443
g74
g75
ssg63
g1437
sg56
(lp1444
g284
asbag49
(g70
g51
NtRp1445
(dp1446
g54
(dp1447
g81
g82
ssg63
g1437
sg56
(lp1448
S':'
asbag49
(g70
g51
NtRp1449
(dp1450
g54
(dp1451
sg63
g1437
sg56
(lp1452
g49
(g50
g51
NtRp1453
(dp1454
g54
(dp1455
g62
I3
ssg63
g1449
sg56
(lp1456
S''
asbasbasbag49
(g65
g51
NtRp1457
(dp1458
g54
(dp1459
sg63
g1413
sg56
(lp1460
g49
(g70
g51
NtRp1461
(dp1462
g54
(dp1463
g74
g75
ssg63
g1457
sg56
(lp1464
g305
asbag49
(g70
g51
NtRp1465
(dp1466
g54
(dp1467
g81
g82
ssg63
g1457
sg56
(lp1468
S':'
asbag49
(g70
g51
NtRp1469
(dp1470
g54
(dp1471
sg63
g1457
sg56
(lp1472
g49
(g50
g51
NtRp1473
(dp1474
g54
(dp1475
g62
I3
ssg63
g1469
sg56
(lp1476
S''
asbasbasbag49
(g65
g51
NtRp1477
(dp1478
g54
(dp1479
sg63
g1413
sg56
(lp1480
g49
(g70
g51
NtRp1481
(dp1482
g54
(dp1483
g74
g75
ssg63
g1477
sg56
(lp1484
g326
asbag49
(g70
g51
NtRp1485
(dp1486
g54
(dp1487
g81
g82
ssg63
g1477
sg56
(lp1488
S':'
asbag49
(g70
g51
NtRp1489
(dp1490
g54
(dp1491
sg63
g1477
sg56
(lp1492
g49
(g50
g51
NtRp1493
(dp1494
g54
(dp1495
g62
I3
ssg63
g1489
sg56
(lp1496
S''
asbasbasbag49
(g65
g51
NtRp1497
(dp1498
g54
(dp1499
sg63
g1413
sg56
(lp1500
g49
(g70
g51
NtRp1501
(dp1502
g54
(dp1503
g74
g75
ssg63
g1497
sg56
(lp1504
g347
asbag49
(g70
g51
NtRp1505
(dp1506
g54
(dp1507
g81
g82
ssg63
g1497
sg56
(lp1508
S':'
asbag49
(g70
g51
NtRp1509
(dp1510
g54
(dp1511
sg63
g1497
sg56
(lp1512
g49
(g50
g51
NtRp1513
(dp1514
g54
(dp1515
g62
I3
ssg63
g1509
sg56
(lp1516
S''
asbasbasbag49
(g65
g51
NtRp1517
(dp1518
g54
(dp1519
sg63
g1413
sg56
(lp1520
g49
(g70
g51
NtRp1521
(dp1522
g54
(dp1523
g74
g75
ssg63
g1517
sg56
(lp1524
g368
asbag49
(g70
g51
NtRp1525
(dp1526
g54
(dp1527
g81
g82
ssg63
g1517
sg56
(lp1528
S':'
asbag49
(g70
g51
NtRp1529
(dp1530
g54
(dp1531
sg63
g1517
sg56
(lp1532
g49
(g50
g51
NtRp1533
(dp1534
g54
(dp1535
g62
I3
ssg63
g1529
sg56
(lp1536
S''
asbasbasbag49
(g65
g51
NtRp1537
(dp1538
g54
(dp1539
sg63
g1413
sg56
(lp1540
g49
(g70
g51
NtRp1541
(dp1542
g54
(dp1543
g74
g75
ssg63
g1537
sg56
(lp1544
g389
asbag49
(g70
g51
NtRp1545
(dp1546
g54
(dp1547
g81
g82
ssg63
g1537
sg56
(lp1548
S':'
asbag49
(g70
g51
NtRp1549
(dp1550
g54
(dp1551
sg63
g1537
sg56
(lp1552
g49
(g50
g51
NtRp1553
(dp1554
g54
(dp1555
g62
I3
ssg63
g1549
sg56
(lp1556
S''
asbasbasbasbasbasbasbasbasbasbasbag49
(g65
g51
NtRp1557
(dp1558
g54
(dp1559
sg63
g59
sg56
(lp1560
g49
(g70
g51
NtRp1561
(dp1562
g54
(dp1563
g74
g75
ssg63
g1557
sg56
(lp1564
S'env'
p1565
asbag49
(g70
g51
NtRp1566
(dp1567
g54
(dp1568
g81
g82
ssg63
g1557
sg56
(lp1569
S':'
asbag49
(g70
g51
NtRp1570
(dp1571
g54
(dp1572
sg63
g1557
sg56
(lp1573
g49
(g50
g51
NtRp1574
(dp1575
g54
(dp1576
g62
I5
ssg63
g1570
sg56
(lp1577
g49
(g58
g51
NtRp1578
(dp1579
g54
(dp1580
g62
I4
ssg63
Nsg56
(lp1581
g49
(g65
g51
NtRp1582
(dp1583
g54
(dp1584
sg63
g1578
sg56
(lp1585
g49
(g70
g51
NtRp1586
(dp1587
g54
(dp1588
g74
g75
ssg63
g1582
sg56
(lp1589
S'app_folders'
p1590
asbag49
(g70
g51
NtRp1591
(dp1592
g54
(dp1593
g81
g82
ssg63
g1582
sg56
(lp1594
S':'
asbag49
(g70
g51
NtRp1595
(dp1596
g54
(dp1597
sg63
g1582
sg56
(lp1598
g49
(g50
g51
NtRp1599
(dp1600
g54
(dp1601
g62
I4
ssg63
g1595
sg56
(lp1602
S"set(['/Users/mdipierro/Dropbox/web2py/applications/inplace/', '/Users/mdipierro/Dropbox/web2py/applications/plasmid/'])"
p1603
asbasbasbag49
(g65
g51
NtRp1604
(dp1605
g54
(dp1606
sg63
g1578
sg56
(lp1607
g49
(g70
g51
NtRp1608
(dp1609
g54
(dp1610
g74
g75
ssg63
g1604
sg56
(lp1611
S'applications_parent'
p1612
asbag49
(g70
g51
NtRp1613
(dp1614
g54
(dp1615
g81
g82
ssg63
g1604
sg56
(lp1616
S':'
asbag49
(g70
g51
NtRp1617
(dp1618
g54
(dp1619
sg63
g1604
sg56
(lp1620
g49
(g50
g51
NtRp1621
(dp1622
g54
(dp1623
g62
I4
ssg63
g1617
sg56
(lp1624
S'/Users/mdipierro/Dropbox/web2py'
p1625
asbasbasbag49
(g65
g51
NtRp1626
(dp1627
g54
(dp1628
sg63
g1578
sg56
(lp1629
g49
(g70
g51
NtRp1630
(dp1631
g54
(dp1632
g74
g75
ssg63
g1626
sg56
(lp1633
S'cmd_args'
p1634
asbag49
(g70
g51
NtRp1635
(dp1636
g54
(dp1637
g81
g82
ssg63
g1626
sg56
(lp1638
S':'
asbag49
(g70
g51
NtRp1639
(dp1640
g54
(dp1641
sg63
g1626
sg56
(lp1642
g49
(g50
g51
NtRp1643
(dp1644
g54
(dp1645
g62
I4
ssg63
g1639
sg56
(lp1646
g49
(g58
g51
NtRp1647
(dp1648
g54
(dp1649
g62
I3
ssg63
Nsg56
(lp1650
sbasbasbasbag49
(g65
g51
NtRp1651
(dp1652
g54
(dp1653
sg63
g1578
sg56
(lp1654
g49
(g70
g51
NtRp1655
(dp1656
g54
(dp1657
g74
g75
ssg63
g1651
sg56
(lp1658
S'cmd_options'
p1659
asbag49
(g70
g51
NtRp1660
(dp1661
g54
(dp1662
g81
g82
ssg63
g1651
sg56
(lp1663
S':'
asbag49
(g70
g51
NtRp1664
(dp1665
g54
(dp1666
sg63
g1651
sg56
(lp1667
g49
(g50
g51
NtRp1668
(dp1669
g54
(dp1670
g62
I4
ssg63
g1664
sg56
(lp1671
S"<Values at 0x153a378: {'verbose': False, 'ip': '127.0.0.1', 'shutdown_timeout': 5, 'taskbar': False, 'nocron': False, 'pid_filename': 'httpserver.pid', 'maxthreads': None, 'softcron': False, 'server_name': 'massimo-di-pierros-macbook-2.local', 'bpython': False, 'nogui': False, 'port': 8000, 'extcron': False, 'debuglevel': 30, 'test': None, 'folder': '/Users/mdipierro/Dropbox/web2py', 'config': '', 'import_models': False, 'winservice': '', 'shell': None, 'run': '', 'log_filename': 'httpserver.log', 'args': [''], 'socket_timeout': 1, 'ssl_ca_certificate': None, 'scheduler': None, 'profiler_filename': None, 'ssl_private_key': '', 'password': 'hello', 'request_queue_size': 5, 'ssl_certificate': '', 'cronjob': False, 'numthreads': None, 'quiet': False, 'interfaces': None, 'minthreads': None, 'timeout': 10, 'plain': False, 'nobanner': False}>"
p1672
asbasbasbag49
(g65
g51
NtRp1673
(dp1674
g54
(dp1675
sg63
g1578
sg56
(lp1676
g49
(g70
g51
NtRp1677
(dp1678
g54
(dp1679
g74
g75
ssg63
g1673
sg56
(lp1680
S'db_sessions'
p1681
asbag49
(g70
g51
NtRp1682
(dp1683
g54
(dp1684
g81
g82
ssg63
g1673
sg56
(lp1685
S':'
asbag49
(g70
g51
NtRp1686
(dp1687
g54
(dp1688
sg63
g1673
sg56
(lp1689
g49
(g50
g51
NtRp1690
(dp1691
g54
(dp1692
g62
I4
ssg63
g1686
sg56
(lp1693
S'set([])'
p1694
asbasbasbag49
(g65
g51
NtRp1695
(dp1696
g54
(dp1697
sg63
g1578
sg56
(lp1698
g49
(g70
g51
NtRp1699
(dp1700
g54
(dp1701
g74
g75
ssg63
g1695
sg56
(lp1702
S'debugging'
p1703
asbag49
(g70
g51
NtRp1704
(dp1705
g54
(dp1706
g81
g82
ssg63
g1695
sg56
(lp1707
S':'
asbag49
(g70
g51
NtRp1708
(dp1709
g54
(dp1710
sg63
g1695
sg56
(lp1711
g49
(g50
g51
NtRp1712
(dp1713
g54
(dp1714
g62
I4
ssg63
g1708
sg56
(lp1715
g92
asbasbasbag49
(g65
g51
NtRp1716
(dp1717
g54
(dp1718
sg63
g1578
sg56
(lp1719
g49
(g70
g51
NtRp1720
(dp1721
g54
(dp1722
g74
g75
ssg63
g1716
sg56
(lp1723
S'gluon_parent'
p1724
asbag49
(g70
g51
NtRp1725
(dp1726
g54
(dp1727
g81
g82
ssg63
g1716
sg56
(lp1728
S':'
asbag49
(g70
g51
NtRp1729
(dp1730
g54
(dp1731
sg63
g1716
sg56
(lp1732
g49
(g50
g51
NtRp1733
(dp1734
g54
(dp1735
g62
I4
ssg63
g1729
sg56
(lp1736
S'/Users/mdipierro/Dropbox/web2py'
p1737
asbasbasbag49
(g65
g51
NtRp1738
(dp1739
g54
(dp1740
sg63
g1578
sg56
(lp1741
g49
(g70
g51
NtRp1742
(dp1743
g54
(dp1744
g74
g75
ssg63
g1738
sg56
(lp1745
S'http_accept'
p1746
asbag49
(g70
g51
NtRp1747
(dp1748
g54
(dp1749
g81
g82
ssg63
g1738
sg56
(lp1750
S':'
asbag49
(g70
g51
NtRp1751
(dp1752
g54
(dp1753
sg63
g1738
sg56
(lp1754
g49
(g50
g51
NtRp1755
(dp1756
g54
(dp1757
g62
I4
ssg63
g1751
sg56
(lp1758
S'text/html,application/xhtml+xml,application/xml;q=0.9,*/*;q=0.8'
p1759
asbasbasbag49
(g65
g51
NtRp1760
(dp1761
g54
(dp1762
sg63
g1578
sg56
(lp1763
g49
(g70
g51
NtRp1764
(dp1765
g54
(dp1766
g74
g75
ssg63
g1760
sg56
(lp1767
S'http_accept_charset'
p1768
asbag49
(g70
g51
NtRp1769
(dp1770
g54
(dp1771
g81
g82
ssg63
g1760
sg56
(lp1772
S':'
asbag49
(g70
g51
NtRp1773
(dp1774
g54
(dp1775
sg63
g1760
sg56
(lp1776
g49
(g50
g51
NtRp1777
(dp1778
g54
(dp1779
g62
I4
ssg63
g1773
sg56
(lp1780
S'ISO-8859-1,utf-8;q=0.7,*;q=0.3'
p1781
asbasbasbag49
(g65
g51
NtRp1782
(dp1783
g54
(dp1784
sg63
g1578
sg56
(lp1785
g49
(g70
g51
NtRp1786
(dp1787
g54
(dp1788
g74
g75
ssg63
g1782
sg56
(lp1789
S'http_accept_encoding'
p1790
asbag49
(g70
g51
NtRp1791
(dp1792
g54
(dp1793
g81
g82
ssg63
g1782
sg56
(lp1794
S':'
asbag49
(g70
g51
NtRp1795
(dp1796
g54
(dp1797
sg63
g1782
sg56
(lp1798
g49
(g50
g51
NtRp1799
(dp1800
g54
(dp1801
g62
I4
ssg63
g1795
sg56
(lp1802
S'gzip,deflate,sdch'
p1803
asbasbasbag49
(g65
g51
NtRp1804
(dp1805
g54
(dp1806
sg63
g1578
sg56
(lp1807
g49
(g70
g51
NtRp1808
(dp1809
g54
(dp1810
g74
g75
ssg63
g1804
sg56
(lp1811
S'http_accept_language'
p1812
asbag49
(g70
g51
NtRp1813
(dp1814
g54
(dp1815
g81
g82
ssg63
g1804
sg56
(lp1816
S':'
asbag49
(g70
g51
NtRp1817
(dp1818
g54
(dp1819
sg63
g1804
sg56
(lp1820
g49
(g50
g51
NtRp1821
(dp1822
g54
(dp1823
g62
I4
ssg63
g1817
sg56
(lp1824
S'en,en-US;q=0.8,de-DE;q=0.6,de;q=0.4,it-IT;q=0.2,it;q=0.2,ja;q=0.2'
p1825
asbasbasbag49
(g65
g51
NtRp1826
(dp1827
g54
(dp1828
sg63
g1578
sg56
(lp1829
g49
(g70
g51
NtRp1830
(dp1831
g54
(dp1832
g74
g75
ssg63
g1826
sg56
(lp1833
S'http_connection'
p1834
asbag49
(g70
g51
NtRp1835
(dp1836
g54
(dp1837
g81
g82
ssg63
g1826
sg56
(lp1838
S':'
asbag49
(g70
g51
NtRp1839
(dp1840
g54
(dp1841
sg63
g1826
sg56
(lp1842
g49
(g50
g51
NtRp1843
(dp1844
g54
(dp1845
g62
I4
ssg63
g1839
sg56
(lp1846
S'keep-alive'
p1847
asbasbasbag49
(g65
g51
NtRp1848
(dp1849
g54
(dp1850
sg63
g1578
sg56
(lp1851
g49
(g70
g51
NtRp1852
(dp1853
g54
(dp1854
g74
g75
ssg63
g1848
sg56
(lp1855
S'http_cookie'
p1856
asbag49
(g70
g51
NtRp1857
(dp1858
g54
(dp1859
g81
g82
ssg63
g1848
sg56
(lp1860
S':'
asbag49
(g70
g51
NtRp1861
(dp1862
g54
(dp1863
sg63
g1848
sg56
(lp1864
g49
(g50
g51
NtRp1865
(dp1866
g54
(dp1867
g62
I4
ssg63
g1861
sg56
(lp1868
S'registered=yes; __utma_a2a=1369166446.1335515545.1303958619.1316700181.1318215879.74; el-finder-last-finder=4f5a448a961f1931173928a6b6d9d4d2; s_nr=1323495907438-New; __qca=P0-1359637726-1323501662225; _chartbeat2=ha3n2egp47d2hmo0.1323501662417; session_id_cms=127.0.0.1-f4c1e56e-4f4d-4936-aaf7-92fdd3a97f53; session_id_admin=127.0.0.1-6d70af03-6639-4a47-9ec3-7df3afc84ddd; __utma=96992031.1452952453.1313221394.1323638999.1323645249.7; __utmc=96992031; __utmz=96992031.1313221394.1.1.utmcsr=(direct)|utmccn=(direct)|utmcmd=(none); session_id_inplace=127.0.0.1-b67af904-b8cf-469d-95b3-18285a004db1; s_cc=true; s_sq=%5B%5BB%5D%5D'
p1869
asbasbasbag49
(g65
g51
NtRp1870
(dp1871
g54
(dp1872
sg63
g1578
sg56
(lp1873
g49
(g70
g51
NtRp1874
(dp1875
g54
(dp1876
g74
g75
ssg63
g1870
sg56
(lp1877
S'http_host'
p1878
asbag49
(g70
g51
NtRp1879
(dp1880
g54
(dp1881
g81
g82
ssg63
g1870
sg56
(lp1882
S':'
asbag49
(g70
g51
NtRp1883
(dp1884
g54
(dp1885
sg63
g1870
sg56
(lp1886
g49
(g50
g51
NtRp1887
(dp1888
g54
(dp1889
g62
I4
ssg63
g1883
sg56
(lp1890
S'127.0.0.1:8000'
p1891
asbasbasbag49
(g65
g51
NtRp1892
(dp1893
g54
(dp1894
sg63
g1578
sg56
(lp1895
g49
(g70
g51
NtRp1896
(dp1897
g54
(dp1898
g74
g75
ssg63
g1892
sg56
(lp1899
S'http_user_agent'
p1900
asbag49
(g70
g51
NtRp1901
(dp1902
g54
(dp1903
g81
g82
ssg63
g1892
sg56
(lp1904
S':'
asbag49
(g70
g51
NtRp1905
(dp1906
g54
(dp1907
sg63
g1892
sg56
(lp1908
g49
(g50
g51
NtRp1909
(dp1910
g54
(dp1911
g62
I4
ssg63
g1905
sg56
(lp1912
S'Mozilla/5.0 (Macintosh; Intel Mac OS X 10_6_8) AppleWebKit/535.7 (KHTML, like Gecko) Chrome/16.0.912.63 Safari/535.7'
p1913
asbasbasbag49
(g65
g51
NtRp1914
(dp1915
g54
(dp1916
sg63
g1578
sg56
(lp1917
g49
(g70
g51
NtRp1918
(dp1919
g54
(dp1920
g74
g75
ssg63
g1914
sg56
(lp1921
S'is_jython'
p1922
asbag49
(g70
g51
NtRp1923
(dp1924
g54
(dp1925
g81
g82
ssg63
g1914
sg56
(lp1926
S':'
asbag49
(g70
g51
NtRp1927
(dp1928
g54
(dp1929
sg63
g1914
sg56
(lp1930
g49
(g50
g51
NtRp1931
(dp1932
g54
(dp1933
g62
I4
ssg63
g1927
sg56
(lp1934
g92
asbasbasbag49
(g65
g51
NtRp1935
(dp1936
g54
(dp1937
sg63
g1578
sg56
(lp1938
g49
(g70
g51
NtRp1939
(dp1940
g54
(dp1941
g74
g75
ssg63
g1935
sg56
(lp1942
S'is_pypy'
p1943
asbag49
(g70
g51
NtRp1944
(dp1945
g54
(dp1946
g81
g82
ssg63
g1935
sg56
(lp1947
S':'
asbag49
(g70
g51
NtRp1948
(dp1949
g54
(dp1950
sg63
g1935
sg56
(lp1951
g49
(g50
g51
NtRp1952
(dp1953
g54
(dp1954
g62
I4
ssg63
g1948
sg56
(lp1955
g92
asbasbasbag49
(g65
g51
NtRp1956
(dp1957
g54
(dp1958
sg63
g1578
sg56
(lp1959
g49
(g70
g51
NtRp1960
(dp1961
g54
(dp1962
g74
g75
ssg63
g1956
sg56
(lp1963
S'path_info'
p1964
asbag49
(g70
g51
NtRp1965
(dp1966
g54
(dp1967
g81
g82
ssg63
g1956
sg56
(lp1968
S':'
asbag49
(g70
g51
NtRp1969
(dp1970
g54
(dp1971
sg63
g1956
sg56
(lp1972
g49
(g50
g51
NtRp1973
(dp1974
g54
(dp1975
g62
I4
ssg63
g1969
sg56
(lp1976
S'/plasmid'
p1977
asbasbasbag49
(g65
g51
NtRp1978
(dp1979
g54
(dp1980
sg63
g1578
sg56
(lp1981
g49
(g70
g51
NtRp1982
(dp1983
g54
(dp1984
g74
g75
ssg63
g1978
sg56
(lp1985
S'query_string'
p1986
asbag49
(g70
g51
NtRp1987
(dp1988
g54
(dp1989
g81
g82
ssg63
g1978
sg56
(lp1990
S':'
asbag49
(g70
g51
NtRp1991
(dp1992
g54
(dp1993
sg63
g1978
sg56
(lp1994
g49
(g50
g51
NtRp1995
(dp1996
g54
(dp1997
g62
I4
ssg63
g1991
sg56
(lp1998
S''
asbasbasbag49
(g65
g51
NtRp1999
(dp2000
g54
(dp2001
sg63
g1578
sg56
(lp2002
g49
(g70
g51
NtRp2003
(dp2004
g54
(dp2005
g74
g75
ssg63
g1999
sg56
(lp2006
S'remote_addr'
p2007
asbag49
(g70
g51
NtRp2008
(dp2009
g54
(dp2010
g81
g82
ssg63
g1999
sg56
(lp2011
S':'
asbag49
(g70
g51
NtRp2012
(dp2013
g54
(dp2014
sg63
g1999
sg56
(lp2015
g49
(g50
g51
NtRp2016
(dp2017
g54
(dp2018
g62
I4
ssg63
g2012
sg56
(lp2019
g182
asbasbasbag49
(g65
g51
NtRp2020
(dp2021
g54
(dp2022
sg63
g1578
sg56
(lp2023
g49
(g70
g51
NtRp2024
(dp2025
g54
(dp2026
g74
g75
ssg63
g2020
sg56
(lp2027
S'remote_port'
p2028
asbag49
(g70
g51
NtRp2029
(dp2030
g54
(dp2031
g81
g82
ssg63
g2020
sg56
(lp2032
S':'
asbag49
(g70
g51
NtRp2033
(dp2034
g54
(dp2035
sg63
g2020
sg56
(lp2036
g49
(g50
g51
NtRp2037
(dp2038
g54
(dp2039
g62
I4
ssg63
g2033
sg56
(lp2040
S'57358'
p2041
asbasbasbag49
(g65
g51
NtRp2042
(dp2043
g54
(dp2044
sg63
g1578
sg56
(lp2045
g49
(g70
g51
NtRp2046
(dp2047
g54
(dp2048
g74
g75
ssg63
g2042
sg56
(lp2049
S'request_method'
p2050
asbag49
(g70
g51
NtRp2051
(dp2052
g54
(dp2053
g81
g82
ssg63
g2042
sg56
(lp2054
S':'
asbag49
(g70
g51
NtRp2055
(dp2056
g54
(dp2057
sg63
g2042
sg56
(lp2058
g49
(g50
g51
NtRp2059
(dp2060
g54
(dp2061
g62
I4
ssg63
g2055
sg56
(lp2062
S'GET'
p2063
asbasbasbag49
(g65
g51
NtRp2064
(dp2065
g54
(dp2066
sg63
g1578
sg56
(lp2067
g49
(g70
g51
NtRp2068
(dp2069
g54
(dp2070
g74
g75
ssg63
g2064
sg56
(lp2071
S'script_name'
p2072
asbag49
(g70
g51
NtRp2073
(dp2074
g54
(dp2075
g81
g82
ssg63
g2064
sg56
(lp2076
S':'
asbag49
(g70
g51
NtRp2077
(dp2078
g54
(dp2079
sg63
g2064
sg56
(lp2080
g49
(g50
g51
NtRp2081
(dp2082
g54
(dp2083
g62
I4
ssg63
g2077
sg56
(lp2084
S''
asbasbasbag49
(g65
g51
NtRp2085
(dp2086
g54
(dp2087
sg63
g1578
sg56
(lp2088
g49
(g70
g51
NtRp2089
(dp2090
g54
(dp2091
g74
g75
ssg63
g2085
sg56
(lp2092
S'server_name'
p2093
asbag49
(g70
g51
NtRp2094
(dp2095
g54
(dp2096
g81
g82
ssg63
g2085
sg56
(lp2097
S':'
asbag49
(g70
g51
NtRp2098
(dp2099
g54
(dp2100
sg63
g2085
sg56
(lp2101
g49
(g50
g51
NtRp2102
(dp2103
g54
(dp2104
g62
I4
ssg63
g2098
sg56
(lp2105
S'massimo-di-pierros-macbook-2.local'
p2106
asbasbasbag49
(g65
g51
NtRp2107
(dp2108
g54
(dp2109
sg63
g1578
sg56
(lp2110
g49
(g70
g51
NtRp2111
(dp2112
g54
(dp2113
g74
g75
ssg63
g2107
sg56
(lp2114
S'server_port'
p2115
asbag49
(g70
g51
NtRp2116
(dp2117
g54
(dp2118
g81
g82
ssg63
g2107
sg56
(lp2119
S':'
asbag49
(g70
g51
NtRp2120
(dp2121
g54
(dp2122
sg63
g2107
sg56
(lp2123
g49
(g50
g51
NtRp2124
(dp2125
g54
(dp2126
g62
I4
ssg63
g2120
sg56
(lp2127
S'8000'
p2128
asbasbasbag49
(g65
g51
NtRp2129
(dp2130
g54
(dp2131
sg63
g1578
sg56
(lp2132
g49
(g70
g51
NtRp2133
(dp2134
g54
(dp2135
g74
g75
ssg63
g2129
sg56
(lp2136
S'server_protocol'
p2137
asbag49
(g70
g51
NtRp2138
(dp2139
g54
(dp2140
g81
g82
ssg63
g2129
sg56
(lp2141
S':'
asbag49
(g70
g51
NtRp2142
(dp2143
g54
(dp2144
sg63
g2129
sg56
(lp2145
g49
(g50
g51
NtRp2146
(dp2147
g54
(dp2148
g62
I4
ssg63
g2142
sg56
(lp2149
S'HTTP/1.1'
p2150
asbasbasbag49
(g65
g51
NtRp2151
(dp2152
g54
(dp2153
sg63
g1578
sg56
(lp2154
g49
(g70
g51
NtRp2155
(dp2156
g54
(dp2157
g74
g75
ssg63
g2151
sg56
(lp2158
S'server_software'
p2159
asbag49
(g70
g51
NtRp2160
(dp2161
g54
(dp2162
g81
g82
ssg63
g2151
sg56
(lp2163
S':'
asbag49
(g70
g51
NtRp2164
(dp2165
g54
(dp2166
sg63
g2151
sg56
(lp2167
g49
(g50
g51
NtRp2168
(dp2169
g54
(dp2170
g62
I4
ssg63
g2164
sg56
(lp2171
S'Rocket 1.2.4'
p2172
asbasbasbag49
(g65
g51
NtRp2173
(dp2174
g54
(dp2175
sg63
g1578
sg56
(lp2176
g49
(g70
g51
NtRp2177
(dp2178
g54
(dp2179
g74
g75
ssg63
g2173
sg56
(lp2180
S'web2py_crontype'
p2181
asbag49
(g70
g51
NtRp2182
(dp2183
g54
(dp2184
g81
g82
ssg63
g2173
sg56
(lp2185
S':'
asbag49
(g70
g51
NtRp2186
(dp2187
g54
(dp2188
sg63
g2173
sg56
(lp2189
g49
(g50
g51
NtRp2190
(dp2191
g54
(dp2192
g62
I4
ssg63
g2186
sg56
(lp2193
S'hard'
p2194
asbasbasbag49
(g65
g51
NtRp2195
(dp2196
g54
(dp2197
sg63
g1578
sg56
(lp2198
g49
(g70
g51
NtRp2199
(dp2200
g54
(dp2201
g74
g75
ssg63
g2195
sg56
(lp2202
S'web2py_path'
p2203
asbag49
(g70
g51
NtRp2204
(dp2205
g54
(dp2206
g81
g82
ssg63
g2195
sg56
(lp2207
S':'
asbag49
(g70
g51
NtRp2208
(dp2209
g54
(dp2210
sg63
g2195
sg56
(lp2211
g49
(g50
g51
NtRp2212
(dp2213
g54
(dp2214
g62
I4
ssg63
g2208
sg56
(lp2215
g1625
asbasbasbag49
(g65
g51
NtRp2216
(dp2217
g54
(dp2218
sg63
g1578
sg56
(lp2219
g49
(g70
g51
NtRp2220
(dp2221
g54
(dp2222
g74
g75
ssg63
g2216
sg56
(lp2223
S'web2py_version'
p2224
asbag49
(g70
g51
NtRp2225
(dp2226
g54
(dp2227
g81
g82
ssg63
g2216
sg56
(lp2228
S':'
asbag49
(g70
g51
NtRp2229
(dp2230
g54
(dp2231
sg63
g2216
sg56
(lp2232
g49
(g50
g51
NtRp2233
(dp2234
g54
(dp2235
g62
I4
ssg63
g2229
sg56
(lp2236
g49
(g58
g51
NtRp2237
(dp2238
g54
(dp2239
g62
I3
ssg63
Nsg56
(lp2240
g49
(g65
g51
NtRp2241
(dp2242
g54
(dp2243
sg63
g2237
sg56
(lp2244
g49
(g70
g51
NtRp2245
(dp2246
g54
(dp2247
sg63
g2241
sg56
(lp2248
g49
(g50
g51
NtRp2249
(dp2250
g54
(dp2251
g62
I3
ssg63
g2245
sg56
(lp2252
S'1'
asbasbasbag49
(g65
g51
NtRp2253
(dp2254
g54
(dp2255
sg63
g2237
sg56
(lp2256
g49
(g70
g51
NtRp2257
(dp2258
g54
(dp2259
sg63
g2253
sg56
(lp2260
g49
(g50
g51
NtRp2261
(dp2262
g54
(dp2263
g62
I3
ssg63
g2257
sg56
(lp2264
S'99'
p2265
asbasbasbag49
(g65
g51
NtRp2266
(dp2267
g54
(dp2268
sg63
g2237
sg56
(lp2269
g49
(g70
g51
NtRp2270
(dp2271
g54
(dp2272
sg63
g2266
sg56
(lp2273
g49
(g50
g51
NtRp2274
(dp2275
g54
(dp2276
g62
I3
ssg63
g2270
sg56
(lp2277
S'3'
asbasbasbag49
(g65
g51
NtRp2278
(dp2279
g54
(dp2280
sg63
g2237
sg56
(lp2281
g49
(g70
g51
NtRp2282
(dp2283
g54
(dp2284
sg63
g2278
sg56
(lp2285
g49
(g50
g51
NtRp2286
(dp2287
g54
(dp2288
g62
I3
ssg63
g2282
sg56
(lp2289
S'datetime.datetime(2011, 12, 9, 21, 5, 4)'
p2290
asbasbasbag49
(g65
g51
NtRp2291
(dp2292
g54
(dp2293
sg63
g2237
sg56
(lp2294
g49
(g70
g51
NtRp2295
(dp2296
g54
(dp2297
sg63
g2291
sg56
(lp2298
g49
(g50
g51
NtRp2299
(dp2300
g54
(dp2301
g62
I3
ssg63
g2295
sg56
(lp2302
S'stable'
p2303
asbasbasbasbasbasbasbag49
(g65
g51
NtRp2304
(dp2305
g54
(dp2306
sg63
g1578
sg56
(lp2307
g49
(g70
g51
NtRp2308
(dp2309
g54
(dp2310
g74
g75
ssg63
g2304
sg56
(lp2311
S'wsgi_errors'
p2312
asbag49
(g70
g51
NtRp2313
(dp2314
g54
(dp2315
g81
g82
ssg63
g2304
sg56
(lp2316
S':'
asbag49
(g70
g51
NtRp2317
(dp2318
g54
(dp2319
sg63
g2304
sg56
(lp2320
g49
(g50
g51
NtRp2321
(dp2322
g54
(dp2323
g62
I4
ssg63
g2317
sg56
(lp2324
S"<open file '<stderr>', mode 'w' at 0x1620b0>"
p2325
asbasbasbag49
(g65
g51
NtRp2326
(dp2327
g54
(dp2328
sg63
g1578
sg56
(lp2329
g49
(g70
g51
NtRp2330
(dp2331
g54
(dp2332
g74
g75
ssg63
g2326
sg56
(lp2333
S'wsgi_file_wrapper'
p2334
asbag49
(g70
g51
NtRp2335
(dp2336
g54
(dp2337
g81
g82
ssg63
g2326
sg56
(lp2338
S':'
asbag49
(g70
g51
NtRp2339
(dp2340
g54
(dp2341
sg63
g2326
sg56
(lp2342
g49
(g50
g51
NtRp2343
(dp2344
g54
(dp2345
g62
I4
ssg63
g2339
sg56
(lp2346
S'<class wsgiref.util.FileWrapper at 0x7c2840>'
p2347
asbasbasbag49
(g65
g51
NtRp2348
(dp2349
g54
(dp2350
sg63
g1578
sg56
(lp2351
g49
(g70
g51
NtRp2352
(dp2353
g54
(dp2354
g74
g75
ssg63
g2348
sg56
(lp2355
S'wsgi_input'
p2356
asbag49
(g70
g51
NtRp2357
(dp2358
g54
(dp2359
g81
g82
ssg63
g2348
sg56
(lp2360
S':'
asbag49
(g70
g51
NtRp2361
(dp2362
g54
(dp2363
sg63
g2348
sg56
(lp2364
g49
(g50
g51
NtRp2365
(dp2366
g54
(dp2367
g62
I4
ssg63
g2361
sg56
(lp2368
S'<socket._fileobject object at 0x14381f0>'
p2369
asbasbasbag49
(g65
g51
NtRp2370
(dp2371
g54
(dp2372
sg63
g1578
sg56
(lp2373
g49
(g70
g51
NtRp2374
(dp2375
g54
(dp2376
g74
g75
ssg63
g2370
sg56
(lp2377
S'wsgi_multiprocess'
p2378
asbag49
(g70
g51
NtRp2379
(dp2380
g54
(dp2381
g81
g82
ssg63
g2370
sg56
(lp2382
S':'
asbag49
(g70
g51
NtRp2383
(dp2384
g54
(dp2385
sg63
g2370
sg56
(lp2386
g49
(g50
g51
NtRp2387
(dp2388
g54
(dp2389
g62
I4
ssg63
g2383
sg56
(lp2390
g92
asbasbasbag49
(g65
g51
NtRp2391
(dp2392
g54
(dp2393
sg63
g1578
sg56
(lp2394
g49
(g70
g51
NtRp2395
(dp2396
g54
(dp2397
g74
g75
ssg63
g2391
sg56
(lp2398
S'wsgi_multithread'
p2399
asbag49
(g70
g51
NtRp2400
(dp2401
g54
(dp2402
g81
g82
ssg63
g2391
sg56
(lp2403
S':'
asbag49
(g70
g51
NtRp2404
(dp2405
g54
(dp2406
sg63
g2391
sg56
(lp2407
g49
(g50
g51
NtRp2408
(dp2409
g54
(dp2410
g62
I4
ssg63
g2404
sg56
(lp2411
S'True'
p2412
asbasbasbag49
(g65
g51
NtRp2413
(dp2414
g54
(dp2415
sg63
g1578
sg56
(lp2416
g49
(g70
g51
NtRp2417
(dp2418
g54
(dp2419
g74
g75
ssg63
g2413
sg56
(lp2420
S'wsgi_run_once'
p2421
asbag49
(g70
g51
NtRp2422
(dp2423
g54
(dp2424
g81
g82
ssg63
g2413
sg56
(lp2425
S':'
asbag49
(g70
g51
NtRp2426
(dp2427
g54
(dp2428
sg63
g2413
sg56
(lp2429
g49
(g50
g51
NtRp2430
(dp2431
g54
(dp2432
g62
I4
ssg63
g2426
sg56
(lp2433
g92
asbasbasbag49
(g65
g51
NtRp2434
(dp2435
g54
(dp2436
sg63
g1578
sg56
(lp2437
g49
(g70
g51
NtRp2438
(dp2439
g54
(dp2440
g74
g75
ssg63
g2434
sg56
(lp2441
S'wsgi_url_scheme'
p2442
asbag49
(g70
g51
NtRp2443
(dp2444
g54
(dp2445
g81
g82
ssg63
g2434
sg56
(lp2446
S':'
asbag49
(g70
g51
NtRp2447
(dp2448
g54
(dp2449
sg63
g2434
sg56
(lp2450
g49
(g50
g51
NtRp2451
(dp2452
g54
(dp2453
g62
I4
ssg63
g2447
sg56
(lp2454
S'http'
p2455
asbasbasbag49
(g65
g51
NtRp2456
(dp2457
g54
(dp2458
sg63
g1578
sg56
(lp2459
g49
(g70
g51
NtRp2460
(dp2461
g54
(dp2462
g74
g75
ssg63
g2456
sg56
(lp2463
S'wsgi_version'
p2464
asbag49
(g70
g51
NtRp2465
(dp2466
g54
(dp2467
g81
g82
ssg63
g2456
sg56
(lp2468
S':'
asbag49
(g70
g51
NtRp2469
(dp2470
g54
(dp2471
sg63
g2456
sg56
(lp2472
g49
(g50
g51
NtRp2473
(dp2474
g54
(dp2475
g62
I4
ssg63
g2469
sg56
(lp2476
g49
(g58
g51
NtRp2477
(dp2478
g54
(dp2479
g62
I3
ssg63
Nsg56
(lp2480
g49
(g65
g51
NtRp2481
(dp2482
g54
(dp2483
sg63
g2477
sg56
(lp2484
g49
(g70
g51
NtRp2485
(dp2486
g54
(dp2487
sg63
g2481
sg56
(lp2488
g49
(g50
g51
NtRp2489
(dp2490
g54
(dp2491
g62
I3
ssg63
g2485
sg56
(lp2492
S'1'
asbasbasbag49
(g65
g51
NtRp2493
(dp2494
g54
(dp2495
sg63
g2477
sg56
(lp2496
g49
(g70
g51
NtRp2497
(dp2498
g54
(dp2499
sg63
g2493
sg56
(lp2500
g49
(g50
g51
NtRp2501
(dp2502
g54
(dp2503
g62
I3
ssg63
g2497
sg56
(lp2504
S'0'
asbasbasbasbasbasbasbasbasbasbasbag49
(g65
g51
NtRp2505
(dp2506
g54
(dp2507
sg63
g59
sg56
(lp2508
g49
(g70
g51
NtRp2509
(dp2510
g54
(dp2511
g74
g75
ssg63
g2505
sg56
(lp2512
S'extension'
p2513
asbag49
(g70
g51
NtRp2514
(dp2515
g54
(dp2516
g81
g82
ssg63
g2505
sg56
(lp2517
S':'
asbag49
(g70
g51
NtRp2518
(dp2519
g54
(dp2520
sg63
g2505
sg56
(lp2521
g49
(g50
g51
NtRp2522
(dp2523
g54
(dp2524
g62
I5
ssg63
g2518
sg56
(lp2525
S'html'
p2526
asbasbasbag49
(g65
g51
NtRp2527
(dp2528
g54
(dp2529
sg63
g59
sg56
(lp2530
g49
(g70
g51
NtRp2531
(dp2532
g54
(dp2533
g74
g75
ssg63
g2527
sg56
(lp2534
S'folder'
p2535
asbag49
(g70
g51
NtRp2536
(dp2537
g54
(dp2538
g81
g82
ssg63
g2527
sg56
(lp2539
S':'
asbag49
(g70
g51
NtRp2540
(dp2541
g54
(dp2542
sg63
g2527
sg56
(lp2543
g49
(g50
g51
NtRp2544
(dp2545
g54
(dp2546
g62
I5
ssg63
g2540
sg56
(lp2547
S'/Users/mdipierro/Dropbox/web2py/applications/plasmid/'
p2548
asbasbasbag49
(g65
g51
NtRp2549
(dp2550
g54
(dp2551
sg63
g59
sg56
(lp2552
g49
(g70
g51
NtRp2553
(dp2554
g54
(dp2555
g74
g75
ssg63
g2549
sg56
(lp2556
S'function'
p2557
asbag49
(g70
g51
NtRp2558
(dp2559
g54
(dp2560
g81
g82
ssg63
g2549
sg56
(lp2561
S':'
asbag49
(g70
g51
NtRp2562
(dp2563
g54
(dp2564
sg63
g2549
sg56
(lp2565
g49
(g50
g51
NtRp2566
(dp2567
g54
(dp2568
g62
I5
ssg63
g2562
sg56
(lp2569
S'index'
p2570
asbasbasbag49
(g65
g51
NtRp2571
(dp2572
g54
(dp2573
sg63
g59
sg56
(lp2574
g49
(g70
g51
NtRp2575
(dp2576
g54
(dp2577
g74
g75
ssg63
g2571
sg56
(lp2578
S'get_vars'
p2579
asbag49
(g70
g51
NtRp2580
(dp2581
g54
(dp2582
g81
g82
ssg63
g2571
sg56
(lp2583
S':'
asbag49
(g70
g51
NtRp2584
(dp2585
g54
(dp2586
sg63
g2571
sg56
(lp2587
g49
(g50
g51
NtRp2588
(dp2589
g54
(dp2590
g62
I5
ssg63
g2584
sg56
(lp2591
g49
(g58
g51
NtRp2592
(dp2593
g54
(dp2594
g62
I4
ssg63
Nsg56
(lp2595
sbasbasbasbag49
(g65
g51
NtRp2596
(dp2597
g54
(dp2598
sg63
g59
sg56
(lp2599
g49
(g70
g51
NtRp2600
(dp2601
g54
(dp2602
g74
g75
ssg63
g2596
sg56
(lp2603
S'global_settings'
p2604
asbag49
(g70
g51
NtRp2605
(dp2606
g54
(dp2607
g81
g82
ssg63
g2596
sg56
(lp2608
S':'
asbag49
(g70
g51
NtRp2609
(dp2610
g54
(dp2611
sg63
g2596
sg56
(lp2612
g49
(g50
g51
NtRp2613
(dp2614
g54
(dp2615
g62
I5
ssg63
g2609
sg56
(lp2616
g49
(g58
g51
NtRp2617
(dp2618
g54
(dp2619
g62
I4
ssg63
Nsg56
(lp2620
g49
(g65
g51
NtRp2621
(dp2622
g54
(dp2623
sg63
g2617
sg56
(lp2624
g49
(g70
g51
NtRp2625
(dp2626
g54
(dp2627
g74
g75
ssg63
g2621
sg56
(lp2628
g1590
asbag49
(g70
g51
NtRp2629
(dp2630
g54
(dp2631
g81
g82
ssg63
g2621
sg56
(lp2632
S':'
asbag49
(g70
g51
NtRp2633
(dp2634
g54
(dp2635
sg63
g2621
sg56
(lp2636
g49
(g50
g51
NtRp2637
(dp2638
g54
(dp2639
g62
I4
ssg63
g2633
sg56
(lp2640
S"set(['/Users/mdipierro/Dropbox/web2py/applications/inplace/', '/Users/mdipierro/Dropbox/web2py/applications/plasmid/'])"
p2641
asbasbasbag49
(g65
g51
NtRp2642
(dp2643
g54
(dp2644
sg63
g2617
sg56
(lp2645
g49
(g70
g51
NtRp2646
(dp2647
g54
(dp2648
g74
g75
ssg63
g2642
sg56
(lp2649
g1612
asbag49
(g70
g51
NtRp2650
(dp2651
g54
(dp2652
g81
g82
ssg63
g2642
sg56
(lp2653
S':'
asbag49
(g70
g51
NtRp2654
(dp2655
g54
(dp2656
sg63
g2642
sg56
(lp2657
g49
(g50
g51
NtRp2658
(dp2659
g54
(dp2660
g62
I4
ssg63
g2654
sg56
(lp2661
g1625
asbasbasbag49
(g65
g51
NtRp2662
(dp2663
g54
(dp2664
sg63
g2617
sg56
(lp2665
g49
(g70
g51
NtRp2666
(dp2667
g54
(dp2668
g74
g75
ssg63
g2662
sg56
(lp2669
g1634
asbag49
(g70
g51
NtRp2670
(dp2671
g54
(dp2672
g81
g82
ssg63
g2662
sg56
(lp2673
S':'
asbag49
(g70
g51
NtRp2674
(dp2675
g54
(dp2676
sg63
g2662
sg56
(lp2677
g49
(g50
g51
NtRp2678
(dp2679
g54
(dp2680
g62
I4
ssg63
g2674
sg56
(lp2681
g49
(g58
g51
NtRp2682
(dp2683
g54
(dp2684
g62
I3
ssg63
Nsg56
(lp2685
sbasbasbasbag49
(g65
g51
NtRp2686
(dp2687
g54
(dp2688
sg63
g2617
sg56
(lp2689
g49
(g70
g51
NtRp2690
(dp2691
g54
(dp2692
g74
g75
ssg63
g2686
sg56
(lp2693
g1659
asbag49
(g70
g51
NtRp2694
(dp2695
g54
(dp2696
g81
g82
ssg63
g2686
sg56
(lp2697
S':'
asbag49
(g70
g51
NtRp2698
(dp2699
g54
(dp2700
sg63
g2686
sg56
(lp2701
g49
(g50
g51
NtRp2702
(dp2703
g54
(dp2704
g62
I4
ssg63
g2698
sg56
(lp2705
S"<Values at 0x153a378: {'verbose': False, 'ip': '127.0.0.1', 'shutdown_timeout': 5, 'taskbar': False, 'nocron': False, 'pid_filename': 'httpserver.pid', 'maxthreads': None, 'softcron': False, 'server_name': 'massimo-di-pierros-macbook-2.local', 'bpython': False, 'nogui': False, 'port': 8000, 'extcron': False, 'debuglevel': 30, 'test': None, 'folder': '/Users/mdipierro/Dropbox/web2py', 'config': '', 'import_models': False, 'winservice': '', 'shell': None, 'run': '', 'log_filename': 'httpserver.log', 'args': [''], 'socket_timeout': 1, 'ssl_ca_certificate': None, 'scheduler': None, 'profiler_filename': None, 'ssl_private_key': '', 'password': 'hello', 'request_queue_size': 5, 'ssl_certificate': '', 'cronjob': False, 'numthreads': None, 'quiet': False, 'interfaces': None, 'minthreads': None, 'timeout': 10, 'plain': False, 'nobanner': False}>"
p2706
asbasbasbag49
(g65
g51
NtRp2707
(dp2708
g54
(dp2709
sg63
g2617
sg56
(lp2710
g49
(g70
g51
NtRp2711
(dp2712
g54
(dp2713
g74
g75
ssg63
g2707
sg56
(lp2714
g1681
asbag49
(g70
g51
NtRp2715
(dp2716
g54
(dp2717
g81
g82
ssg63
g2707
sg56
(lp2718
S':'
asbag49
(g70
g51
NtRp2719
(dp2720
g54
(dp2721
sg63
g2707
sg56
(lp2722
g49
(g50
g51
NtRp2723
(dp2724
g54
(dp2725
g62
I4
ssg63
g2719
sg56
(lp2726
S'set([])'
p2727
asbasbasbag49
(g65
g51
NtRp2728
(dp2729
g54
(dp2730
sg63
g2617
sg56
(lp2731
g49
(g70
g51
NtRp2732
(dp2733
g54
(dp2734
g74
g75
ssg63
g2728
sg56
(lp2735
g1703
asbag49
(g70
g51
NtRp2736
(dp2737
g54
(dp2738
g81
g82
ssg63
g2728
sg56
(lp2739
S':'
asbag49
(g70
g51
NtRp2740
(dp2741
g54
(dp2742
sg63
g2728
sg56
(lp2743
g49
(g50
g51
NtRp2744
(dp2745
g54
(dp2746
g62
I4
ssg63
g2740
sg56
(lp2747
g92
asbasbasbag49
(g65
g51
NtRp2748
(dp2749
g54
(dp2750
sg63
g2617
sg56
(lp2751
g49
(g70
g51
NtRp2752
(dp2753
g54
(dp2754
g74
g75
ssg63
g2748
sg56
(lp2755
g1724
asbag49
(g70
g51
NtRp2756
(dp2757
g54
(dp2758
g81
g82
ssg63
g2748
sg56
(lp2759
S':'
asbag49
(g70
g51
NtRp2760
(dp2761
g54
(dp2762
sg63
g2748
sg56
(lp2763
g49
(g50
g51
NtRp2764
(dp2765
g54
(dp2766
g62
I4
ssg63
g2760
sg56
(lp2767
g1737
asbasbasbag49
(g65
g51
NtRp2768
(dp2769
g54
(dp2770
sg63
g2617
sg56
(lp2771
g49
(g70
g51
NtRp2772
(dp2773
g54
(dp2774
g74
g75
ssg63
g2768
sg56
(lp2775
g1922
asbag49
(g70
g51
NtRp2776
(dp2777
g54
(dp2778
g81
g82
ssg63
g2768
sg56
(lp2779
S':'
asbag49
(g70
g51
NtRp2780
(dp2781
g54
(dp2782
sg63
g2768
sg56
(lp2783
g49
(g50
g51
NtRp2784
(dp2785
g54
(dp2786
g62
I4
ssg63
g2780
sg56
(lp2787
g92
asbasbasbag49
(g65
g51
NtRp2788
(dp2789
g54
(dp2790
sg63
g2617
sg56
(lp2791
g49
(g70
g51
NtRp2792
(dp2793
g54
(dp2794
g74
g75
ssg63
g2788
sg56
(lp2795
g1943
asbag49
(g70
g51
NtRp2796
(dp2797
g54
(dp2798
g81
g82
ssg63
g2788
sg56
(lp2799
S':'
asbag49
(g70
g51
NtRp2800
(dp2801
g54
(dp2802
sg63
g2788
sg56
(lp2803
g49
(g50
g51
NtRp2804
(dp2805
g54
(dp2806
g62
I4
ssg63
g2800
sg56
(lp2807
g92
asbasbasbag49
(g65
g51
NtRp2808
(dp2809
g54
(dp2810
sg63
g2617
sg56
(lp2811
g49
(g70
g51
NtRp2812
(dp2813
g54
(dp2814
g74
g75
ssg63
g2808
sg56
(lp2815
g2181
asbag49
(g70
g51
NtRp2816
(dp2817
g54
(dp2818
g81
g82
ssg63
g2808
sg56
(lp2819
S':'
asbag49
(g70
g51
NtRp2820
(dp2821
g54
(dp2822
sg63
g2808
sg56
(lp2823
g49
(g50
g51
NtRp2824
(dp2825
g54
(dp2826
g62
I4
ssg63
g2820
sg56
(lp2827
g2194
asbasbasbag49
(g65
g51
NtRp2828
(dp2829
g54
(dp2830
sg63
g2617
sg56
(lp2831
g49
(g70
g51
NtRp2832
(dp2833
g54
(dp2834
g74
g75
ssg63
g2828
sg56
(lp2835
g2224
asbag49
(g70
g51
NtRp2836
(dp2837
g54
(dp2838
g81
g82
ssg63
g2828
sg56
(lp2839
S':'
asbag49
(g70
g51
NtRp2840
(dp2841
g54
(dp2842
sg63
g2828
sg56
(lp2843
g49
(g50
g51
NtRp2844
(dp2845
g54
(dp2846
g62
I4
ssg63
g2840
sg56
(lp2847
g49
(g58
g51
NtRp2848
(dp2849
g54
(dp2850
g62
I3
ssg63
Nsg56
(lp2851
g49
(g65
g51
NtRp2852
(dp2853
g54
(dp2854
sg63
g2848
sg56
(lp2855
g49
(g70
g51
NtRp2856
(dp2857
g54
(dp2858
sg63
g2852
sg56
(lp2859
g49
(g50
g51
NtRp2860
(dp2861
g54
(dp2862
g62
I3
ssg63
g2856
sg56
(lp2863
S'1'
asbasbasbag49
(g65
g51
NtRp2864
(dp2865
g54
(dp2866
sg63
g2848
sg56
(lp2867
g49
(g70
g51
NtRp2868
(dp2869
g54
(dp2870
sg63
g2864
sg56
(lp2871
g49
(g50
g51
NtRp2872
(dp2873
g54
(dp2874
g62
I3
ssg63
g2868
sg56
(lp2875
S'99'
p2876
asbasbasbag49
(g65
g51
NtRp2877
(dp2878
g54
(dp2879
sg63
g2848
sg56
(lp2880
g49
(g70
g51
NtRp2881
(dp2882
g54
(dp2883
sg63
g2877
sg56
(lp2884
g49
(g50
g51
NtRp2885
(dp2886
g54
(dp2887
g62
I3
ssg63
g2881
sg56
(lp2888
S'3'
asbasbasbag49
(g65
g51
NtRp2889
(dp2890
g54
(dp2891
sg63
g2848
sg56
(lp2892
g49
(g70
g51
NtRp2893
(dp2894
g54
(dp2895
sg63
g2889
sg56
(lp2896
g49
(g50
g51
NtRp2897
(dp2898
g54
(dp2899
g62
I3
ssg63
g2893
sg56
(lp2900
S'datetime.datetime(2011, 12, 9, 21, 5, 4)'
p2901
asbasbasbag49
(g65
g51
NtRp2902
(dp2903
g54
(dp2904
sg63
g2848
sg56
(lp2905
g49
(g70
g51
NtRp2906
(dp2907
g54
(dp2908
sg63
g2902
sg56
(lp2909
g49
(g50
g51
NtRp2910
(dp2911
g54
(dp2912
g62
I3
ssg63
g2906
sg56
(lp2913
g2303
asbasbasbasbasbasbasbasbasbasbasbag49
(g65
g51
NtRp2914
(dp2915
g54
(dp2916
sg63
g59
sg56
(lp2917
g49
(g70
g51
NtRp2918
(dp2919
g54
(dp2920
g74
g75
ssg63
g2914
sg56
(lp2921
S'is_https'
p2922
asbag49
(g70
g51
NtRp2923
(dp2924
g54
(dp2925
g81
g82
ssg63
g2914
sg56
(lp2926
S':'
asbag49
(g70
g51
NtRp2927
(dp2928
g54
(dp2929
sg63
g2914
sg56
(lp2930
g49
(g50
g51
NtRp2931
(dp2932
g54
(dp2933
g62
I5
ssg63
g2927
sg56
(lp2934
g92
asbasbasbag49
(g65
g51
NtRp2935
(dp2936
g54
(dp2937
sg63
g59
sg56
(lp2938
g49
(g70
g51
NtRp2939
(dp2940
g54
(dp2941
g74
g75
ssg63
g2935
sg56
(lp2942
S'is_local'
p2943
asbag49
(g70
g51
NtRp2944
(dp2945
g54
(dp2946
g81
g82
ssg63
g2935
sg56
(lp2947
S':'
asbag49
(g70
g51
NtRp2948
(dp2949
g54
(dp2950
sg63
g2935
sg56
(lp2951
g49
(g50
g51
NtRp2952
(dp2953
g54
(dp2954
g62
I5
ssg63
g2948
sg56
(lp2955
g2412
asbasbasbag49
(g65
g51
NtRp2956
(dp2957
g54
(dp2958
sg63
g59
sg56
(lp2959
g49
(g70
g51
NtRp2960
(dp2961
g54
(dp2962
g74
g75
ssg63
g2956
sg56
(lp2963
S'is_restful'
p2964
asbag49
(g70
g51
NtRp2965
(dp2966
g54
(dp2967
g81
g82
ssg63
g2956
sg56
(lp2968
S':'
asbag49
(g70
g51
NtRp2969
(dp2970
g54
(dp2971
sg63
g2956
sg56
(lp2972
g49
(g50
g51
NtRp2973
(dp2974
g54
(dp2975
g62
I5
ssg63
g2969
sg56
(lp2976
g92
asbasbasbag49
(g65
g51
NtRp2977
(dp2978
g54
(dp2979
sg63
g59
sg56
(lp2980
g49
(g70
g51
NtRp2981
(dp2982
g54
(dp2983
g74
g75
ssg63
g2977
sg56
(lp2984
S'now'
p2985
asbag49
(g70
g51
NtRp2986
(dp2987
g54
(dp2988
g81
g82
ssg63
g2977
sg56
(lp2989
S':'
asbag49
(g70
g51
NtRp2990
(dp2991
g54
(dp2992
sg63
g2977
sg56
(lp2993
g49
(g50
g51
NtRp2994
(dp2995
g54
(dp2996
g62
I5
ssg63
g2990
sg56
(lp2997
S'datetime.datetime(2011, 12, 11, 21, 0, 32, 195258)'
p2998
asbasbasbag49
(g65
g51
NtRp2999
(dp3000
g54
(dp3001
sg63
g59
sg56
(lp3002
g49
(g70
g51
NtRp3003
(dp3004
g54
(dp3005
g74
g75
ssg63
g2999
sg56
(lp3006
S'post_vars'
p3007
asbag49
(g70
g51
NtRp3008
(dp3009
g54
(dp3010
g81
g82
ssg63
g2999
sg56
(lp3011
S':'
asbag49
(g70
g51
NtRp3012
(dp3013
g54
(dp3014
sg63
g2999
sg56
(lp3015
g49
(g50
g51
NtRp3016
(dp3017
g54
(dp3018
g62
I5
ssg63
g3012
sg56
(lp3019
g49
(g58
g51
NtRp3020
(dp3021
g54
(dp3022
g62
I4
ssg63
Nsg56
(lp3023
sbasbasbasbag49
(g65
g51
NtRp3024
(dp3025
g54
(dp3026
sg63
g59
sg56
(lp3027
g49
(g70
g51
NtRp3028
(dp3029
g54
(dp3030
g74
g75
ssg63
g3024
sg56
(lp3031
S'url'
p3032
asbag49
(g70
g51
NtRp3033
(dp3034
g54
(dp3035
g81
g82
ssg63
g3024
sg56
(lp3036
S':'
asbag49
(g70
g51
NtRp3037
(dp3038
g54
(dp3039
sg63
g3024
sg56
(lp3040
g49
(g50
g51
NtRp3041
(dp3042
g54
(dp3043
g62
I5
ssg63
g3037
sg56
(lp3044
S'/plasmid/default/index'
p3045
asbasbasbag49
(g65
g51
NtRp3046
(dp3047
g54
(dp3048
sg63
g59
sg56
(lp3049
g49
(g70
g51
NtRp3050
(dp3051
g54
(dp3052
g74
g75
ssg63
g3046
sg56
(lp3053
S'utcnow'
p3054
asbag49
(g70
g51
NtRp3055
(dp3056
g54
(dp3057
g81
g82
ssg63
g3046
sg56
(lp3058
S':'
asbag49
(g70
g51
NtRp3059
(dp3060
g54
(dp3061
sg63
g3046
sg56
(lp3062
g49
(g50
g51
NtRp3063
(dp3064
g54
(dp3065
g62
I5
ssg63
g3059
sg56
(lp3066
S'datetime.datetime(2011, 12, 12, 3, 0, 32, 195267)'
p3067
asbasbasbag49
(g65
g51
NtRp3068
(dp3069
g54
(dp3070
sg63
g59
sg56
(lp3071
g49
(g70
g51
NtRp3072
(dp3073
g54
(dp3074
g74
g75
ssg63
g3068
sg56
(lp3075
S'uuid'
p3076
asbag49
(g70
g51
NtRp3077
(dp3078
g54
(dp3079
g81
g82
ssg63
g3068
sg56
(lp3080
S':'
asbag49
(g70
g51
NtRp3081
(dp3082
g54
(dp3083
sg63
g3068
sg56
(lp3084
g49
(g50
g51
NtRp3085
(dp3086
g54
(dp3087
g62
I5
ssg63
g3081
sg56
(lp3088
S'plasmid/127.0.0.1.2011-12-11.21-00-32.da7a5866-956a-4596-b2a7-2171cbbc8c13'
p3089
asbasbasbag49
(g65
g51
NtRp3090
(dp3091
g54
(dp3092
sg63
g59
sg56
(lp3093
g49
(g70
g51
NtRp3094
(dp3095
g54
(dp3096
g74
g75
ssg63
g3090
sg56
(lp3097
S'vars'
p3098
asbag49
(g70
g51
NtRp3099
(dp3100
g54
(dp3101
g81
g82
ssg63
g3090
sg56
(lp3102
S':'
asbag49
(g70
g51
NtRp3103
(dp3104
g54
(dp3105
sg63
g3090
sg56
(lp3106
g49
(g50
g51
NtRp3107
(dp3108
g54
(dp3109
g62
I5
ssg63
g3103
sg56
(lp3110
g49
(g58
g51
NtRp3111
(dp3112
g54
(dp3113
g62
I4
ssg63
Nsg56
(lp3114
sbasbasbasbag49
(g65
g51
NtRp3115
(dp3116
g54
(dp3117
sg63
g59
sg56
(lp3118
g49
(g70
g51
NtRp3119
(dp3120
g54
(dp3121
g74
g75
ssg63
g3115
sg56
(lp3122
S'wsgi'
p3123
asbag49
(g70
g51
NtRp3124
(dp3125
g54
(dp3126
g81
g82
ssg63
g3115
sg56
(lp3127
S':'
asbag49
(g70
g51
NtRp3128
(dp3129
g54
(dp3130
sg63
g3115
sg56
(lp3131
g49
(g50
g51
NtRp3132
(dp3133
g54
(dp3134
g62
I5
ssg63
g3128
sg56
(lp3135
g49
(g58
g51
NtRp3136
(dp3137
g54
(dp3138
g62
I4
ssg63
Nsg56
(lp3139
g49
(g65
g51
NtRp3140
(dp3141
g54
(dp3142
sg63
g3136
sg56
(lp3143
g49
(g70
g51
NtRp3144
(dp3145
g54
(dp3146
g74
g75
ssg63
g3140
sg56
(lp3147
S'environ'
p3148
asbag49
(g70
g51
NtRp3149
(dp3150
g54
(dp3151
g81
g82
ssg63
g3140
sg56
(lp3152
S':'
asbag49
(g70
g51
NtRp3153
(dp3154
g54
(dp3155
sg63
g3140
sg56
(lp3156
g49
(g50
g51
NtRp3157
(dp3158
g54
(dp3159
g62
I4
ssg63
g3153
sg56
(lp3160
g49
(g58
g51
NtRp3161
(dp3162
g54
(dp3163
g62
I3
ssg63
Nsg56
(lp3164
g49
(g65
g51
NtRp3165
(dp3166
g54
(dp3167
sg63
g3161
sg56
(lp3168
g49
(g70
g51
NtRp3169
(dp3170
g54
(dp3171
g74
g75
ssg63
g3165
sg56
(lp3172
S'HTTP_ACCEPT'
p3173
asbag49
(g70
g51
NtRp3174
(dp3175
g54
(dp3176
g81
g82
ssg63
g3165
sg56
(lp3177
S':'
asbag49
(g70
g51
NtRp3178
(dp3179
g54
(dp3180
sg63
g3165
sg56
(lp3181
g49
(g50
g51
NtRp3182
(dp3183
g54
(dp3184
g62
I3
ssg63
g3178
sg56
(lp3185
g1759
asbasbasbag49
(g65
g51
NtRp3186
(dp3187
g54
(dp3188
sg63
g3161
sg56
(lp3189
g49
(g70
g51
NtRp3190
(dp3191
g54
(dp3192
g74
g75
ssg63
g3186
sg56
(lp3193
S'HTTP_ACCEPT_CHARSET'
p3194
asbag49
(g70
g51
NtRp3195
(dp3196
g54
(dp3197
g81
g82
ssg63
g3186
sg56
(lp3198
S':'
asbag49
(g70
g51
NtRp3199
(dp3200
g54
(dp3201
sg63
g3186
sg56
(lp3202
g49
(g50
g51
NtRp3203
(dp3204
g54
(dp3205
g62
I3
ssg63
g3199
sg56
(lp3206
g1781
asbasbasbag49
(g65
g51
NtRp3207
(dp3208
g54
(dp3209
sg63
g3161
sg56
(lp3210
g49
(g70
g51
NtRp3211
(dp3212
g54
(dp3213
g74
g75
ssg63
g3207
sg56
(lp3214
S'HTTP_ACCEPT_ENCODING'
p3215
asbag49
(g70
g51
NtRp3216
(dp3217
g54
(dp3218
g81
g82
ssg63
g3207
sg56
(lp3219
S':'
asbag49
(g70
g51
NtRp3220
(dp3221
g54
(dp3222
sg63
g3207
sg56
(lp3223
g49
(g50
g51
NtRp3224
(dp3225
g54
(dp3226
g62
I3
ssg63
g3220
sg56
(lp3227
g1803
asbasbasbag49
(g65
g51
NtRp3228
(dp3229
g54
(dp3230
sg63
g3161
sg56
(lp3231
g49
(g70
g51
NtRp3232
(dp3233
g54
(dp3234
g74
g75
ssg63
g3228
sg56
(lp3235
S'HTTP_ACCEPT_LANGUAGE'
p3236
asbag49
(g70
g51
NtRp3237
(dp3238
g54
(dp3239
g81
g82
ssg63
g3228
sg56
(lp3240
S':'
asbag49
(g70
g51
NtRp3241
(dp3242
g54
(dp3243
sg63
g3228
sg56
(lp3244
g49
(g50
g51
NtRp3245
(dp3246
g54
(dp3247
g62
I3
ssg63
g3241
sg56
(lp3248
g1825
asbasbasbag49
(g65
g51
NtRp3249
(dp3250
g54
(dp3251
sg63
g3161
sg56
(lp3252
g49
(g70
g51
NtRp3253
(dp3254
g54
(dp3255
g74
g75
ssg63
g3249
sg56
(lp3256
S'HTTP_CONNECTION'
p3257
asbag49
(g70
g51
NtRp3258
(dp3259
g54
(dp3260
g81
g82
ssg63
g3249
sg56
(lp3261
S':'
asbag49
(g70
g51
NtRp3262
(dp3263
g54
(dp3264
sg63
g3249
sg56
(lp3265
g49
(g50
g51
NtRp3266
(dp3267
g54
(dp3268
g62
I3
ssg63
g3262
sg56
(lp3269
g1847
asbasbasbag49
(g65
g51
NtRp3270
(dp3271
g54
(dp3272
sg63
g3161
sg56
(lp3273
g49
(g70
g51
NtRp3274
(dp3275
g54
(dp3276
g74
g75
ssg63
g3270
sg56
(lp3277
S'HTTP_COOKIE'
p3278
asbag49
(g70
g51
NtRp3279
(dp3280
g54
(dp3281
g81
g82
ssg63
g3270
sg56
(lp3282
S':'
asbag49
(g70
g51
NtRp3283
(dp3284
g54
(dp3285
sg63
g3270
sg56
(lp3286
g49
(g50
g51
NtRp3287
(dp3288
g54
(dp3289
g62
I3
ssg63
g3283
sg56
(lp3290
g1869
asbasbasbag49
(g65
g51
NtRp3291
(dp3292
g54
(dp3293
sg63
g3161
sg56
(lp3294
g49
(g70
g51
NtRp3295
(dp3296
g54
(dp3297
g74
g75
ssg63
g3291
sg56
(lp3298
S'HTTP_HOST'
p3299
asbag49
(g70
g51
NtRp3300
(dp3301
g54
(dp3302
g81
g82
ssg63
g3291
sg56
(lp3303
S':'
asbag49
(g70
g51
NtRp3304
(dp3305
g54
(dp3306
sg63
g3291
sg56
(lp3307
g49
(g50
g51
NtRp3308
(dp3309
g54
(dp3310
g62
I3
ssg63
g3304
sg56
(lp3311
g1891
asbasbasbag49
(g65
g51
NtRp3312
(dp3313
g54
(dp3314
sg63
g3161
sg56
(lp3315
g49
(g70
g51
NtRp3316
(dp3317
g54
(dp3318
g74
g75
ssg63
g3312
sg56
(lp3319
S'HTTP_USER_AGENT'
p3320
asbag49
(g70
g51
NtRp3321
(dp3322
g54
(dp3323
g81
g82
ssg63
g3312
sg56
(lp3324
S':'
asbag49
(g70
g51
NtRp3325
(dp3326
g54
(dp3327
sg63
g3312
sg56
(lp3328
g49
(g50
g51
NtRp3329
(dp3330
g54
(dp3331
g62
I3
ssg63
g3325
sg56
(lp3332
g1913
asbasbasbag49
(g65
g51
NtRp3333
(dp3334
g54
(dp3335
sg63
g3161
sg56
(lp3336
g49
(g70
g51
NtRp3337
(dp3338
g54
(dp3339
g74
g75
ssg63
g3333
sg56
(lp3340
S'PATH_INFO'
p3341
asbag49
(g70
g51
NtRp3342
(dp3343
g54
(dp3344
g81
g82
ssg63
g3333
sg56
(lp3345
S':'
asbag49
(g70
g51
NtRp3346
(dp3347
g54
(dp3348
sg63
g3333
sg56
(lp3349
g49
(g50
g51
NtRp3350
(dp3351
g54
(dp3352
g62
I3
ssg63
g3346
sg56
(lp3353
g1977
asbasbasbag49
(g65
g51
NtRp3354
(dp3355
g54
(dp3356
sg63
g3161
sg56
(lp3357
g49
(g70
g51
NtRp3358
(dp3359
g54
(dp3360
g74
g75
ssg63
g3354
sg56
(lp3361
S'QUERY_STRING'
p3362
asbag49
(g70
g51
NtRp3363
(dp3364
g54
(dp3365
g81
g82
ssg63
g3354
sg56
(lp3366
S':'
asbag49
(g70
g51
NtRp3367
(dp3368
g54
(dp3369
sg63
g3354
sg56
(lp3370
g49
(g50
g51
NtRp3371
(dp3372
g54
(dp3373
g62
I3
ssg63
g3367
sg56
(lp3374
S''
asbasbasbag49
(g65
g51
NtRp3375
(dp3376
g54
(dp3377
sg63
g3161
sg56
(lp3378
g49
(g70
g51
NtRp3379
(dp3380
g54
(dp3381
g74
g75
ssg63
g3375
sg56
(lp3382
S'REMOTE_ADDR'
p3383
asbag49
(g70
g51
NtRp3384
(dp3385
g54
(dp3386
g81
g82
ssg63
g3375
sg56
(lp3387
S':'
asbag49
(g70
g51
NtRp3388
(dp3389
g54
(dp3390
sg63
g3375
sg56
(lp3391
g49
(g50
g51
NtRp3392
(dp3393
g54
(dp3394
g62
I3
ssg63
g3388
sg56
(lp3395
g182
asbasbasbag49
(g65
g51
NtRp3396
(dp3397
g54
(dp3398
sg63
g3161
sg56
(lp3399
g49
(g70
g51
NtRp3400
(dp3401
g54
(dp3402
g74
g75
ssg63
g3396
sg56
(lp3403
S'REMOTE_PORT'
p3404
asbag49
(g70
g51
NtRp3405
(dp3406
g54
(dp3407
g81
g82
ssg63
g3396
sg56
(lp3408
S':'
asbag49
(g70
g51
NtRp3409
(dp3410
g54
(dp3411
sg63
g3396
sg56
(lp3412
g49
(g50
g51
NtRp3413
(dp3414
g54
(dp3415
g62
I3
ssg63
g3409
sg56
(lp3416
g2041
asbasbasbag49
(g65
g51
NtRp3417
(dp3418
g54
(dp3419
sg63
g3161
sg56
(lp3420
g49
(g70
g51
NtRp3421
(dp3422
g54
(dp3423
g74
g75
ssg63
g3417
sg56
(lp3424
S'REQUEST_METHOD'
p3425
asbag49
(g70
g51
NtRp3426
(dp3427
g54
(dp3428
g81
g82
ssg63
g3417
sg56
(lp3429
S':'
asbag49
(g70
g51
NtRp3430
(dp3431
g54
(dp3432
sg63
g3417
sg56
(lp3433
g49
(g50
g51
NtRp3434
(dp3435
g54
(dp3436
g62
I3
ssg63
g3430
sg56
(lp3437
g2063
asbasbasbag49
(g65
g51
NtRp3438
(dp3439
g54
(dp3440
sg63
g3161
sg56
(lp3441
g49
(g70
g51
NtRp3442
(dp3443
g54
(dp3444
g74
g75
ssg63
g3438
sg56
(lp3445
S'SCRIPT_NAME'
p3446
asbag49
(g70
g51
NtRp3447
(dp3448
g54
(dp3449
g81
g82
ssg63
g3438
sg56
(lp3450
S':'
asbag49
(g70
g51
NtRp3451
(dp3452
g54
(dp3453
sg63
g3438
sg56
(lp3454
g49
(g50
g51
NtRp3455
(dp3456
g54
(dp3457
g62
I3
ssg63
g3451
sg56
(lp3458
S''
asbasbasbag49
(g65
g51
NtRp3459
(dp3460
g54
(dp3461
sg63
g3161
sg56
(lp3462
g49
(g70
g51
NtRp3463
(dp3464
g54
(dp3465
g74
g75
ssg63
g3459
sg56
(lp3466
S'SERVER_NAME'
p3467
asbag49
(g70
g51
NtRp3468
(dp3469
g54
(dp3470
g81
g82
ssg63
g3459
sg56
(lp3471
S':'
asbag49
(g70
g51
NtRp3472
(dp3473
g54
(dp3474
sg63
g3459
sg56
(lp3475
g49
(g50
g51
NtRp3476
(dp3477
g54
(dp3478
g62
I3
ssg63
g3472
sg56
(lp3479
g2106
asbasbasbag49
(g65
g51
NtRp3480
(dp3481
g54
(dp3482
sg63
g3161
sg56
(lp3483
g49
(g70
g51
NtRp3484
(dp3485
g54
(dp3486
g74
g75
ssg63
g3480
sg56
(lp3487
S'SERVER_PORT'
p3488
asbag49
(g70
g51
NtRp3489
(dp3490
g54
(dp3491
g81
g82
ssg63
g3480
sg56
(lp3492
S':'
asbag49
(g70
g51
NtRp3493
(dp3494
g54
(dp3495
sg63
g3480
sg56
(lp3496
g49
(g50
g51
NtRp3497
(dp3498
g54
(dp3499
g62
I3
ssg63
g3493
sg56
(lp3500
g2128
asbasbasbag49
(g65
g51
NtRp3501
(dp3502
g54
(dp3503
sg63
g3161
sg56
(lp3504
g49
(g70
g51
NtRp3505
(dp3506
g54
(dp3507
g74
g75
ssg63
g3501
sg56
(lp3508
S'SERVER_PROTOCOL'
p3509
asbag49
(g70
g51
NtRp3510
(dp3511
g54
(dp3512
g81
g82
ssg63
g3501
sg56
(lp3513
S':'
asbag49
(g70
g51
NtRp3514
(dp3515
g54
(dp3516
sg63
g3501
sg56
(lp3517
g49
(g50
g51
NtRp3518
(dp3519
g54
(dp3520
g62
I3
ssg63
g3514
sg56
(lp3521
g2150
asbasbasbag49
(g65
g51
NtRp3522
(dp3523
g54
(dp3524
sg63
g3161
sg56
(lp3525
g49
(g70
g51
NtRp3526
(dp3527
g54
(dp3528
g74
g75
ssg63
g3522
sg56
(lp3529
S'SERVER_SOFTWARE'
p3530
asbag49
(g70
g51
NtRp3531
(dp3532
g54
(dp3533
g81
g82
ssg63
g3522
sg56
(lp3534
S':'
asbag49
(g70
g51
NtRp3535
(dp3536
g54
(dp3537
sg63
g3522
sg56
(lp3538
g49
(g50
g51
NtRp3539
(dp3540
g54
(dp3541
g62
I3
ssg63
g3535
sg56
(lp3542
g2172
asbasbasbag49
(g65
g51
NtRp3543
(dp3544
g54
(dp3545
sg63
g3161
sg56
(lp3546
g49
(g70
g51
NtRp3547
(dp3548
g54
(dp3549
g74
g75
ssg63
g3543
sg56
(lp3550
S'wsgi.errors'
p3551
asbag49
(g70
g51
NtRp3552
(dp3553
g54
(dp3554
g81
g82
ssg63
g3543
sg56
(lp3555
S':'
asbag49
(g70
g51
NtRp3556
(dp3557
g54
(dp3558
sg63
g3543
sg56
(lp3559
g49
(g50
g51
NtRp3560
(dp3561
g54
(dp3562
g62
I3
ssg63
g3556
sg56
(lp3563
S"<open file '<stderr>', mode 'w' at 0x1620b0>"
p3564
asbasbasbag49
(g65
g51
NtRp3565
(dp3566
g54
(dp3567
sg63
g3161
sg56
(lp3568
g49
(g70
g51
NtRp3569
(dp3570
g54
(dp3571
g74
g75
ssg63
g3565
sg56
(lp3572
S'wsgi.file_wrapper'
p3573
asbag49
(g70
g51
NtRp3574
(dp3575
g54
(dp3576
g81
g82
ssg63
g3565
sg56
(lp3577
S':'
asbag49
(g70
g51
NtRp3578
(dp3579
g54
(dp3580
sg63
g3565
sg56
(lp3581
g49
(g50
g51
NtRp3582
(dp3583
g54
(dp3584
g62
I3
ssg63
g3578
sg56
(lp3585
S'<class wsgiref.util.FileWrapper at 0x7c2840>'
p3586
asbasbasbag49
(g65
g51
NtRp3587
(dp3588
g54
(dp3589
sg63
g3161
sg56
(lp3590
g49
(g70
g51
NtRp3591
(dp3592
g54
(dp3593
g74
g75
ssg63
g3587
sg56
(lp3594
S'wsgi.input'
p3595
asbag49
(g70
g51
NtRp3596
(dp3597
g54
(dp3598
g81
g82
ssg63
g3587
sg56
(lp3599
S':'
asbag49
(g70
g51
NtRp3600
(dp3601
g54
(dp3602
sg63
g3587
sg56
(lp3603
g49
(g50
g51
NtRp3604
(dp3605
g54
(dp3606
g62
I3
ssg63
g3600
sg56
(lp3607
S'<cStringIO.StringO object at 0x14be9e0>'
p3608
asbasbasbag49
(g65
g51
NtRp3609
(dp3610
g54
(dp3611
sg63
g3161
sg56
(lp3612
g49
(g70
g51
NtRp3613
(dp3614
g54
(dp3615
g74
g75
ssg63
g3609
sg56
(lp3616
S'wsgi.multiprocess'
p3617
asbag49
(g70
g51
NtRp3618
(dp3619
g54
(dp3620
g81
g82
ssg63
g3609
sg56
(lp3621
S':'
asbag49
(g70
g51
NtRp3622
(dp3623
g54
(dp3624
sg63
g3609
sg56
(lp3625
g49
(g50
g51
NtRp3626
(dp3627
g54
(dp3628
g62
I3
ssg63
g3622
sg56
(lp3629
g92
asbasbasbag49
(g65
g51
NtRp3630
(dp3631
g54
(dp3632
sg63
g3161
sg56
(lp3633
g49
(g70
g51
NtRp3634
(dp3635
g54
(dp3636
g74
g75
ssg63
g3630
sg56
(lp3637
S'wsgi.multithread'
p3638
asbag49
(g70
g51
NtRp3639
(dp3640
g54
(dp3641
g81
g82
ssg63
g3630
sg56
(lp3642
S':'
asbag49
(g70
g51
NtRp3643
(dp3644
g54
(dp3645
sg63
g3630
sg56
(lp3646
g49
(g50
g51
NtRp3647
(dp3648
g54
(dp3649
g62
I3
ssg63
g3643
sg56
(lp3650
g2412
asbasbasbag49
(g65
g51
NtRp3651
(dp3652
g54
(dp3653
sg63
g3161
sg56
(lp3654
g49
(g70
g51
NtRp3655
(dp3656
g54
(dp3657
g74
g75
ssg63
g3651
sg56
(lp3658
S'wsgi.run_once'
p3659
asbag49
(g70
g51
NtRp3660
(dp3661
g54
(dp3662
g81
g82
ssg63
g3651
sg56
(lp3663
S':'
asbag49
(g70
g51
NtRp3664
(dp3665
g54
(dp3666
sg63
g3651
sg56
(lp3667
g49
(g50
g51
NtRp3668
(dp3669
g54
(dp3670
g62
I3
ssg63
g3664
sg56
(lp3671
g92
asbasbasbag49
(g65
g51
NtRp3672
(dp3673
g54
(dp3674
sg63
g3161
sg56
(lp3675
g49
(g70
g51
NtRp3676
(dp3677
g54
(dp3678
g74
g75
ssg63
g3672
sg56
(lp3679
S'wsgi.url_scheme'
p3680
asbag49
(g70
g51
NtRp3681
(dp3682
g54
(dp3683
g81
g82
ssg63
g3672
sg56
(lp3684
S':'
asbag49
(g70
g51
NtRp3685
(dp3686
g54
(dp3687
sg63
g3672
sg56
(lp3688
g49
(g50
g51
NtRp3689
(dp3690
g54
(dp3691
g62
I3
ssg63
g3685
sg56
(lp3692
g2455
asbasbasbag49
(g65
g51
NtRp3693
(dp3694
g54
(dp3695
sg63
g3161
sg56
(lp3696
g49
(g70
g51
NtRp3697
(dp3698
g54
(dp3699
g74
g75
ssg63
g3693
sg56
(lp3700
S'wsgi.version'
p3701
asbag49
(g70
g51
NtRp3702
(dp3703
g54
(dp3704
g81
g82
ssg63
g3693
sg56
(lp3705
S':'
asbag49
(g70
g51
NtRp3706
(dp3707
g54
(dp3708
sg63
g3693
sg56
(lp3709
g49
(g50
g51
NtRp3710
(dp3711
g54
(dp3712
g62
I3
ssg63
g3706
sg56
(lp3713
S'1'
asbasbasbasbasbasbasbasbasbasbasbasbasbsS'frames'
p3714
(lp3715
(dp3716
S'file'
p3717
S'/Users/mdipierro/Dropbox/web2py/gluon/restricted.py'
p3718
sS'dump'
p3719
(dp3720
S'environment'
p3721
S"{'A': <class 'gluon.html.A'>, 'Auth': <class 'gluon.tools.Auth'>, 'B': <class 'gluon.html.B'>, 'BEAUTIFY': <class 'gluon.html.BEAUTIFY'>, 'BODY': <class 'gluon.html.BODY'>, 'BR': <class 'gluon.html.BR'>, 'BUTTON': <class 'gluon.html.BUTTON'>, 'CAT': <class 'gluon.html.CAT'>, 'CENTER': <class 'gluon.html.CENTER'>, 'CLEANUP': <class 'gluon.validators.CLEANUP'>, ...}"
p3722
sS'ccode'
p3723
S'<code object <module> at 0x79c0b0, file "/Users/...2py/applications/plasmid/models/menu.py", line 1>'
p3724
ssS'lnum'
p3725
I204
sS'lines'
p3726
(dp3727
I199
S'    try:'
p3728
sI200
S'        if type(code) == types.CodeType:'
p3729
sI201
S'            ccode = code'
p3730
sI202
S'        else:'
p3731
sI203
S'            ccode = compile2(code,layer)'
p3732
sI204
S'        exec ccode in environment'
p3733
sI205
S'    except HTTP:'
p3734
sI206
S'        raise'
p3735
sI207
S'    except RestrictedError:'
p3736
sI208
S'        # do not encapsulate (obfuscate) the original RestrictedError'
p3737
ssS'call'
p3738
S'(code="response.title = \'Plasmid\'\\nreponse.subtitle = \'The CMS that replicates pages\'\\n", environment={\'A\': <class \'gluon.html.A\'>, \'Auth\': <class \'gluon.tools.Auth\'>, \'B\': <class \'gluon.html.B\'>, \'BEAUTIFY\': <class \'gluon.html.BEAUTIFY\'>, \'BODY\': <class \'gluon.html.BODY\'>, \'BR\': <class \'gluon.html.BR\'>, \'BUTTON\': <class \'gluon.html.BUTTON\'>, \'CAT\': <class \'gluon.html.CAT\'>, \'CENTER\': <class \'gluon.html.CENTER\'>, \'CLEANUP\': <class \'gluon.validators.CLEANUP\'>, ...}, layer=\'/Users/mdipierro/Dropbox/web2py/applications/plasmid/models/menu.py\')'
p3739
sS'func'
p3740
S'restricted'
p3741
sa(dp3742
g3717
S'/Users/mdipierro/Dropbox/web2py/applications/plasmid/models/menu.py'
p3743
sg3719
(dp3744
S'reponse'
p3745
S'undefined'
p3746
ssg3725
I2
sg3726
(dp3747
I1
S"response.title = 'Plasmid'"
p3748
sI2
S"reponse.subtitle = 'The CMS that replicates pages'"
p3749
ssg3738
S'()'
p3750
sg3740
S'<module>'
p3751
sasS'pyver'
p3752
S'Python 2.5.4: /usr/bin/python2.5'
p3753
sS'session'
p3754
g49
(g50
g51
NtRp3755
(dp3756
g54
(dp3757
sg56
(lp3758
g49
(g58
g51
NtRp3759
(dp3760
g54
(dp3761
g62
I5
ssg63
Nsg56
(lp3762
sbasbsS'etype'
p3763
S"<type 'exceptions.NameError'>"
p3764
sS'date'
p3765
S'Sun Dec 11 21:00:33 2011'
p3766
sS'response'
p3767
g49
(g50
g51
NtRp3768
(dp3769
g54
(dp3770
sg56
(lp3771
g49
(g58
g51
NtRp3772
(dp3773
g54
(dp3774
g62
I5
ssg63
Nsg56
(lp3775
g49
(g65
g51
NtRp3776
(dp3777
g54
(dp3778
sg63
g3772
sg56
(lp3779
g49
(g70
g51
NtRp3780
(dp3781
g54
(dp3782
g74
g75
ssg63
g3776
sg56
(lp3783
g147
asbag49
(g70
g51
NtRp3784
(dp3785
g54
(dp3786
g81
g82
ssg63
g3776
sg56
(lp3787
S':'
asbag49
(g70
g51
NtRp3788
(dp3789
g54
(dp3790
sg63
g3776
sg56
(lp3791
g49
(g50
g51
NtRp3792
(dp3793
g54
(dp3794
g62
I5
ssg63
g3788
sg56
(lp3795
S'<cStringIO.StringO object at 0x14beaa0>'
p3796
asbasbasbag49
(g65
g51
NtRp3797
(dp3798
g54
(dp3799
sg63
g3772
sg56
(lp3800
g49
(g70
g51
NtRp3801
(dp3802
g54
(dp3803
g74
g75
ssg63
g3797
sg56
(lp3804
g213
asbag49
(g70
g51
NtRp3805
(dp3806
g54
(dp3807
g81
g82
ssg63
g3797
sg56
(lp3808
S':'
asbag49
(g70
g51
NtRp3809
(dp3810
g54
(dp3811
sg63
g3797
sg56
(lp3812
g49
(g50
g51
NtRp3813
(dp3814
g54
(dp3815
g62
I5
ssg63
g3809
sg56
(lp3816
g49
(g58
g51
NtRp3817
(dp3818
g54
(dp3819
g62
I4
ssg63
Nsg56
(lp3820
g49
(g65
g51
NtRp3821
(dp3822
g54
(dp3823
sg63
g3817
sg56
(lp3824
g49
(g70
g51
NtRp3825
(dp3826
g54
(dp3827
g74
g75
ssg63
g3821
sg56
(lp3828
S'session_id_plasmid'
p3829
asbag49
(g70
g51
NtRp3830
(dp3831
g54
(dp3832
g81
g82
ssg63
g3821
sg56
(lp3833
S':'
asbag49
(g70
g51
NtRp3834
(dp3835
g54
(dp3836
sg63
g3821
sg56
(lp3837
g49
(g50
g51
NtRp3838
(dp3839
g54
(dp3840
g62
I4
ssg63
g3834
sg56
(lp3841
g49
(g58
g51
NtRp3842
(dp3843
g54
(dp3844
g62
I3
ssg63
Nsg56
(lp3845
g49
(g65
g51
NtRp3846
(dp3847
g54
(dp3848
sg63
g3842
sg56
(lp3849
g49
(g70
g51
NtRp3850
(dp3851
g54
(dp3852
g74
g75
ssg63
g3846
sg56
(lp3853
g263
asbag49
(g70
g51
NtRp3854
(dp3855
g54
(dp3856
g81
g82
ssg63
g3846
sg56
(lp3857
S':'
asbag49
(g70
g51
NtRp3858
(dp3859
g54
(dp3860
sg63
g3846
sg56
(lp3861
g49
(g50
g51
NtRp3862
(dp3863
g54
(dp3864
g62
I3
ssg63
g3858
sg56
(lp3865
S''
asbasbasbag49
(g65
g51
NtRp3866
(dp3867
g54
(dp3868
sg63
g3842
sg56
(lp3869
g49
(g70
g51
NtRp3870
(dp3871
g54
(dp3872
g74
g75
ssg63
g3866
sg56
(lp3873
g284
asbag49
(g70
g51
NtRp3874
(dp3875
g54
(dp3876
g81
g82
ssg63
g3866
sg56
(lp3877
S':'
asbag49
(g70
g51
NtRp3878
(dp3879
g54
(dp3880
sg63
g3866
sg56
(lp3881
g49
(g50
g51
NtRp3882
(dp3883
g54
(dp3884
g62
I3
ssg63
g3878
sg56
(lp3885
S''
asbasbasbag49
(g65
g51
NtRp3886
(dp3887
g54
(dp3888
sg63
g3842
sg56
(lp3889
g49
(g70
g51
NtRp3890
(dp3891
g54
(dp3892
g74
g75
ssg63
g3886
sg56
(lp3893
g305
asbag49
(g70
g51
NtRp3894
(dp3895
g54
(dp3896
g81
g82
ssg63
g3886
sg56
(lp3897
S':'
asbag49
(g70
g51
NtRp3898
(dp3899
g54
(dp3900
sg63
g3886
sg56
(lp3901
g49
(g50
g51
NtRp3902
(dp3903
g54
(dp3904
g62
I3
ssg63
g3898
sg56
(lp3905
S''
asbasbasbag49
(g65
g51
NtRp3906
(dp3907
g54
(dp3908
sg63
g3842
sg56
(lp3909
g49
(g70
g51
NtRp3910
(dp3911
g54
(dp3912
g74
g75
ssg63
g3906
sg56
(lp3913
g326
asbag49
(g70
g51
NtRp3914
(dp3915
g54
(dp3916
g81
g82
ssg63
g3906
sg56
(lp3917
S':'
asbag49
(g70
g51
NtRp3918
(dp3919
g54
(dp3920
sg63
g3906
sg56
(lp3921
g49
(g50
g51
NtRp3922
(dp3923
g54
(dp3924
g62
I3
ssg63
g3918
sg56
(lp3925
S''
asbasbasbag49
(g65
g51
NtRp3926
(dp3927
g54
(dp3928
sg63
g3842
sg56
(lp3929
g49
(g70
g51
NtRp3930
(dp3931
g54
(dp3932
g74
g75
ssg63
g3926
sg56
(lp3933
g347
asbag49
(g70
g51
NtRp3934
(dp3935
g54
(dp3936
g81
g82
ssg63
g3926
sg56
(lp3937
S':'
asbag49
(g70
g51
NtRp3938
(dp3939
g54
(dp3940
sg63
g3926
sg56
(lp3941
g49
(g50
g51
NtRp3942
(dp3943
g54
(dp3944
g62
I3
ssg63
g3938
sg56
(lp3945
S'/'
asbasbasbag49
(g65
g51
NtRp3946
(dp3947
g54
(dp3948
sg63
g3842
sg56
(lp3949
g49
(g70
g51
NtRp3950
(dp3951
g54
(dp3952
g74
g75
ssg63
g3946
sg56
(lp3953
g368
asbag49
(g70
g51
NtRp3954
(dp3955
g54
(dp3956
g81
g82
ssg63
g3946
sg56
(lp3957
S':'
asbag49
(g70
g51
NtRp3958
(dp3959
g54
(dp3960
sg63
g3946
sg56
(lp3961
g49
(g50
g51
NtRp3962
(dp3963
g54
(dp3964
g62
I3
ssg63
g3958
sg56
(lp3965
S''
asbasbasbag49
(g65
g51
NtRp3966
(dp3967
g54
(dp3968
sg63
g3842
sg56
(lp3969
g49
(g70
g51
NtRp3970
(dp3971
g54
(dp3972
g74
g75
ssg63
g3966
sg56
(lp3973
g389
asbag49
(g70
g51
NtRp3974
(dp3975
g54
(dp3976
g81
g82
ssg63
g3966
sg56
(lp3977
S':'
asbag49
(g70
g51
NtRp3978
(dp3979
g54
(dp3980
sg63
g3966
sg56
(lp3981
g49
(g50
g51
NtRp3982
(dp3983
g54
(dp3984
g62
I3
ssg63
g3978
sg56
(lp3985
S''
asbasbasbasbasbasbasbasbasbasbasbag49
(g65
g51
NtRp3986
(dp3987
g54
(dp3988
sg63
g3772
sg56
(lp3989
g49
(g70
g51
NtRp3990
(dp3991
g54
(dp3992
g74
g75
ssg63
g3986
sg56
(lp3993
S'files'
p3994
asbag49
(g70
g51
NtRp3995
(dp3996
g54
(dp3997
g81
g82
ssg63
g3986
sg56
(lp3998
S':'
asbag49
(g70
g51
NtRp3999
(dp4000
g54
(dp4001
sg63
g3986
sg56
(lp4002
g49
(g50
g51
NtRp4003
(dp4004
g54
(dp4005
g62
I5
ssg63
g3999
sg56
(lp4006
g49
(g58
g51
NtRp4007
(dp4008
g54
(dp4009
g62
I4
ssg63
Nsg56
(lp4010
sbasbasbasbag49
(g65
g51
NtRp4011
(dp4012
g54
(dp4013
sg63
g3772
sg56
(lp4014
g49
(g70
g51
NtRp4015
(dp4016
g54
(dp4017
g74
g75
ssg63
g4011
sg56
(lp4018
S'flash'
p4019
asbag49
(g70
g51
NtRp4020
(dp4021
g54
(dp4022
g81
g82
ssg63
g4011
sg56
(lp4023
S':'
asbag49
(g70
g51
NtRp4024
(dp4025
g54
(dp4026
sg63
g4011
sg56
(lp4027
g49
(g50
g51
NtRp4028
(dp4029
g54
(dp4030
g62
I5
ssg63
g4024
sg56
(lp4031
S''
asbasbasbag49
(g65
g51
NtRp4032
(dp4033
g54
(dp4034
sg63
g3772
sg56
(lp4035
g49
(g70
g51
NtRp4036
(dp4037
g54
(dp4038
g74
g75
ssg63
g4032
sg56
(lp4039
S'generic_patterns'
p4040
asbag49
(g70
g51
NtRp4041
(dp4042
g54
(dp4043
g81
g82
ssg63
g4032
sg56
(lp4044
S':'
asbag49
(g70
g51
NtRp4045
(dp4046
g54
(dp4047
sg63
g4032
sg56
(lp4048
g49
(g50
g51
NtRp4049
(dp4050
g54
(dp4051
g62
I5
ssg63
g4045
sg56
(lp4052
g49
(g58
g51
NtRp4053
(dp4054
g54
(dp4055
g62
I4
ssg63
Nsg56
(lp4056
g49
(g65
g51
NtRp4057
(dp4058
g54
(dp4059
sg63
g4053
sg56
(lp4060
g49
(g70
g51
NtRp4061
(dp4062
g54
(dp4063
sg63
g4057
sg56
(lp4064
g49
(g50
g51
NtRp4065
(dp4066
g54
(dp4067
g62
I4
ssg63
g4061
sg56
(lp4068
S'*'
asbasbasbasbasbasbasbag49
(g65
g51
NtRp4069
(dp4070
g54
(dp4071
sg63
g3772
sg56
(lp4072
g49
(g70
g51
NtRp4073
(dp4074
g54
(dp4075
g74
g75
ssg63
g4069
sg56
(lp4076
S'headers'
p4077
asbag49
(g70
g51
NtRp4078
(dp4079
g54
(dp4080
g81
g82
ssg63
g4069
sg56
(lp4081
S':'
asbag49
(g70
g51
NtRp4082
(dp4083
g54
(dp4084
sg63
g4069
sg56
(lp4085
g49
(g50
g51
NtRp4086
(dp4087
g54
(dp4088
g62
I5
ssg63
g4082
sg56
(lp4089
g49
(g58
g51
NtRp4090
(dp4091
g54
(dp4092
g62
I4
ssg63
Nsg56
(lp4093
g49
(g65
g51
NtRp4094
(dp4095
g54
(dp4096
sg63
g4090
sg56
(lp4097
g49
(g70
g51
NtRp4098
(dp4099
g54
(dp4100
g74
g75
ssg63
g4094
sg56
(lp4101
S'Cache-Control'
p4102
asbag49
(g70
g51
NtRp4103
(dp4104
g54
(dp4105
g81
g82
ssg63
g4094
sg56
(lp4106
S':'
asbag49
(g70
g51
NtRp4107
(dp4108
g54
(dp4109
sg63
g4094
sg56
(lp4110
g49
(g50
g51
NtRp4111
(dp4112
g54
(dp4113
g62
I4
ssg63
g4107
sg56
(lp4114
S'no-store, no-cache, must-revalidate, post-check=0, pre-check=0'
p4115
asbasbasbag49
(g65
g51
NtRp4116
(dp4117
g54
(dp4118
sg63
g4090
sg56
(lp4119
g49
(g70
g51
NtRp4120
(dp4121
g54
(dp4122
g74
g75
ssg63
g4116
sg56
(lp4123
S'Content-Type'
p4124
asbag49
(g70
g51
NtRp4125
(dp4126
g54
(dp4127
g81
g82
ssg63
g4116
sg56
(lp4128
S':'
asbag49
(g70
g51
NtRp4129
(dp4130
g54
(dp4131
sg63
g4116
sg56
(lp4132
g49
(g50
g51
NtRp4133
(dp4134
g54
(dp4135
g62
I4
ssg63
g4129
sg56
(lp4136
S'text/html; charset=utf-8'
p4137
asbasbasbag49
(g65
g51
NtRp4138
(dp4139
g54
(dp4140
sg63
g4090
sg56
(lp4141
g49
(g70
g51
NtRp4142
(dp4143
g54
(dp4144
g74
g75
ssg63
g4138
sg56
(lp4145
S'Expires'
p4146
asbag49
(g70
g51
NtRp4147
(dp4148
g54
(dp4149
g81
g82
ssg63
g4138
sg56
(lp4150
S':'
asbag49
(g70
g51
NtRp4151
(dp4152
g54
(dp4153
sg63
g4138
sg56
(lp4154
g49
(g50
g51
NtRp4155
(dp4156
g54
(dp4157
g62
I4
ssg63
g4151
sg56
(lp4158
S'Mon, 12 Dec 2011 03:00:32 GMT'
p4159
asbasbasbag49
(g65
g51
NtRp4160
(dp4161
g54
(dp4162
sg63
g4090
sg56
(lp4163
g49
(g70
g51
NtRp4164
(dp4165
g54
(dp4166
g74
g75
ssg63
g4160
sg56
(lp4167
S'Pragma'
p4168
asbag49
(g70
g51
NtRp4169
(dp4170
g54
(dp4171
g81
g82
ssg63
g4160
sg56
(lp4172
S':'
asbag49
(g70
g51
NtRp4173
(dp4174
g54
(dp4175
sg63
g4160
sg56
(lp4176
g49
(g50
g51
NtRp4177
(dp4178
g54
(dp4179
g62
I4
ssg63
g4173
sg56
(lp4180
S'no-cache'
p4181
asbasbasbag49
(g65
g51
NtRp4182
(dp4183
g54
(dp4184
sg63
g4090
sg56
(lp4185
g49
(g70
g51
NtRp4186
(dp4187
g54
(dp4188
g74
g75
ssg63
g4182
sg56
(lp4189
S'X-Powered-By'
p4190
asbag49
(g70
g51
NtRp4191
(dp4192
g54
(dp4193
g81
g82
ssg63
g4182
sg56
(lp4194
S':'
asbag49
(g70
g51
NtRp4195
(dp4196
g54
(dp4197
sg63
g4182
sg56
(lp4198
g49
(g50
g51
NtRp4199
(dp4200
g54
(dp4201
g62
I4
ssg63
g4195
sg56
(lp4202
S'web2py'
p4203
asbasbasbasbasbasbasbag49
(g65
g51
NtRp4204
(dp4205
g54
(dp4206
sg63
g3772
sg56
(lp4207
g49
(g70
g51
NtRp4208
(dp4209
g54
(dp4210
g74
g75
ssg63
g4204
sg56
(lp4211
S'menu'
p4212
asbag49
(g70
g51
NtRp4213
(dp4214
g54
(dp4215
g81
g82
ssg63
g4204
sg56
(lp4216
S':'
asbag49
(g70
g51
NtRp4217
(dp4218
g54
(dp4219
sg63
g4204
sg56
(lp4220
g49
(g50
g51
NtRp4221
(dp4222
g54
(dp4223
g62
I5
ssg63
g4217
sg56
(lp4224
g49
(g58
g51
NtRp4225
(dp4226
g54
(dp4227
g62
I4
ssg63
Nsg56
(lp4228
sbasbasbasbag49
(g65
g51
NtRp4229
(dp4230
g54
(dp4231
sg63
g3772
sg56
(lp4232
g49
(g70
g51
NtRp4233
(dp4234
g54
(dp4235
g74
g75
ssg63
g4229
sg56
(lp4236
S'meta'
p4237
asbag49
(g70
g51
NtRp4238
(dp4239
g54
(dp4240
g81
g82
ssg63
g4229
sg56
(lp4241
S':'
asbag49
(g70
g51
NtRp4242
(dp4243
g54
(dp4244
sg63
g4229
sg56
(lp4245
g49
(g50
g51
NtRp4246
(dp4247
g54
(dp4248
g62
I5
ssg63
g4242
sg56
(lp4249
g49
(g58
g51
NtRp4250
(dp4251
g54
(dp4252
g62
I4
ssg63
Nsg56
(lp4253
sbasbasbasbag49
(g65
g51
NtRp4254
(dp4255
g54
(dp4256
sg63
g3772
sg56
(lp4257
g49
(g70
g51
NtRp4258
(dp4259
g54
(dp4260
g74
g75
ssg63
g4254
sg56
(lp4261
S'postprocessing'
p4262
asbag49
(g70
g51
NtRp4263
(dp4264
g54
(dp4265
g81
g82
ssg63
g4254
sg56
(lp4266
S':'
asbag49
(g70
g51
NtRp4267
(dp4268
g54
(dp4269
sg63
g4254
sg56
(lp4270
g49
(g50
g51
NtRp4271
(dp4272
g54
(dp4273
g62
I5
ssg63
g4267
sg56
(lp4274
g49
(g58
g51
NtRp4275
(dp4276
g54
(dp4277
g62
I4
ssg63
Nsg56
(lp4278
sbasbasbasbag49
(g65
g51
NtRp4279
(dp4280
g54
(dp4281
sg63
g3772
sg56
(lp4282
g49
(g70
g51
NtRp4283
(dp4284
g54
(dp4285
g74
g75
ssg63
g4279
sg56
(lp4286
S'session_filename'
p4287
asbag49
(g70
g51
NtRp4288
(dp4289
g54
(dp4290
g81
g82
ssg63
g4279
sg56
(lp4291
S':'
asbag49
(g70
g51
NtRp4292
(dp4293
g54
(dp4294
sg63
g4279
sg56
(lp4295
g49
(g50
g51
NtRp4296
(dp4297
g54
(dp4298
g62
I5
ssg63
g4292
sg56
(lp4299
S'/Users/mdipierro/Dropbox/web2py/applications/plasmid/sessions/127.0.0.1-6262edfb-34d6-42eb-ad46-d0ace025dbfa'
p4300
asbasbasbag49
(g65
g51
NtRp4301
(dp4302
g54
(dp4303
sg63
g3772
sg56
(lp4304
g49
(g70
g51
NtRp4305
(dp4306
g54
(dp4307
g74
g75
ssg63
g4301
sg56
(lp4308
S'session_id'
p4309
asbag49
(g70
g51
NtRp4310
(dp4311
g54
(dp4312
g81
g82
ssg63
g4301
sg56
(lp4313
S':'
asbag49
(g70
g51
NtRp4314
(dp4315
g54
(dp4316
sg63
g4301
sg56
(lp4317
g49
(g50
g51
NtRp4318
(dp4319
g54
(dp4320
g62
I5
ssg63
g4314
sg56
(lp4321
S'127.0.0.1-6262edfb-34d6-42eb-ad46-d0ace025dbfa'
p4322
asbasbasbag49
(g65
g51
NtRp4323
(dp4324
g54
(dp4325
sg63
g3772
sg56
(lp4326
g49
(g70
g51
NtRp4327
(dp4328
g54
(dp4329
g74
g75
ssg63
g4323
sg56
(lp4330
S'session_id_name'
p4331
asbag49
(g70
g51
NtRp4332
(dp4333
g54
(dp4334
g81
g82
ssg63
g4323
sg56
(lp4335
S':'
asbag49
(g70
g51
NtRp4336
(dp4337
g54
(dp4338
sg63
g4323
sg56
(lp4339
g49
(g50
g51
NtRp4340
(dp4341
g54
(dp4342
g62
I5
ssg63
g4336
sg56
(lp4343
g3829
asbasbasbag49
(g65
g51
NtRp4344
(dp4345
g54
(dp4346
sg63
g3772
sg56
(lp4347
g49
(g70
g51
NtRp4348
(dp4349
g54
(dp4350
g74
g75
ssg63
g4344
sg56
(lp4351
S'session_new'
p4352
asbag49
(g70
g51
NtRp4353
(dp4354
g54
(dp4355
g81
g82
ssg63
g4344
sg56
(lp4356
S':'
asbag49
(g70
g51
NtRp4357
(dp4358
g54
(dp4359
sg63
g4344
sg56
(lp4360
g49
(g50
g51
NtRp4361
(dp4362
g54
(dp4363
g62
I5
ssg63
g4357
sg56
(lp4364
g2412
asbasbasbag49
(g65
g51
NtRp4365
(dp4366
g54
(dp4367
sg63
g3772
sg56
(lp4368
g49
(g70
g51
NtRp4369
(dp4370
g54
(dp4371
g74
g75
ssg63
g4365
sg56
(lp4372
S'status'
p4373
asbag49
(g70
g51
NtRp4374
(dp4375
g54
(dp4376
g81
g82
ssg63
g4365
sg56
(lp4377
S':'
asbag49
(g70
g51
NtRp4378
(dp4379
g54
(dp4380
sg63
g4365
sg56
(lp4381
g49
(g50
g51
NtRp4382
(dp4383
g54
(dp4384
g62
I5
ssg63
g4378
sg56
(lp4385
S'200'
p4386
asbasbasbag49
(g65
g51
NtRp4387
(dp4388
g54
(dp4389
sg63
g3772
sg56
(lp4390
g49
(g70
g51
NtRp4391
(dp4392
g54
(dp4393
g74
g75
ssg63
g4387
sg56
(lp4394
S'title'
p4395
asbag49
(g70
g51
NtRp4396
(dp4397
g54
(dp4398
g81
g82
ssg63
g4387
sg56
(lp4399
S':'
asbag49
(g70
g51
NtRp4400
(dp4401
g54
(dp4402
sg63
g4387
sg56
(lp4403
g49
(g50
g51
NtRp4404
(dp4405
g54
(dp4406
g62
I5
ssg63
g4400
sg56
(lp4407
S'Plasmid'
p4408
asbasbasbag49
(g65
g51
NtRp4409
(dp4410
g54
(dp4411
sg63
g3772
sg56
(lp4412
g49
(g70
g51
NtRp4413
(dp4414
g54
(dp4415
g74
g75
ssg63
g4409
sg56
(lp4416
g3076
asbag49
(g70
g51
NtRp4417
(dp4418
g54
(dp4419
g81
g82
ssg63
g4409
sg56
(lp4420
S':'
asbag49
(g70
g51
NtRp4421
(dp4422
g54
(dp4423
sg63
g4409
sg56
(lp4424
g49
(g50
g51
NtRp4425
(dp4426
g54
(dp4427
g62
I5
ssg63
g4421
sg56
(lp4428
g3089
asbasbasbag49
(g65
g51
NtRp4429
(dp4430
g54
(dp4431
sg63
g3772
sg56
(lp4432
g49
(g70
g51
NtRp4433
(dp4434
g54
(dp4435
g74
g75
ssg63
g4429
sg56
(lp4436
S'view'
p4437
asbag49
(g70
g51
NtRp4438
(dp4439
g54
(dp4440
g81
g82
ssg63
g4429
sg56
(lp4441
S':'
asbag49
(g70
g51
NtRp4442
(dp4443
g54
(dp4444
sg63
g4429
sg56
(lp4445
g49
(g50
g51
NtRp4446
(dp4447
g54
(dp4448
g62
I5
ssg63
g4442
sg56
(lp4449
S'default/index.html'
p4450
asbasbasbasbasbsS'locals'
p4451
(dp4452
S'Service'
p4453
S"<class 'gluon.tools.Service'>"
p4454
sS'OBJECT'
p4455
S"<class 'gluon.html.OBJECT'>"
p4456
sS'SQLDB'
p4457
S"<class 'gluon.dal.DAL'>"
p4458
sg3754
S"<Storage {'_Session__hash': '\\xc8[\\xd5\\xc1#\\xd8e\\x10\\xe3\\x06\\x0ba\\xddT\\x92m'}>"
p4459
sS'LINK'
p4460
S"<class 'gluon.html.LINK'>"
p4461
sS'BR'
p4462
S"<class 'gluon.html.BR'>"
p4463
sS'local_import'
p4464
S'<function <lambda> at 0x14e8ef0>'
p4465
sS'OPTGROUP'
p4466
S"<class 'gluon.html.OPTGROUP'>"
p4467
sS'PRE'
p4468
S"<class 'gluon.html.PRE'>"
p4469
sS'IS_INT_IN_RANGE'
p4470
S"<class 'gluon.validators.IS_INT_IN_RANGE'>"
p4471
sS'IS_LOWER'
p4472
S"<class 'gluon.validators.IS_LOWER'>"
p4473
sS'IS_STRONG'
p4474
S"<class 'gluon.validators.IS_STRONG'>"
p4475
sS'cache'
p4476
S'<gluon.cache.Cache object at 0x14becb0>'
p4477
sS'IS_IN_DB'
p4478
S"<class 'gluon.validators.IS_IN_DB'>"
p4479
sS'TAG'
p4480
S'<gluon.html.__TAG__ object at 0x5fb850>'
p4481
sS'SQLField'
p4482
S"<class 'gluon.dal.Field'>"
p4483
sS'mail'
p4484
S'<gluon.tools.Mail object at 0x14be6d0>'
p4485
sS'BODY'
p4486
S"<class 'gluon.html.BODY'>"
p4487
sS'IS_DATE_IN_RANGE'
p4488
S"<class 'gluon.validators.IS_DATE_IN_RANGE'>"
p4489
sS'IFRAME'
p4490
S"<class 'gluon.html.IFRAME'>"
p4491
sS'URL'
p4492
S'<function URL at 0x60d130>'
p4493
sS'__file__'
p4494
S"'/Users/mdipierro/Dropbox/web2py/applications/plasmid/models/menu.py'"
p4495
sS'db'
p4496
S"<DAL {'auth_event': <Table {'origin': <gluon.dal... '_id': <gluon.dal.Field object at 0x10bad50>}>}>"
p4497
sS'auth'
p4498
S'<gluon.tools.Auth object at 0x14bee30>'
p4499
sS'P'
S"<class 'gluon.html.P'>"
p4500
sS'TFOOT'
p4501
S"<class 'gluon.html.TFOOT'>"
p4502
sS'XHTML'
p4503
S"<class 'gluon.html.XHTML'>"
p4504
sS'ON'
p4505
g2412
sS'OL'
p4506
S"<class 'gluon.html.OL'>"
p4507
sS'TEXTAREA'
p4508
S"<class 'gluon.html.TEXTAREA'>"
p4509
sS'MENU'
p4510
S"<class 'gluon.html.MENU'>"
p4511
sS'EM'
p4512
S"<class 'gluon.html.EM'>"
p4513
sS'CODE'
p4514
S"<class 'gluon.html.CODE'>"
p4515
sS'HTTP'
p4516
S"<class 'gluon.http.HTTP'>"
p4517
sS'HR'
p4518
S"<class 'gluon.html.HR'>"
p4519
sS'IS_DATETIME'
p4520
S"<class 'gluon.validators.IS_DATETIME'>"
p4521
sS'STYLE'
p4522
S"<class 'gluon.html.STYLE'>"
p4523
sS'LABEL'
p4524
S"<class 'gluon.html.LABEL'>"
p4525
sS'META'
p4526
S"<class 'gluon.html.META'>"
p4527
sS'plugins'
p4528
S'<gluon.tools.PluginManager object at 0x1095d70>'
p4529
sS'SELECT'
p4530
S"<class 'gluon.html.SELECT'>"
p4531
sS'use_janrain'
p4532
S'<function use_janrain at 0x784af0>'
p4533
sS'CENTER'
p4534
S"<class 'gluon.html.CENTER'>"
p4535
sS'prettydate'
p4536
S'<function prettydate at 0x76a230>'
p4537
sS'Crud'
p4538
S"<class 'gluon.tools.Crud'>"
p4539
sS'Auth'
p4540
S"<class 'gluon.tools.Auth'>"
p4541
sS'__builtins__'
p4542
S"{'ArithmeticError': <type 'exceptions.ArithmeticError'>, 'AssertionError': <type 'exceptions.AssertionError'>, 'AttributeError': <type 'exceptions.AttributeError'>, 'BaseException': <type 'exceptions.BaseException'>, 'DeprecationWarning': <type 'exceptions.DeprecationWarning'>, 'EOFError': <type 'exceptions.EOFError'>, 'Ellipsis': Ellipsis, 'EnvironmentError': <type 'exceptions.EnvironmentError'>, 'Exception': <type 'exceptions.Exception'>, 'False': False, ...}"
p4543
sS'HTML'
p4544
S"<class 'gluon.html.HTML'>"
p4545
sS'SQLFORM'
p4546
S"<class 'gluon.sqlhtml.SQLFORM'>"
p4547
sS'LOAD'
p4548
S'<function LOAD at 0x5236b0>'
p4549
sS'redirect'
p4550
S'<function redirect at 0x44f7f0>'
p4551
sS'FIELDSET'
p4552
S"<class 'gluon.html.FIELDSET'>"
p4553
sS'IS_EQUAL_TO'
p4554
S"<class 'gluon.validators.IS_EQUAL_TO'>"
p4555
sS'embed64'
p4556
S'<function embed64 at 0x60dc30>'
p4557
sS'IS_LIST_OF'
p4558
S"<class 'gluon.validators.IS_LIST_OF'>"
p4559
sS'INPUT'
p4560
S"<class 'gluon.html.INPUT'>"
p4561
sS'EMBED'
p4562
S"<class 'gluon.html.EMBED'>"
p4563
sS'FORM'
p4564
S"<class 'gluon.html.FORM'>"
p4565
sS'H2'
p4566
S"<class 'gluon.html.H2'>"
p4567
sS'H3'
p4568
S"<class 'gluon.html.H3'>"
p4569
sS'BUTTON'
p4570
S"<class 'gluon.html.BUTTON'>"
p4571
sS'H1'
p4572
S"<class 'gluon.html.H1'>"
p4573
sS'H6'
p4574
S"<class 'gluon.html.H6'>"
p4575
sS'H4'
p4576
S"<class 'gluon.html.H4'>"
p4577
sS'H5'
p4578
S"<class 'gluon.html.H5'>"
p4579
sS'UL'
p4580
S"<class 'gluon.html.UL'>"
p4581
sS'IS_UPPER'
p4582
S"<class 'gluon.validators.IS_UPPER'>"
p4583
sS'xmlescape'
p4584
S'<function xmlescape at 0x60d0f0>'
p4585
sS'IS_TIME'
p4586
S"<class 'gluon.validators.IS_TIME'>"
p4587
sS'OPTION'
p4588
S"<class 'gluon.html.OPTION'>"
p4589
sS'TITLE'
p4590
S"<class 'gluon.html.TITLE'>"
p4591
sS'CRYPT'
p4592
S"<class 'gluon.validators.CRYPT'>"
p4593
sS'IS_EMPTY_OR'
p4594
S"<class 'gluon.validators.IS_EMPTY_OR'>"
p4595
sS'MARKMIN'
p4596
S"<class 'gluon.html.MARKMIN'>"
p4597
sS'COL'
p4598
S"<class 'gluon.html.COL'>"
p4599
sS'service'
p4600
S'<gluon.tools.Service object at 0x281b930>'
p4601
sS'SCRIPT'
p4602
S"<class 'gluon.html.SCRIPT'>"
p4603
sS'TABLE'
p4604
S"<class 'gluon.html.TABLE'>"
p4605
sS'IS_IPV4'
p4606
S"<class 'gluon.validators.IS_IPV4'>"
p4607
sS'IS_LENGTH'
p4608
S"<class 'gluon.validators.IS_LENGTH'>"
p4609
sS'XML'
p4610
S"<class 'gluon.html.XML'>"
p4611
sS'B'
S"<class 'gluon.html.B'>"
p4612
sS'IMG'
p4613
S"<class 'gluon.html.IMG'>"
p4614
sS'SQLTABLE'
p4615
S"<class 'gluon.sqlhtml.SQLTABLE'>"
p4616
sS'IS_MATCH'
p4617
S"<class 'gluon.validators.IS_MATCH'>"
p4618
sS'IS_ALPHANUMERIC'
p4619
S"<class 'gluon.validators.IS_ALPHANUMERIC'>"
p4620
sS'SPAN'
p4621
S"<class 'gluon.html.SPAN'>"
p4622
sS'IS_SLUG'
p4623
S"<class 'gluon.validators.IS_SLUG'>"
p4624
sS'CLEANUP'
p4625
S"<class 'gluon.validators.CLEANUP'>"
p4626
sS'IS_DATE'
p4627
S"<class 'gluon.validators.IS_DATE'>"
p4628
sS'IS_EMAIL'
p4629
S"<class 'gluon.validators.IS_EMAIL'>"
p4630
sS'IS_NOT_EMPTY'
p4631
S"<class 'gluon.validators.IS_NOT_EMPTY'>"
p4632
sS'IS_FLOAT_IN_RANGE'
p4633
S"<class 'gluon.validators.IS_FLOAT_IN_RANGE'>"
p4634
sS'BEAUTIFY'
p4635
S"<class 'gluon.html.BEAUTIFY'>"
p4636
sS'TBODY'
p4637
S"<class 'gluon.html.TBODY'>"
p4638
sS'CAT'
p4639
S"<class 'gluon.html.CAT'>"
p4640
sS'Field'
p4641
S"<class 'gluon.dal.Field'>"
p4642
sS'DIV'
p4643
S"<class 'gluon.html.DIV'>"
p4644
sS'LEGEND'
p4645
S"<class 'gluon.html.LEGEND'>"
p4646
sS'COLGROUP'
p4647
S"<class 'gluon.html.COLGROUP'>"
p4648
sS'DAL'
p4649
S"<class 'gluon.dal.DAL'>"
p4650
sS'TT'
p4651
S"<class 'gluon.html.TT'>"
p4652
sS'TR'
p4653
S"<class 'gluon.html.TR'>"
p4654
sS'LI'
p4655
S"<class 'gluon.html.LI'>"
p4656
sS'TH'
p4657
S"<class 'gluon.html.TH'>"
p4658
sS'TD'
p4659
S"<class 'gluon.html.TD'>"
p4660
sS'PluginManager'
p4661
S"<class 'gluon.tools.PluginManager'>"
p4662
sS'IS_URL'
p4663
S"<class 'gluon.validators.IS_URL'>"
p4664
sS'A'
S"<class 'gluon.html.A'>"
p4665
sS'HEAD'
p4666
S"<class 'gluon.html.HEAD'>"
p4667
sS'IS_DATETIME_IN_RANGE'
p4668
S"<class 'gluon.validators.IS_DATETIME_IN_RANGE'>"
p4669
sS'IS_IMAGE'
p4670
S"<class 'gluon.validators.IS_IMAGE'>"
p4671
sS'I'
S"<class 'gluon.html.I'>"
p4672
sS'crud'
p4673
S'<gluon.tools.Crud object at 0x14be110>'
p4674
sS'IS_NOT_IN_DB'
p4675
S"<class 'gluon.validators.IS_NOT_IN_DB'>"
p4676
sg3767
S"<Storage {'status': 200, 'body': <cStringIO.Stri...9b0>, 'files': [], 'view': 'default/index.html'}>"
p4677
sS'THEAD'
p4678
S"<class 'gluon.html.THEAD'>"
p4679
sS'IS_NULL_OR'
p4680
S"<class 'gluon.validators.IS_EMPTY_OR'>"
p4681
sg48
S"<Storage {'body': <cStringIO.StringO object at 0..._vars': <Storage {}>, 'post_vars': <Storage {}>}>"
p4682
sS'IS_EXPR'
p4683
S"<class 'gluon.validators.IS_EXPR'>"
p4684
sS'IS_IN_SET'
p4685
S"<class 'gluon.validators.IS_IN_SET'>"
p4686
sS'IS_UPLOAD_FILENAME'
p4687
S"<class 'gluon.validators.IS_UPLOAD_FILENAME'>"
p4688
sS'IS_DECIMAL_IN_RANGE'
p4689
S"<class 'gluon.validators.IS_DECIMAL_IN_RANGE'>"
p4690
sS'T'
S'<gluon.languages.translator object at 0x14bed30>'
p4691
sssS'traceback'
p4692
S'Traceback (most recent call last):\n  File "/Users/mdipierro/Dropbox/web2py/gluon/restricted.py", line 204, in restricted\n    exec ccode in environment\n  File "/Users/mdipierro/Dropbox/web2py/applications/plasmid/models/menu.py", line 2, in <module>\n    reponse.subtitle = \'The CMS that replicates pages\'\nNameError: name \'reponse\' is not defined\n'
p4693
s.