(dp1
S'output'
p2
S"<type 'exceptions.AttributeError'> 'NoneType' object has no attribute 'strip'"
p3
sS'layer'
p4
S'/Users/mdipierro/Dropbox/web2py/applications/inplace/controllers/default.py'
p5
sS'code'
p6
S'# -*- coding: utf-8 -*-\n# developed by Massimo Di Pierro, BSD License\n\nresponse.title=\'Inplace Web Page Editor\'\nresponse.subtitle=\'experimental!\'\n\ndef test():\n    return dict()\n\ndef index():\n    form=SQLFORM.factory(Field(\'url\',requires=IS_URL(),default=\'http://web2py.com\'))\n    if form.process().accepted:\n        redirect(URL(\'edit\',vars=dict(url=form.vars.url)))\n    return dict(form=form)\n\ndef edit():\n    import urllib,re\n    print request.args(0)\n    if request.args(0)==\'post\':\n        return request.vars.value or \'\'\n    elif request.args(0)==\'store\':\n        session.new_html = session.html.split(\'<body\')[0]+\'<body>\'+request.vars.html+\'</body></html>\'\n        return \'ok\'\n    \n    url = request.vars.url\n    try:\n        html = urllib.urlopen(url).read()\n    except IOError:\n        session.flash = \'web page does not exist!\'\n        redirect(URL(\'index\'))\n    session.url = url\n    session.html = html\n    html = re.sub(\'\\s+[\\n]\',\'\\n\',html)\n    html = re.sub(\'>[ \\t]+<\',\'> <\',html)\n    html = re.sub(\'(src|SRC)\\s*=\\s*"/(?!/)\',\'src="\'+\'/\'.join(url.split(\'/\')[:3])+\'/\',html)\n    html = re.sub(\'(src|SRC)\\s*=\\s*"(?!(/|http))\',\'src="\'+\'/\'.join(url.split(\'/\'))+\'/\',html)\n    html = re.sub(\'(href|HREF)\\s*=\\s*"/(?!/)\',\'href="\'+\'/\'.join(url.split(\'/\')[:3])+\'/\',html)\n    html = re.sub(\'(href|HREF)\\s*=\\s*"(?!(/|http))\',\'href="\'+\'/\'.join(url.split(\'/\'))+\'/\',html)\n    html = re.sub(\'url\\(/(?!/)\',\'url(\'+\'/\'.join(url.split(\'/\')[:3])+\'/\',html)\n    html = re.sub(\'url\\((?!(/|http))\',\'url(\'+\'/\'.join(url.split(\'/\'))+\'/\',html)\n    inject = \'<script src="%s" language="javascript"></script>\' % URL(\'static\',\'js/inject.js\')\n    html = html.replace(\'</head>\',inject+\'</head>\')\n    return html\n\ndef page():\n    id = db.clone.insert(url=session.url,html=session.new_html)\n    redirect(URL(\'clone\',args=id))\n\ndef clone():\n    if request.args(0)==\'page\': redirect(URL(\'index\'))\n    return db.clone(request.args(0)).html\n\nresponse._vars=response._caller(edit)\n'
p7
sS'snapshot'
p8
(dp9
S'exception'
p10
(dp11
S'__hash__'
p12
S"<method-wrapper '__hash__' of exceptions.AttributeError object at 0x2a1b2d8>"
p13
sS'__setattr__'
p14
S"<method-wrapper '__setattr__' of exceptions.AttributeError object at 0x2a1b2d8>"
p15
sS'__reduce_ex__'
p16
S'<built-in method __reduce_ex__ of exceptions.AttributeError object at 0x2a1b2d8>'
p17
sS'__getslice__'
p18
S"<method-wrapper '__getslice__' of exceptions.AttributeError object at 0x2a1b2d8>"
p19
sS'__getitem__'
p20
S"<method-wrapper '__getitem__' of exceptions.AttributeError object at 0x2a1b2d8>"
p21
sS'__setstate__'
p22
S'<built-in method __setstate__ of exceptions.AttributeError object at 0x2a1b2d8>'
p23
sS'__reduce__'
p24
S'<built-in method __reduce__ of exceptions.AttributeError object at 0x2a1b2d8>'
p25
sS'__str__'
p26
S"<method-wrapper '__str__' of exceptions.AttributeError object at 0x2a1b2d8>"
p27
sS'args'
p28
S'("\'NoneType\' object has no attribute \'strip\'",)'
p29
sS'__getattribute__'
p30
S"<method-wrapper '__getattribute__' of exceptions.AttributeError object at 0x2a1b2d8>"
p31
sS'__class__'
p32
S"<type 'exceptions.AttributeError'>"
p33
sS'__delattr__'
p34
S"<method-wrapper '__delattr__' of exceptions.AttributeError object at 0x2a1b2d8>"
p35
sS'__repr__'
p36
S"<method-wrapper '__repr__' of exceptions.AttributeError object at 0x2a1b2d8>"
p37
sS'__dict__'
p38
S'{}'
p39
sS'__doc__'
p40
S"'Attribute not found.'"
p41
sS'__init__'
p42
S"<method-wrapper '__init__' of exceptions.AttributeError object at 0x2a1b2d8>"
p43
sS'__new__'
p44
S'<built-in method __new__ of type object at 0xdc140>'
p45
ssS'evalue'
p46
S"'NoneType' object has no attribute 'strip'"
p47
sS'request'
p48
ccopy_reg
_reconstructor
p49
(cgluon.html
BEAUTIFY
p50
c__builtin__
object
p51
NtRp52
(dp53
S'attributes'
p54
(dp55
sS'components'
p56
(lp57
g49
(cgluon.html
TABLE
p58
g51
NtRp59
(dp60
g54
(dp61
S'level'
p62
I5
ssS'parent'
p63
Nsg56
(lp64
g49
(cgluon.html
TR
p65
g51
NtRp66
(dp67
g54
(dp68
sg63
g59
sg56
(lp69
g49
(cgluon.html
TD
p70
g51
NtRp71
(dp72
g54
(dp73
S'_style'
p74
S'font-weight:bold;vertical-align:top'
p75
ssg63
g66
sg56
(lp76
S'ajax'
p77
asbag49
(g70
g51
NtRp78
(dp79
g54
(dp80
S'_valign'
p81
S'top'
p82
ssg63
g66
sg56
(lp83
S':'
asbag49
(g70
g51
NtRp84
(dp85
g54
(dp86
sg63
g66
sg56
(lp87
g49
(g50
g51
NtRp88
(dp89
g54
(dp90
g62
I5
ssg63
g84
sg56
(lp91
S'False'
p92
asbasbasbag49
(g65
g51
NtRp93
(dp94
g54
(dp95
sg63
g59
sg56
(lp96
g49
(g70
g51
NtRp97
(dp98
g54
(dp99
g74
g75
ssg63
g93
sg56
(lp100
S'application'
p101
asbag49
(g70
g51
NtRp102
(dp103
g54
(dp104
g81
g82
ssg63
g93
sg56
(lp105
S':'
asbag49
(g70
g51
NtRp106
(dp107
g54
(dp108
sg63
g93
sg56
(lp109
g49
(g50
g51
NtRp110
(dp111
g54
(dp112
g62
I5
ssg63
g106
sg56
(lp113
S'inplace'
p114
asbasbasbag49
(g65
g51
NtRp115
(dp116
g54
(dp117
sg63
g59
sg56
(lp118
g49
(g70
g51
NtRp119
(dp120
g54
(dp121
g74
g75
ssg63
g115
sg56
(lp122
g28
asbag49
(g70
g51
NtRp123
(dp124
g54
(dp125
g81
g82
ssg63
g115
sg56
(lp126
S':'
asbag49
(g70
g51
NtRp127
(dp128
g54
(dp129
sg63
g115
sg56
(lp130
g49
(g50
g51
NtRp131
(dp132
g54
(dp133
g62
I5
ssg63
g127
sg56
(lp134
g49
(g58
g51
NtRp135
(dp136
g54
(dp137
g62
I4
ssg63
Nsg56
(lp138
sbasbasbasbag49
(g65
g51
NtRp139
(dp140
g54
(dp141
sg63
g59
sg56
(lp142
g49
(g70
g51
NtRp143
(dp144
g54
(dp145
g74
g75
ssg63
g139
sg56
(lp146
S'body'
p147
asbag49
(g70
g51
NtRp148
(dp149
g54
(dp150
g81
g82
ssg63
g139
sg56
(lp151
S':'
asbag49
(g70
g51
NtRp152
(dp153
g54
(dp154
sg63
g139
sg56
(lp155
g49
(g50
g51
NtRp156
(dp157
g54
(dp158
g62
I5
ssg63
g152
sg56
(lp159
S'<cStringIO.StringO object at 0x281c2c0>'
p160
asbasbasbag49
(g65
g51
NtRp161
(dp162
g54
(dp163
sg63
g59
sg56
(lp164
g49
(g70
g51
NtRp165
(dp166
g54
(dp167
g74
g75
ssg63
g161
sg56
(lp168
S'client'
p169
asbag49
(g70
g51
NtRp170
(dp171
g54
(dp172
g81
g82
ssg63
g161
sg56
(lp173
S':'
asbag49
(g70
g51
NtRp174
(dp175
g54
(dp176
sg63
g161
sg56
(lp177
g49
(g50
g51
NtRp178
(dp179
g54
(dp180
g62
I5
ssg63
g174
sg56
(lp181
S'127.0.0.1'
p182
asbasbasbag49
(g65
g51
NtRp183
(dp184
g54
(dp185
sg63
g59
sg56
(lp186
g49
(g70
g51
NtRp187
(dp188
g54
(dp189
g74
g75
ssg63
g183
sg56
(lp190
S'controller'
p191
asbag49
(g70
g51
NtRp192
(dp193
g54
(dp194
g81
g82
ssg63
g183
sg56
(lp195
S':'
asbag49
(g70
g51
NtRp196
(dp197
g54
(dp198
sg63
g183
sg56
(lp199
g49
(g50
g51
NtRp200
(dp201
g54
(dp202
g62
I5
ssg63
g196
sg56
(lp203
S'default'
p204
asbasbasbag49
(g65
g51
NtRp205
(dp206
g54
(dp207
sg63
g59
sg56
(lp208
g49
(g70
g51
NtRp209
(dp210
g54
(dp211
g74
g75
ssg63
g205
sg56
(lp212
S'cookies'
p213
asbag49
(g70
g51
NtRp214
(dp215
g54
(dp216
g81
g82
ssg63
g205
sg56
(lp217
S':'
asbag49
(g70
g51
NtRp218
(dp219
g54
(dp220
sg63
g205
sg56
(lp221
g49
(g50
g51
NtRp222
(dp223
g54
(dp224
g62
I5
ssg63
g218
sg56
(lp225
g49
(g58
g51
NtRp226
(dp227
g54
(dp228
g62
I4
ssg63
Nsg56
(lp229
g49
(g65
g51
NtRp230
(dp231
g54
(dp232
sg63
g226
sg56
(lp233
g49
(g70
g51
NtRp234
(dp235
g54
(dp236
g74
g75
ssg63
g230
sg56
(lp237
S'el-finder-last-finder'
p238
asbag49
(g70
g51
NtRp239
(dp240
g54
(dp241
g81
g82
ssg63
g230
sg56
(lp242
S':'
asbag49
(g70
g51
NtRp243
(dp244
g54
(dp245
sg63
g230
sg56
(lp246
g49
(g50
g51
NtRp247
(dp248
g54
(dp249
g62
I4
ssg63
g243
sg56
(lp250
g49
(g58
g51
NtRp251
(dp252
g54
(dp253
g62
I3
ssg63
Nsg56
(lp254
g49
(g65
g51
NtRp255
(dp256
g54
(dp257
sg63
g251
sg56
(lp258
g49
(g70
g51
NtRp259
(dp260
g54
(dp261
g74
g75
ssg63
g255
sg56
(lp262
S'comment'
p263
asbag49
(g70
g51
NtRp264
(dp265
g54
(dp266
g81
g82
ssg63
g255
sg56
(lp267
S':'
asbag49
(g70
g51
NtRp268
(dp269
g54
(dp270
sg63
g255
sg56
(lp271
g49
(g50
g51
NtRp272
(dp273
g54
(dp274
g62
I3
ssg63
g268
sg56
(lp275
S''
asbasbasbag49
(g65
g51
NtRp276
(dp277
g54
(dp278
sg63
g251
sg56
(lp279
g49
(g70
g51
NtRp280
(dp281
g54
(dp282
g74
g75
ssg63
g276
sg56
(lp283
S'domain'
p284
asbag49
(g70
g51
NtRp285
(dp286
g54
(dp287
g81
g82
ssg63
g276
sg56
(lp288
S':'
asbag49
(g70
g51
NtRp289
(dp290
g54
(dp291
sg63
g276
sg56
(lp292
g49
(g50
g51
NtRp293
(dp294
g54
(dp295
g62
I3
ssg63
g289
sg56
(lp296
S''
asbasbasbag49
(g65
g51
NtRp297
(dp298
g54
(dp299
sg63
g251
sg56
(lp300
g49
(g70
g51
NtRp301
(dp302
g54
(dp303
g74
g75
ssg63
g297
sg56
(lp304
S'expires'
p305
asbag49
(g70
g51
NtRp306
(dp307
g54
(dp308
g81
g82
ssg63
g297
sg56
(lp309
S':'
asbag49
(g70
g51
NtRp310
(dp311
g54
(dp312
sg63
g297
sg56
(lp313
g49
(g50
g51
NtRp314
(dp315
g54
(dp316
g62
I3
ssg63
g310
sg56
(lp317
S''
asbasbasbag49
(g65
g51
NtRp318
(dp319
g54
(dp320
sg63
g251
sg56
(lp321
g49
(g70
g51
NtRp322
(dp323
g54
(dp324
g74
g75
ssg63
g318
sg56
(lp325
S'max-age'
p326
asbag49
(g70
g51
NtRp327
(dp328
g54
(dp329
g81
g82
ssg63
g318
sg56
(lp330
S':'
asbag49
(g70
g51
NtRp331
(dp332
g54
(dp333
sg63
g318
sg56
(lp334
g49
(g50
g51
NtRp335
(dp336
g54
(dp337
g62
I3
ssg63
g331
sg56
(lp338
S''
asbasbasbag49
(g65
g51
NtRp339
(dp340
g54
(dp341
sg63
g251
sg56
(lp342
g49
(g70
g51
NtRp343
(dp344
g54
(dp345
g74
g75
ssg63
g339
sg56
(lp346
S'path'
p347
asbag49
(g70
g51
NtRp348
(dp349
g54
(dp350
g81
g82
ssg63
g339
sg56
(lp351
S':'
asbag49
(g70
g51
NtRp352
(dp353
g54
(dp354
sg63
g339
sg56
(lp355
g49
(g50
g51
NtRp356
(dp357
g54
(dp358
g62
I3
ssg63
g352
sg56
(lp359
S''
asbasbasbag49
(g65
g51
NtRp360
(dp361
g54
(dp362
sg63
g251
sg56
(lp363
g49
(g70
g51
NtRp364
(dp365
g54
(dp366
g74
g75
ssg63
g360
sg56
(lp367
S'secure'
p368
asbag49
(g70
g51
NtRp369
(dp370
g54
(dp371
g81
g82
ssg63
g360
sg56
(lp372
S':'
asbag49
(g70
g51
NtRp373
(dp374
g54
(dp375
sg63
g360
sg56
(lp376
g49
(g50
g51
NtRp377
(dp378
g54
(dp379
g62
I3
ssg63
g373
sg56
(lp380
S''
asbasbasbag49
(g65
g51
NtRp381
(dp382
g54
(dp383
sg63
g251
sg56
(lp384
g49
(g70
g51
NtRp385
(dp386
g54
(dp387
g74
g75
ssg63
g381
sg56
(lp388
S'version'
p389
asbag49
(g70
g51
NtRp390
(dp391
g54
(dp392
g81
g82
ssg63
g381
sg56
(lp393
S':'
asbag49
(g70
g51
NtRp394
(dp395
g54
(dp396
sg63
g381
sg56
(lp397
g49
(g50
g51
NtRp398
(dp399
g54
(dp400
g62
I3
ssg63
g394
sg56
(lp401
S''
asbasbasbasbasbasbasbag49
(g65
g51
NtRp402
(dp403
g54
(dp404
sg63
g226
sg56
(lp405
g49
(g70
g51
NtRp406
(dp407
g54
(dp408
g74
g75
ssg63
g402
sg56
(lp409
S'registered'
p410
asbag49
(g70
g51
NtRp411
(dp412
g54
(dp413
g81
g82
ssg63
g402
sg56
(lp414
S':'
asbag49
(g70
g51
NtRp415
(dp416
g54
(dp417
sg63
g402
sg56
(lp418
g49
(g50
g51
NtRp419
(dp420
g54
(dp421
g62
I4
ssg63
g415
sg56
(lp422
g49
(g58
g51
NtRp423
(dp424
g54
(dp425
g62
I3
ssg63
Nsg56
(lp426
g49
(g65
g51
NtRp427
(dp428
g54
(dp429
sg63
g423
sg56
(lp430
g49
(g70
g51
NtRp431
(dp432
g54
(dp433
g74
g75
ssg63
g427
sg56
(lp434
g263
asbag49
(g70
g51
NtRp435
(dp436
g54
(dp437
g81
g82
ssg63
g427
sg56
(lp438
S':'
asbag49
(g70
g51
NtRp439
(dp440
g54
(dp441
sg63
g427
sg56
(lp442
g49
(g50
g51
NtRp443
(dp444
g54
(dp445
g62
I3
ssg63
g439
sg56
(lp446
S''
asbasbasbag49
(g65
g51
NtRp447
(dp448
g54
(dp449
sg63
g423
sg56
(lp450
g49
(g70
g51
NtRp451
(dp452
g54
(dp453
g74
g75
ssg63
g447
sg56
(lp454
g284
asbag49
(g70
g51
NtRp455
(dp456
g54
(dp457
g81
g82
ssg63
g447
sg56
(lp458
S':'
asbag49
(g70
g51
NtRp459
(dp460
g54
(dp461
sg63
g447
sg56
(lp462
g49
(g50
g51
NtRp463
(dp464
g54
(dp465
g62
I3
ssg63
g459
sg56
(lp466
S''
asbasbasbag49
(g65
g51
NtRp467
(dp468
g54
(dp469
sg63
g423
sg56
(lp470
g49
(g70
g51
NtRp471
(dp472
g54
(dp473
g74
g75
ssg63
g467
sg56
(lp474
g305
asbag49
(g70
g51
NtRp475
(dp476
g54
(dp477
g81
g82
ssg63
g467
sg56
(lp478
S':'
asbag49
(g70
g51
NtRp479
(dp480
g54
(dp481
sg63
g467
sg56
(lp482
g49
(g50
g51
NtRp483
(dp484
g54
(dp485
g62
I3
ssg63
g479
sg56
(lp486
S''
asbasbasbag49
(g65
g51
NtRp487
(dp488
g54
(dp489
sg63
g423
sg56
(lp490
g49
(g70
g51
NtRp491
(dp492
g54
(dp493
g74
g75
ssg63
g487
sg56
(lp494
g326
asbag49
(g70
g51
NtRp495
(dp496
g54
(dp497
g81
g82
ssg63
g487
sg56
(lp498
S':'
asbag49
(g70
g51
NtRp499
(dp500
g54
(dp501
sg63
g487
sg56
(lp502
g49
(g50
g51
NtRp503
(dp504
g54
(dp505
g62
I3
ssg63
g499
sg56
(lp506
S''
asbasbasbag49
(g65
g51
NtRp507
(dp508
g54
(dp509
sg63
g423
sg56
(lp510
g49
(g70
g51
NtRp511
(dp512
g54
(dp513
g74
g75
ssg63
g507
sg56
(lp514
g347
asbag49
(g70
g51
NtRp515
(dp516
g54
(dp517
g81
g82
ssg63
g507
sg56
(lp518
S':'
asbag49
(g70
g51
NtRp519
(dp520
g54
(dp521
sg63
g507
sg56
(lp522
g49
(g50
g51
NtRp523
(dp524
g54
(dp525
g62
I3
ssg63
g519
sg56
(lp526
S''
asbasbasbag49
(g65
g51
NtRp527
(dp528
g54
(dp529
sg63
g423
sg56
(lp530
g49
(g70
g51
NtRp531
(dp532
g54
(dp533
g74
g75
ssg63
g527
sg56
(lp534
g368
asbag49
(g70
g51
NtRp535
(dp536
g54
(dp537
g81
g82
ssg63
g527
sg56
(lp538
S':'
asbag49
(g70
g51
NtRp539
(dp540
g54
(dp541
sg63
g527
sg56
(lp542
g49
(g50
g51
NtRp543
(dp544
g54
(dp545
g62
I3
ssg63
g539
sg56
(lp546
S''
asbasbasbag49
(g65
g51
NtRp547
(dp548
g54
(dp549
sg63
g423
sg56
(lp550
g49
(g70
g51
NtRp551
(dp552
g54
(dp553
g74
g75
ssg63
g547
sg56
(lp554
g389
asbag49
(g70
g51
NtRp555
(dp556
g54
(dp557
g81
g82
ssg63
g547
sg56
(lp558
S':'
asbag49
(g70
g51
NtRp559
(dp560
g54
(dp561
sg63
g547
sg56
(lp562
g49
(g50
g51
NtRp563
(dp564
g54
(dp565
g62
I3
ssg63
g559
sg56
(lp566
S''
asbasbasbasbasbasbasbag49
(g65
g51
NtRp567
(dp568
g54
(dp569
sg63
g226
sg56
(lp570
g49
(g70
g51
NtRp571
(dp572
g54
(dp573
g74
g75
ssg63
g567
sg56
(lp574
S's_nr'
p575
asbag49
(g70
g51
NtRp576
(dp577
g54
(dp578
g81
g82
ssg63
g567
sg56
(lp579
S':'
asbag49
(g70
g51
NtRp580
(dp581
g54
(dp582
sg63
g567
sg56
(lp583
g49
(g50
g51
NtRp584
(dp585
g54
(dp586
g62
I4
ssg63
g580
sg56
(lp587
g49
(g58
g51
NtRp588
(dp589
g54
(dp590
g62
I3
ssg63
Nsg56
(lp591
g49
(g65
g51
NtRp592
(dp593
g54
(dp594
sg63
g588
sg56
(lp595
g49
(g70
g51
NtRp596
(dp597
g54
(dp598
g74
g75
ssg63
g592
sg56
(lp599
g263
asbag49
(g70
g51
NtRp600
(dp601
g54
(dp602
g81
g82
ssg63
g592
sg56
(lp603
S':'
asbag49
(g70
g51
NtRp604
(dp605
g54
(dp606
sg63
g592
sg56
(lp607
g49
(g50
g51
NtRp608
(dp609
g54
(dp610
g62
I3
ssg63
g604
sg56
(lp611
S''
asbasbasbag49
(g65
g51
NtRp612
(dp613
g54
(dp614
sg63
g588
sg56
(lp615
g49
(g70
g51
NtRp616
(dp617
g54
(dp618
g74
g75
ssg63
g612
sg56
(lp619
g284
asbag49
(g70
g51
NtRp620
(dp621
g54
(dp622
g81
g82
ssg63
g612
sg56
(lp623
S':'
asbag49
(g70
g51
NtRp624
(dp625
g54
(dp626
sg63
g612
sg56
(lp627
g49
(g50
g51
NtRp628
(dp629
g54
(dp630
g62
I3
ssg63
g624
sg56
(lp631
S''
asbasbasbag49
(g65
g51
NtRp632
(dp633
g54
(dp634
sg63
g588
sg56
(lp635
g49
(g70
g51
NtRp636
(dp637
g54
(dp638
g74
g75
ssg63
g632
sg56
(lp639
g305
asbag49
(g70
g51
NtRp640
(dp641
g54
(dp642
g81
g82
ssg63
g632
sg56
(lp643
S':'
asbag49
(g70
g51
NtRp644
(dp645
g54
(dp646
sg63
g632
sg56
(lp647
g49
(g50
g51
NtRp648
(dp649
g54
(dp650
g62
I3
ssg63
g644
sg56
(lp651
S''
asbasbasbag49
(g65
g51
NtRp652
(dp653
g54
(dp654
sg63
g588
sg56
(lp655
g49
(g70
g51
NtRp656
(dp657
g54
(dp658
g74
g75
ssg63
g652
sg56
(lp659
g326
asbag49
(g70
g51
NtRp660
(dp661
g54
(dp662
g81
g82
ssg63
g652
sg56
(lp663
S':'
asbag49
(g70
g51
NtRp664
(dp665
g54
(dp666
sg63
g652
sg56
(lp667
g49
(g50
g51
NtRp668
(dp669
g54
(dp670
g62
I3
ssg63
g664
sg56
(lp671
S''
asbasbasbag49
(g65
g51
NtRp672
(dp673
g54
(dp674
sg63
g588
sg56
(lp675
g49
(g70
g51
NtRp676
(dp677
g54
(dp678
g74
g75
ssg63
g672
sg56
(lp679
g347
asbag49
(g70
g51
NtRp680
(dp681
g54
(dp682
g81
g82
ssg63
g672
sg56
(lp683
S':'
asbag49
(g70
g51
NtRp684
(dp685
g54
(dp686
sg63
g672
sg56
(lp687
g49
(g50
g51
NtRp688
(dp689
g54
(dp690
g62
I3
ssg63
g684
sg56
(lp691
S''
asbasbasbag49
(g65
g51
NtRp692
(dp693
g54
(dp694
sg63
g588
sg56
(lp695
g49
(g70
g51
NtRp696
(dp697
g54
(dp698
g74
g75
ssg63
g692
sg56
(lp699
g368
asbag49
(g70
g51
NtRp700
(dp701
g54
(dp702
g81
g82
ssg63
g692
sg56
(lp703
S':'
asbag49
(g70
g51
NtRp704
(dp705
g54
(dp706
sg63
g692
sg56
(lp707
g49
(g50
g51
NtRp708
(dp709
g54
(dp710
g62
I3
ssg63
g704
sg56
(lp711
S''
asbasbasbag49
(g65
g51
NtRp712
(dp713
g54
(dp714
sg63
g588
sg56
(lp715
g49
(g70
g51
NtRp716
(dp717
g54
(dp718
g74
g75
ssg63
g712
sg56
(lp719
g389
asbag49
(g70
g51
NtRp720
(dp721
g54
(dp722
g81
g82
ssg63
g712
sg56
(lp723
S':'
asbag49
(g70
g51
NtRp724
(dp725
g54
(dp726
sg63
g712
sg56
(lp727
g49
(g50
g51
NtRp728
(dp729
g54
(dp730
g62
I3
ssg63
g724
sg56
(lp731
S''
asbasbasbasbasbasbasbag49
(g65
g51
NtRp732
(dp733
g54
(dp734
sg63
g226
sg56
(lp735
g49
(g70
g51
NtRp736
(dp737
g54
(dp738
g74
g75
ssg63
g732
sg56
(lp739
S'session_id_admin'
p740
asbag49
(g70
g51
NtRp741
(dp742
g54
(dp743
g81
g82
ssg63
g732
sg56
(lp744
S':'
asbag49
(g70
g51
NtRp745
(dp746
g54
(dp747
sg63
g732
sg56
(lp748
g49
(g50
g51
NtRp749
(dp750
g54
(dp751
g62
I4
ssg63
g745
sg56
(lp752
g49
(g58
g51
NtRp753
(dp754
g54
(dp755
g62
I3
ssg63
Nsg56
(lp756
g49
(g65
g51
NtRp757
(dp758
g54
(dp759
sg63
g753
sg56
(lp760
g49
(g70
g51
NtRp761
(dp762
g54
(dp763
g74
g75
ssg63
g757
sg56
(lp764
g263
asbag49
(g70
g51
NtRp765
(dp766
g54
(dp767
g81
g82
ssg63
g757
sg56
(lp768
S':'
asbag49
(g70
g51
NtRp769
(dp770
g54
(dp771
sg63
g757
sg56
(lp772
g49
(g50
g51
NtRp773
(dp774
g54
(dp775
g62
I3
ssg63
g769
sg56
(lp776
S''
asbasbasbag49
(g65
g51
NtRp777
(dp778
g54
(dp779
sg63
g753
sg56
(lp780
g49
(g70
g51
NtRp781
(dp782
g54
(dp783
g74
g75
ssg63
g777
sg56
(lp784
g284
asbag49
(g70
g51
NtRp785
(dp786
g54
(dp787
g81
g82
ssg63
g777
sg56
(lp788
S':'
asbag49
(g70
g51
NtRp789
(dp790
g54
(dp791
sg63
g777
sg56
(lp792
g49
(g50
g51
NtRp793
(dp794
g54
(dp795
g62
I3
ssg63
g789
sg56
(lp796
S''
asbasbasbag49
(g65
g51
NtRp797
(dp798
g54
(dp799
sg63
g753
sg56
(lp800
g49
(g70
g51
NtRp801
(dp802
g54
(dp803
g74
g75
ssg63
g797
sg56
(lp804
g305
asbag49
(g70
g51
NtRp805
(dp806
g54
(dp807
g81
g82
ssg63
g797
sg56
(lp808
S':'
asbag49
(g70
g51
NtRp809
(dp810
g54
(dp811
sg63
g797
sg56
(lp812
g49
(g50
g51
NtRp813
(dp814
g54
(dp815
g62
I3
ssg63
g809
sg56
(lp816
S''
asbasbasbag49
(g65
g51
NtRp817
(dp818
g54
(dp819
sg63
g753
sg56
(lp820
g49
(g70
g51
NtRp821
(dp822
g54
(dp823
g74
g75
ssg63
g817
sg56
(lp824
g326
asbag49
(g70
g51
NtRp825
(dp826
g54
(dp827
g81
g82
ssg63
g817
sg56
(lp828
S':'
asbag49
(g70
g51
NtRp829
(dp830
g54
(dp831
sg63
g817
sg56
(lp832
g49
(g50
g51
NtRp833
(dp834
g54
(dp835
g62
I3
ssg63
g829
sg56
(lp836
S''
asbasbasbag49
(g65
g51
NtRp837
(dp838
g54
(dp839
sg63
g753
sg56
(lp840
g49
(g70
g51
NtRp841
(dp842
g54
(dp843
g74
g75
ssg63
g837
sg56
(lp844
g347
asbag49
(g70
g51
NtRp845
(dp846
g54
(dp847
g81
g82
ssg63
g837
sg56
(lp848
S':'
asbag49
(g70
g51
NtRp849
(dp850
g54
(dp851
sg63
g837
sg56
(lp852
g49
(g50
g51
NtRp853
(dp854
g54
(dp855
g62
I3
ssg63
g849
sg56
(lp856
S''
asbasbasbag49
(g65
g51
NtRp857
(dp858
g54
(dp859
sg63
g753
sg56
(lp860
g49
(g70
g51
NtRp861
(dp862
g54
(dp863
g74
g75
ssg63
g857
sg56
(lp864
g368
asbag49
(g70
g51
NtRp865
(dp866
g54
(dp867
g81
g82
ssg63
g857
sg56
(lp868
S':'
asbag49
(g70
g51
NtRp869
(dp870
g54
(dp871
sg63
g857
sg56
(lp872
g49
(g50
g51
NtRp873
(dp874
g54
(dp875
g62
I3
ssg63
g869
sg56
(lp876
S''
asbasbasbag49
(g65
g51
NtRp877
(dp878
g54
(dp879
sg63
g753
sg56
(lp880
g49
(g70
g51
NtRp881
(dp882
g54
(dp883
g74
g75
ssg63
g877
sg56
(lp884
g389
asbag49
(g70
g51
NtRp885
(dp886
g54
(dp887
g81
g82
ssg63
g877
sg56
(lp888
S':'
asbag49
(g70
g51
NtRp889
(dp890
g54
(dp891
sg63
g877
sg56
(lp892
g49
(g50
g51
NtRp893
(dp894
g54
(dp895
g62
I3
ssg63
g889
sg56
(lp896
S''
asbasbasbasbasbasbasbag49
(g65
g51
NtRp897
(dp898
g54
(dp899
sg63
g226
sg56
(lp900
g49
(g70
g51
NtRp901
(dp902
g54
(dp903
g74
g75
ssg63
g897
sg56
(lp904
S'session_id_cms'
p905
asbag49
(g70
g51
NtRp906
(dp907
g54
(dp908
g81
g82
ssg63
g897
sg56
(lp909
S':'
asbag49
(g70
g51
NtRp910
(dp911
g54
(dp912
sg63
g897
sg56
(lp913
g49
(g50
g51
NtRp914
(dp915
g54
(dp916
g62
I4
ssg63
g910
sg56
(lp917
g49
(g58
g51
NtRp918
(dp919
g54
(dp920
g62
I3
ssg63
Nsg56
(lp921
g49
(g65
g51
NtRp922
(dp923
g54
(dp924
sg63
g918
sg56
(lp925
g49
(g70
g51
NtRp926
(dp927
g54
(dp928
g74
g75
ssg63
g922
sg56
(lp929
g263
asbag49
(g70
g51
NtRp930
(dp931
g54
(dp932
g81
g82
ssg63
g922
sg56
(lp933
S':'
asbag49
(g70
g51
NtRp934
(dp935
g54
(dp936
sg63
g922
sg56
(lp937
g49
(g50
g51
NtRp938
(dp939
g54
(dp940
g62
I3
ssg63
g934
sg56
(lp941
S''
asbasbasbag49
(g65
g51
NtRp942
(dp943
g54
(dp944
sg63
g918
sg56
(lp945
g49
(g70
g51
NtRp946
(dp947
g54
(dp948
g74
g75
ssg63
g942
sg56
(lp949
g284
asbag49
(g70
g51
NtRp950
(dp951
g54
(dp952
g81
g82
ssg63
g942
sg56
(lp953
S':'
asbag49
(g70
g51
NtRp954
(dp955
g54
(dp956
sg63
g942
sg56
(lp957
g49
(g50
g51
NtRp958
(dp959
g54
(dp960
g62
I3
ssg63
g954
sg56
(lp961
S''
asbasbasbag49
(g65
g51
NtRp962
(dp963
g54
(dp964
sg63
g918
sg56
(lp965
g49
(g70
g51
NtRp966
(dp967
g54
(dp968
g74
g75
ssg63
g962
sg56
(lp969
g305
asbag49
(g70
g51
NtRp970
(dp971
g54
(dp972
g81
g82
ssg63
g962
sg56
(lp973
S':'
asbag49
(g70
g51
NtRp974
(dp975
g54
(dp976
sg63
g962
sg56
(lp977
g49
(g50
g51
NtRp978
(dp979
g54
(dp980
g62
I3
ssg63
g974
sg56
(lp981
S''
asbasbasbag49
(g65
g51
NtRp982
(dp983
g54
(dp984
sg63
g918
sg56
(lp985
g49
(g70
g51
NtRp986
(dp987
g54
(dp988
g74
g75
ssg63
g982
sg56
(lp989
g326
asbag49
(g70
g51
NtRp990
(dp991
g54
(dp992
g81
g82
ssg63
g982
sg56
(lp993
S':'
asbag49
(g70
g51
NtRp994
(dp995
g54
(dp996
sg63
g982
sg56
(lp997
g49
(g50
g51
NtRp998
(dp999
g54
(dp1000
g62
I3
ssg63
g994
sg56
(lp1001
S''
asbasbasbag49
(g65
g51
NtRp1002
(dp1003
g54
(dp1004
sg63
g918
sg56
(lp1005
g49
(g70
g51
NtRp1006
(dp1007
g54
(dp1008
g74
g75
ssg63
g1002
sg56
(lp1009
g347
asbag49
(g70
g51
NtRp1010
(dp1011
g54
(dp1012
g81
g82
ssg63
g1002
sg56
(lp1013
S':'
asbag49
(g70
g51
NtRp1014
(dp1015
g54
(dp1016
sg63
g1002
sg56
(lp1017
g49
(g50
g51
NtRp1018
(dp1019
g54
(dp1020
g62
I3
ssg63
g1014
sg56
(lp1021
S''
asbasbasbag49
(g65
g51
NtRp1022
(dp1023
g54
(dp1024
sg63
g918
sg56
(lp1025
g49
(g70
g51
NtRp1026
(dp1027
g54
(dp1028
g74
g75
ssg63
g1022
sg56
(lp1029
g368
asbag49
(g70
g51
NtRp1030
(dp1031
g54
(dp1032
g81
g82
ssg63
g1022
sg56
(lp1033
S':'
asbag49
(g70
g51
NtRp1034
(dp1035
g54
(dp1036
sg63
g1022
sg56
(lp1037
g49
(g50
g51
NtRp1038
(dp1039
g54
(dp1040
g62
I3
ssg63
g1034
sg56
(lp1041
S''
asbasbasbag49
(g65
g51
NtRp1042
(dp1043
g54
(dp1044
sg63
g918
sg56
(lp1045
g49
(g70
g51
NtRp1046
(dp1047
g54
(dp1048
g74
g75
ssg63
g1042
sg56
(lp1049
g389
asbag49
(g70
g51
NtRp1050
(dp1051
g54
(dp1052
g81
g82
ssg63
g1042
sg56
(lp1053
S':'
asbag49
(g70
g51
NtRp1054
(dp1055
g54
(dp1056
sg63
g1042
sg56
(lp1057
g49
(g50
g51
NtRp1058
(dp1059
g54
(dp1060
g62
I3
ssg63
g1054
sg56
(lp1061
S''
asbasbasbasbasbasbasbag49
(g65
g51
NtRp1062
(dp1063
g54
(dp1064
sg63
g226
sg56
(lp1065
g49
(g70
g51
NtRp1066
(dp1067
g54
(dp1068
g74
g75
ssg63
g1062
sg56
(lp1069
S'session_id_inplace'
p1070
asbag49
(g70
g51
NtRp1071
(dp1072
g54
(dp1073
g81
g82
ssg63
g1062
sg56
(lp1074
S':'
asbag49
(g70
g51
NtRp1075
(dp1076
g54
(dp1077
sg63
g1062
sg56
(lp1078
g49
(g50
g51
NtRp1079
(dp1080
g54
(dp1081
g62
I4
ssg63
g1075
sg56
(lp1082
g49
(g58
g51
NtRp1083
(dp1084
g54
(dp1085
g62
I3
ssg63
Nsg56
(lp1086
g49
(g65
g51
NtRp1087
(dp1088
g54
(dp1089
sg63
g1083
sg56
(lp1090
g49
(g70
g51
NtRp1091
(dp1092
g54
(dp1093
g74
g75
ssg63
g1087
sg56
(lp1094
g263
asbag49
(g70
g51
NtRp1095
(dp1096
g54
(dp1097
g81
g82
ssg63
g1087
sg56
(lp1098
S':'
asbag49
(g70
g51
NtRp1099
(dp1100
g54
(dp1101
sg63
g1087
sg56
(lp1102
g49
(g50
g51
NtRp1103
(dp1104
g54
(dp1105
g62
I3
ssg63
g1099
sg56
(lp1106
S''
asbasbasbag49
(g65
g51
NtRp1107
(dp1108
g54
(dp1109
sg63
g1083
sg56
(lp1110
g49
(g70
g51
NtRp1111
(dp1112
g54
(dp1113
g74
g75
ssg63
g1107
sg56
(lp1114
g284
asbag49
(g70
g51
NtRp1115
(dp1116
g54
(dp1117
g81
g82
ssg63
g1107
sg56
(lp1118
S':'
asbag49
(g70
g51
NtRp1119
(dp1120
g54
(dp1121
sg63
g1107
sg56
(lp1122
g49
(g50
g51
NtRp1123
(dp1124
g54
(dp1125
g62
I3
ssg63
g1119
sg56
(lp1126
S''
asbasbasbag49
(g65
g51
NtRp1127
(dp1128
g54
(dp1129
sg63
g1083
sg56
(lp1130
g49
(g70
g51
NtRp1131
(dp1132
g54
(dp1133
g74
g75
ssg63
g1127
sg56
(lp1134
g305
asbag49
(g70
g51
NtRp1135
(dp1136
g54
(dp1137
g81
g82
ssg63
g1127
sg56
(lp1138
S':'
asbag49
(g70
g51
NtRp1139
(dp1140
g54
(dp1141
sg63
g1127
sg56
(lp1142
g49
(g50
g51
NtRp1143
(dp1144
g54
(dp1145
g62
I3
ssg63
g1139
sg56
(lp1146
S''
asbasbasbag49
(g65
g51
NtRp1147
(dp1148
g54
(dp1149
sg63
g1083
sg56
(lp1150
g49
(g70
g51
NtRp1151
(dp1152
g54
(dp1153
g74
g75
ssg63
g1147
sg56
(lp1154
g326
asbag49
(g70
g51
NtRp1155
(dp1156
g54
(dp1157
g81
g82
ssg63
g1147
sg56
(lp1158
S':'
asbag49
(g70
g51
NtRp1159
(dp1160
g54
(dp1161
sg63
g1147
sg56
(lp1162
g49
(g50
g51
NtRp1163
(dp1164
g54
(dp1165
g62
I3
ssg63
g1159
sg56
(lp1166
S''
asbasbasbag49
(g65
g51
NtRp1167
(dp1168
g54
(dp1169
sg63
g1083
sg56
(lp1170
g49
(g70
g51
NtRp1171
(dp1172
g54
(dp1173
g74
g75
ssg63
g1167
sg56
(lp1174
g347
asbag49
(g70
g51
NtRp1175
(dp1176
g54
(dp1177
g81
g82
ssg63
g1167
sg56
(lp1178
S':'
asbag49
(g70
g51
NtRp1179
(dp1180
g54
(dp1181
sg63
g1167
sg56
(lp1182
g49
(g50
g51
NtRp1183
(dp1184
g54
(dp1185
g62
I3
ssg63
g1179
sg56
(lp1186
S''
asbasbasbag49
(g65
g51
NtRp1187
(dp1188
g54
(dp1189
sg63
g1083
sg56
(lp1190
g49
(g70
g51
NtRp1191
(dp1192
g54
(dp1193
g74
g75
ssg63
g1187
sg56
(lp1194
g368
asbag49
(g70
g51
NtRp1195
(dp1196
g54
(dp1197
g81
g82
ssg63
g1187
sg56
(lp1198
S':'
asbag49
(g70
g51
NtRp1199
(dp1200
g54
(dp1201
sg63
g1187
sg56
(lp1202
g49
(g50
g51
NtRp1203
(dp1204
g54
(dp1205
g62
I3
ssg63
g1199
sg56
(lp1206
S''
asbasbasbag49
(g65
g51
NtRp1207
(dp1208
g54
(dp1209
sg63
g1083
sg56
(lp1210
g49
(g70
g51
NtRp1211
(dp1212
g54
(dp1213
g74
g75
ssg63
g1207
sg56
(lp1214
g389
asbag49
(g70
g51
NtRp1215
(dp1216
g54
(dp1217
g81
g82
ssg63
g1207
sg56
(lp1218
S':'
asbag49
(g70
g51
NtRp1219
(dp1220
g54
(dp1221
sg63
g1207
sg56
(lp1222
g49
(g50
g51
NtRp1223
(dp1224
g54
(dp1225
g62
I3
ssg63
g1219
sg56
(lp1226
S''
asbasbasbasbasbasbasbasbasbasbasbag49
(g65
g51
NtRp1227
(dp1228
g54
(dp1229
sg63
g59
sg56
(lp1230
g49
(g70
g51
NtRp1231
(dp1232
g54
(dp1233
g74
g75
ssg63
g1227
sg56
(lp1234
S'env'
p1235
asbag49
(g70
g51
NtRp1236
(dp1237
g54
(dp1238
g81
g82
ssg63
g1227
sg56
(lp1239
S':'
asbag49
(g70
g51
NtRp1240
(dp1241
g54
(dp1242
sg63
g1227
sg56
(lp1243
g49
(g50
g51
NtRp1244
(dp1245
g54
(dp1246
g62
I5
ssg63
g1240
sg56
(lp1247
g49
(g58
g51
NtRp1248
(dp1249
g54
(dp1250
g62
I4
ssg63
Nsg56
(lp1251
g49
(g65
g51
NtRp1252
(dp1253
g54
(dp1254
sg63
g1248
sg56
(lp1255
g49
(g70
g51
NtRp1256
(dp1257
g54
(dp1258
g74
g75
ssg63
g1252
sg56
(lp1259
S'app_folders'
p1260
asbag49
(g70
g51
NtRp1261
(dp1262
g54
(dp1263
g81
g82
ssg63
g1252
sg56
(lp1264
S':'
asbag49
(g70
g51
NtRp1265
(dp1266
g54
(dp1267
sg63
g1252
sg56
(lp1268
g49
(g50
g51
NtRp1269
(dp1270
g54
(dp1271
g62
I4
ssg63
g1265
sg56
(lp1272
S"set(['/Users/mdipierro/Dropbox/web2py/applications/inplace/', '/Users/mdipierro/Dropbox/web2py/applications/cms/', '/Users/mdipierro/Dropbox/web2py/applications/admin/'])"
p1273
asbasbasbag49
(g65
g51
NtRp1274
(dp1275
g54
(dp1276
sg63
g1248
sg56
(lp1277
g49
(g70
g51
NtRp1278
(dp1279
g54
(dp1280
g74
g75
ssg63
g1274
sg56
(lp1281
S'applications_parent'
p1282
asbag49
(g70
g51
NtRp1283
(dp1284
g54
(dp1285
g81
g82
ssg63
g1274
sg56
(lp1286
S':'
asbag49
(g70
g51
NtRp1287
(dp1288
g54
(dp1289
sg63
g1274
sg56
(lp1290
g49
(g50
g51
NtRp1291
(dp1292
g54
(dp1293
g62
I4
ssg63
g1287
sg56
(lp1294
S'/Users/mdipierro/Dropbox/web2py'
p1295
asbasbasbag49
(g65
g51
NtRp1296
(dp1297
g54
(dp1298
sg63
g1248
sg56
(lp1299
g49
(g70
g51
NtRp1300
(dp1301
g54
(dp1302
g74
g75
ssg63
g1296
sg56
(lp1303
S'cmd_args'
p1304
asbag49
(g70
g51
NtRp1305
(dp1306
g54
(dp1307
g81
g82
ssg63
g1296
sg56
(lp1308
S':'
asbag49
(g70
g51
NtRp1309
(dp1310
g54
(dp1311
sg63
g1296
sg56
(lp1312
g49
(g50
g51
NtRp1313
(dp1314
g54
(dp1315
g62
I4
ssg63
g1309
sg56
(lp1316
g49
(g58
g51
NtRp1317
(dp1318
g54
(dp1319
g62
I3
ssg63
Nsg56
(lp1320
sbasbasbasbag49
(g65
g51
NtRp1321
(dp1322
g54
(dp1323
sg63
g1248
sg56
(lp1324
g49
(g70
g51
NtRp1325
(dp1326
g54
(dp1327
g74
g75
ssg63
g1321
sg56
(lp1328
S'cmd_options'
p1329
asbag49
(g70
g51
NtRp1330
(dp1331
g54
(dp1332
g81
g82
ssg63
g1321
sg56
(lp1333
S':'
asbag49
(g70
g51
NtRp1334
(dp1335
g54
(dp1336
sg63
g1321
sg56
(lp1337
g49
(g50
g51
NtRp1338
(dp1339
g54
(dp1340
g62
I4
ssg63
g1334
sg56
(lp1341
S"<Values at 0x153a378: {'verbose': False, 'ip': '127.0.0.1', 'shutdown_timeout': 5, 'taskbar': False, 'nocron': False, 'pid_filename': 'httpserver.pid', 'maxthreads': None, 'softcron': False, 'server_name': 'massimo-di-pierros-macbook-2.local', 'bpython': False, 'nogui': False, 'port': 8000, 'extcron': False, 'debuglevel': 30, 'test': None, 'folder': '/Users/mdipierro/Dropbox/web2py', 'config': '', 'import_models': False, 'winservice': '', 'shell': None, 'run': '', 'log_filename': 'httpserver.log', 'args': [''], 'socket_timeout': 1, 'ssl_ca_certificate': None, 'scheduler': None, 'profiler_filename': None, 'ssl_private_key': '', 'password': 'hello', 'request_queue_size': 5, 'ssl_certificate': '', 'cronjob': False, 'numthreads': None, 'quiet': False, 'interfaces': None, 'minthreads': None, 'timeout': 10, 'plain': False, 'nobanner': False}>"
p1342
asbasbasbag49
(g65
g51
NtRp1343
(dp1344
g54
(dp1345
sg63
g1248
sg56
(lp1346
g49
(g70
g51
NtRp1347
(dp1348
g54
(dp1349
g74
g75
ssg63
g1343
sg56
(lp1350
S'db_sessions'
p1351
asbag49
(g70
g51
NtRp1352
(dp1353
g54
(dp1354
g81
g82
ssg63
g1343
sg56
(lp1355
S':'
asbag49
(g70
g51
NtRp1356
(dp1357
g54
(dp1358
sg63
g1343
sg56
(lp1359
g49
(g50
g51
NtRp1360
(dp1361
g54
(dp1362
g62
I4
ssg63
g1356
sg56
(lp1363
S'set([])'
p1364
asbasbasbag49
(g65
g51
NtRp1365
(dp1366
g54
(dp1367
sg63
g1248
sg56
(lp1368
g49
(g70
g51
NtRp1369
(dp1370
g54
(dp1371
g74
g75
ssg63
g1365
sg56
(lp1372
S'debugging'
p1373
asbag49
(g70
g51
NtRp1374
(dp1375
g54
(dp1376
g81
g82
ssg63
g1365
sg56
(lp1377
S':'
asbag49
(g70
g51
NtRp1378
(dp1379
g54
(dp1380
sg63
g1365
sg56
(lp1381
g49
(g50
g51
NtRp1382
(dp1383
g54
(dp1384
g62
I4
ssg63
g1378
sg56
(lp1385
g92
asbasbasbag49
(g65
g51
NtRp1386
(dp1387
g54
(dp1388
sg63
g1248
sg56
(lp1389
g49
(g70
g51
NtRp1390
(dp1391
g54
(dp1392
g74
g75
ssg63
g1386
sg56
(lp1393
S'gluon_parent'
p1394
asbag49
(g70
g51
NtRp1395
(dp1396
g54
(dp1397
g81
g82
ssg63
g1386
sg56
(lp1398
S':'
asbag49
(g70
g51
NtRp1399
(dp1400
g54
(dp1401
sg63
g1386
sg56
(lp1402
g49
(g50
g51
NtRp1403
(dp1404
g54
(dp1405
g62
I4
ssg63
g1399
sg56
(lp1406
S'/Users/mdipierro/Dropbox/web2py'
p1407
asbasbasbag49
(g65
g51
NtRp1408
(dp1409
g54
(dp1410
sg63
g1248
sg56
(lp1411
g49
(g70
g51
NtRp1412
(dp1413
g54
(dp1414
g74
g75
ssg63
g1408
sg56
(lp1415
S'http_accept'
p1416
asbag49
(g70
g51
NtRp1417
(dp1418
g54
(dp1419
g81
g82
ssg63
g1408
sg56
(lp1420
S':'
asbag49
(g70
g51
NtRp1421
(dp1422
g54
(dp1423
sg63
g1408
sg56
(lp1424
g49
(g50
g51
NtRp1425
(dp1426
g54
(dp1427
g62
I4
ssg63
g1421
sg56
(lp1428
S'text/html,application/xhtml+xml,application/xml;q=0.9,*/*;q=0.8'
p1429
asbasbasbag49
(g65
g51
NtRp1430
(dp1431
g54
(dp1432
sg63
g1248
sg56
(lp1433
g49
(g70
g51
NtRp1434
(dp1435
g54
(dp1436
g74
g75
ssg63
g1430
sg56
(lp1437
S'http_accept_charset'
p1438
asbag49
(g70
g51
NtRp1439
(dp1440
g54
(dp1441
g81
g82
ssg63
g1430
sg56
(lp1442
S':'
asbag49
(g70
g51
NtRp1443
(dp1444
g54
(dp1445
sg63
g1430
sg56
(lp1446
g49
(g50
g51
NtRp1447
(dp1448
g54
(dp1449
g62
I4
ssg63
g1443
sg56
(lp1450
S'ISO-8859-1,utf-8;q=0.7,*;q=0.3'
p1451
asbasbasbag49
(g65
g51
NtRp1452
(dp1453
g54
(dp1454
sg63
g1248
sg56
(lp1455
g49
(g70
g51
NtRp1456
(dp1457
g54
(dp1458
g74
g75
ssg63
g1452
sg56
(lp1459
S'http_accept_encoding'
p1460
asbag49
(g70
g51
NtRp1461
(dp1462
g54
(dp1463
g81
g82
ssg63
g1452
sg56
(lp1464
S':'
asbag49
(g70
g51
NtRp1465
(dp1466
g54
(dp1467
sg63
g1452
sg56
(lp1468
g49
(g50
g51
NtRp1469
(dp1470
g54
(dp1471
g62
I4
ssg63
g1465
sg56
(lp1472
S'gzip,deflate,sdch'
p1473
asbasbasbag49
(g65
g51
NtRp1474
(dp1475
g54
(dp1476
sg63
g1248
sg56
(lp1477
g49
(g70
g51
NtRp1478
(dp1479
g54
(dp1480
g74
g75
ssg63
g1474
sg56
(lp1481
S'http_accept_language'
p1482
asbag49
(g70
g51
NtRp1483
(dp1484
g54
(dp1485
g81
g82
ssg63
g1474
sg56
(lp1486
S':'
asbag49
(g70
g51
NtRp1487
(dp1488
g54
(dp1489
sg63
g1474
sg56
(lp1490
g49
(g50
g51
NtRp1491
(dp1492
g54
(dp1493
g62
I4
ssg63
g1487
sg56
(lp1494
S'en,en-US;q=0.8,de-DE;q=0.6,de;q=0.4,it-IT;q=0.2,it;q=0.2,ja;q=0.2'
p1495
asbasbasbag49
(g65
g51
NtRp1496
(dp1497
g54
(dp1498
sg63
g1248
sg56
(lp1499
g49
(g70
g51
NtRp1500
(dp1501
g54
(dp1502
g74
g75
ssg63
g1496
sg56
(lp1503
S'http_connection'
p1504
asbag49
(g70
g51
NtRp1505
(dp1506
g54
(dp1507
g81
g82
ssg63
g1496
sg56
(lp1508
S':'
asbag49
(g70
g51
NtRp1509
(dp1510
g54
(dp1511
sg63
g1496
sg56
(lp1512
g49
(g50
g51
NtRp1513
(dp1514
g54
(dp1515
g62
I4
ssg63
g1509
sg56
(lp1516
S'keep-alive'
p1517
asbasbasbag49
(g65
g51
NtRp1518
(dp1519
g54
(dp1520
sg63
g1248
sg56
(lp1521
g49
(g70
g51
NtRp1522
(dp1523
g54
(dp1524
g74
g75
ssg63
g1518
sg56
(lp1525
S'http_cookie'
p1526
asbag49
(g70
g51
NtRp1527
(dp1528
g54
(dp1529
g81
g82
ssg63
g1518
sg56
(lp1530
S':'
asbag49
(g70
g51
NtRp1531
(dp1532
g54
(dp1533
sg63
g1518
sg56
(lp1534
g49
(g50
g51
NtRp1535
(dp1536
g54
(dp1537
g62
I4
ssg63
g1531
sg56
(lp1538
S'registered=yes; __utma_a2a=1369166446.1335515545.1303958619.1316700181.1318215879.74; el-finder-last-finder=4f5a448a961f1931173928a6b6d9d4d2; s_nr=1323495907438-New; __qca=P0-1359637726-1323501662225; _chartbeat2=ha3n2egp47d2hmo0.1323501662417; session_id_cms=127.0.0.1-f4c1e56e-4f4d-4936-aaf7-92fdd3a97f53; __utma=96992031.1452952453.1313221394.1323500519.1323533094.5; __utmc=96992031; __utmz=96992031.1313221394.1.1.utmcsr=(direct)|utmccn=(direct)|utmcmd=(none); session_id_admin=127.0.0.1-679d2186-6737-4db8-ad8e-2680070f65e8; session_id_inplace=127.0.0.1-b67af904-b8cf-469d-95b3-18285a004db1'
p1539
asbasbasbag49
(g65
g51
NtRp1540
(dp1541
g54
(dp1542
sg63
g1248
sg56
(lp1543
g49
(g70
g51
NtRp1544
(dp1545
g54
(dp1546
g74
g75
ssg63
g1540
sg56
(lp1547
S'http_host'
p1548
asbag49
(g70
g51
NtRp1549
(dp1550
g54
(dp1551
g81
g82
ssg63
g1540
sg56
(lp1552
S':'
asbag49
(g70
g51
NtRp1553
(dp1554
g54
(dp1555
sg63
g1540
sg56
(lp1556
g49
(g50
g51
NtRp1557
(dp1558
g54
(dp1559
g62
I4
ssg63
g1553
sg56
(lp1560
S'127.0.0.1:8000'
p1561
asbasbasbag49
(g65
g51
NtRp1562
(dp1563
g54
(dp1564
sg63
g1248
sg56
(lp1565
g49
(g70
g51
NtRp1566
(dp1567
g54
(dp1568
g74
g75
ssg63
g1562
sg56
(lp1569
S'http_referer'
p1570
asbag49
(g70
g51
NtRp1571
(dp1572
g54
(dp1573
g81
g82
ssg63
g1562
sg56
(lp1574
S':'
asbag49
(g70
g51
NtRp1575
(dp1576
g54
(dp1577
sg63
g1562
sg56
(lp1578
g49
(g50
g51
NtRp1579
(dp1580
g54
(dp1581
g62
I4
ssg63
g1575
sg56
(lp1582
S'http://127.0.0.1:8000/inplace/default/edit?url=http%3A%2F%2Fweb2py.com'
p1583
asbasbasbag49
(g65
g51
NtRp1584
(dp1585
g54
(dp1586
sg63
g1248
sg56
(lp1587
g49
(g70
g51
NtRp1588
(dp1589
g54
(dp1590
g74
g75
ssg63
g1584
sg56
(lp1591
S'http_user_agent'
p1592
asbag49
(g70
g51
NtRp1593
(dp1594
g54
(dp1595
g81
g82
ssg63
g1584
sg56
(lp1596
S':'
asbag49
(g70
g51
NtRp1597
(dp1598
g54
(dp1599
sg63
g1584
sg56
(lp1600
g49
(g50
g51
NtRp1601
(dp1602
g54
(dp1603
g62
I4
ssg63
g1597
sg56
(lp1604
S'Mozilla/5.0 (Macintosh; Intel Mac OS X 10_6_8) AppleWebKit/535.7 (KHTML, like Gecko) Chrome/16.0.912.63 Safari/535.7'
p1605
asbasbasbag49
(g65
g51
NtRp1606
(dp1607
g54
(dp1608
sg63
g1248
sg56
(lp1609
g49
(g70
g51
NtRp1610
(dp1611
g54
(dp1612
g74
g75
ssg63
g1606
sg56
(lp1613
S'is_jython'
p1614
asbag49
(g70
g51
NtRp1615
(dp1616
g54
(dp1617
g81
g82
ssg63
g1606
sg56
(lp1618
S':'
asbag49
(g70
g51
NtRp1619
(dp1620
g54
(dp1621
sg63
g1606
sg56
(lp1622
g49
(g50
g51
NtRp1623
(dp1624
g54
(dp1625
g62
I4
ssg63
g1619
sg56
(lp1626
g92
asbasbasbag49
(g65
g51
NtRp1627
(dp1628
g54
(dp1629
sg63
g1248
sg56
(lp1630
g49
(g70
g51
NtRp1631
(dp1632
g54
(dp1633
g74
g75
ssg63
g1627
sg56
(lp1634
S'is_pypy'
p1635
asbag49
(g70
g51
NtRp1636
(dp1637
g54
(dp1638
g81
g82
ssg63
g1627
sg56
(lp1639
S':'
asbag49
(g70
g51
NtRp1640
(dp1641
g54
(dp1642
sg63
g1627
sg56
(lp1643
g49
(g50
g51
NtRp1644
(dp1645
g54
(dp1646
g62
I4
ssg63
g1640
sg56
(lp1647
g92
asbasbasbag49
(g65
g51
NtRp1648
(dp1649
g54
(dp1650
sg63
g1248
sg56
(lp1651
g49
(g70
g51
NtRp1652
(dp1653
g54
(dp1654
g74
g75
ssg63
g1648
sg56
(lp1655
S'path_info'
p1656
asbag49
(g70
g51
NtRp1657
(dp1658
g54
(dp1659
g81
g82
ssg63
g1648
sg56
(lp1660
S':'
asbag49
(g70
g51
NtRp1661
(dp1662
g54
(dp1663
sg63
g1648
sg56
(lp1664
g49
(g50
g51
NtRp1665
(dp1666
g54
(dp1667
g62
I4
ssg63
g1661
sg56
(lp1668
S'/inplace/default/edit'
p1669
asbasbasbag49
(g65
g51
NtRp1670
(dp1671
g54
(dp1672
sg63
g1248
sg56
(lp1673
g49
(g70
g51
NtRp1674
(dp1675
g54
(dp1676
g74
g75
ssg63
g1670
sg56
(lp1677
S'query_string'
p1678
asbag49
(g70
g51
NtRp1679
(dp1680
g54
(dp1681
g81
g82
ssg63
g1670
sg56
(lp1682
S':'
asbag49
(g70
g51
NtRp1683
(dp1684
g54
(dp1685
sg63
g1670
sg56
(lp1686
g49
(g50
g51
NtRp1687
(dp1688
g54
(dp1689
g62
I4
ssg63
g1683
sg56
(lp1690
S'value=Everything+you+need+in+one+package+including+fast+multi-threaded+web+server%2C+SQL+database+and+web-based+interface.+No+third+party+dependencies+but+works+with+%3Ca+href%3D%22%2Fexamples%2Fdefault%2Fwhat%22%3Ethird+party+tools%3C%2Fa%3E.'
p1691
asbasbasbag49
(g65
g51
NtRp1692
(dp1693
g54
(dp1694
sg63
g1248
sg56
(lp1695
g49
(g70
g51
NtRp1696
(dp1697
g54
(dp1698
g74
g75
ssg63
g1692
sg56
(lp1699
S'remote_addr'
p1700
asbag49
(g70
g51
NtRp1701
(dp1702
g54
(dp1703
g81
g82
ssg63
g1692
sg56
(lp1704
S':'
asbag49
(g70
g51
NtRp1705
(dp1706
g54
(dp1707
sg63
g1692
sg56
(lp1708
g49
(g50
g51
NtRp1709
(dp1710
g54
(dp1711
g62
I4
ssg63
g1705
sg56
(lp1712
g182
asbasbasbag49
(g65
g51
NtRp1713
(dp1714
g54
(dp1715
sg63
g1248
sg56
(lp1716
g49
(g70
g51
NtRp1717
(dp1718
g54
(dp1719
g74
g75
ssg63
g1713
sg56
(lp1720
S'remote_port'
p1721
asbag49
(g70
g51
NtRp1722
(dp1723
g54
(dp1724
g81
g82
ssg63
g1713
sg56
(lp1725
S':'
asbag49
(g70
g51
NtRp1726
(dp1727
g54
(dp1728
sg63
g1713
sg56
(lp1729
g49
(g50
g51
NtRp1730
(dp1731
g54
(dp1732
g62
I4
ssg63
g1726
sg56
(lp1733
S'49454'
p1734
asbasbasbag49
(g65
g51
NtRp1735
(dp1736
g54
(dp1737
sg63
g1248
sg56
(lp1738
g49
(g70
g51
NtRp1739
(dp1740
g54
(dp1741
g74
g75
ssg63
g1735
sg56
(lp1742
S'request_method'
p1743
asbag49
(g70
g51
NtRp1744
(dp1745
g54
(dp1746
g81
g82
ssg63
g1735
sg56
(lp1747
S':'
asbag49
(g70
g51
NtRp1748
(dp1749
g54
(dp1750
sg63
g1735
sg56
(lp1751
g49
(g50
g51
NtRp1752
(dp1753
g54
(dp1754
g62
I4
ssg63
g1748
sg56
(lp1755
S'GET'
p1756
asbasbasbag49
(g65
g51
NtRp1757
(dp1758
g54
(dp1759
sg63
g1248
sg56
(lp1760
g49
(g70
g51
NtRp1761
(dp1762
g54
(dp1763
g74
g75
ssg63
g1757
sg56
(lp1764
S'script_name'
p1765
asbag49
(g70
g51
NtRp1766
(dp1767
g54
(dp1768
g81
g82
ssg63
g1757
sg56
(lp1769
S':'
asbag49
(g70
g51
NtRp1770
(dp1771
g54
(dp1772
sg63
g1757
sg56
(lp1773
g49
(g50
g51
NtRp1774
(dp1775
g54
(dp1776
g62
I4
ssg63
g1770
sg56
(lp1777
S''
asbasbasbag49
(g65
g51
NtRp1778
(dp1779
g54
(dp1780
sg63
g1248
sg56
(lp1781
g49
(g70
g51
NtRp1782
(dp1783
g54
(dp1784
g74
g75
ssg63
g1778
sg56
(lp1785
S'server_name'
p1786
asbag49
(g70
g51
NtRp1787
(dp1788
g54
(dp1789
g81
g82
ssg63
g1778
sg56
(lp1790
S':'
asbag49
(g70
g51
NtRp1791
(dp1792
g54
(dp1793
sg63
g1778
sg56
(lp1794
g49
(g50
g51
NtRp1795
(dp1796
g54
(dp1797
g62
I4
ssg63
g1791
sg56
(lp1798
S'massimo-di-pierros-macbook-2.local'
p1799
asbasbasbag49
(g65
g51
NtRp1800
(dp1801
g54
(dp1802
sg63
g1248
sg56
(lp1803
g49
(g70
g51
NtRp1804
(dp1805
g54
(dp1806
g74
g75
ssg63
g1800
sg56
(lp1807
S'server_port'
p1808
asbag49
(g70
g51
NtRp1809
(dp1810
g54
(dp1811
g81
g82
ssg63
g1800
sg56
(lp1812
S':'
asbag49
(g70
g51
NtRp1813
(dp1814
g54
(dp1815
sg63
g1800
sg56
(lp1816
g49
(g50
g51
NtRp1817
(dp1818
g54
(dp1819
g62
I4
ssg63
g1813
sg56
(lp1820
S'8000'
p1821
asbasbasbag49
(g65
g51
NtRp1822
(dp1823
g54
(dp1824
sg63
g1248
sg56
(lp1825
g49
(g70
g51
NtRp1826
(dp1827
g54
(dp1828
g74
g75
ssg63
g1822
sg56
(lp1829
S'server_protocol'
p1830
asbag49
(g70
g51
NtRp1831
(dp1832
g54
(dp1833
g81
g82
ssg63
g1822
sg56
(lp1834
S':'
asbag49
(g70
g51
NtRp1835
(dp1836
g54
(dp1837
sg63
g1822
sg56
(lp1838
g49
(g50
g51
NtRp1839
(dp1840
g54
(dp1841
g62
I4
ssg63
g1835
sg56
(lp1842
S'HTTP/1.1'
p1843
asbasbasbag49
(g65
g51
NtRp1844
(dp1845
g54
(dp1846
sg63
g1248
sg56
(lp1847
g49
(g70
g51
NtRp1848
(dp1849
g54
(dp1850
g74
g75
ssg63
g1844
sg56
(lp1851
S'server_software'
p1852
asbag49
(g70
g51
NtRp1853
(dp1854
g54
(dp1855
g81
g82
ssg63
g1844
sg56
(lp1856
S':'
asbag49
(g70
g51
NtRp1857
(dp1858
g54
(dp1859
sg63
g1844
sg56
(lp1860
g49
(g50
g51
NtRp1861
(dp1862
g54
(dp1863
g62
I4
ssg63
g1857
sg56
(lp1864
S'Rocket 1.2.4'
p1865
asbasbasbag49
(g65
g51
NtRp1866
(dp1867
g54
(dp1868
sg63
g1248
sg56
(lp1869
g49
(g70
g51
NtRp1870
(dp1871
g54
(dp1872
g74
g75
ssg63
g1866
sg56
(lp1873
S'web2py_crontype'
p1874
asbag49
(g70
g51
NtRp1875
(dp1876
g54
(dp1877
g81
g82
ssg63
g1866
sg56
(lp1878
S':'
asbag49
(g70
g51
NtRp1879
(dp1880
g54
(dp1881
sg63
g1866
sg56
(lp1882
g49
(g50
g51
NtRp1883
(dp1884
g54
(dp1885
g62
I4
ssg63
g1879
sg56
(lp1886
S'hard'
p1887
asbasbasbag49
(g65
g51
NtRp1888
(dp1889
g54
(dp1890
sg63
g1248
sg56
(lp1891
g49
(g70
g51
NtRp1892
(dp1893
g54
(dp1894
g74
g75
ssg63
g1888
sg56
(lp1895
S'web2py_path'
p1896
asbag49
(g70
g51
NtRp1897
(dp1898
g54
(dp1899
g81
g82
ssg63
g1888
sg56
(lp1900
S':'
asbag49
(g70
g51
NtRp1901
(dp1902
g54
(dp1903
sg63
g1888
sg56
(lp1904
g49
(g50
g51
NtRp1905
(dp1906
g54
(dp1907
g62
I4
ssg63
g1901
sg56
(lp1908
g1295
asbasbasbag49
(g65
g51
NtRp1909
(dp1910
g54
(dp1911
sg63
g1248
sg56
(lp1912
g49
(g70
g51
NtRp1913
(dp1914
g54
(dp1915
g74
g75
ssg63
g1909
sg56
(lp1916
S'web2py_version'
p1917
asbag49
(g70
g51
NtRp1918
(dp1919
g54
(dp1920
g81
g82
ssg63
g1909
sg56
(lp1921
S':'
asbag49
(g70
g51
NtRp1922
(dp1923
g54
(dp1924
sg63
g1909
sg56
(lp1925
g49
(g50
g51
NtRp1926
(dp1927
g54
(dp1928
g62
I4
ssg63
g1922
sg56
(lp1929
g49
(g58
g51
NtRp1930
(dp1931
g54
(dp1932
g62
I3
ssg63
Nsg56
(lp1933
g49
(g65
g51
NtRp1934
(dp1935
g54
(dp1936
sg63
g1930
sg56
(lp1937
g49
(g70
g51
NtRp1938
(dp1939
g54
(dp1940
sg63
g1934
sg56
(lp1941
g49
(g50
g51
NtRp1942
(dp1943
g54
(dp1944
g62
I3
ssg63
g1938
sg56
(lp1945
S'1'
asbasbasbag49
(g65
g51
NtRp1946
(dp1947
g54
(dp1948
sg63
g1930
sg56
(lp1949
g49
(g70
g51
NtRp1950
(dp1951
g54
(dp1952
sg63
g1946
sg56
(lp1953
g49
(g50
g51
NtRp1954
(dp1955
g54
(dp1956
g62
I3
ssg63
g1950
sg56
(lp1957
S'99'
p1958
asbasbasbag49
(g65
g51
NtRp1959
(dp1960
g54
(dp1961
sg63
g1930
sg56
(lp1962
g49
(g70
g51
NtRp1963
(dp1964
g54
(dp1965
sg63
g1959
sg56
(lp1966
g49
(g50
g51
NtRp1967
(dp1968
g54
(dp1969
g62
I3
ssg63
g1963
sg56
(lp1970
S'3'
asbasbasbag49
(g65
g51
NtRp1971
(dp1972
g54
(dp1973
sg63
g1930
sg56
(lp1974
g49
(g70
g51
NtRp1975
(dp1976
g54
(dp1977
sg63
g1971
sg56
(lp1978
g49
(g50
g51
NtRp1979
(dp1980
g54
(dp1981
g62
I3
ssg63
g1975
sg56
(lp1982
S'datetime.datetime(2011, 12, 9, 21, 5, 4)'
p1983
asbasbasbag49
(g65
g51
NtRp1984
(dp1985
g54
(dp1986
sg63
g1930
sg56
(lp1987
g49
(g70
g51
NtRp1988
(dp1989
g54
(dp1990
sg63
g1984
sg56
(lp1991
g49
(g50
g51
NtRp1992
(dp1993
g54
(dp1994
g62
I3
ssg63
g1988
sg56
(lp1995
S'stable'
p1996
asbasbasbasbasbasbasbag49
(g65
g51
NtRp1997
(dp1998
g54
(dp1999
sg63
g1248
sg56
(lp2000
g49
(g70
g51
NtRp2001
(dp2002
g54
(dp2003
g74
g75
ssg63
g1997
sg56
(lp2004
S'wsgi_errors'
p2005
asbag49
(g70
g51
NtRp2006
(dp2007
g54
(dp2008
g81
g82
ssg63
g1997
sg56
(lp2009
S':'
asbag49
(g70
g51
NtRp2010
(dp2011
g54
(dp2012
sg63
g1997
sg56
(lp2013
g49
(g50
g51
NtRp2014
(dp2015
g54
(dp2016
g62
I4
ssg63
g2010
sg56
(lp2017
S"<open file '<stderr>', mode 'w' at 0x1620b0>"
p2018
asbasbasbag49
(g65
g51
NtRp2019
(dp2020
g54
(dp2021
sg63
g1248
sg56
(lp2022
g49
(g70
g51
NtRp2023
(dp2024
g54
(dp2025
g74
g75
ssg63
g2019
sg56
(lp2026
S'wsgi_file_wrapper'
p2027
asbag49
(g70
g51
NtRp2028
(dp2029
g54
(dp2030
g81
g82
ssg63
g2019
sg56
(lp2031
S':'
asbag49
(g70
g51
NtRp2032
(dp2033
g54
(dp2034
sg63
g2019
sg56
(lp2035
g49
(g50
g51
NtRp2036
(dp2037
g54
(dp2038
g62
I4
ssg63
g2032
sg56
(lp2039
S'<class wsgiref.util.FileWrapper at 0x7c2840>'
p2040
asbasbasbag49
(g65
g51
NtRp2041
(dp2042
g54
(dp2043
sg63
g1248
sg56
(lp2044
g49
(g70
g51
NtRp2045
(dp2046
g54
(dp2047
g74
g75
ssg63
g2041
sg56
(lp2048
S'wsgi_input'
p2049
asbag49
(g70
g51
NtRp2050
(dp2051
g54
(dp2052
g81
g82
ssg63
g2041
sg56
(lp2053
S':'
asbag49
(g70
g51
NtRp2054
(dp2055
g54
(dp2056
sg63
g2041
sg56
(lp2057
g49
(g50
g51
NtRp2058
(dp2059
g54
(dp2060
g62
I4
ssg63
g2054
sg56
(lp2061
S'<socket._fileobject object at 0x1edbab0>'
p2062
asbasbasbag49
(g65
g51
NtRp2063
(dp2064
g54
(dp2065
sg63
g1248
sg56
(lp2066
g49
(g70
g51
NtRp2067
(dp2068
g54
(dp2069
g74
g75
ssg63
g2063
sg56
(lp2070
S'wsgi_multiprocess'
p2071
asbag49
(g70
g51
NtRp2072
(dp2073
g54
(dp2074
g81
g82
ssg63
g2063
sg56
(lp2075
S':'
asbag49
(g70
g51
NtRp2076
(dp2077
g54
(dp2078
sg63
g2063
sg56
(lp2079
g49
(g50
g51
NtRp2080
(dp2081
g54
(dp2082
g62
I4
ssg63
g2076
sg56
(lp2083
g92
asbasbasbag49
(g65
g51
NtRp2084
(dp2085
g54
(dp2086
sg63
g1248
sg56
(lp2087
g49
(g70
g51
NtRp2088
(dp2089
g54
(dp2090
g74
g75
ssg63
g2084
sg56
(lp2091
S'wsgi_multithread'
p2092
asbag49
(g70
g51
NtRp2093
(dp2094
g54
(dp2095
g81
g82
ssg63
g2084
sg56
(lp2096
S':'
asbag49
(g70
g51
NtRp2097
(dp2098
g54
(dp2099
sg63
g2084
sg56
(lp2100
g49
(g50
g51
NtRp2101
(dp2102
g54
(dp2103
g62
I4
ssg63
g2097
sg56
(lp2104
S'True'
p2105
asbasbasbag49
(g65
g51
NtRp2106
(dp2107
g54
(dp2108
sg63
g1248
sg56
(lp2109
g49
(g70
g51
NtRp2110
(dp2111
g54
(dp2112
g74
g75
ssg63
g2106
sg56
(lp2113
S'wsgi_run_once'
p2114
asbag49
(g70
g51
NtRp2115
(dp2116
g54
(dp2117
g81
g82
ssg63
g2106
sg56
(lp2118
S':'
asbag49
(g70
g51
NtRp2119
(dp2120
g54
(dp2121
sg63
g2106
sg56
(lp2122
g49
(g50
g51
NtRp2123
(dp2124
g54
(dp2125
g62
I4
ssg63
g2119
sg56
(lp2126
g92
asbasbasbag49
(g65
g51
NtRp2127
(dp2128
g54
(dp2129
sg63
g1248
sg56
(lp2130
g49
(g70
g51
NtRp2131
(dp2132
g54
(dp2133
g74
g75
ssg63
g2127
sg56
(lp2134
S'wsgi_url_scheme'
p2135
asbag49
(g70
g51
NtRp2136
(dp2137
g54
(dp2138
g81
g82
ssg63
g2127
sg56
(lp2139
S':'
asbag49
(g70
g51
NtRp2140
(dp2141
g54
(dp2142
sg63
g2127
sg56
(lp2143
g49
(g50
g51
NtRp2144
(dp2145
g54
(dp2146
g62
I4
ssg63
g2140
sg56
(lp2147
S'http'
p2148
asbasbasbag49
(g65
g51
NtRp2149
(dp2150
g54
(dp2151
sg63
g1248
sg56
(lp2152
g49
(g70
g51
NtRp2153
(dp2154
g54
(dp2155
g74
g75
ssg63
g2149
sg56
(lp2156
S'wsgi_version'
p2157
asbag49
(g70
g51
NtRp2158
(dp2159
g54
(dp2160
g81
g82
ssg63
g2149
sg56
(lp2161
S':'
asbag49
(g70
g51
NtRp2162
(dp2163
g54
(dp2164
sg63
g2149
sg56
(lp2165
g49
(g50
g51
NtRp2166
(dp2167
g54
(dp2168
g62
I4
ssg63
g2162
sg56
(lp2169
g49
(g58
g51
NtRp2170
(dp2171
g54
(dp2172
g62
I3
ssg63
Nsg56
(lp2173
g49
(g65
g51
NtRp2174
(dp2175
g54
(dp2176
sg63
g2170
sg56
(lp2177
g49
(g70
g51
NtRp2178
(dp2179
g54
(dp2180
sg63
g2174
sg56
(lp2181
g49
(g50
g51
NtRp2182
(dp2183
g54
(dp2184
g62
I3
ssg63
g2178
sg56
(lp2185
S'1'
asbasbasbag49
(g65
g51
NtRp2186
(dp2187
g54
(dp2188
sg63
g2170
sg56
(lp2189
g49
(g70
g51
NtRp2190
(dp2191
g54
(dp2192
sg63
g2186
sg56
(lp2193
g49
(g50
g51
NtRp2194
(dp2195
g54
(dp2196
g62
I3
ssg63
g2190
sg56
(lp2197
S'0'
asbasbasbasbasbasbasbasbasbasbasbag49
(g65
g51
NtRp2198
(dp2199
g54
(dp2200
sg63
g59
sg56
(lp2201
g49
(g70
g51
NtRp2202
(dp2203
g54
(dp2204
g74
g75
ssg63
g2198
sg56
(lp2205
S'extension'
p2206
asbag49
(g70
g51
NtRp2207
(dp2208
g54
(dp2209
g81
g82
ssg63
g2198
sg56
(lp2210
S':'
asbag49
(g70
g51
NtRp2211
(dp2212
g54
(dp2213
sg63
g2198
sg56
(lp2214
g49
(g50
g51
NtRp2215
(dp2216
g54
(dp2217
g62
I5
ssg63
g2211
sg56
(lp2218
S'html'
p2219
asbasbasbag49
(g65
g51
NtRp2220
(dp2221
g54
(dp2222
sg63
g59
sg56
(lp2223
g49
(g70
g51
NtRp2224
(dp2225
g54
(dp2226
g74
g75
ssg63
g2220
sg56
(lp2227
S'folder'
p2228
asbag49
(g70
g51
NtRp2229
(dp2230
g54
(dp2231
g81
g82
ssg63
g2220
sg56
(lp2232
S':'
asbag49
(g70
g51
NtRp2233
(dp2234
g54
(dp2235
sg63
g2220
sg56
(lp2236
g49
(g50
g51
NtRp2237
(dp2238
g54
(dp2239
g62
I5
ssg63
g2233
sg56
(lp2240
S'/Users/mdipierro/Dropbox/web2py/applications/inplace/'
p2241
asbasbasbag49
(g65
g51
NtRp2242
(dp2243
g54
(dp2244
sg63
g59
sg56
(lp2245
g49
(g70
g51
NtRp2246
(dp2247
g54
(dp2248
g74
g75
ssg63
g2242
sg56
(lp2249
S'function'
p2250
asbag49
(g70
g51
NtRp2251
(dp2252
g54
(dp2253
g81
g82
ssg63
g2242
sg56
(lp2254
S':'
asbag49
(g70
g51
NtRp2255
(dp2256
g54
(dp2257
sg63
g2242
sg56
(lp2258
g49
(g50
g51
NtRp2259
(dp2260
g54
(dp2261
g62
I5
ssg63
g2255
sg56
(lp2262
S'edit'
p2263
asbasbasbag49
(g65
g51
NtRp2264
(dp2265
g54
(dp2266
sg63
g59
sg56
(lp2267
g49
(g70
g51
NtRp2268
(dp2269
g54
(dp2270
g74
g75
ssg63
g2264
sg56
(lp2271
S'get_vars'
p2272
asbag49
(g70
g51
NtRp2273
(dp2274
g54
(dp2275
g81
g82
ssg63
g2264
sg56
(lp2276
S':'
asbag49
(g70
g51
NtRp2277
(dp2278
g54
(dp2279
sg63
g2264
sg56
(lp2280
g49
(g50
g51
NtRp2281
(dp2282
g54
(dp2283
g62
I5
ssg63
g2277
sg56
(lp2284
g49
(g58
g51
NtRp2285
(dp2286
g54
(dp2287
g62
I4
ssg63
Nsg56
(lp2288
g49
(g65
g51
NtRp2289
(dp2290
g54
(dp2291
sg63
g2285
sg56
(lp2292
g49
(g70
g51
NtRp2293
(dp2294
g54
(dp2295
g74
g75
ssg63
g2289
sg56
(lp2296
S'value'
p2297
asbag49
(g70
g51
NtRp2298
(dp2299
g54
(dp2300
g81
g82
ssg63
g2289
sg56
(lp2301
S':'
asbag49
(g70
g51
NtRp2302
(dp2303
g54
(dp2304
sg63
g2289
sg56
(lp2305
g49
(g50
g51
NtRp2306
(dp2307
g54
(dp2308
g62
I4
ssg63
g2302
sg56
(lp2309
S'Everything you need in one package including fast multi-threaded web server, SQL database and web-based interface. No third party dependencies but works with <a href="/examples/default/what">third party tools</a>.'
p2310
asbasbasbasbasbasbasbag49
(g65
g51
NtRp2311
(dp2312
g54
(dp2313
sg63
g59
sg56
(lp2314
g49
(g70
g51
NtRp2315
(dp2316
g54
(dp2317
g74
g75
ssg63
g2311
sg56
(lp2318
S'global_settings'
p2319
asbag49
(g70
g51
NtRp2320
(dp2321
g54
(dp2322
g81
g82
ssg63
g2311
sg56
(lp2323
S':'
asbag49
(g70
g51
NtRp2324
(dp2325
g54
(dp2326
sg63
g2311
sg56
(lp2327
g49
(g50
g51
NtRp2328
(dp2329
g54
(dp2330
g62
I5
ssg63
g2324
sg56
(lp2331
g49
(g58
g51
NtRp2332
(dp2333
g54
(dp2334
g62
I4
ssg63
Nsg56
(lp2335
g49
(g65
g51
NtRp2336
(dp2337
g54
(dp2338
sg63
g2332
sg56
(lp2339
g49
(g70
g51
NtRp2340
(dp2341
g54
(dp2342
g74
g75
ssg63
g2336
sg56
(lp2343
g1260
asbag49
(g70
g51
NtRp2344
(dp2345
g54
(dp2346
g81
g82
ssg63
g2336
sg56
(lp2347
S':'
asbag49
(g70
g51
NtRp2348
(dp2349
g54
(dp2350
sg63
g2336
sg56
(lp2351
g49
(g50
g51
NtRp2352
(dp2353
g54
(dp2354
g62
I4
ssg63
g2348
sg56
(lp2355
S"set(['/Users/mdipierro/Dropbox/web2py/applications/inplace/', '/Users/mdipierro/Dropbox/web2py/applications/cms/', '/Users/mdipierro/Dropbox/web2py/applications/admin/'])"
p2356
asbasbasbag49
(g65
g51
NtRp2357
(dp2358
g54
(dp2359
sg63
g2332
sg56
(lp2360
g49
(g70
g51
NtRp2361
(dp2362
g54
(dp2363
g74
g75
ssg63
g2357
sg56
(lp2364
g1282
asbag49
(g70
g51
NtRp2365
(dp2366
g54
(dp2367
g81
g82
ssg63
g2357
sg56
(lp2368
S':'
asbag49
(g70
g51
NtRp2369
(dp2370
g54
(dp2371
sg63
g2357
sg56
(lp2372
g49
(g50
g51
NtRp2373
(dp2374
g54
(dp2375
g62
I4
ssg63
g2369
sg56
(lp2376
g1295
asbasbasbag49
(g65
g51
NtRp2377
(dp2378
g54
(dp2379
sg63
g2332
sg56
(lp2380
g49
(g70
g51
NtRp2381
(dp2382
g54
(dp2383
g74
g75
ssg63
g2377
sg56
(lp2384
g1304
asbag49
(g70
g51
NtRp2385
(dp2386
g54
(dp2387
g81
g82
ssg63
g2377
sg56
(lp2388
S':'
asbag49
(g70
g51
NtRp2389
(dp2390
g54
(dp2391
sg63
g2377
sg56
(lp2392
g49
(g50
g51
NtRp2393
(dp2394
g54
(dp2395
g62
I4
ssg63
g2389
sg56
(lp2396
g49
(g58
g51
NtRp2397
(dp2398
g54
(dp2399
g62
I3
ssg63
Nsg56
(lp2400
sbasbasbasbag49
(g65
g51
NtRp2401
(dp2402
g54
(dp2403
sg63
g2332
sg56
(lp2404
g49
(g70
g51
NtRp2405
(dp2406
g54
(dp2407
g74
g75
ssg63
g2401
sg56
(lp2408
g1329
asbag49
(g70
g51
NtRp2409
(dp2410
g54
(dp2411
g81
g82
ssg63
g2401
sg56
(lp2412
S':'
asbag49
(g70
g51
NtRp2413
(dp2414
g54
(dp2415
sg63
g2401
sg56
(lp2416
g49
(g50
g51
NtRp2417
(dp2418
g54
(dp2419
g62
I4
ssg63
g2413
sg56
(lp2420
S"<Values at 0x153a378: {'verbose': False, 'ip': '127.0.0.1', 'shutdown_timeout': 5, 'taskbar': False, 'nocron': False, 'pid_filename': 'httpserver.pid', 'maxthreads': None, 'softcron': False, 'server_name': 'massimo-di-pierros-macbook-2.local', 'bpython': False, 'nogui': False, 'port': 8000, 'extcron': False, 'debuglevel': 30, 'test': None, 'folder': '/Users/mdipierro/Dropbox/web2py', 'config': '', 'import_models': False, 'winservice': '', 'shell': None, 'run': '', 'log_filename': 'httpserver.log', 'args': [''], 'socket_timeout': 1, 'ssl_ca_certificate': None, 'scheduler': None, 'profiler_filename': None, 'ssl_private_key': '', 'password': 'hello', 'request_queue_size': 5, 'ssl_certificate': '', 'cronjob': False, 'numthreads': None, 'quiet': False, 'interfaces': None, 'minthreads': None, 'timeout': 10, 'plain': False, 'nobanner': False}>"
p2421
asbasbasbag49
(g65
g51
NtRp2422
(dp2423
g54
(dp2424
sg63
g2332
sg56
(lp2425
g49
(g70
g51
NtRp2426
(dp2427
g54
(dp2428
g74
g75
ssg63
g2422
sg56
(lp2429
g1351
asbag49
(g70
g51
NtRp2430
(dp2431
g54
(dp2432
g81
g82
ssg63
g2422
sg56
(lp2433
S':'
asbag49
(g70
g51
NtRp2434
(dp2435
g54
(dp2436
sg63
g2422
sg56
(lp2437
g49
(g50
g51
NtRp2438
(dp2439
g54
(dp2440
g62
I4
ssg63
g2434
sg56
(lp2441
S'set([])'
p2442
asbasbasbag49
(g65
g51
NtRp2443
(dp2444
g54
(dp2445
sg63
g2332
sg56
(lp2446
g49
(g70
g51
NtRp2447
(dp2448
g54
(dp2449
g74
g75
ssg63
g2443
sg56
(lp2450
g1373
asbag49
(g70
g51
NtRp2451
(dp2452
g54
(dp2453
g81
g82
ssg63
g2443
sg56
(lp2454
S':'
asbag49
(g70
g51
NtRp2455
(dp2456
g54
(dp2457
sg63
g2443
sg56
(lp2458
g49
(g50
g51
NtRp2459
(dp2460
g54
(dp2461
g62
I4
ssg63
g2455
sg56
(lp2462
g92
asbasbasbag49
(g65
g51
NtRp2463
(dp2464
g54
(dp2465
sg63
g2332
sg56
(lp2466
g49
(g70
g51
NtRp2467
(dp2468
g54
(dp2469
g74
g75
ssg63
g2463
sg56
(lp2470
g1394
asbag49
(g70
g51
NtRp2471
(dp2472
g54
(dp2473
g81
g82
ssg63
g2463
sg56
(lp2474
S':'
asbag49
(g70
g51
NtRp2475
(dp2476
g54
(dp2477
sg63
g2463
sg56
(lp2478
g49
(g50
g51
NtRp2479
(dp2480
g54
(dp2481
g62
I4
ssg63
g2475
sg56
(lp2482
g1407
asbasbasbag49
(g65
g51
NtRp2483
(dp2484
g54
(dp2485
sg63
g2332
sg56
(lp2486
g49
(g70
g51
NtRp2487
(dp2488
g54
(dp2489
g74
g75
ssg63
g2483
sg56
(lp2490
g1614
asbag49
(g70
g51
NtRp2491
(dp2492
g54
(dp2493
g81
g82
ssg63
g2483
sg56
(lp2494
S':'
asbag49
(g70
g51
NtRp2495
(dp2496
g54
(dp2497
sg63
g2483
sg56
(lp2498
g49
(g50
g51
NtRp2499
(dp2500
g54
(dp2501
g62
I4
ssg63
g2495
sg56
(lp2502
g92
asbasbasbag49
(g65
g51
NtRp2503
(dp2504
g54
(dp2505
sg63
g2332
sg56
(lp2506
g49
(g70
g51
NtRp2507
(dp2508
g54
(dp2509
g74
g75
ssg63
g2503
sg56
(lp2510
g1635
asbag49
(g70
g51
NtRp2511
(dp2512
g54
(dp2513
g81
g82
ssg63
g2503
sg56
(lp2514
S':'
asbag49
(g70
g51
NtRp2515
(dp2516
g54
(dp2517
sg63
g2503
sg56
(lp2518
g49
(g50
g51
NtRp2519
(dp2520
g54
(dp2521
g62
I4
ssg63
g2515
sg56
(lp2522
g92
asbasbasbag49
(g65
g51
NtRp2523
(dp2524
g54
(dp2525
sg63
g2332
sg56
(lp2526
g49
(g70
g51
NtRp2527
(dp2528
g54
(dp2529
g74
g75
ssg63
g2523
sg56
(lp2530
g1874
asbag49
(g70
g51
NtRp2531
(dp2532
g54
(dp2533
g81
g82
ssg63
g2523
sg56
(lp2534
S':'
asbag49
(g70
g51
NtRp2535
(dp2536
g54
(dp2537
sg63
g2523
sg56
(lp2538
g49
(g50
g51
NtRp2539
(dp2540
g54
(dp2541
g62
I4
ssg63
g2535
sg56
(lp2542
g1887
asbasbasbag49
(g65
g51
NtRp2543
(dp2544
g54
(dp2545
sg63
g2332
sg56
(lp2546
g49
(g70
g51
NtRp2547
(dp2548
g54
(dp2549
g74
g75
ssg63
g2543
sg56
(lp2550
g1917
asbag49
(g70
g51
NtRp2551
(dp2552
g54
(dp2553
g81
g82
ssg63
g2543
sg56
(lp2554
S':'
asbag49
(g70
g51
NtRp2555
(dp2556
g54
(dp2557
sg63
g2543
sg56
(lp2558
g49
(g50
g51
NtRp2559
(dp2560
g54
(dp2561
g62
I4
ssg63
g2555
sg56
(lp2562
g49
(g58
g51
NtRp2563
(dp2564
g54
(dp2565
g62
I3
ssg63
Nsg56
(lp2566
g49
(g65
g51
NtRp2567
(dp2568
g54
(dp2569
sg63
g2563
sg56
(lp2570
g49
(g70
g51
NtRp2571
(dp2572
g54
(dp2573
sg63
g2567
sg56
(lp2574
g49
(g50
g51
NtRp2575
(dp2576
g54
(dp2577
g62
I3
ssg63
g2571
sg56
(lp2578
S'1'
asbasbasbag49
(g65
g51
NtRp2579
(dp2580
g54
(dp2581
sg63
g2563
sg56
(lp2582
g49
(g70
g51
NtRp2583
(dp2584
g54
(dp2585
sg63
g2579
sg56
(lp2586
g49
(g50
g51
NtRp2587
(dp2588
g54
(dp2589
g62
I3
ssg63
g2583
sg56
(lp2590
S'99'
p2591
asbasbasbag49
(g65
g51
NtRp2592
(dp2593
g54
(dp2594
sg63
g2563
sg56
(lp2595
g49
(g70
g51
NtRp2596
(dp2597
g54
(dp2598
sg63
g2592
sg56
(lp2599
g49
(g50
g51
NtRp2600
(dp2601
g54
(dp2602
g62
I3
ssg63
g2596
sg56
(lp2603
S'3'
asbasbasbag49
(g65
g51
NtRp2604
(dp2605
g54
(dp2606
sg63
g2563
sg56
(lp2607
g49
(g70
g51
NtRp2608
(dp2609
g54
(dp2610
sg63
g2604
sg56
(lp2611
g49
(g50
g51
NtRp2612
(dp2613
g54
(dp2614
g62
I3
ssg63
g2608
sg56
(lp2615
S'datetime.datetime(2011, 12, 9, 21, 5, 4)'
p2616
asbasbasbag49
(g65
g51
NtRp2617
(dp2618
g54
(dp2619
sg63
g2563
sg56
(lp2620
g49
(g70
g51
NtRp2621
(dp2622
g54
(dp2623
sg63
g2617
sg56
(lp2624
g49
(g50
g51
NtRp2625
(dp2626
g54
(dp2627
g62
I3
ssg63
g2621
sg56
(lp2628
g1996
asbasbasbasbasbasbasbasbasbasbasbag49
(g65
g51
NtRp2629
(dp2630
g54
(dp2631
sg63
g59
sg56
(lp2632
g49
(g70
g51
NtRp2633
(dp2634
g54
(dp2635
g74
g75
ssg63
g2629
sg56
(lp2636
S'is_https'
p2637
asbag49
(g70
g51
NtRp2638
(dp2639
g54
(dp2640
g81
g82
ssg63
g2629
sg56
(lp2641
S':'
asbag49
(g70
g51
NtRp2642
(dp2643
g54
(dp2644
sg63
g2629
sg56
(lp2645
g49
(g50
g51
NtRp2646
(dp2647
g54
(dp2648
g62
I5
ssg63
g2642
sg56
(lp2649
g92
asbasbasbag49
(g65
g51
NtRp2650
(dp2651
g54
(dp2652
sg63
g59
sg56
(lp2653
g49
(g70
g51
NtRp2654
(dp2655
g54
(dp2656
g74
g75
ssg63
g2650
sg56
(lp2657
S'is_local'
p2658
asbag49
(g70
g51
NtRp2659
(dp2660
g54
(dp2661
g81
g82
ssg63
g2650
sg56
(lp2662
S':'
asbag49
(g70
g51
NtRp2663
(dp2664
g54
(dp2665
sg63
g2650
sg56
(lp2666
g49
(g50
g51
NtRp2667
(dp2668
g54
(dp2669
g62
I5
ssg63
g2663
sg56
(lp2670
g2105
asbasbasbag49
(g65
g51
NtRp2671
(dp2672
g54
(dp2673
sg63
g59
sg56
(lp2674
g49
(g70
g51
NtRp2675
(dp2676
g54
(dp2677
g74
g75
ssg63
g2671
sg56
(lp2678
S'is_restful'
p2679
asbag49
(g70
g51
NtRp2680
(dp2681
g54
(dp2682
g81
g82
ssg63
g2671
sg56
(lp2683
S':'
asbag49
(g70
g51
NtRp2684
(dp2685
g54
(dp2686
sg63
g2671
sg56
(lp2687
g49
(g50
g51
NtRp2688
(dp2689
g54
(dp2690
g62
I5
ssg63
g2684
sg56
(lp2691
g92
asbasbasbag49
(g65
g51
NtRp2692
(dp2693
g54
(dp2694
sg63
g59
sg56
(lp2695
g49
(g70
g51
NtRp2696
(dp2697
g54
(dp2698
g74
g75
ssg63
g2692
sg56
(lp2699
S'now'
p2700
asbag49
(g70
g51
NtRp2701
(dp2702
g54
(dp2703
g81
g82
ssg63
g2692
sg56
(lp2704
S':'
asbag49
(g70
g51
NtRp2705
(dp2706
g54
(dp2707
sg63
g2692
sg56
(lp2708
g49
(g50
g51
NtRp2709
(dp2710
g54
(dp2711
g62
I5
ssg63
g2705
sg56
(lp2712
S'datetime.datetime(2011, 12, 10, 23, 4, 52, 762116)'
p2713
asbasbasbag49
(g65
g51
NtRp2714
(dp2715
g54
(dp2716
sg63
g59
sg56
(lp2717
g49
(g70
g51
NtRp2718
(dp2719
g54
(dp2720
g74
g75
ssg63
g2714
sg56
(lp2721
S'post_vars'
p2722
asbag49
(g70
g51
NtRp2723
(dp2724
g54
(dp2725
g81
g82
ssg63
g2714
sg56
(lp2726
S':'
asbag49
(g70
g51
NtRp2727
(dp2728
g54
(dp2729
sg63
g2714
sg56
(lp2730
g49
(g50
g51
NtRp2731
(dp2732
g54
(dp2733
g62
I5
ssg63
g2727
sg56
(lp2734
g49
(g58
g51
NtRp2735
(dp2736
g54
(dp2737
g62
I4
ssg63
Nsg56
(lp2738
sbasbasbasbag49
(g65
g51
NtRp2739
(dp2740
g54
(dp2741
sg63
g59
sg56
(lp2742
g49
(g70
g51
NtRp2743
(dp2744
g54
(dp2745
g74
g75
ssg63
g2739
sg56
(lp2746
S'url'
p2747
asbag49
(g70
g51
NtRp2748
(dp2749
g54
(dp2750
g81
g82
ssg63
g2739
sg56
(lp2751
S':'
asbag49
(g70
g51
NtRp2752
(dp2753
g54
(dp2754
sg63
g2739
sg56
(lp2755
g49
(g50
g51
NtRp2756
(dp2757
g54
(dp2758
g62
I5
ssg63
g2752
sg56
(lp2759
S'/inplace/default/edit'
p2760
asbasbasbag49
(g65
g51
NtRp2761
(dp2762
g54
(dp2763
sg63
g59
sg56
(lp2764
g49
(g70
g51
NtRp2765
(dp2766
g54
(dp2767
g74
g75
ssg63
g2761
sg56
(lp2768
S'utcnow'
p2769
asbag49
(g70
g51
NtRp2770
(dp2771
g54
(dp2772
g81
g82
ssg63
g2761
sg56
(lp2773
S':'
asbag49
(g70
g51
NtRp2774
(dp2775
g54
(dp2776
sg63
g2761
sg56
(lp2777
g49
(g50
g51
NtRp2778
(dp2779
g54
(dp2780
g62
I5
ssg63
g2774
sg56
(lp2781
S'datetime.datetime(2011, 12, 11, 5, 4, 52, 762127)'
p2782
asbasbasbag49
(g65
g51
NtRp2783
(dp2784
g54
(dp2785
sg63
g59
sg56
(lp2786
g49
(g70
g51
NtRp2787
(dp2788
g54
(dp2789
g74
g75
ssg63
g2783
sg56
(lp2790
S'uuid'
p2791
asbag49
(g70
g51
NtRp2792
(dp2793
g54
(dp2794
g81
g82
ssg63
g2783
sg56
(lp2795
S':'
asbag49
(g70
g51
NtRp2796
(dp2797
g54
(dp2798
sg63
g2783
sg56
(lp2799
g49
(g50
g51
NtRp2800
(dp2801
g54
(dp2802
g62
I5
ssg63
g2796
sg56
(lp2803
S'inplace/127.0.0.1.2011-12-10.23-04-52.bbf72688-177f-4885-8d02-a86b95577c76'
p2804
asbasbasbag49
(g65
g51
NtRp2805
(dp2806
g54
(dp2807
sg63
g59
sg56
(lp2808
g49
(g70
g51
NtRp2809
(dp2810
g54
(dp2811
g74
g75
ssg63
g2805
sg56
(lp2812
S'vars'
p2813
asbag49
(g70
g51
NtRp2814
(dp2815
g54
(dp2816
g81
g82
ssg63
g2805
sg56
(lp2817
S':'
asbag49
(g70
g51
NtRp2818
(dp2819
g54
(dp2820
sg63
g2805
sg56
(lp2821
g49
(g50
g51
NtRp2822
(dp2823
g54
(dp2824
g62
I5
ssg63
g2818
sg56
(lp2825
g49
(g58
g51
NtRp2826
(dp2827
g54
(dp2828
g62
I4
ssg63
Nsg56
(lp2829
g49
(g65
g51
NtRp2830
(dp2831
g54
(dp2832
sg63
g2826
sg56
(lp2833
g49
(g70
g51
NtRp2834
(dp2835
g54
(dp2836
g74
g75
ssg63
g2830
sg56
(lp2837
g2297
asbag49
(g70
g51
NtRp2838
(dp2839
g54
(dp2840
g81
g82
ssg63
g2830
sg56
(lp2841
S':'
asbag49
(g70
g51
NtRp2842
(dp2843
g54
(dp2844
sg63
g2830
sg56
(lp2845
g49
(g50
g51
NtRp2846
(dp2847
g54
(dp2848
g62
I4
ssg63
g2842
sg56
(lp2849
g2310
asbasbasbasbasbasbasbag49
(g65
g51
NtRp2850
(dp2851
g54
(dp2852
sg63
g59
sg56
(lp2853
g49
(g70
g51
NtRp2854
(dp2855
g54
(dp2856
g74
g75
ssg63
g2850
sg56
(lp2857
S'wsgi'
p2858
asbag49
(g70
g51
NtRp2859
(dp2860
g54
(dp2861
g81
g82
ssg63
g2850
sg56
(lp2862
S':'
asbag49
(g70
g51
NtRp2863
(dp2864
g54
(dp2865
sg63
g2850
sg56
(lp2866
g49
(g50
g51
NtRp2867
(dp2868
g54
(dp2869
g62
I5
ssg63
g2863
sg56
(lp2870
g49
(g58
g51
NtRp2871
(dp2872
g54
(dp2873
g62
I4
ssg63
Nsg56
(lp2874
g49
(g65
g51
NtRp2875
(dp2876
g54
(dp2877
sg63
g2871
sg56
(lp2878
g49
(g70
g51
NtRp2879
(dp2880
g54
(dp2881
g74
g75
ssg63
g2875
sg56
(lp2882
S'environ'
p2883
asbag49
(g70
g51
NtRp2884
(dp2885
g54
(dp2886
g81
g82
ssg63
g2875
sg56
(lp2887
S':'
asbag49
(g70
g51
NtRp2888
(dp2889
g54
(dp2890
sg63
g2875
sg56
(lp2891
g49
(g50
g51
NtRp2892
(dp2893
g54
(dp2894
g62
I4
ssg63
g2888
sg56
(lp2895
g49
(g58
g51
NtRp2896
(dp2897
g54
(dp2898
g62
I3
ssg63
Nsg56
(lp2899
g49
(g65
g51
NtRp2900
(dp2901
g54
(dp2902
sg63
g2896
sg56
(lp2903
g49
(g70
g51
NtRp2904
(dp2905
g54
(dp2906
g74
g75
ssg63
g2900
sg56
(lp2907
S'HTTP_ACCEPT'
p2908
asbag49
(g70
g51
NtRp2909
(dp2910
g54
(dp2911
g81
g82
ssg63
g2900
sg56
(lp2912
S':'
asbag49
(g70
g51
NtRp2913
(dp2914
g54
(dp2915
sg63
g2900
sg56
(lp2916
g49
(g50
g51
NtRp2917
(dp2918
g54
(dp2919
g62
I3
ssg63
g2913
sg56
(lp2920
g1429
asbasbasbag49
(g65
g51
NtRp2921
(dp2922
g54
(dp2923
sg63
g2896
sg56
(lp2924
g49
(g70
g51
NtRp2925
(dp2926
g54
(dp2927
g74
g75
ssg63
g2921
sg56
(lp2928
S'HTTP_ACCEPT_CHARSET'
p2929
asbag49
(g70
g51
NtRp2930
(dp2931
g54
(dp2932
g81
g82
ssg63
g2921
sg56
(lp2933
S':'
asbag49
(g70
g51
NtRp2934
(dp2935
g54
(dp2936
sg63
g2921
sg56
(lp2937
g49
(g50
g51
NtRp2938
(dp2939
g54
(dp2940
g62
I3
ssg63
g2934
sg56
(lp2941
g1451
asbasbasbag49
(g65
g51
NtRp2942
(dp2943
g54
(dp2944
sg63
g2896
sg56
(lp2945
g49
(g70
g51
NtRp2946
(dp2947
g54
(dp2948
g74
g75
ssg63
g2942
sg56
(lp2949
S'HTTP_ACCEPT_ENCODING'
p2950
asbag49
(g70
g51
NtRp2951
(dp2952
g54
(dp2953
g81
g82
ssg63
g2942
sg56
(lp2954
S':'
asbag49
(g70
g51
NtRp2955
(dp2956
g54
(dp2957
sg63
g2942
sg56
(lp2958
g49
(g50
g51
NtRp2959
(dp2960
g54
(dp2961
g62
I3
ssg63
g2955
sg56
(lp2962
g1473
asbasbasbag49
(g65
g51
NtRp2963
(dp2964
g54
(dp2965
sg63
g2896
sg56
(lp2966
g49
(g70
g51
NtRp2967
(dp2968
g54
(dp2969
g74
g75
ssg63
g2963
sg56
(lp2970
S'HTTP_ACCEPT_LANGUAGE'
p2971
asbag49
(g70
g51
NtRp2972
(dp2973
g54
(dp2974
g81
g82
ssg63
g2963
sg56
(lp2975
S':'
asbag49
(g70
g51
NtRp2976
(dp2977
g54
(dp2978
sg63
g2963
sg56
(lp2979
g49
(g50
g51
NtRp2980
(dp2981
g54
(dp2982
g62
I3
ssg63
g2976
sg56
(lp2983
g1495
asbasbasbag49
(g65
g51
NtRp2984
(dp2985
g54
(dp2986
sg63
g2896
sg56
(lp2987
g49
(g70
g51
NtRp2988
(dp2989
g54
(dp2990
g74
g75
ssg63
g2984
sg56
(lp2991
S'HTTP_CONNECTION'
p2992
asbag49
(g70
g51
NtRp2993
(dp2994
g54
(dp2995
g81
g82
ssg63
g2984
sg56
(lp2996
S':'
asbag49
(g70
g51
NtRp2997
(dp2998
g54
(dp2999
sg63
g2984
sg56
(lp3000
g49
(g50
g51
NtRp3001
(dp3002
g54
(dp3003
g62
I3
ssg63
g2997
sg56
(lp3004
g1517
asbasbasbag49
(g65
g51
NtRp3005
(dp3006
g54
(dp3007
sg63
g2896
sg56
(lp3008
g49
(g70
g51
NtRp3009
(dp3010
g54
(dp3011
g74
g75
ssg63
g3005
sg56
(lp3012
S'HTTP_COOKIE'
p3013
asbag49
(g70
g51
NtRp3014
(dp3015
g54
(dp3016
g81
g82
ssg63
g3005
sg56
(lp3017
S':'
asbag49
(g70
g51
NtRp3018
(dp3019
g54
(dp3020
sg63
g3005
sg56
(lp3021
g49
(g50
g51
NtRp3022
(dp3023
g54
(dp3024
g62
I3
ssg63
g3018
sg56
(lp3025
g1539
asbasbasbag49
(g65
g51
NtRp3026
(dp3027
g54
(dp3028
sg63
g2896
sg56
(lp3029
g49
(g70
g51
NtRp3030
(dp3031
g54
(dp3032
g74
g75
ssg63
g3026
sg56
(lp3033
S'HTTP_HOST'
p3034
asbag49
(g70
g51
NtRp3035
(dp3036
g54
(dp3037
g81
g82
ssg63
g3026
sg56
(lp3038
S':'
asbag49
(g70
g51
NtRp3039
(dp3040
g54
(dp3041
sg63
g3026
sg56
(lp3042
g49
(g50
g51
NtRp3043
(dp3044
g54
(dp3045
g62
I3
ssg63
g3039
sg56
(lp3046
g1561
asbasbasbag49
(g65
g51
NtRp3047
(dp3048
g54
(dp3049
sg63
g2896
sg56
(lp3050
g49
(g70
g51
NtRp3051
(dp3052
g54
(dp3053
g74
g75
ssg63
g3047
sg56
(lp3054
S'HTTP_REFERER'
p3055
asbag49
(g70
g51
NtRp3056
(dp3057
g54
(dp3058
g81
g82
ssg63
g3047
sg56
(lp3059
S':'
asbag49
(g70
g51
NtRp3060
(dp3061
g54
(dp3062
sg63
g3047
sg56
(lp3063
g49
(g50
g51
NtRp3064
(dp3065
g54
(dp3066
g62
I3
ssg63
g3060
sg56
(lp3067
g1583
asbasbasbag49
(g65
g51
NtRp3068
(dp3069
g54
(dp3070
sg63
g2896
sg56
(lp3071
g49
(g70
g51
NtRp3072
(dp3073
g54
(dp3074
g74
g75
ssg63
g3068
sg56
(lp3075
S'HTTP_USER_AGENT'
p3076
asbag49
(g70
g51
NtRp3077
(dp3078
g54
(dp3079
g81
g82
ssg63
g3068
sg56
(lp3080
S':'
asbag49
(g70
g51
NtRp3081
(dp3082
g54
(dp3083
sg63
g3068
sg56
(lp3084
g49
(g50
g51
NtRp3085
(dp3086
g54
(dp3087
g62
I3
ssg63
g3081
sg56
(lp3088
g1605
asbasbasbag49
(g65
g51
NtRp3089
(dp3090
g54
(dp3091
sg63
g2896
sg56
(lp3092
g49
(g70
g51
NtRp3093
(dp3094
g54
(dp3095
g74
g75
ssg63
g3089
sg56
(lp3096
S'PATH_INFO'
p3097
asbag49
(g70
g51
NtRp3098
(dp3099
g54
(dp3100
g81
g82
ssg63
g3089
sg56
(lp3101
S':'
asbag49
(g70
g51
NtRp3102
(dp3103
g54
(dp3104
sg63
g3089
sg56
(lp3105
g49
(g50
g51
NtRp3106
(dp3107
g54
(dp3108
g62
I3
ssg63
g3102
sg56
(lp3109
g1669
asbasbasbag49
(g65
g51
NtRp3110
(dp3111
g54
(dp3112
sg63
g2896
sg56
(lp3113
g49
(g70
g51
NtRp3114
(dp3115
g54
(dp3116
g74
g75
ssg63
g3110
sg56
(lp3117
S'QUERY_STRING'
p3118
asbag49
(g70
g51
NtRp3119
(dp3120
g54
(dp3121
g81
g82
ssg63
g3110
sg56
(lp3122
S':'
asbag49
(g70
g51
NtRp3123
(dp3124
g54
(dp3125
sg63
g3110
sg56
(lp3126
g49
(g50
g51
NtRp3127
(dp3128
g54
(dp3129
g62
I3
ssg63
g3123
sg56
(lp3130
g1691
asbasbasbag49
(g65
g51
NtRp3131
(dp3132
g54
(dp3133
sg63
g2896
sg56
(lp3134
g49
(g70
g51
NtRp3135
(dp3136
g54
(dp3137
g74
g75
ssg63
g3131
sg56
(lp3138
S'REMOTE_ADDR'
p3139
asbag49
(g70
g51
NtRp3140
(dp3141
g54
(dp3142
g81
g82
ssg63
g3131
sg56
(lp3143
S':'
asbag49
(g70
g51
NtRp3144
(dp3145
g54
(dp3146
sg63
g3131
sg56
(lp3147
g49
(g50
g51
NtRp3148
(dp3149
g54
(dp3150
g62
I3
ssg63
g3144
sg56
(lp3151
g182
asbasbasbag49
(g65
g51
NtRp3152
(dp3153
g54
(dp3154
sg63
g2896
sg56
(lp3155
g49
(g70
g51
NtRp3156
(dp3157
g54
(dp3158
g74
g75
ssg63
g3152
sg56
(lp3159
S'REMOTE_PORT'
p3160
asbag49
(g70
g51
NtRp3161
(dp3162
g54
(dp3163
g81
g82
ssg63
g3152
sg56
(lp3164
S':'
asbag49
(g70
g51
NtRp3165
(dp3166
g54
(dp3167
sg63
g3152
sg56
(lp3168
g49
(g50
g51
NtRp3169
(dp3170
g54
(dp3171
g62
I3
ssg63
g3165
sg56
(lp3172
g1734
asbasbasbag49
(g65
g51
NtRp3173
(dp3174
g54
(dp3175
sg63
g2896
sg56
(lp3176
g49
(g70
g51
NtRp3177
(dp3178
g54
(dp3179
g74
g75
ssg63
g3173
sg56
(lp3180
S'REQUEST_METHOD'
p3181
asbag49
(g70
g51
NtRp3182
(dp3183
g54
(dp3184
g81
g82
ssg63
g3173
sg56
(lp3185
S':'
asbag49
(g70
g51
NtRp3186
(dp3187
g54
(dp3188
sg63
g3173
sg56
(lp3189
g49
(g50
g51
NtRp3190
(dp3191
g54
(dp3192
g62
I3
ssg63
g3186
sg56
(lp3193
g1756
asbasbasbag49
(g65
g51
NtRp3194
(dp3195
g54
(dp3196
sg63
g2896
sg56
(lp3197
g49
(g70
g51
NtRp3198
(dp3199
g54
(dp3200
g74
g75
ssg63
g3194
sg56
(lp3201
S'SCRIPT_NAME'
p3202
asbag49
(g70
g51
NtRp3203
(dp3204
g54
(dp3205
g81
g82
ssg63
g3194
sg56
(lp3206
S':'
asbag49
(g70
g51
NtRp3207
(dp3208
g54
(dp3209
sg63
g3194
sg56
(lp3210
g49
(g50
g51
NtRp3211
(dp3212
g54
(dp3213
g62
I3
ssg63
g3207
sg56
(lp3214
S''
asbasbasbag49
(g65
g51
NtRp3215
(dp3216
g54
(dp3217
sg63
g2896
sg56
(lp3218
g49
(g70
g51
NtRp3219
(dp3220
g54
(dp3221
g74
g75
ssg63
g3215
sg56
(lp3222
S'SERVER_NAME'
p3223
asbag49
(g70
g51
NtRp3224
(dp3225
g54
(dp3226
g81
g82
ssg63
g3215
sg56
(lp3227
S':'
asbag49
(g70
g51
NtRp3228
(dp3229
g54
(dp3230
sg63
g3215
sg56
(lp3231
g49
(g50
g51
NtRp3232
(dp3233
g54
(dp3234
g62
I3
ssg63
g3228
sg56
(lp3235
g1799
asbasbasbag49
(g65
g51
NtRp3236
(dp3237
g54
(dp3238
sg63
g2896
sg56
(lp3239
g49
(g70
g51
NtRp3240
(dp3241
g54
(dp3242
g74
g75
ssg63
g3236
sg56
(lp3243
S'SERVER_PORT'
p3244
asbag49
(g70
g51
NtRp3245
(dp3246
g54
(dp3247
g81
g82
ssg63
g3236
sg56
(lp3248
S':'
asbag49
(g70
g51
NtRp3249
(dp3250
g54
(dp3251
sg63
g3236
sg56
(lp3252
g49
(g50
g51
NtRp3253
(dp3254
g54
(dp3255
g62
I3
ssg63
g3249
sg56
(lp3256
g1821
asbasbasbag49
(g65
g51
NtRp3257
(dp3258
g54
(dp3259
sg63
g2896
sg56
(lp3260
g49
(g70
g51
NtRp3261
(dp3262
g54
(dp3263
g74
g75
ssg63
g3257
sg56
(lp3264
S'SERVER_PROTOCOL'
p3265
asbag49
(g70
g51
NtRp3266
(dp3267
g54
(dp3268
g81
g82
ssg63
g3257
sg56
(lp3269
S':'
asbag49
(g70
g51
NtRp3270
(dp3271
g54
(dp3272
sg63
g3257
sg56
(lp3273
g49
(g50
g51
NtRp3274
(dp3275
g54
(dp3276
g62
I3
ssg63
g3270
sg56
(lp3277
g1843
asbasbasbag49
(g65
g51
NtRp3278
(dp3279
g54
(dp3280
sg63
g2896
sg56
(lp3281
g49
(g70
g51
NtRp3282
(dp3283
g54
(dp3284
g74
g75
ssg63
g3278
sg56
(lp3285
S'SERVER_SOFTWARE'
p3286
asbag49
(g70
g51
NtRp3287
(dp3288
g54
(dp3289
g81
g82
ssg63
g3278
sg56
(lp3290
S':'
asbag49
(g70
g51
NtRp3291
(dp3292
g54
(dp3293
sg63
g3278
sg56
(lp3294
g49
(g50
g51
NtRp3295
(dp3296
g54
(dp3297
g62
I3
ssg63
g3291
sg56
(lp3298
g1865
asbasbasbag49
(g65
g51
NtRp3299
(dp3300
g54
(dp3301
sg63
g2896
sg56
(lp3302
g49
(g70
g51
NtRp3303
(dp3304
g54
(dp3305
g74
g75
ssg63
g3299
sg56
(lp3306
S'wsgi.errors'
p3307
asbag49
(g70
g51
NtRp3308
(dp3309
g54
(dp3310
g81
g82
ssg63
g3299
sg56
(lp3311
S':'
asbag49
(g70
g51
NtRp3312
(dp3313
g54
(dp3314
sg63
g3299
sg56
(lp3315
g49
(g50
g51
NtRp3316
(dp3317
g54
(dp3318
g62
I3
ssg63
g3312
sg56
(lp3319
S"<open file '<stderr>', mode 'w' at 0x1620b0>"
p3320
asbasbasbag49
(g65
g51
NtRp3321
(dp3322
g54
(dp3323
sg63
g2896
sg56
(lp3324
g49
(g70
g51
NtRp3325
(dp3326
g54
(dp3327
g74
g75
ssg63
g3321
sg56
(lp3328
S'wsgi.file_wrapper'
p3329
asbag49
(g70
g51
NtRp3330
(dp3331
g54
(dp3332
g81
g82
ssg63
g3321
sg56
(lp3333
S':'
asbag49
(g70
g51
NtRp3334
(dp3335
g54
(dp3336
sg63
g3321
sg56
(lp3337
g49
(g50
g51
NtRp3338
(dp3339
g54
(dp3340
g62
I3
ssg63
g3334
sg56
(lp3341
S'<class wsgiref.util.FileWrapper at 0x7c2840>'
p3342
asbasbasbag49
(g65
g51
NtRp3343
(dp3344
g54
(dp3345
sg63
g2896
sg56
(lp3346
g49
(g70
g51
NtRp3347
(dp3348
g54
(dp3349
g74
g75
ssg63
g3343
sg56
(lp3350
S'wsgi.input'
p3351
asbag49
(g70
g51
NtRp3352
(dp3353
g54
(dp3354
g81
g82
ssg63
g3343
sg56
(lp3355
S':'
asbag49
(g70
g51
NtRp3356
(dp3357
g54
(dp3358
sg63
g3343
sg56
(lp3359
g49
(g50
g51
NtRp3360
(dp3361
g54
(dp3362
g62
I3
ssg63
g3356
sg56
(lp3363
S'<cStringIO.StringO object at 0x281c2c0>'
p3364
asbasbasbag49
(g65
g51
NtRp3365
(dp3366
g54
(dp3367
sg63
g2896
sg56
(lp3368
g49
(g70
g51
NtRp3369
(dp3370
g54
(dp3371
g74
g75
ssg63
g3365
sg56
(lp3372
S'wsgi.multiprocess'
p3373
asbag49
(g70
g51
NtRp3374
(dp3375
g54
(dp3376
g81
g82
ssg63
g3365
sg56
(lp3377
S':'
asbag49
(g70
g51
NtRp3378
(dp3379
g54
(dp3380
sg63
g3365
sg56
(lp3381
g49
(g50
g51
NtRp3382
(dp3383
g54
(dp3384
g62
I3
ssg63
g3378
sg56
(lp3385
g92
asbasbasbag49
(g65
g51
NtRp3386
(dp3387
g54
(dp3388
sg63
g2896
sg56
(lp3389
g49
(g70
g51
NtRp3390
(dp3391
g54
(dp3392
g74
g75
ssg63
g3386
sg56
(lp3393
S'wsgi.multithread'
p3394
asbag49
(g70
g51
NtRp3395
(dp3396
g54
(dp3397
g81
g82
ssg63
g3386
sg56
(lp3398
S':'
asbag49
(g70
g51
NtRp3399
(dp3400
g54
(dp3401
sg63
g3386
sg56
(lp3402
g49
(g50
g51
NtRp3403
(dp3404
g54
(dp3405
g62
I3
ssg63
g3399
sg56
(lp3406
g2105
asbasbasbag49
(g65
g51
NtRp3407
(dp3408
g54
(dp3409
sg63
g2896
sg56
(lp3410
g49
(g70
g51
NtRp3411
(dp3412
g54
(dp3413
g74
g75
ssg63
g3407
sg56
(lp3414
S'wsgi.run_once'
p3415
asbag49
(g70
g51
NtRp3416
(dp3417
g54
(dp3418
g81
g82
ssg63
g3407
sg56
(lp3419
S':'
asbag49
(g70
g51
NtRp3420
(dp3421
g54
(dp3422
sg63
g3407
sg56
(lp3423
g49
(g50
g51
NtRp3424
(dp3425
g54
(dp3426
g62
I3
ssg63
g3420
sg56
(lp3427
g92
asbasbasbag49
(g65
g51
NtRp3428
(dp3429
g54
(dp3430
sg63
g2896
sg56
(lp3431
g49
(g70
g51
NtRp3432
(dp3433
g54
(dp3434
g74
g75
ssg63
g3428
sg56
(lp3435
S'wsgi.url_scheme'
p3436
asbag49
(g70
g51
NtRp3437
(dp3438
g54
(dp3439
g81
g82
ssg63
g3428
sg56
(lp3440
S':'
asbag49
(g70
g51
NtRp3441
(dp3442
g54
(dp3443
sg63
g3428
sg56
(lp3444
g49
(g50
g51
NtRp3445
(dp3446
g54
(dp3447
g62
I3
ssg63
g3441
sg56
(lp3448
g2148
asbasbasbag49
(g65
g51
NtRp3449
(dp3450
g54
(dp3451
sg63
g2896
sg56
(lp3452
g49
(g70
g51
NtRp3453
(dp3454
g54
(dp3455
g74
g75
ssg63
g3449
sg56
(lp3456
S'wsgi.version'
p3457
asbag49
(g70
g51
NtRp3458
(dp3459
g54
(dp3460
g81
g82
ssg63
g3449
sg56
(lp3461
S':'
asbag49
(g70
g51
NtRp3462
(dp3463
g54
(dp3464
sg63
g3449
sg56
(lp3465
g49
(g50
g51
NtRp3466
(dp3467
g54
(dp3468
g62
I3
ssg63
g3462
sg56
(lp3469
S'1'
asbasbasbasbasbasbasbasbasbasbasbasbasbsS'frames'
p3470
(lp3471
(dp3472
S'file'
p3473
S'/Users/mdipierro/Dropbox/web2py/gluon/restricted.py'
p3474
sS'dump'
p3475
(dp3476
S'environment'
p3477
S"{'A': <class 'gluon.html.A'>, 'Auth': <class 'gluon.tools.Auth'>, 'B': <class 'gluon.html.B'>, 'BEAUTIFY': <class 'gluon.html.BEAUTIFY'>, 'BODY': <class 'gluon.html.BODY'>, 'BR': <class 'gluon.html.BR'>, 'BUTTON': <class 'gluon.html.BUTTON'>, 'CAT': <class 'gluon.html.CAT'>, 'CENTER': <class 'gluon.html.CENTER'>, 'CLEANUP': <class 'gluon.validators.CLEANUP'>, ...}"
p3478
sS'ccode'
p3479
S'<code object <module> at 0x1c66338, file "/Users...ications/inplace/controllers/default.py", line 4>'
p3480
ssS'lnum'
p3481
I204
sS'lines'
p3482
(dp3483
I199
S'    try:'
p3484
sI200
S'        if type(code) == types.CodeType:'
p3485
sI201
S'            ccode = code'
p3486
sI202
S'        else:'
p3487
sI203
S'            ccode = compile2(code,layer)'
p3488
sI204
S'        exec ccode in environment'
p3489
sI205
S'    except HTTP:'
p3490
sI206
S'        raise'
p3491
sI207
S'    except RestrictedError:'
p3492
sI208
S'        # do not encapsulate (obfuscate) the original RestrictedError'
p3493
ssS'call'
p3494
S"(code='# -*- coding: utf-8 -*-\\n# developed by Massimo D...(0)).html\\n\\nresponse._vars=response._caller(edit)\\n', environment={'A': <class 'gluon.html.A'>, 'Auth': <class 'gluon.tools.Auth'>, 'B': <class 'gluon.html.B'>, 'BEAUTIFY': <class 'gluon.html.BEAUTIFY'>, 'BODY': <class 'gluon.html.BODY'>, 'BR': <class 'gluon.html.BR'>, 'BUTTON': <class 'gluon.html.BUTTON'>, 'CAT': <class 'gluon.html.CAT'>, 'CENTER': <class 'gluon.html.CENTER'>, 'CLEANUP': <class 'gluon.validators.CLEANUP'>, ...}, layer='/Users/mdipierro/Dropbox/web2py/applications/inplace/controllers/default.py')"
p3495
sS'func'
p3496
S'restricted'
p3497
sa(dp3498
g3473
S'/Users/mdipierro/Dropbox/web2py/applications/inplace/controllers/default.py'
p3499
sg3475
(dp3500
sg3481
I53
sg3482
(dp3501
I42
S"    html = html.replace('</head>',inject+'</head>')"
p3502
sI43
S'    return html'
p3503
sI44
S''
sI45
S'def page():'
p3504
sI46
S'    id = db.clone.insert(url=session.url,html=session.new_html)'
p3505
sI47
S"    redirect(URL('clone',args=id))"
p3506
sI48
S''
sI49
S'def clone():'
p3507
sI50
S"    if request.args(0)=='page': redirect(URL('index'))"
p3508
sI51
S'    return db.clone(request.args(0)).html'
p3509
ssg3494
S'()'
p3510
sg3496
S'<module>'
p3511
sa(dp3512
g3473
S'/Users/mdipierro/Dropbox/web2py/gluon/globals.py'
p3513
sg3475
(dp3514
S'self'
p3515
S'undefined'
p3516
sS'f'
S'<function edit at 0x1edd130>'
p3517
ssg3481
I172
sg3482
(dp3518
I167
S'        self.meta = Storage()      # used by web2py_ajax.html'
p3519
sI168
S'        self.menu = []             # used by the default view layout'
p3520
sI169
S'        self.files = []            # used by web2py_ajax.html'
p3521
sI170
S'        self.generic_patterns = [] # patterns to allow generic views'
p3522
sI171
S'        self._vars = None'
p3523
sI172
S'        self._caller = lambda f: f()'
p3524
sI173
S'        self._view_environment = None'
p3525
sI174
S'        self._custom_commit = None'
p3526
sI175
S'        self._custom_rollback = None'
p3527
sI176
S''
ssg3494
S'(f=<function edit at 0x1edd130>)'
p3528
sg3496
S'<lambda>'
p3529
sa(dp3530
g3473
S'/Users/mdipierro/Dropbox/web2py/applications/inplace/controllers/default.py'
p3531
sg3475
(dp3532
S'url'
p3533
S'None'
p3534
sS').read'
p3535
g3516
sS'html'
p3536
g3516
sS'urllib'
p3537
S"<module 'urllib' from '/System/Library/Framework....framework/Versions/2.5/lib/python2.5/urllib.py'>"
p3538
sS'urllib.urlopen'
p3539
S'<function urlopen at 0x44d2b0>'
p3540
ssg3481
I27
sg3482
(dp3541
I22
S"        session.new_html = session.html.split('<body')[0]+'<body>'+request.vars.html+'</body></html>'"
p3542
sI23
S"        return 'ok'"
p3543
sI24
S''
sI25
S'    url = request.vars.url'
p3544
sI26
S'    try:'
p3545
sI27
S'        html = urllib.urlopen(url).read()'
p3546
sI28
S'    except IOError:'
p3547
sI29
S"        session.flash = 'web page does not exist!'"
p3548
sI30
S"        redirect(URL('index'))"
p3549
sI31
S'    session.url = url'
p3550
ssg3494
S'()'
p3551
sg3496
S'edit'
p3552
sa(dp3553
g3473
S'/System/Library/Frameworks/Python.framework/Versions/2.5/lib/python2.5/urllib.py'
p3554
sg3475
(dp3555
S'url'
p3556
S'None'
p3557
sS'opener'
p3558
S'<urllib.FancyURLopener instance at 0x1125a80>'
p3559
sS'opener.open'
p3560
S'<bound method FancyURLopener.open of <urllib.FancyURLopener instance at 0x1125a80>>'
p3561
ssg3481
I82
sg3482
(dp3562
I77
S'        opener = FancyURLopener()'
p3563
sI78
S'        _urlopener = opener'
p3564
sI79
S'    else:'
p3565
sI80
S'        opener = _urlopener'
p3566
sI81
S'    if data is None:'
p3567
sI82
S'        return opener.open(url)'
p3568
sI83
S'    else:'
p3569
sI84
S'        return opener.open(url, data)'
p3570
sI85
S'def urlretrieve(url, filename=None, reporthook=None, data=None):'
p3571
sI86
S'    global _urlopener'
p3572
ssg3494
S'(url=None, data=None, proxies=None)'
p3573
sg3496
S'urlopen'
p3574
sa(dp3575
g3473
S'/System/Library/Frameworks/Python.framework/Versions/2.5/lib/python2.5/urllib.py'
p3576
sg3475
(dp3577
S'global toBytes'
p3578
S'<function toBytes at 0x44f130>'
p3579
sS'fullurl'
p3580
S'None'
p3581
sS'global unwrap'
p3582
S'<function unwrap at 0x44f170>'
p3583
ssg3481
I165
sg3482
(dp3584
I160
S'        self.addheaders.append(args)'
p3585
sI161
S''
sI162
S'    # External interface'
p3586
sI163
S'    def open(self, fullurl, data=None):'
p3587
sI164
S'        """Use URLopener().open(file) instead of open(file, \'r\')."""'
p3588
sI165
S'        fullurl = unwrap(toBytes(fullurl))'
p3589
sI166
S'        if self.tempcache and fullurl in self.tempcache:'
p3590
sI167
S'            filename, headers = self.tempcache[fullurl]'
p3591
sI168
S"            fp = open(filename, 'rb')"
p3592
sI169
S'            return addinfourl(fp, headers, fullurl)'
p3593
ssg3494
S'(self=<urllib.FancyURLopener instance at 0x1125a80>, fullurl=None, data=None)'
p3594
sg3496
S'open'
p3595
sa(dp3596
g3473
S'/System/Library/Frameworks/Python.framework/Versions/2.5/lib/python2.5/urllib.py'
p3597
sg3475
(dp3598
S'url'
p3599
S'None'
p3600
sS'url.strip'
p3601
g3516
ssg3481
I1009
sg3482
(dp3602
I1004
S'                               " contains non-ASCII characters")'
p3603
sI1005
S'    return url'
p3604
sI1006
S''
sI1007
S'def unwrap(url):'
p3605
sI1008
S'    """unwrap(\'<URL:type://host/path>\') --> \'type://host/path\'."""'
p3606
sI1009
S'    url = url.strip()'
p3607
sI1010
S"    if url[:1] == '<' and url[-1:] == '>':"
p3608
sI1011
S'        url = url[1:-1].strip()'
p3609
sI1012
S"    if url[:4] == 'URL:': url = url[4:].strip()"
p3610
sI1013
S'    return url'
p3611
ssg3494
S'(url=None)'
p3612
sg3496
S'unwrap'
p3613
sasS'pyver'
p3614
S'Python 2.5.4: /usr/bin/python2.5'
p3615
sS'session'
p3616
g49
(g50
g51
NtRp3617
(dp3618
g54
(dp3619
sg56
(lp3620
g49
(g58
g51
NtRp3621
(dp3622
g54
(dp3623
g62
I5
ssg63
Nsg56
(lp3624
g49
(g65
g51
NtRp3625
(dp3626
g54
(dp3627
sg63
g3621
sg56
(lp3628
g49
(g70
g51
NtRp3629
(dp3630
g54
(dp3631
g74
g75
ssg63
g3625
sg56
(lp3632
S'html'
p3633
asbag49
(g70
g51
NtRp3634
(dp3635
g54
(dp3636
g81
g82
ssg63
g3625
sg56
(lp3637
S':'
asbag49
(g70
g51
NtRp3638
(dp3639
g54
(dp3640
sg63
g3625
sg56
(lp3641
g49
(g50
g51
NtRp3642
(dp3643
g54
(dp3644
g62
I5
ssg63
g3638
sg56
(lp3645
S'\n<!DOCTYPE html>\n<!-- paulirish.com/2008/conditional-stylesheets-vs-css-hacks-answer-neither/ -->\n<!--[if lt IE 7]><html class="ie ie6 ie-lte9 ie-lte8 ie-lte7 no-js" lang="en"> <![endif]-->\n<!--[if IE 7]><html class="ie ie7 ie-lte9 ie-lte8 ie-lte7 no-js" lang="en"> <![endif]-->\n<!--[if IE 8]><html class="ie ie8 ie-lte9 ie-lte8 no-js" lang="en"> <![endif]-->\n<!--[if IE 9]><html class="ie9 ie-lte9 no-js" lang="en"> <![endif]-->\n<!--[if (gt IE 9)|!(IE)]><!--> <html class="no-js" lang="en"> <!--<![endif]-->\n<head>\n  <meta charset="utf-8" />\n  <!-- www.phpied.com/conditional-comments-block-downloads/ -->\n  <!-- Always force latest IE rendering engine\n\t   (even in intranet) & Chrome Frame\n\t   Remove this if you use the .htaccess -->\n  <!--[if IE]>\n    <meta http-equiv="X-UA-Compatible" content="IE=edge">\n  <![endif]-->\n  \n  <title>web2py Web Framework</title>\n  \n  <!-- http://dev.w3.org/html5/markup/meta.name.html -->\n  <meta name="application-name" content="examples" />\n  \n  <!-- Speaking of Google, don\'t forget to set your site up:\n\t   http://google.com/webmasters -->\n  <meta name="google-site-verification" content="" />\n\n  <!--  Mobile Viewport Fix\n\t  j.mp/mobileviewport & davidbcalhoun.com/2010/viewport-metatag\n\t  device-width: Occupy full width of the screen in its current orientation\n\t  initial-scale = 1.0 retains dimensions instead of zooming out if page height > device height\n\t  user-scalable = yes allows the user to zoom in -->\n  <meta name="viewport" content="width=device-width, initial-scale=1.0, user-scalable=yes">\n  \n  <!-- Place favicon.ico and apple-touch-icon.png in the root of your domain and delete these references -->\n  <link rel="shortcut icon" href="/examples/static/favicon.ico" type="image/x-icon">\n  <link rel="apple-touch-icon" href="/examples/static/favicon.png">\n\n  <!-- All JavaScript at the bottom, except for Modernizr which enables \n\t   HTML5 elements & feature detects -->\n  <script src="/examples/static/js/modernizr.custom.js"></script>  \n\n  <!-- include stylesheets -->\n  \n\n  <script type="text/javascript"><!--\n    // These variables are used by the web2py_ajax_init function in web2py_ajax.js (which is loaded below).\n    var w2p_ajax_confirm_message = "Are you sure you want to delete this object?";\n    var w2p_ajax_date_format = "%Y-%m-%d";\n    var w2p_ajax_datetime_format = "%Y-%m-%d %H:%M:%S";\n    //--></script>\n<script src="/examples/static/js/jquery.js" type="text/javascript"></script><link href="/examples/static/css/calendar.css" rel="stylesheet" type="text/css" /><script src="/examples/static/js/calendar.js" type="text/javascript"></script><script src="/examples/static/js/web2py.js" type="text/javascript"></script><link href="/examples/static/css/skeleton.css" rel="stylesheet" type="text/css" /><link href="/examples/static/css/web2py.css" rel="stylesheet" type="text/css" /><link href="/examples/static/css/examples.css" rel="stylesheet" type="text/css" /><link href="/examples/static/css/superfish.css" rel="stylesheet" type="text/css" /><script src="/examples/static/js/superfish.js" type="text/javascript"></script>\n\n\n  <script type="text/javascript">\n    jQuery(function(){jQuery(\'.sf-menu\').superfish();});\n  </script>\n\n  \n\n  <!-- uncomment here to load jquery-ui\n  <link rel="stylesheet" href="http://ajax.googleapis.com/ajax/libs/jqueryui/1.8.16/themes/base/jquery-ui.css" type="text/css" media="all" />\n  <script src="http://ajax.googleapis.com/ajax/libs/jqueryui/1.8.16/jquery-ui.min.js" type="text/javascript"></script>\n  uncomment to load jquery-ui //-->\n  </style>\n</head>\n<body>\n  <div class="wrapper"><!-- for sticky footer -->    \n    <div class="flash"></div>    \n    <div class="header">\n      <div class="container">\n        <div class="sixteen columns">\n\t  <img src="/examples/static/images/web2py_logo.png" />\n          <h5></h5>\n        </div>\n        \n        <div class="sixteen columns statusbar">\n\t  \n\t  \n          <div id="menu"><ul class="sf-menu"><li><a href="/examples/default/index">Home</a></li><li><a href="/examples/default/what">About</a></li><li><a href="/examples/default/download">Download</a></li><li><a href="/examples/default/documentation">Docs &amp; Resources</a></li><li><a href="/examples/default/support">Support</a></li><li><a href="/examples/default/who">Contributors</a></li></ul>\n\t    \n            <!-- AddToAny BEGIN -->\n            <div style="float:right;padding-top:6px;" class="a2a_kit a2a_default_style">\n            <a class="a2a_dd" href="http://www.addtoany.com/share_save">Share</a></div>\n            <script type="text/javascript" src="http://static.addtoany.com/menu/page.js"></script>\n            <!-- AddToAny END -->\n          </div>\n\t  \n\t  <div class="sixteen columns announce">\n\t    <a href="http://www.infoworld.com/d/open-source-software/bossie-awards-2011-the-best-open-source-application-development-software-171759-0&current=10&last=1#slideshowTop">2011 BOSSIE AWARD FOR OPEN SOURCE DEVELOPMENT SOFTWARE</a>\n          </div>\n\t</div>\n      </div>\n    </div>\n    <div class="main">\n      <div class="container mainbody">\t\n        <div class="sixteen columns">\n          <div class="ten columns center">\n            \n            \n\n<center>\n  <img src="/examples/static/images/tag-cloud-color-small.png"/>\n</center>\n\n<h3>WEB2PY<sup>TM</sup> WEB FRAMEWORK</h3>\n<p>Free open source full-stack framework for rapid development of fast, scalable, <a href="http://www.web2py.com/book/default/chapter/01#security" target="_blank">secure</a> and portable database-driven web-based applications. Written and programmable in <a href="http://www.python.org" target="_blank">Python</a>. <a href="http://www.gnu.org/licenses/lgpl.html">LGPLv3 License</a>.\nCurrent version: 1.99.3 (2011-12-09 16:18:03) stable</p>\n\n\n\n\n\n\n            \n          </div>\n          \n          \n          <div class="five columns">\n            \n<div style="text-align:center">\n  <a href="http://web2py.com/book"><img src="/examples/static/images/tablet.png" alt="Tablet" /></a><br/>\n  <a href="http://www.lulu.com/product/paperback/web2py-book-(4th-edition)/18738286"><img src="http://static.lulu.com/images/services/buy_now_buttons/us/book.gif?20111206124946" border="0" alt="Support independent publishing: Buy this book on Lulu."></a><br/>\n  <a class="button" href="/examples/default/download" style="width:90%">DOWNLOAD NOW</a><br/>\n  <a class="button" href="http://web2py.com/demo_admin" style="width:90%">ONLINE DEMO</a><br/>\n  <a class="button" href="http://web2py.com/poweredby" style="width:90%">SITES POWERED</a>\n</div>\n\n          </div>    \n          \n        </div>\n      </div><!-- container -->\n      \n<div class="container">\n  <div class="sixteen columns">\n    <div class="five columns">\n      <h3><a href="/examples/default/about">BATTERIES INCLUDED</a></h3>\n      <p>Everything you need in one package including fast multi-threaded web server, SQL database and web-based interface. No third party dependencies but works with <a href=/examples/default/what>third party tools</a>.</p>\n    </div>\n    <div class="five columns">\n      <h3><a href="http://web2py.com/demo_admin">WEB-BASED IDE</a></h3>\n      <p>Create, modify, deploy and manage application from anywhere using your browser. One web2py instance can run multiple web sites using different databases. Try the <a href="http://web2py.com/demo_admin">interactive demo</a>.</p>\n    </div>\n    <div class="five columns">\n      <h3><a href="/examples/default/documentation">EXTENSIVE DOCS</a></h3>\n      <p>Start with some <a href="/examples/default/examples">quick examples</a>, then read the <a href="http://web2py.com/book">reference manual</a>, watch <a href="http://vimeo.com/album/178500">videos</a>, and join a <a href="/examples/default/usergroups">user group</a> for discussion. Take advantage of the <a href="http://web2py.com/layouts">layouts</a>, <a href="http://dev.s-cubism.com/web2py_plugins">plugins</a>, and <a href="http://web2pyslices.com">recipes</a>.</p>\n    </div>\n  </div>\n</div>\n<div class="container">\n  <div class="sixteen columns">\n    <img src="/examples/static/images/shadow-bottom.png" width="100%"/>\n    \n    <div class="five columns">\n      <em>\n\t<p>If you are still learning python, web2py is best tool by far</p>\n      </em>\n      <span class="right">\n\t<a href="http://twitter.com/#!/pbreit/status/48260905775017984"><em>pbreit</em></a>\n      </span>\n    </div>\n    \n    <div class="five columns">\n      <em>\n\t<p>Please use www.web2py.com when using MVC , no PHP/SQL stuff please...its 2011 not 1999</p>\n      </em>\n      <span class="right">\n\t<a href="http://twitter.com/#!/rabblesoft/status/79189028431343616"><em>rabblesoft</em></a>\n      </span>\n    </div>\n    \n    <div class="five columns">\n      <em>\n\t<p>Get Things Done - Faster, Better and More Easily with web2py</p>\n      </em>\n      <span class="right">\n\t<a href="http://twitter.com/#!/rochacbruno/status/73583156044890112"><em>Bruno Rocha</em></a>\n      </span>\n    </div>\n    \n  </div>\n</div>\n      \n      \n    </div><!-- main -->\n    \n    <div class="push"></div>\n  </div><!-- wrapper -->\n\n  <div class="footer">\n    <div class="container header">    \n      <div class="sixteen columns">\n         <!-- this is default footer -->\n        <div class="footer-content" >\n          Copyright &#169; 2011\n\t  - User communities in <a href="https://groups.google.com/forum/?fromgroups#!forum/web2py" target="_blank">English<a>, <a href="https://groups.google.com/forum/?fromgroups#!forum/web2py-fr" target="_blank">French</a>, <a href="https://groups.google.com/forum/?fromgroups#!forum/web2py-japan" target="_blank">Japanese</a>, <a href="https://groups.google.com/forum/?fromgroups#!forum/web2py-users-brazil" target="_blank">Portuguese</a>, and <a href="https://groups.google.com/forum/?fromgroups#!forum/web2py-usuarios" target="_blank">Spanish</a>.\n          <div style="float: right;">\n            <a href="http://www.web2py.com/" style="float: left; padding-right: 6px;">\n            <img style="padding-bottom: 0;" src="/examples/static/images/poweredby.png"/>\n            </a>\n          </div>\n        </div>\n        \t\n      </div>\n    </div><!-- container -->\n  </div><!-- footer -->\n  \n  <!--[if lt IE 7 ]>\n\t<script src="/examples/static/js/dd_belatedpng.js"></script>\n\t<script> DD_belatedPNG.fix(\'img, .png_bg\'); //fix any <img> or .png_bg background-images </script>\n\t<![endif]-->\n  \n</body>\n</html>\n'
p3646
asbasbasbag49
(g65
g51
NtRp3647
(dp3648
g54
(dp3649
sg63
g3621
sg56
(lp3650
g49
(g70
g51
NtRp3651
(dp3652
g54
(dp3653
g74
g75
ssg63
g3647
sg56
(lp3654
S'new_html'
p3655
asbag49
(g70
g51
NtRp3656
(dp3657
g54
(dp3658
g81
g82
ssg63
g3647
sg56
(lp3659
S':'
asbag49
(g70
g51
NtRp3660
(dp3661
g54
(dp3662
sg63
g3647
sg56
(lp3663
g49
(g50
g51
NtRp3664
(dp3665
g54
(dp3666
g62
I5
ssg63
g3660
sg56
(lp3667
S'\n<!DOCTYPE html>\n<!-- paulirish.com/2008/conditional-stylesheets-vs-css-hacks-answer-neither/ -->\n<!--[if lt IE 7]><html class="ie ie6 ie-lte9 ie-lte8 ie-lte7 no-js" lang="en"> <![endif]-->\n<!--[if IE 7]><html class="ie ie7 ie-lte9 ie-lte8 ie-lte7 no-js" lang="en"> <![endif]-->\n<!--[if IE 8]><html class="ie ie8 ie-lte9 ie-lte8 no-js" lang="en"> <![endif]-->\n<!--[if IE 9]><html class="ie9 ie-lte9 no-js" lang="en"> <![endif]-->\n<!--[if (gt IE 9)|!(IE)]><!--> <html class="no-js" lang="en"> <!--<![endif]-->\n<head>\n  <meta charset="utf-8" />\n  <!-- www.phpied.com/conditional-comments-block-downloads/ -->\n  <!-- Always force latest IE rendering engine\n\t   (even in intranet) & Chrome Frame\n\t   Remove this if you use the .htaccess -->\n  <!--[if IE]>\n    <meta http-equiv="X-UA-Compatible" content="IE=edge">\n  <![endif]-->\n  \n  <title>web2py Web Framework</title>\n  \n  <!-- http://dev.w3.org/html5/markup/meta.name.html -->\n  <meta name="application-name" content="examples" />\n  \n  <!-- Speaking of Google, don\'t forget to set your site up:\n\t   http://google.com/webmasters -->\n  <meta name="google-site-verification" content="" />\n\n  <!--  Mobile Viewport Fix\n\t  j.mp/mobileviewport & davidbcalhoun.com/2010/viewport-metatag\n\t  device-width: Occupy full width of the screen in its current orientation\n\t  initial-scale = 1.0 retains dimensions instead of zooming out if page height > device height\n\t  user-scalable = yes allows the user to zoom in -->\n  <meta name="viewport" content="width=device-width, initial-scale=1.0, user-scalable=yes">\n  \n  <!-- Place favicon.ico and apple-touch-icon.png in the root of your domain and delete these references -->\n  <link rel="shortcut icon" href="/examples/static/favicon.ico" type="image/x-icon">\n  <link rel="apple-touch-icon" href="/examples/static/favicon.png">\n\n  <!-- All JavaScript at the bottom, except for Modernizr which enables \n\t   HTML5 elements & feature detects -->\n  <script src="/examples/static/js/modernizr.custom.js"></script>  \n\n  <!-- include stylesheets -->\n  \n\n  <script type="text/javascript"><!--\n    // These variables are used by the web2py_ajax_init function in web2py_ajax.js (which is loaded below).\n    var w2p_ajax_confirm_message = "Are you sure you want to delete this object?";\n    var w2p_ajax_date_format = "%Y-%m-%d";\n    var w2p_ajax_datetime_format = "%Y-%m-%d %H:%M:%S";\n    //--></script>\n<script src="/examples/static/js/jquery.js" type="text/javascript"></script><link href="/examples/static/css/calendar.css" rel="stylesheet" type="text/css" /><script src="/examples/static/js/calendar.js" type="text/javascript"></script><script src="/examples/static/js/web2py.js" type="text/javascript"></script><link href="/examples/static/css/skeleton.css" rel="stylesheet" type="text/css" /><link href="/examples/static/css/web2py.css" rel="stylesheet" type="text/css" /><link href="/examples/static/css/examples.css" rel="stylesheet" type="text/css" /><link href="/examples/static/css/superfish.css" rel="stylesheet" type="text/css" /><script src="/examples/static/js/superfish.js" type="text/javascript"></script>\n\n\n  <script type="text/javascript">\n    jQuery(function(){jQuery(\'.sf-menu\').superfish();});\n  </script>\n\n  \n\n  <!-- uncomment here to load jquery-ui\n  <link rel="stylesheet" href="http://ajax.googleapis.com/ajax/libs/jqueryui/1.8.16/themes/base/jquery-ui.css" type="text/css" media="all" />\n  <script src="http://ajax.googleapis.com/ajax/libs/jqueryui/1.8.16/jquery-ui.min.js" type="text/javascript"></script>\n  uncomment to load jquery-ui //-->\n  </style>\n</head>\n<body><div style="padding: 5px 20px 5px 20px; font-size: 1.5em; text-align:right;background:black;color:white;height:30px;">Attention: this is a modified copy of the original page!!! [ <a style="color:white" href="javascript:history.go(-1)">back</a> | <a style="color:white" href="page">next</a> ]</div><iframe id="a2apage_sm_ifr" height="1" width="1" style="border-top-width: 0px; border-right-width: 0px; border-bottom-width: 0px; border-left-width: 0px; border-style: initial; border-color: initial; border-image: initial; left: 0px; top: 0px; position: absolute; z-index: 100000; display: none; " transparency="true" allowtransparency="true" frameborder="0" src="http://static.addtoany.com/menu/sm7.html#type=page&amp;event=load&amp;url=http%3A%2F%2F127.0.0.1%3A8000%2Finplace%2Fdefault%2Fedit%3Furl%3Dhttp%253A%252F%252Fweb2py.com&amp;referrer="></iframe><div style="position: static; "><div id="a2apage_dropdown" class="a2a_menu" onmouseover="a2a.onMouseOver_stay()" onmouseout="a2a.onMouseOut_delay()"><div class="a2a_menu_inside"><div id="a2apage_title_container" class="a2a_menu_title_container" style="display: none; "><input id="a2apage_title" class="a2a_menu_title"></div><div class="a2apage_wide a2a_wide"><div class="a2a_tabs a2a_tabs_default"><div id="a2apage_DEFAULT" class="a2a_tab_selected" style="margin-right: 1px; " onclick="return a2a.tabs.open(\'DEFAULT\')"><span class="a2a_i_share">Share</span></div></div><div class="a2a_tabs"><div title="Share via email" id="a2apage_EMAIL" style="margin-right: 1px; " onclick="return a2a.tabs.open(\'EMAIL\')"><span class="a2a_i_email"></span></div></div><div class="a2a_tabs"><div onclick="a2a.bmBrowser()" title="Bookmark in your browser" id="a2apage_BROWSER" style="margin-left: 1px; "><span class="a2a_i_bookmark"></span></div></div></div><div class="a2a_clear"></div><div id="a2apage_find_container" class="a2a_menu_find_container" style=""><input id="a2apage_find" class="a2a_menu_find" type="text" onclick="a2a.focus_find()" onkeyup="a2a.do_find()" autocomplete="off" onfocus="a2a[\'page\'].find_focused=true;a2a.onMouseOver_stay()" title="Instantly find any service"><span id="a2apage_find_icon" class="a2a_i_find" onclick="a2a.focus_find()"></span></div><div id="a2apage_cols_container" class="a2a_cols_container"><div class="a2a_col1" id="a2apage_col1" style=""><a id="a2apage_live" rel="nofollow" class="a2a_i a2a_sss" href="/" target="_blank"><span class="a2a_i_live">Messenger</span></a><a id="a2apage_facebook" rel="nofollow" class="a2a_i" href="/" target="_blank"><span class="a2a_i_facebook">Facebook</span></a><a id="a2apage_twitter" rel="nofollow" class="a2a_i" href="/" target="_blank"><span class="a2a_i_twitter">Twitter</span></a><a id="a2apage_google_plus" rel="nofollow" class="a2a_i" href="/" target="_blank"><span class="a2a_i_google">Google </span></a><a id="a2apage_delicious" rel="nofollow" class="a2a_i" href="/" target="_blank"><span class="a2a_i_delicious">Delicious</span></a><a id="a2apage_digg" rel="nofollow" class="a2a_i" href="/" target="_blank"><span class="a2a_i_digg">Digg</span></a><a id="a2apage_google_bookmarks" rel="nofollow" class="a2a_i" href="/" target="_blank"><span class="a2a_i_google">Google Bookmarks</span></a><a id="a2apage_myspace" rel="nofollow" class="a2a_i" href="/" target="_blank"><span class="a2a_i_myspace">MySpace</span></a><a id="a2apage_stumbleupon" rel="nofollow" class="a2a_i" href="/" target="_blank"><span class="a2a_i_stumbleupon">StumbleUpon</span></a><a id="a2apage_reddit" rel="nofollow" class="a2a_i" href="/" target="_blank"><span class="a2a_i_reddit">Reddit</span></a><a id="a2apage_vodpod" rel="nofollow" class="a2a_i" href="/" target="_blank" style="display: none; "><span class="a2a_i_vodpod">Vodpod</span></a><a id="a2apage_yahoo_bookmarks" rel="nofollow" class="a2a_i" href="/" target="_blank" style="display: none; "><span class="a2a_i_yahoo">Yahoo Bookmarks</span></a><a id="a2apage_bebo" rel="nofollow" class="a2a_i" href="/" target="_blank" style="display: none; "><span class="a2a_i_bebo">Bebo</span></a><a id="a2apage_mister_wong" rel="nofollow" class="a2a_i" href="/" target="_blank" style="display: none; "><span class="a2a_i_mister-wong">Mister-Wong</span></a><a id="a2apage_wordpress" rel="nofollow" class="a2a_i" href="/" target="_blank" style="display: none; "><span class="a2a_i_wordpress">WordPress</span></a><a id="a2apage_google_reader" rel="nofollow" class="a2a_i" href="/" target="_blank" style="display: none; "><span class="a2a_i_reader">Google Reader</span></a><a id="a2apage_orkut" rel="nofollow" class="a2a_i" href="/" target="_blank" style="display: none; "><span class="a2a_i_orkut">Orkut</span></a><a id="a2apage_xing" rel="nofollow" class="a2a_i" href="/" target="_blank" style="display: none; "><span class="a2a_i_xing">XING</span></a><a id="a2apage_evernote" rel="nofollow" class="a2a_i" href="/" target="_blank" style="display: none; "><span class="a2a_i_evernote">Evernote</span></a><a id="a2apage_netvibes_share" rel="nofollow" class="a2a_i" href="/" target="_blank" style="display: none; "><span class="a2a_i_netvibes">Netvibes Share</span></a><a id="a2apage_strands" rel="nofollow" class="a2a_i" href="/" target="_blank" style="display: none; "><span class="a2a_i_strands">Strands</span></a><a id="a2apage_posterous" rel="nofollow" class="a2a_i" href="/" target="_blank" style="display: none; "><span class="a2a_i_posterous">Posterous</span></a><a id="a2apage_business_exchange" rel="nofollow" class="a2a_i" href="/" target="_blank" style="display: none; "><span class="a2a_i_business_exchange">Business Exchange</span></a><a id="a2apage_arto" rel="nofollow" class="a2a_i" href="/" target="_blank" style="display: none; "><span class="a2a_i_arto">Arto</span></a><a id="a2apage_tipd" rel="nofollow" class="a2a_i" href="/" target="_blank" style="display: none; "><span class="a2a_i_tipd">Tipd</span></a><a id="a2apage_smaknews" rel="nofollow" class="a2a_i" href="/" target="_blank" style="display: none; "><span class="a2a_i_smaknews">SmakNews</span></a><a id="a2apage_plurk" rel="nofollow" class="a2a_i" href="/" target="_blank" style="display: none; "><span class="a2a_i_plurk">Plurk</span></a><a id="a2apage_aim" rel="nofollow" class="a2a_i" href="/" target="_blank" style="display: none; "><span class="a2a_i_aim">AIM</span></a><a id="a2apage_yahoo_messenger" rel="nofollow" class="a2a_i" href="/" target="_blank" style="display: none; "><span class="a2a_i_yim">Yahoo Messenger</span></a><a id="a2apage_identi_ca" rel="nofollow" class="a2a_i" href="/" target="_blank" style="display: none; "><span class="a2a_i_identica">Identi.ca</span></a><a id="a2apage_mozillaca" rel="nofollow" class="a2a_i" href="/" target="_blank" style="display: none; "><span class="a2a_i_mozillaca">Mozillaca</span></a><a id="a2apage_blogger_post" rel="nofollow" class="a2a_i" href="/" target="_blank" style="display: none; "><span class="a2a_i_blogger">Blogger Post</span></a><a id="a2apage_typepad_post" rel="nofollow" class="a2a_i" href="/" target="_blank" style="display: none; "><span class="a2a_i_typepad">TypePad Post</span></a><a id="a2apage_box_net" rel="nofollow" class="a2a_i" href="/" target="_blank" style="display: none; "><span class="a2a_i_box">Box.net</span></a><a id="a2apage_netlog" rel="nofollow" class="a2a_i" href="/" target="_blank" style="display: none; "><span class="a2a_i_netlog">Netlog</span></a><a id="a2apage_technorati_favorites" rel="nofollow" class="a2a_i" href="/" target="_blank" style="display: none; "><span class="a2a_i_technorati">Technorati Favorites</span></a><a id="a2apage_citeulike" rel="nofollow" class="a2a_i" href="/" target="_blank" style="display: none; "><span class="a2a_i_citeulike">CiteULike</span></a><a id="a2apage_jumptags" rel="nofollow" class="a2a_i" href="/" target="_blank" style="display: none; "><span class="a2a_i_jumptags">Jumptags</span></a><a id="a2apage_hemidemi" rel="nofollow" class="a2a_i" href="/" target="_blank" style="display: none; "><span class="a2a_i_hemidemi">Hemidemi</span></a><a id="a2apage_funp" rel="nofollow" class="a2a_i" href="/" target="_blank" style="display: none; "><span class="a2a_i_funp">FunP</span></a><a id="a2apage_instapaper" rel="nofollow" class="a2a_i" href="/" target="_blank" style="display: none; "><span class="a2a_i_instapaper">Instapaper</span></a><a id="a2apage_phonefavs" rel="nofollow" class="a2a_i" href="/" target="_blank" style="display: none; "><span class="a2a_i_phonefavs">PhoneFavs</span></a><a id="a2apage_xerpi" rel="nofollow" class="a2a_i" href="/" target="_blank" style="display: none; "><span class="a2a_i_xerpi">Xerpi</span></a><a id="a2apage_netvouz" rel="nofollow" class="a2a_i" href="/" target="_blank" style="display: none; "><span class="a2a_i_netvouz">Netvouz</span></a><a id="a2apage_wink" rel="nofollow" class="a2a_i" href="/" target="_blank" style="display: none; "><span class="a2a_i_wink">Wink</span></a><a id="a2apage_diigo" rel="nofollow" class="a2a_i" href="/" target="_blank" style="display: none; "><span class="a2a_i_diigo">Diigo</span></a><a id="a2apage_bibsonomy" rel="nofollow" class="a2a_i" href="/" target="_blank" style="display: none; "><span class="a2a_i_bibsonomy">BibSonomy</span></a><a id="a2apage_blogmarks" rel="nofollow" class="a2a_i" href="/" target="_blank" style="display: none; "><span class="a2a_i_blogmarks">BlogMarks</span></a><a id="a2apage_tailrank" rel="nofollow" class="a2a_i" href="/" target="_blank" style="display: none; "><span class="a2a_i_tailrank">Tailrank</span></a><a id="a2apage_startaid" rel="nofollow" class="a2a_i" href="/" target="_blank" style="display: none; "><span class="a2a_i_startaid">StartAid</span></a><a id="a2apage_kledy" rel="nofollow" class="a2a_i" href="/" target="_blank" style="display: none; "><span class="a2a_i_kledy">Kledy</span></a><a id="a2apage_khabbr" rel="nofollow" class="a2a_i" href="/" target="_blank" style="display: none; "><span class="a2a_i_khabbr">Khabbr</span></a><a id="a2apage_meneame" rel="nofollow" class="a2a_i" href="/" target="_blank" style="display: none; "><span class="a2a_i_meneame">Meneame</span></a><a id="a2apage_yoolink" rel="nofollow" class="a2a_i" href="/" target="_blank" style="display: none; "><span class="a2a_i_yoolink">Yoolink</span></a><a id="a2apage_bookmarks_fr" rel="nofollow" class="a2a_i" href="/" target="_blank" style="display: none; "><span class="a2a_i_bookmarks_fr">Bookmarks.fr</span></a><a id="a2apage_technotizie" rel="nofollow" class="a2a_i" href="/" target="_blank" style="display: none; "><span class="a2a_i_technotizie">Technotizie</span></a><a id="a2apage_newsvine" rel="nofollow" class="a2a_i" href="/" target="_blank" style="display: none; "><span class="a2a_i_newsvine">NewsVine</span></a><a id="a2apage_multiply" rel="nofollow" class="a2a_i" href="/" target="_blank" style="display: none; "><span class="a2a_i_multiply">Multiply</span></a><a id="a2apage_friendfeed" rel="nofollow" class="a2a_i" href="/" target="_blank" style="display: none; "><span class="a2a_i_friendfeed">FriendFeed</span></a><a id="a2apage_plaxo_pulse" rel="nofollow" class="a2a_i" href="/" target="_blank" style="display: none; "><span class="a2a_i_plaxo">Plaxo Pulse</span></a><a id="a2apage_ping" rel="nofollow" class="a2a_i" href="/" target="_blank" style="display: none; "><span class="a2a_i_ping">Ping</span></a><a id="a2apage_squidoo" rel="nofollow" class="a2a_i" href="/" target="_blank" style="display: none; "><span class="a2a_i_squidoo">Squidoo</span></a><a id="a2apage_protopage_bookmarks" rel="nofollow" class="a2a_i" href="/" target="_blank" style="display: none; "><span class="a2a_i_protopage">Protopage Bookmarks</span></a><a id="a2apage_blinklist" rel="nofollow" class="a2a_i" href="/" target="_blank" style="display: none; "><span class="a2a_i_blinklist">Blinklist</span></a><a id="a2apage_faves" rel="nofollow" class="a2a_i" href="/" target="_blank" style="display: none; "><span class="a2a_i_faves">Faves</span></a><a id="a2apage_yigg" rel="nofollow" class="a2a_i" href="/" target="_blank" style="display: none; "><span class="a2a_i_yigg">YiGG</span></a><a id="a2apage_webnews" rel="nofollow" class="a2a_i" href="/" target="_blank" style="display: none; "><span class="a2a_i_webnews">Webnews</span></a><a id="a2apage_segnalo" rel="nofollow" class="a2a_i" href="/" target="_blank" style="display: none; "><span class="a2a_i_segnalo">Segnalo</span></a><a id="a2apage_pusha" rel="nofollow" class="a2a_i" href="/" target="_blank" style="display: none; "><span class="a2a_i_pusha">Pusha</span></a><a id="a2apage_youmob" rel="nofollow" class="a2a_i" href="/" target="_blank" style="display: none; "><span class="a2a_i_youmob">YouMob</span></a><a id="a2apage_slashdot" rel="nofollow" class="a2a_i" href="/" target="_blank" style="display: none; "><span class="a2a_i_slashdot">Slashdot</span></a><a id="a2apage_fark" rel="nofollow" class="a2a_i" href="/" target="_blank" style="display: none; "><span class="a2a_i_fark">Fark</span></a><a id="a2apage_allvoices" rel="nofollow" class="a2a_i" href="/" target="_blank" style="display: none; "><span class="a2a_i_allvoices">Allvoices</span></a><a id="a2apage_jamespot" rel="nofollow" class="a2a_i" href="/" target="_blank" style="display: none; "><span class="a2a_i_jamespot">Jamespot</span></a><a id="a2apage_imera_brazil" rel="nofollow" class="a2a_i" href="/" target="_blank" style="display: none; "><span class="a2a_i_imera">Imera Brazil</span></a><a id="a2apage_twiddla" rel="nofollow" class="a2a_i" href="/" target="_blank" style="display: none; "><span class="a2a_i_twiddla">Twiddla</span></a><a id="a2apage_linkagogo" rel="nofollow" class="a2a_i" href="/" target="_blank" style="display: none; "><span class="a2a_i_linkagogo">LinkaGoGo</span></a><a id="a2apage_unalog" rel="nofollow" class="a2a_i" href="/" target="_blank" style="display: none; "><span class="a2a_i_unalog">unalog</span></a><a id="a2apage_hugg" rel="nofollow" class="a2a_i" href="/" target="_blank" style="display: none; "><span class="a2a_i_hugg">Hugg</span></a><a id="a2apage_diglog" rel="nofollow" class="a2a_i" href="/" target="_blank" style="display: none; "><span class="a2a_i_diglog">Diglog</span></a><a id="a2apage_nowpublic" rel="nofollow" class="a2a_i" href="/" target="_blank" style="display: none; "><span class="a2a_i_nowpublic">NowPublic</span></a><a id="a2apage_tumblr" rel="nofollow" class="a2a_i" href="/" target="_blank" style="display: none; "><span class="a2a_i_tumblr">Tumblr</span></a><a id="a2apage_livejournal" rel="nofollow" class="a2a_i" href="/" target="_blank" style="display: none; "><span class="a2a_i_livejournal">LiveJournal</span></a><a id="a2apage_current" rel="nofollow" class="a2a_i" href="/" target="_blank" style="display: none; "><span class="a2a_i_current">Current</span></a><a id="a2apage_hellotxt" rel="nofollow" class="a2a_i" href="/" target="_blank" style="display: none; "><span class="a2a_i_hellotxt">HelloTxt</span></a><a id="a2apage_spurl" rel="nofollow" class="a2a_i" href="/" target="_blank" style="display: none; "><span class="a2a_i_spurl">Spurl</span></a><a id="a2apage_yample" rel="nofollow" class="a2a_i" href="/" target="_blank" style="display: none; "><span class="a2a_i_yample">Yample</span></a><a id="a2apage_oneview" rel="nofollow" class="a2a_i" href="/" target="_blank" style="display: none; "><span class="a2a_i_oneview">Oneview</span></a><a id="a2apage_linkatopia" rel="nofollow" class="a2a_i" href="/" target="_blank" style="display: none; "><span class="a2a_i_linkatopia">Linkatopia</span></a><a id="a2apage_simpy" rel="nofollow" class="a2a_i" href="/" target="_blank" style="display: none; "><span class="a2a_i_simpy">Simpy</span></a><a id="a2apage_linkedin" rel="nofollow" class="a2a_i" href="/" target="_blank" style="display: none; "><span class="a2a_i_linkedin">LinkedIn</span></a><a id="a2apage_buddymarks" rel="nofollow" class="a2a_i" href="/" target="_blank" style="display: none; "><span class="a2a_i_buddymarks">BuddyMarks</span></a><a id="a2apage_ask_com_mystuff" rel="nofollow" class="a2a_i" href="/" target="_blank" style="display: none; "><span class="a2a_i_ask">Ask.com MyStuff</span></a><a id="a2apage_viadeo" rel="nofollow" class="a2a_i" href="/" target="_blank" style="display: none; "><span class="a2a_i_viadeo">Viadeo</span></a><a id="a2apage_maple" rel="nofollow" class="a2a_i" href="/" target="_blank" style="display: none; "><span class="a2a_i_maple">Maple</span></a><a id="a2apage_wists" rel="nofollow" class="a2a_i" href="/" target="_blank" style="display: none; "><span class="a2a_i_wists">Wists</span></a><a id="a2apage_connotea" rel="nofollow" class="a2a_i" href="/" target="_blank" style="display: none; "><span class="a2a_i_connotea">Connotea</span></a><a id="a2apage_backflip" rel="nofollow" class="a2a_i" href="/" target="_blank" style="display: none; "><span class="a2a_i_backflip">Backflip</span></a><a id="a2apage_mylinkvault" rel="nofollow" class="a2a_i" href="/" target="_blank" style="display: none; "><span class="a2a_i_mylinkvault">MyLinkVault</span></a><a id="a2apage_sitejot" rel="nofollow" class="a2a_i" href="/" target="_blank" style="display: none; "><span class="a2a_i_sitejot">SiteJot</span></a><a id="a2apage_sphinn" rel="nofollow" class="a2a_i" href="/" target="_blank" style="display: none; "><span class="a2a_i_sphinn">Sphinn</span></a><a id="a2apage_dzone" rel="nofollow" class="a2a_i" href="/" target="_blank" style="display: none; "><span class="a2a_i_dzone">DZone</span></a><a id="a2apage_care2_news" rel="nofollow" class="a2a_i" href="/" target="_blank" style="display: none; "><span class="a2a_i_care2">Care2 News</span></a><a id="a2apage_hyves" rel="nofollow" class="a2a_i" href="/" target="_blank" style="display: none; "><span class="a2a_i_hyves">Hyves</span></a><a id="a2apage_sphere" rel="nofollow" class="a2a_i" href="/" target="_blank" style="display: none; "><span class="a2a_i_sphere">Sphere</span></a><a id="a2apage_bitty_browser" rel="nofollow" class="a2a_i" href="/" target="_blank" style="display: none; "><span class="a2a_i_bitty">Bitty Browser</span></a><a id="a2apage_gabbr" rel="nofollow" class="a2a_i" href="/" target="_blank" style="display: none; "><span class="a2a_i_gabbr">Gabbr</span></a><a id="a2apage_symbaloo_feeds" rel="nofollow" class="a2a_i" href="/" target="_blank" style="display: none; "><span class="a2a_i_symbaloo">Symbaloo Feeds</span></a><a id="a2apage_tagza" rel="nofollow" class="a2a_i" href="/" target="_blank" style="display: none; "><span class="a2a_i_tagza">Tagza</span></a><a id="a2apage_folkd" rel="nofollow" class="a2a_i" href="/" target="_blank" style="display: none; "><span class="a2a_i_folkd">Folkd</span></a><a id="a2apage_newstrust" rel="nofollow" class="a2a_i" href="/" target="_blank" style="display: none; "><span class="a2a_i_newstrust">NewsTrust</span></a><a id="a2apage_amazon_wish_list" rel="nofollow" class="a2a_i" href="/" target="_blank" style="display: none; "><span class="a2a_i_amazon">Amazon Wish List</span></a><a id="a2apage_printfriendly" rel="nofollow" class="a2a_i" href="/" target="_blank" style="display: none; "><span class="a2a_i_printfriendly">PrintFriendly</span></a><a id="a2apage_read_it_later" rel="nofollow" class="a2a_i" href="/" target="_blank" style="display: none; "><span class="a2a_i_read_it_later">Read It Later</span></a><a id="a2apage_tuenti" rel="nofollow" class="a2a_i" href="/" target="_blank" style="display: none; "><span class="a2a_i_tuenti">Tuenti</span></a><a id="a2apage_email" rel="nofollow" class="a2a_i" href="/" target="_blank" style="display: none; "><span class="a2a_i_email">Email</span></a><a id="a2apage_rediff" rel="nofollow" class="a2a_i" href="/" target="_blank" style="display: none; "><span class="a2a_i_rediff">Rediff MyPage</span></a></div><div id="a2apage_2_col1" style="display: none; "><a id="a2apage_google_gmail" rel="nofollow" class="a2a_i" href="/" target="_blank"><span class="a2a_i_gmail">Google Gmail</span></a><a id="a2apage_yahoo_mail" rel="nofollow" class="a2a_i" href="/" target="_blank"><span class="a2a_i_yahoo">Yahoo Mail</span></a><a id="a2apage_hotmail" rel="nofollow" class="a2a_i" href="/" target="_blank"><span class="a2a_i_live">Hotmail</span></a><a id="a2apage_aol_mail" rel="nofollow" class="a2a_i" href="/" target="_blank"><span class="a2a_i_aol">AOL Mail</span></a><a id="a2apage_any_email" rel="nofollow" class="a2a_i a2a_emailer" href="/" target="_blank"><span class="a2a_i_email">Any email</span></a><a id="a2apage_email_client" rel="nofollow" class="a2a_i a2a_emailer a2a_email_client" href="/" target=""><span class="a2a_i_outlook">&nbsp;</span><span class="a2a_i_windows_mail">&nbsp;</span><span class="a2a_i_apple_mail">&nbsp;</span><span class="a2a_i_thunderbird">&nbsp;</span></a></div><div class="a2a_clear"></div></div><div id="a2apage_note_BROWSER" class="a2a_note" style="display:none"></div><div class="a2apage_wide a2a_wide" style=""><a href="javascript:void(0)" id="a2apage_show_more_less" class="a2a_menu_show_more_less" onclick="return a2a.show_more_less(0)" onmouseover="img=this.firstChild;if(a2a.c.color_arrow_hover==\'fff\'){if(img.className.indexOf(\'_wt\')==-1)img.className =\'_wt\'}else img.className=img.className.replace(/_wt/,\'\')" onmouseout="img=this.firstChild;if(a2a.c.color_arrow==\'fff\'){if(img.className.indexOf(\'_wt\')==-1)img.className =\'_wt\'}else img.className=img.className.replace(/_wt/,\'\')" title="Show all"><span class="a2a_i_darr"></span></a></div><div class="a2a_menu_powered_by" id="a2apage_powered_by" onmouseover="if(this.innerHTML!=this.orig&amp;&amp;!window.opera)this.innerHTML=this.orig;this.style.textAlign=\'center\'" style="">By <a href="http://share.lockerz.com/" target="_blank" title="Share Buttons">Lockerz</a></div></div></div></div>\n  <div class="wrapper"><!-- for sticky footer -->\n    <div class="flash" style="display: none; "></div>\n    <div class="header">\n      <div class="container">\n        <div class="sixteen columns">\n\t  <img src="http://web2py.com/examples/static/images/web2py_logo.png">\n          <h5></h5>\n        </div>\n        <div class="sixteen columns statusbar">\n          <div id="menu"><ul class="sf-menu"><li><a href="http://web2py.com/examples/default/index">Home</a></li><li><a href="http://web2py.com/examples/default/what">About</a></li><li><a href="http://web2py.com/examples/default/download">Download</a></li><li><a href="http://web2py.com/examples/default/documentation">Docs &amp; Resources</a></li><li><a href="http://web2py.com/examples/default/support">Support</a></li><li><a href="http://web2py.com/examples/default/who">Contributors</a></li></ul>\n            <!-- AddToAny BEGIN -->\n            <div style="float:right;padding-top:6px;" class="a2a_kit a2a_default_style">\n            <a class="a2a_dd" href="http://www.addtoany.com/share_save#url=http%3A%2F%2F127.0.0.1%3A8000%2Finplace%2Fdefault%2Fedit%3Furl%3Dhttp%253A%252F%252Fweb2py.com&amp;title=web2py%20Web%20Framework&amp;description="><span class="a2a_img a2a_img_text a2a_i_a2a"></span>Share</a><div style="clear: both; "></div></div>\n            <script type="text/javascript" src="http://static.addtoany.com/menu/page.js"></script>\n            <!-- AddToAny END -->\n          </div>\n\t  <div class="sixteen columns announce">\n\t    <a href="http://www.infoworld.com/d/open-source-software/bossie-awards-2011-the-best-open-source-application-development-software-171759-0&amp;current=10&amp;last=1#slideshowTop">2011 BOSSIE AWARD FOR OPEN SOURCE DEVELOPMENT SOFTWARE</a>\n          </div>\n\t</div>\n      </div>\n    </div>\n    <div class="main">\n      <div class="container mainbody">\n        <div class="sixteen columns">\n          <div class="ten columns center">\n<center>\n  <img src="http://web2py.com/examples/static/images/tag-cloud-color-small.png">\n</center>\n<h3>WEB2PY<sup>TM</sup> WEB FRAMEWORK</h3>\n<p>Free open source full-stack framework for rapid development of fast, scalable, <a href="http://www.web2py.com/book/default/chapter/01#security" target="_blank">secure</a> and portable database-driven web-based applications. Written and programmable in <a href="http://www.python.org" target="_blank">Python</a>. <a href="http://www.gnu.org/licenses/lgpl.html">LGPLv3 License</a>.\nCurrent version: 1.99.3 (2011-12-09 16:18:03) stable</p>\n          </div>\n          <div class="five columns">\n<div style="text-align:center">\n  <a href="http://web2py.com/book"><img src="http://web2py.com/examples/static/images/tablet.png" alt="Tablet"></a><br>\n  <a href="http://www.lulu.com/product/paperback/web2py-book-(4th-edition)/18738286"><img src="http://static.lulu.com/images/services/buy_now_buttons/us/book.gif?20111206124946" border="0" alt="Support independent publishing: Buy this book on Lulu."></a><br>\n  <a class="button" href="http://web2py.com/examples/default/download" style="width:90%">DOWNLOAD NOW</a><br>\n  <a class="button" href="http://web2py.com/demo_admin" style="width:90%">ONLINE DEMO</a><br>\n  <a class="button" href="http://web2py.com/poweredby" style="width:90%">SITES POWERED</a>\n</div>\n          </div>\n        </div>\n      </div><!-- container -->\n<div class="container">\n  <div class="sixteen columns">\n    <div class="five columns">\n      <h3><a href="http://web2py.com/examples/default/about">BATTERIES INCLUDED</a></h3>\n      <p>Everything you need in one package including fast multi-threaded web server, SQL database and web-based interface. No third party dependencies but works with <a href="/examples/default/what">third party tools</a>.</p>\n    </div>\n    <div class="five columns">\n      <h3><a href="http://web2py.com/demo_admin">WEB-BASED IDE</a></h3>\n      <p>Create, modify, deploy and manage application from anywhere using your browser. One web2py instance can run multiple web sites using different databases. Try the <a href="http://web2py.com/demo_admin">interactive demo</a>.</p>\n    </div>\n    <div class="five columns">\n      <h3><a href="http://web2py.com/examples/default/documentation">EXTENSIVE DOCS</a></h3>\n      <p>Start with some <a href="http://web2py.com/examples/default/examples">quick examples</a>, then read the <a href="http://web2py.com/book">reference manual</a>, watch <a href="http://vimeo.com/album/178500">videos</a>, and join a <a href="http://web2py.com/examples/default/usergroups">user group</a> for discussion. Take advantage of the <a href="http://web2py.com/layouts">layouts</a>, <a href="http://dev.s-cubism.com/web2py_plugins">plugins</a>, and <a href="http://web2pyslices.com">recipes</a>.</p>\n    </div>\n  </div>\n</div>\n<div class="container">\n  <div class="sixteen columns">\n    <img src="http://web2py.com/examples/static/images/shadow-bottom.png" width="100%">\n    <div class="five columns">\n      <em>\n\t<p>Get Things Done - Faster, Better and More Easily with web2py</p>\n      </em>\n      <span class="right">\n\t<a href="http://twitter.com/#!/rochacbruno/status/73583156044890112"><em>Bruno Rocha</em></a>\n      </span>\n    </div>\n    <div class="five columns">\n      <em>\n\t<p>If you are still learning python, web2py is best tool by far</p>\n      </em>\n      <span class="right">\n\t<a href="http://twitter.com/#!/pbreit/status/48260905775017984"><em>pbreit</em></a>\n      </span>\n    </div>\n    <div class="five columns">\n      <em>\n\t<p>web2py rules! as a sysadmin I like the no installation and no configuration approach a lot)</p>\n      </em>\n      <span class="right">\n\t<a href="http://twitter.com/#!/jkogut/status/61414554273447936"><em>kjogut</em></a>\n      </span>\n    </div>\n  </div>\n</div>\n    </div><!-- main -->\n    <div class="push"></div>\n  </div><!-- wrapper -->\n  <div class="footer">\n    <div class="container header">\n      <div class="sixteen columns">\n         <!-- this is default footer -->\n        <div class="footer-content">\n          Copyright \xa9 2011\n\t  - User communities in <a href="https://groups.google.com/forum/?fromgroups#!forum/web2py" target="_blank">English</a><a>, </a><a href="https://groups.google.com/forum/?fromgroups#!forum/web2py-fr" target="_blank">French</a>, <a href="https://groups.google.com/forum/?fromgroups#!forum/web2py-japan" target="_blank">Japanese</a>, <a href="https://groups.google.com/forum/?fromgroups#!forum/web2py-users-brazil" target="_blank">Portuguese</a>, and <a href="https://groups.google.com/forum/?fromgroups#!forum/web2py-usuarios" target="_blank">Spanish</a>.\n          <div style="float: right;">\n            <a href="http://www.web2py.com/" style="float: left; padding-right: 6px;">\n            <img style="padding-bottom: 0;" src="http://web2py.com/examples/static/images/poweredby.png">\n            </a>\n          </div>\n        </div>\n      </div>\n    </div><!-- container -->\n  </div><!-- footer -->\n  <!--[if lt IE 7 ]>\n\t<script src="http://web2py.com/examples/static/js/dd_belatedpng.js"></script>\n\t<script> DD_belatedPNG.fix(\'img, .png_bg\'); //fix any <img> or .png_bg background-images </script>\n\t<![endif]-->\n\n\n</body></html>'
p3668
asbasbasbag49
(g65
g51
NtRp3669
(dp3670
g54
(dp3671
sg63
g3621
sg56
(lp3672
g49
(g70
g51
NtRp3673
(dp3674
g54
(dp3675
g74
g75
ssg63
g3669
sg56
(lp3676
S'url'
p3677
asbag49
(g70
g51
NtRp3678
(dp3679
g54
(dp3680
g81
g82
ssg63
g3669
sg56
(lp3681
S':'
asbag49
(g70
g51
NtRp3682
(dp3683
g54
(dp3684
sg63
g3669
sg56
(lp3685
g49
(g50
g51
NtRp3686
(dp3687
g54
(dp3688
g62
I5
ssg63
g3682
sg56
(lp3689
S'http://web2py.com'
p3690
asbasbasbasbasbsS'etype'
p3691
S"<type 'exceptions.AttributeError'>"
p3692
sS'date'
p3693
S'Sat Dec 10 23:04:52 2011'
p3694
sS'response'
p3695
g49
(g50
g51
NtRp3696
(dp3697
g54
(dp3698
sg56
(lp3699
g49
(g58
g51
NtRp3700
(dp3701
g54
(dp3702
g62
I5
ssg63
Nsg56
(lp3703
g49
(g65
g51
NtRp3704
(dp3705
g54
(dp3706
sg63
g3700
sg56
(lp3707
g49
(g70
g51
NtRp3708
(dp3709
g54
(dp3710
g74
g75
ssg63
g3704
sg56
(lp3711
g147
asbag49
(g70
g51
NtRp3712
(dp3713
g54
(dp3714
g81
g82
ssg63
g3704
sg56
(lp3715
S':'
asbag49
(g70
g51
NtRp3716
(dp3717
g54
(dp3718
sg63
g3704
sg56
(lp3719
g49
(g50
g51
NtRp3720
(dp3721
g54
(dp3722
g62
I5
ssg63
g3716
sg56
(lp3723
S'<cStringIO.StringO object at 0x281c840>'
p3724
asbasbasbag49
(g65
g51
NtRp3725
(dp3726
g54
(dp3727
sg63
g3700
sg56
(lp3728
g49
(g70
g51
NtRp3729
(dp3730
g54
(dp3731
g74
g75
ssg63
g3725
sg56
(lp3732
g213
asbag49
(g70
g51
NtRp3733
(dp3734
g54
(dp3735
g81
g82
ssg63
g3725
sg56
(lp3736
S':'
asbag49
(g70
g51
NtRp3737
(dp3738
g54
(dp3739
sg63
g3725
sg56
(lp3740
g49
(g50
g51
NtRp3741
(dp3742
g54
(dp3743
g62
I5
ssg63
g3737
sg56
(lp3744
g49
(g58
g51
NtRp3745
(dp3746
g54
(dp3747
g62
I4
ssg63
Nsg56
(lp3748
g49
(g65
g51
NtRp3749
(dp3750
g54
(dp3751
sg63
g3745
sg56
(lp3752
g49
(g70
g51
NtRp3753
(dp3754
g54
(dp3755
g74
g75
ssg63
g3749
sg56
(lp3756
S'session_id_inplace'
p3757
asbag49
(g70
g51
NtRp3758
(dp3759
g54
(dp3760
g81
g82
ssg63
g3749
sg56
(lp3761
S':'
asbag49
(g70
g51
NtRp3762
(dp3763
g54
(dp3764
sg63
g3749
sg56
(lp3765
g49
(g50
g51
NtRp3766
(dp3767
g54
(dp3768
g62
I4
ssg63
g3762
sg56
(lp3769
g49
(g58
g51
NtRp3770
(dp3771
g54
(dp3772
g62
I3
ssg63
Nsg56
(lp3773
g49
(g65
g51
NtRp3774
(dp3775
g54
(dp3776
sg63
g3770
sg56
(lp3777
g49
(g70
g51
NtRp3778
(dp3779
g54
(dp3780
g74
g75
ssg63
g3774
sg56
(lp3781
g263
asbag49
(g70
g51
NtRp3782
(dp3783
g54
(dp3784
g81
g82
ssg63
g3774
sg56
(lp3785
S':'
asbag49
(g70
g51
NtRp3786
(dp3787
g54
(dp3788
sg63
g3774
sg56
(lp3789
g49
(g50
g51
NtRp3790
(dp3791
g54
(dp3792
g62
I3
ssg63
g3786
sg56
(lp3793
S''
asbasbasbag49
(g65
g51
NtRp3794
(dp3795
g54
(dp3796
sg63
g3770
sg56
(lp3797
g49
(g70
g51
NtRp3798
(dp3799
g54
(dp3800
g74
g75
ssg63
g3794
sg56
(lp3801
g284
asbag49
(g70
g51
NtRp3802
(dp3803
g54
(dp3804
g81
g82
ssg63
g3794
sg56
(lp3805
S':'
asbag49
(g70
g51
NtRp3806
(dp3807
g54
(dp3808
sg63
g3794
sg56
(lp3809
g49
(g50
g51
NtRp3810
(dp3811
g54
(dp3812
g62
I3
ssg63
g3806
sg56
(lp3813
S''
asbasbasbag49
(g65
g51
NtRp3814
(dp3815
g54
(dp3816
sg63
g3770
sg56
(lp3817
g49
(g70
g51
NtRp3818
(dp3819
g54
(dp3820
g74
g75
ssg63
g3814
sg56
(lp3821
g305
asbag49
(g70
g51
NtRp3822
(dp3823
g54
(dp3824
g81
g82
ssg63
g3814
sg56
(lp3825
S':'
asbag49
(g70
g51
NtRp3826
(dp3827
g54
(dp3828
sg63
g3814
sg56
(lp3829
g49
(g50
g51
NtRp3830
(dp3831
g54
(dp3832
g62
I3
ssg63
g3826
sg56
(lp3833
S''
asbasbasbag49
(g65
g51
NtRp3834
(dp3835
g54
(dp3836
sg63
g3770
sg56
(lp3837
g49
(g70
g51
NtRp3838
(dp3839
g54
(dp3840
g74
g75
ssg63
g3834
sg56
(lp3841
g326
asbag49
(g70
g51
NtRp3842
(dp3843
g54
(dp3844
g81
g82
ssg63
g3834
sg56
(lp3845
S':'
asbag49
(g70
g51
NtRp3846
(dp3847
g54
(dp3848
sg63
g3834
sg56
(lp3849
g49
(g50
g51
NtRp3850
(dp3851
g54
(dp3852
g62
I3
ssg63
g3846
sg56
(lp3853
S''
asbasbasbag49
(g65
g51
NtRp3854
(dp3855
g54
(dp3856
sg63
g3770
sg56
(lp3857
g49
(g70
g51
NtRp3858
(dp3859
g54
(dp3860
g74
g75
ssg63
g3854
sg56
(lp3861
g347
asbag49
(g70
g51
NtRp3862
(dp3863
g54
(dp3864
g81
g82
ssg63
g3854
sg56
(lp3865
S':'
asbag49
(g70
g51
NtRp3866
(dp3867
g54
(dp3868
sg63
g3854
sg56
(lp3869
g49
(g50
g51
NtRp3870
(dp3871
g54
(dp3872
g62
I3
ssg63
g3866
sg56
(lp3873
S'/'
asbasbasbag49
(g65
g51
NtRp3874
(dp3875
g54
(dp3876
sg63
g3770
sg56
(lp3877
g49
(g70
g51
NtRp3878
(dp3879
g54
(dp3880
g74
g75
ssg63
g3874
sg56
(lp3881
g368
asbag49
(g70
g51
NtRp3882
(dp3883
g54
(dp3884
g81
g82
ssg63
g3874
sg56
(lp3885
S':'
asbag49
(g70
g51
NtRp3886
(dp3887
g54
(dp3888
sg63
g3874
sg56
(lp3889
g49
(g50
g51
NtRp3890
(dp3891
g54
(dp3892
g62
I3
ssg63
g3886
sg56
(lp3893
S''
asbasbasbag49
(g65
g51
NtRp3894
(dp3895
g54
(dp3896
sg63
g3770
sg56
(lp3897
g49
(g70
g51
NtRp3898
(dp3899
g54
(dp3900
g74
g75
ssg63
g3894
sg56
(lp3901
g389
asbag49
(g70
g51
NtRp3902
(dp3903
g54
(dp3904
g81
g82
ssg63
g3894
sg56
(lp3905
S':'
asbag49
(g70
g51
NtRp3906
(dp3907
g54
(dp3908
sg63
g3894
sg56
(lp3909
g49
(g50
g51
NtRp3910
(dp3911
g54
(dp3912
g62
I3
ssg63
g3906
sg56
(lp3913
S''
asbasbasbasbasbasbasbasbasbasbasbag49
(g65
g51
NtRp3914
(dp3915
g54
(dp3916
sg63
g3700
sg56
(lp3917
g49
(g70
g51
NtRp3918
(dp3919
g54
(dp3920
g74
g75
ssg63
g3914
sg56
(lp3921
S'files'
p3922
asbag49
(g70
g51
NtRp3923
(dp3924
g54
(dp3925
g81
g82
ssg63
g3914
sg56
(lp3926
S':'
asbag49
(g70
g51
NtRp3927
(dp3928
g54
(dp3929
sg63
g3914
sg56
(lp3930
g49
(g50
g51
NtRp3931
(dp3932
g54
(dp3933
g62
I5
ssg63
g3927
sg56
(lp3934
g49
(g58
g51
NtRp3935
(dp3936
g54
(dp3937
g62
I4
ssg63
Nsg56
(lp3938
sbasbasbasbag49
(g65
g51
NtRp3939
(dp3940
g54
(dp3941
sg63
g3700
sg56
(lp3942
g49
(g70
g51
NtRp3943
(dp3944
g54
(dp3945
g74
g75
ssg63
g3939
sg56
(lp3946
S'flash'
p3947
asbag49
(g70
g51
NtRp3948
(dp3949
g54
(dp3950
g81
g82
ssg63
g3939
sg56
(lp3951
S':'
asbag49
(g70
g51
NtRp3952
(dp3953
g54
(dp3954
sg63
g3939
sg56
(lp3955
g49
(g50
g51
NtRp3956
(dp3957
g54
(dp3958
g62
I5
ssg63
g3952
sg56
(lp3959
S''
asbasbasbag49
(g65
g51
NtRp3960
(dp3961
g54
(dp3962
sg63
g3700
sg56
(lp3963
g49
(g70
g51
NtRp3964
(dp3965
g54
(dp3966
g74
g75
ssg63
g3960
sg56
(lp3967
S'generic_patterns'
p3968
asbag49
(g70
g51
NtRp3969
(dp3970
g54
(dp3971
g81
g82
ssg63
g3960
sg56
(lp3972
S':'
asbag49
(g70
g51
NtRp3973
(dp3974
g54
(dp3975
sg63
g3960
sg56
(lp3976
g49
(g50
g51
NtRp3977
(dp3978
g54
(dp3979
g62
I5
ssg63
g3973
sg56
(lp3980
g49
(g58
g51
NtRp3981
(dp3982
g54
(dp3983
g62
I4
ssg63
Nsg56
(lp3984
g49
(g65
g51
NtRp3985
(dp3986
g54
(dp3987
sg63
g3981
sg56
(lp3988
g49
(g70
g51
NtRp3989
(dp3990
g54
(dp3991
sg63
g3985
sg56
(lp3992
g49
(g50
g51
NtRp3993
(dp3994
g54
(dp3995
g62
I4
ssg63
g3989
sg56
(lp3996
S'*'
asbasbasbasbasbasbasbag49
(g65
g51
NtRp3997
(dp3998
g54
(dp3999
sg63
g3700
sg56
(lp4000
g49
(g70
g51
NtRp4001
(dp4002
g54
(dp4003
g74
g75
ssg63
g3997
sg56
(lp4004
S'headers'
p4005
asbag49
(g70
g51
NtRp4006
(dp4007
g54
(dp4008
g81
g82
ssg63
g3997
sg56
(lp4009
S':'
asbag49
(g70
g51
NtRp4010
(dp4011
g54
(dp4012
sg63
g3997
sg56
(lp4013
g49
(g50
g51
NtRp4014
(dp4015
g54
(dp4016
g62
I5
ssg63
g4010
sg56
(lp4017
g49
(g58
g51
NtRp4018
(dp4019
g54
(dp4020
g62
I4
ssg63
Nsg56
(lp4021
g49
(g65
g51
NtRp4022
(dp4023
g54
(dp4024
sg63
g4018
sg56
(lp4025
g49
(g70
g51
NtRp4026
(dp4027
g54
(dp4028
g74
g75
ssg63
g4022
sg56
(lp4029
S'Cache-Control'
p4030
asbag49
(g70
g51
NtRp4031
(dp4032
g54
(dp4033
g81
g82
ssg63
g4022
sg56
(lp4034
S':'
asbag49
(g70
g51
NtRp4035
(dp4036
g54
(dp4037
sg63
g4022
sg56
(lp4038
g49
(g50
g51
NtRp4039
(dp4040
g54
(dp4041
g62
I4
ssg63
g4035
sg56
(lp4042
S'no-store, no-cache, must-revalidate, post-check=0, pre-check=0'
p4043
asbasbasbag49
(g65
g51
NtRp4044
(dp4045
g54
(dp4046
sg63
g4018
sg56
(lp4047
g49
(g70
g51
NtRp4048
(dp4049
g54
(dp4050
g74
g75
ssg63
g4044
sg56
(lp4051
S'Content-Type'
p4052
asbag49
(g70
g51
NtRp4053
(dp4054
g54
(dp4055
g81
g82
ssg63
g4044
sg56
(lp4056
S':'
asbag49
(g70
g51
NtRp4057
(dp4058
g54
(dp4059
sg63
g4044
sg56
(lp4060
g49
(g50
g51
NtRp4061
(dp4062
g54
(dp4063
g62
I4
ssg63
g4057
sg56
(lp4064
S'text/html; charset=utf-8'
p4065
asbasbasbag49
(g65
g51
NtRp4066
(dp4067
g54
(dp4068
sg63
g4018
sg56
(lp4069
g49
(g70
g51
NtRp4070
(dp4071
g54
(dp4072
g74
g75
ssg63
g4066
sg56
(lp4073
S'Expires'
p4074
asbag49
(g70
g51
NtRp4075
(dp4076
g54
(dp4077
g81
g82
ssg63
g4066
sg56
(lp4078
S':'
asbag49
(g70
g51
NtRp4079
(dp4080
g54
(dp4081
sg63
g4066
sg56
(lp4082
g49
(g50
g51
NtRp4083
(dp4084
g54
(dp4085
g62
I4
ssg63
g4079
sg56
(lp4086
S'Sun, 11 Dec 2011 05:04:52 GMT'
p4087
asbasbasbag49
(g65
g51
NtRp4088
(dp4089
g54
(dp4090
sg63
g4018
sg56
(lp4091
g49
(g70
g51
NtRp4092
(dp4093
g54
(dp4094
g74
g75
ssg63
g4088
sg56
(lp4095
S'Pragma'
p4096
asbag49
(g70
g51
NtRp4097
(dp4098
g54
(dp4099
g81
g82
ssg63
g4088
sg56
(lp4100
S':'
asbag49
(g70
g51
NtRp4101
(dp4102
g54
(dp4103
sg63
g4088
sg56
(lp4104
g49
(g50
g51
NtRp4105
(dp4106
g54
(dp4107
g62
I4
ssg63
g4101
sg56
(lp4108
S'no-cache'
p4109
asbasbasbag49
(g65
g51
NtRp4110
(dp4111
g54
(dp4112
sg63
g4018
sg56
(lp4113
g49
(g70
g51
NtRp4114
(dp4115
g54
(dp4116
g74
g75
ssg63
g4110
sg56
(lp4117
S'X-Powered-By'
p4118
asbag49
(g70
g51
NtRp4119
(dp4120
g54
(dp4121
g81
g82
ssg63
g4110
sg56
(lp4122
S':'
asbag49
(g70
g51
NtRp4123
(dp4124
g54
(dp4125
sg63
g4110
sg56
(lp4126
g49
(g50
g51
NtRp4127
(dp4128
g54
(dp4129
g62
I4
ssg63
g4123
sg56
(lp4130
S'web2py'
p4131
asbasbasbasbasbasbasbag49
(g65
g51
NtRp4132
(dp4133
g54
(dp4134
sg63
g3700
sg56
(lp4135
g49
(g70
g51
NtRp4136
(dp4137
g54
(dp4138
g74
g75
ssg63
g4132
sg56
(lp4139
S'menu'
p4140
asbag49
(g70
g51
NtRp4141
(dp4142
g54
(dp4143
g81
g82
ssg63
g4132
sg56
(lp4144
S':'
asbag49
(g70
g51
NtRp4145
(dp4146
g54
(dp4147
sg63
g4132
sg56
(lp4148
g49
(g50
g51
NtRp4149
(dp4150
g54
(dp4151
g62
I5
ssg63
g4145
sg56
(lp4152
g49
(g58
g51
NtRp4153
(dp4154
g54
(dp4155
g62
I4
ssg63
Nsg56
(lp4156
sbasbasbasbag49
(g65
g51
NtRp4157
(dp4158
g54
(dp4159
sg63
g3700
sg56
(lp4160
g49
(g70
g51
NtRp4161
(dp4162
g54
(dp4163
g74
g75
ssg63
g4157
sg56
(lp4164
S'meta'
p4165
asbag49
(g70
g51
NtRp4166
(dp4167
g54
(dp4168
g81
g82
ssg63
g4157
sg56
(lp4169
S':'
asbag49
(g70
g51
NtRp4170
(dp4171
g54
(dp4172
sg63
g4157
sg56
(lp4173
g49
(g50
g51
NtRp4174
(dp4175
g54
(dp4176
g62
I5
ssg63
g4170
sg56
(lp4177
g49
(g58
g51
NtRp4178
(dp4179
g54
(dp4180
g62
I4
ssg63
Nsg56
(lp4181
sbasbasbasbag49
(g65
g51
NtRp4182
(dp4183
g54
(dp4184
sg63
g3700
sg56
(lp4185
g49
(g70
g51
NtRp4186
(dp4187
g54
(dp4188
g74
g75
ssg63
g4182
sg56
(lp4189
S'postprocessing'
p4190
asbag49
(g70
g51
NtRp4191
(dp4192
g54
(dp4193
g81
g82
ssg63
g4182
sg56
(lp4194
S':'
asbag49
(g70
g51
NtRp4195
(dp4196
g54
(dp4197
sg63
g4182
sg56
(lp4198
g49
(g50
g51
NtRp4199
(dp4200
g54
(dp4201
g62
I5
ssg63
g4195
sg56
(lp4202
g49
(g58
g51
NtRp4203
(dp4204
g54
(dp4205
g62
I4
ssg63
Nsg56
(lp4206
sbasbasbasbag49
(g65
g51
NtRp4207
(dp4208
g54
(dp4209
sg63
g3700
sg56
(lp4210
g49
(g70
g51
NtRp4211
(dp4212
g54
(dp4213
g74
g75
ssg63
g4207
sg56
(lp4214
S'session_file'
p4215
asbag49
(g70
g51
NtRp4216
(dp4217
g54
(dp4218
g81
g82
ssg63
g4207
sg56
(lp4219
S':'
asbag49
(g70
g51
NtRp4220
(dp4221
g54
(dp4222
sg63
g4207
sg56
(lp4223
g49
(g50
g51
NtRp4224
(dp4225
g54
(dp4226
g62
I5
ssg63
g4220
sg56
(lp4227
S"<open file '/Users/mdipierro/Dropbox/web2py/applications/inplace/sessions/127.0.0.1-b67af904-b8cf-469d-95b3-18285a004db1', mode 'rb+' at 0x1c660f8>"
p4228
asbasbasbag49
(g65
g51
NtRp4229
(dp4230
g54
(dp4231
sg63
g3700
sg56
(lp4232
g49
(g70
g51
NtRp4233
(dp4234
g54
(dp4235
g74
g75
ssg63
g4229
sg56
(lp4236
S'session_filename'
p4237
asbag49
(g70
g51
NtRp4238
(dp4239
g54
(dp4240
g81
g82
ssg63
g4229
sg56
(lp4241
S':'
asbag49
(g70
g51
NtRp4242
(dp4243
g54
(dp4244
sg63
g4229
sg56
(lp4245
g49
(g50
g51
NtRp4246
(dp4247
g54
(dp4248
g62
I5
ssg63
g4242
sg56
(lp4249
S'/Users/mdipierro/Dropbox/web2py/applications/inplace/sessions/127.0.0.1-b67af904-b8cf-469d-95b3-18285a004db1'
p4250
asbasbasbag49
(g65
g51
NtRp4251
(dp4252
g54
(dp4253
sg63
g3700
sg56
(lp4254
g49
(g70
g51
NtRp4255
(dp4256
g54
(dp4257
g74
g75
ssg63
g4251
sg56
(lp4258
S'session_id'
p4259
asbag49
(g70
g51
NtRp4260
(dp4261
g54
(dp4262
g81
g82
ssg63
g4251
sg56
(lp4263
S':'
asbag49
(g70
g51
NtRp4264
(dp4265
g54
(dp4266
sg63
g4251
sg56
(lp4267
g49
(g50
g51
NtRp4268
(dp4269
g54
(dp4270
g62
I5
ssg63
g4264
sg56
(lp4271
S'127.0.0.1-b67af904-b8cf-469d-95b3-18285a004db1'
p4272
asbasbasbag49
(g65
g51
NtRp4273
(dp4274
g54
(dp4275
sg63
g3700
sg56
(lp4276
g49
(g70
g51
NtRp4277
(dp4278
g54
(dp4279
g74
g75
ssg63
g4273
sg56
(lp4280
S'session_id_name'
p4281
asbag49
(g70
g51
NtRp4282
(dp4283
g54
(dp4284
g81
g82
ssg63
g4273
sg56
(lp4285
S':'
asbag49
(g70
g51
NtRp4286
(dp4287
g54
(dp4288
sg63
g4273
sg56
(lp4289
g49
(g50
g51
NtRp4290
(dp4291
g54
(dp4292
g62
I5
ssg63
g4286
sg56
(lp4293
g3757
asbasbasbag49
(g65
g51
NtRp4294
(dp4295
g54
(dp4296
sg63
g3700
sg56
(lp4297
g49
(g70
g51
NtRp4298
(dp4299
g54
(dp4300
g74
g75
ssg63
g4294
sg56
(lp4301
S'session_locked'
p4302
asbag49
(g70
g51
NtRp4303
(dp4304
g54
(dp4305
g81
g82
ssg63
g4294
sg56
(lp4306
S':'
asbag49
(g70
g51
NtRp4307
(dp4308
g54
(dp4309
sg63
g4294
sg56
(lp4310
g49
(g50
g51
NtRp4311
(dp4312
g54
(dp4313
g62
I5
ssg63
g4307
sg56
(lp4314
g2105
asbasbasbag49
(g65
g51
NtRp4315
(dp4316
g54
(dp4317
sg63
g3700
sg56
(lp4318
g49
(g70
g51
NtRp4319
(dp4320
g54
(dp4321
g74
g75
ssg63
g4315
sg56
(lp4322
S'session_new'
p4323
asbag49
(g70
g51
NtRp4324
(dp4325
g54
(dp4326
g81
g82
ssg63
g4315
sg56
(lp4327
S':'
asbag49
(g70
g51
NtRp4328
(dp4329
g54
(dp4330
sg63
g4315
sg56
(lp4331
g49
(g50
g51
NtRp4332
(dp4333
g54
(dp4334
g62
I5
ssg63
g4328
sg56
(lp4335
g92
asbasbasbag49
(g65
g51
NtRp4336
(dp4337
g54
(dp4338
sg63
g3700
sg56
(lp4339
g49
(g70
g51
NtRp4340
(dp4341
g54
(dp4342
g74
g75
ssg63
g4336
sg56
(lp4343
S'status'
p4344
asbag49
(g70
g51
NtRp4345
(dp4346
g54
(dp4347
g81
g82
ssg63
g4336
sg56
(lp4348
S':'
asbag49
(g70
g51
NtRp4349
(dp4350
g54
(dp4351
sg63
g4336
sg56
(lp4352
g49
(g50
g51
NtRp4353
(dp4354
g54
(dp4355
g62
I5
ssg63
g4349
sg56
(lp4356
S'200'
p4357
asbasbasbag49
(g65
g51
NtRp4358
(dp4359
g54
(dp4360
sg63
g3700
sg56
(lp4361
g49
(g70
g51
NtRp4362
(dp4363
g54
(dp4364
g74
g75
ssg63
g4358
sg56
(lp4365
S'subtitle'
p4366
asbag49
(g70
g51
NtRp4367
(dp4368
g54
(dp4369
g81
g82
ssg63
g4358
sg56
(lp4370
S':'
asbag49
(g70
g51
NtRp4371
(dp4372
g54
(dp4373
sg63
g4358
sg56
(lp4374
g49
(g50
g51
NtRp4375
(dp4376
g54
(dp4377
g62
I5
ssg63
g4371
sg56
(lp4378
S'experimental!'
p4379
asbasbasbag49
(g65
g51
NtRp4380
(dp4381
g54
(dp4382
sg63
g3700
sg56
(lp4383
g49
(g70
g51
NtRp4384
(dp4385
g54
(dp4386
g74
g75
ssg63
g4380
sg56
(lp4387
S'title'
p4388
asbag49
(g70
g51
NtRp4389
(dp4390
g54
(dp4391
g81
g82
ssg63
g4380
sg56
(lp4392
S':'
asbag49
(g70
g51
NtRp4393
(dp4394
g54
(dp4395
sg63
g4380
sg56
(lp4396
g49
(g50
g51
NtRp4397
(dp4398
g54
(dp4399
g62
I5
ssg63
g4393
sg56
(lp4400
S'Inplace Web Page Editor'
p4401
asbasbasbag49
(g65
g51
NtRp4402
(dp4403
g54
(dp4404
sg63
g3700
sg56
(lp4405
g49
(g70
g51
NtRp4406
(dp4407
g54
(dp4408
g74
g75
ssg63
g4402
sg56
(lp4409
g2791
asbag49
(g70
g51
NtRp4410
(dp4411
g54
(dp4412
g81
g82
ssg63
g4402
sg56
(lp4413
S':'
asbag49
(g70
g51
NtRp4414
(dp4415
g54
(dp4416
sg63
g4402
sg56
(lp4417
g49
(g50
g51
NtRp4418
(dp4419
g54
(dp4420
g62
I5
ssg63
g4414
sg56
(lp4421
g2804
asbasbasbag49
(g65
g51
NtRp4422
(dp4423
g54
(dp4424
sg63
g3700
sg56
(lp4425
g49
(g70
g51
NtRp4426
(dp4427
g54
(dp4428
g74
g75
ssg63
g4422
sg56
(lp4429
S'view'
p4430
asbag49
(g70
g51
NtRp4431
(dp4432
g54
(dp4433
g81
g82
ssg63
g4422
sg56
(lp4434
S':'
asbag49
(g70
g51
NtRp4435
(dp4436
g54
(dp4437
sg63
g4422
sg56
(lp4438
g49
(g50
g51
NtRp4439
(dp4440
g54
(dp4441
g62
I5
ssg63
g4435
sg56
(lp4442
S'default/edit.html'
p4443
asbasbasbasbasbsS'locals'
p4444
(dp4445
g2747
S'None'
p4446
sssS'traceback'
p4447
S'Traceback (most recent call last):\n  File "/Users/mdipierro/Dropbox/web2py/gluon/restricted.py", line 204, in restricted\n    exec ccode in environment\n  File "/Users/mdipierro/Dropbox/web2py/applications/inplace/controllers/default.py", line 53, in <module>\n  File "/Users/mdipierro/Dropbox/web2py/gluon/globals.py", line 172, in <lambda>\n    self._caller = lambda f: f()\n  File "/Users/mdipierro/Dropbox/web2py/applications/inplace/controllers/default.py", line 27, in edit\n    html = urllib.urlopen(url).read()\n  File "/System/Library/Frameworks/Python.framework/Versions/2.5/lib/python2.5/urllib.py", line 82, in urlopen\n    return opener.open(url)\n  File "/System/Library/Frameworks/Python.framework/Versions/2.5/lib/python2.5/urllib.py", line 165, in open\n    fullurl = unwrap(toBytes(fullurl))\n  File "/System/Library/Frameworks/Python.framework/Versions/2.5/lib/python2.5/urllib.py", line 1009, in unwrap\n    url = url.strip()\nAttributeError: \'NoneType\' object has no attribute \'strip\'\n'
p4448
s.