(dp1
S'output'
p2
S"<type 'exceptions.NameError'> name 'rexponse' is not defined"
p3
sS'layer'
p4
S'/Users/mdipierro/Dropbox/web2py/applications/inplace/views/default/test.html'
p5
sS'code'
p6
S'rexponse.files.append(URL(\'static\',\'js/nicEditor.js\'))\nresponse.write(\'\\n\', escape=False)\nresponse.write(\'<!DOCTYPE html>\\n<!-- paulirish.com/2008/conditional-stylesheets-vs-css-hacks-answer-neither/ -->\\n<!--[if lt IE 7]><html class="ie ie6 ie-lte9 ie-lte8 ie-lte7 no-js" lang="\', escape=False)\nresponse.write(T.accepted_language or \'en\')\nresponse.write(\'"> <![endif]-->\\n<!--[if IE 7]><html class="ie ie7 ie-lte9 ie-lte8 ie-lte7 no-js" lang="\', escape=False)\nresponse.write(T.accepted_language or \'en\')\nresponse.write(\'"> <![endif]-->\\n<!--[if IE 8]><html class="ie ie8 ie-lte9 ie-lte8 no-js" lang="\', escape=False)\nresponse.write(T.accepted_language or \'en\')\nresponse.write(\'"> <![endif]-->\\n<!--[if IE 9]><html class="ie9 ie-lte9 no-js" lang="\', escape=False)\nresponse.write(T.accepted_language or \'en\')\nresponse.write(\'"> <![endif]-->\\n<!--[if (gt IE 9)|!(IE)]><!--> <html class="no-js" lang="\', escape=False)\nresponse.write(T.accepted_language or \'en\')\nresponse.write(\'"> <!--<![endif]-->\\n<head>\\n  <meta charset="utf-8" />\\n  <!-- www.phpied.com/conditional-comments-block-downloads/ -->\\n  <!-- Always force latest IE rendering engine\\n\\t   (even in intranet) & Chrome Frame\\n\\t   Remove this if you use the .htaccess -->\\n  <!--[if IE]>\\n    <meta http-equiv="X-UA-Compatible" content="IE=edge\', escape=False)\nresponse.write(not request.is_local and \',chrome=1\' or \'\')\nresponse.write(\'">\\n  <![endif]-->\\n  \\n  <title>\', escape=False)\nresponse.write(response.title or request.application)\nresponse.write(\'</title>\\n  \\n  <!-- http://dev.w3.org/html5/markup/meta.name.html -->\\n  <meta name="application-name" content="\', escape=False)\nresponse.write(request.application)\nresponse.write(\'" />\\n  \\n  <!-- Speaking of Google, don\\\'t forget to set your site up:\\n\\t   http://google.com/webmasters -->\\n  <meta name="google-site-verification" content="" />\\n\\n  <!--  Mobile Viewport Fix\\n\\t  j.mp/mobileviewport & davidbcalhoun.com/2010/viewport-metatag\\n\\t  device-width: Occupy full width of the screen in its current orientation\\n\\t  initial-scale = 1.0 retains dimensions instead of zooming out if page height > device height\\n\\t  user-scalable = yes allows the user to zoom in -->\\n  <meta name="viewport" content="width=device-width, initial-scale=1.0, user-scalable=yes">\\n  \\n  <!-- Place favicon.ico and apple-touch-icon.png in the root of your domain and delete these references -->\\n  <link rel="shortcut icon" href="\', escape=False)\nresponse.write(URL(\'static\',\'favicon.ico\'))\nresponse.write(\'" type="image/x-icon">\\n  <link rel="apple-touch-icon" href="\', escape=False)\nresponse.write(URL(\'static\',\'favicon.png\'))\nresponse.write(\'">\\n\\n  <!-- All JavaScript at the bottom, except for Modernizr which enables \\n\\t   HTML5 elements & feature detects -->\\n  <script src="\', escape=False)\nresponse.write(URL(\'static\',\'js/modernizr.custom.js\'))\nresponse.write(\'"></script>  \\n\\n  <!-- include stylesheets -->\\n  \', escape=False)\nresponse.files.append(URL(\'static\',\'css/skeleton.css\'))\nresponse.files.append(URL(\'static\',\'css/web2py.css\'))\nresponse.files.append(URL(\'static\',\'css/superfish.css\'))\nresponse.files.append(URL(\'static\',\'js/superfish.js\'))\nresponse.write(\'\\n\\n  \', escape=False)\nresponse.write(\'<script type="text/javascript"><!--\\n    // These variables are used by the web2py_ajax_init function in web2py_ajax.js (which is loaded below).\\n    var w2p_ajax_confirm_message = "\', escape=False)\nresponse.write(T(\'Are you sure you want to delete this object?\'))\nresponse.write(\'";\\n    var w2p_ajax_date_format = "\', escape=False)\nresponse.write(T(\'%Y-%m-%d\'))\nresponse.write(\'";\\n    var w2p_ajax_datetime_format = "\', escape=False)\nresponse.write(T(\'%Y-%m-%d %H:%M:%S\'))\nresponse.write(\'";\\n    //--></script>\\n\', escape=False)\nresponse.files.insert(0,URL(\'static\',\'js/jquery.js\'))\nresponse.files.insert(1,URL(\'static\',\'css/calendar.css\'))\nresponse.files.insert(2,URL(\'static\',\'js/calendar.js\'))\nresponse.files.insert(3,URL(\'static\',\'js/web2py.js\'))\nresponse.include_meta()\nresponse.include_files()\nresponse.write(\'\\n\', escape=False)\nresponse.write(\'\\n\\n  <script type="text/javascript">\\n    jQuery(function(){ jQuery(\\\'ul.sf-menu\\\').supersubs({minWidth:12,maxWidth:30,extraWidth:3}).superfish(); });\\n  </script>\\n\\n  \', escape=False)\n# using sidebars need to know what sidebar you want to use\nleft_sidebar_enabled = globals().get(\'left_sidebar_enabled\',False)\nright_sidebar_enabled = globals().get(\'right_sidebar_enabled\',False)\nmiddle_columns = {0:\'sixteen\',1:\'twelve\',2:\'eight\'}[\n(left_sidebar_enabled and 1 or 0)+(right_sidebar_enabled and 1 or 0)]\nresponse.write(\'\\n\\n  <!-- uncomment here to load jquery-ui\\n  <link rel="stylesheet" href="http://ajax.googleapis.com/ajax/libs/jqueryui/1.8.16/themes/base/jquery-ui.css" type="text/css" media="all" />\\n  <script src="http://ajax.googleapis.com/ajax/libs/jqueryui/1.8.16/jquery-ui.min.js" type="text/javascript"></script>\\n  uncomment to load jquery-ui //-->\\n</head>\\n<body>\\n  <div class="wrapper"><!-- for sticky footer -->\\n  \\n    <div class="flash">\', escape=False)\nresponse.write(response.flash or \'\')\nresponse.write(\'</div>\\n    \\n    <div class="header">\\n      <div class="container">         \\n        <div class="sixteen columns">\\n          <h1 class="remove-bottom" style="margin-top: .5em;">\\n          \', escape=False)\nresponse.write(response.title or request.application)\nresponse.write(\'\\n          </h1>\\n          <h5>\', escape=False)\nresponse.write(response.subtitle or \'\')\nresponse.write(\'</h5>\\n        </div>\\n      </div>\\n    </div>\\n\\n    <div class="main">\\n      <div class="container">                 \\n        \', escape=False)\nif left_sidebar_enabled:\n    response.write(\'\\n        <div class="four columns left-sidebar">\\n          \', escape=False)\n    response.write(\'\\n          <h3>Left Sidebar</h3>\\n          <p></p>\\n          \', escape=False)\n    response.write(\'\\n        </div>\\n        \', escape=False)\n    pass\nresponse.write(\'\\n        \\n        <div class="\', escape=False)\nresponse.write(middle_columns)\nresponse.write(\' columns center">\\n          \', escape=False)\nresponse.write(\'\\n          \', escape=False)\nresponse.write(\'\\n\\n<textarea id="test"></textarea>\\n\\n<script>\\njQuery(function(){area2 = new nicEditor({fullPanel : true}).panelInstance(\\\'test\\\');});\\n</script>\\n\', escape=False)\nresponse.write(\'\\n          \', escape=False)\nresponse.write(\'\\n        </div>\\n        \\n        \', escape=False)\nif right_sidebar_enabled:\n    response.write(\'\\n        <div class="four columns">\\n          \', escape=False)\n    response.write(\'\\n          <h3>Right Sidebar</h3>\\n          <p></p>\\n          \', escape=False)\n    response.write(\'\\n        </div>    \\n        \', escape=False)\n    pass\nresponse.write(\'\\n        \\n      </div><!-- container -->\\n    </div><!-- main -->\\n    \\n    <div class="push"></div>\\n  </div><!-- wrapper -->\\n\\n  <div class="footer">\\n    <div class="container">    \\n      <div class="sixteen columns">\\n        \', escape=False)\nresponse.write(\' <!-- this is default footer -->\\n        <div class="footer-content clearfix">\\n          <div class="copyright">\', escape=False)\nresponse.write(T(\'Copyright\'))\nresponse.write(\' &#169; 2011</div>\\n          <div style="float: right;">\\n            <a href="http://www.web2py.com/">\\n            <img style="padding-bottom: 0;" src="\', escape=False)\nresponse.write(URL(\'static\',\'images/poweredby.png\'))\nresponse.write(\'"/>\\n            </a>\\n          </div>\\n        </div>\\n        \', escape=False)\nresponse.write(\'\\t\\n      </div>\\n    </div><!-- container -->\\n  </div><!-- footer -->\\n  \\n  <!--[if lt IE 7 ]>\\n\\t<script src="\', escape=False)\nresponse.write(URL(\'static\',\'js/dd_belatedpng.js\'))\nresponse.write(\'"></script>\\n\\t<script> DD_belatedPNG.fix(\\\'img, .png_bg\\\'); //fix any <img> or .png_bg background-images </script>\\n\\t<![endif]-->\\n  \', escape=False)\nif response.google_analytics_id:\n    response.write(\'<script type="text/javascript"> var _gaq = _gaq || []; _gaq.push([\\\'_setAccount\\\', \\\'\', escape=False)\n    response.write(response.google_analytics_id)\n    response.write("\']); _gaq.push([\'_trackPageview\']); (function() { var ga = document.createElement(\'script\'); ga.type = \'text/javascript\'; ga.async = true; ga.src = (\'https:\' == document.location.protocol ? \'https://ssl\' : \'http://www\') + \'.google-analytics.com/ga.js\'; var s = document.getElementsByTagName(\'script\')[0]; s.parentNode.insertBefore(ga, s); })(); </script> ", escape=False)\n    pass\nresponse.write(\'\\n</body>\\n</html>\\n\', escape=False)'
p7
sS'snapshot'
p8
(dp9
S'exception'
p10
(dp11
S'__hash__'
p12
S"<method-wrapper '__hash__' of exceptions.NameError object at 0x1d923a0>"
p13
sS'__setattr__'
p14
S"<method-wrapper '__setattr__' of exceptions.NameError object at 0x1d923a0>"
p15
sS'__reduce_ex__'
p16
S'<built-in method __reduce_ex__ of exceptions.NameError object at 0x1d923a0>'
p17
sS'__getslice__'
p18
S"<method-wrapper '__getslice__' of exceptions.NameError object at 0x1d923a0>"
p19
sS'__getitem__'
p20
S"<method-wrapper '__getitem__' of exceptions.NameError object at 0x1d923a0>"
p21
sS'__setstate__'
p22
S'<built-in method __setstate__ of exceptions.NameError object at 0x1d923a0>'
p23
sS'__reduce__'
p24
S'<built-in method __reduce__ of exceptions.NameError object at 0x1d923a0>'
p25
sS'__str__'
p26
S"<method-wrapper '__str__' of exceptions.NameError object at 0x1d923a0>"
p27
sS'args'
p28
S'("name \'rexponse\' is not defined",)'
p29
sS'__getattribute__'
p30
S"<method-wrapper '__getattribute__' of exceptions.NameError object at 0x1d923a0>"
p31
sS'__class__'
p32
S"<type 'exceptions.NameError'>"
p33
sS'__delattr__'
p34
S"<method-wrapper '__delattr__' of exceptions.NameError object at 0x1d923a0>"
p35
sS'__repr__'
p36
S"<method-wrapper '__repr__' of exceptions.NameError object at 0x1d923a0>"
p37
sS'__dict__'
p38
S'{}'
p39
sS'__doc__'
p40
S"'Name not found globally.'"
p41
sS'__init__'
p42
S"<method-wrapper '__init__' of exceptions.NameError object at 0x1d923a0>"
p43
sS'__new__'
p44
S'<built-in method __new__ of type object at 0xdbfc0>'
p45
ssS'evalue'
p46
S"name 'rexponse' is not defined"
p47
sS'request'
p48
ccopy_reg
_reconstructor
p49
(cgluon.html
BEAUTIFY
p50
c__builtin__
object
p51
NtRp52
(dp53
S'attributes'
p54
(dp55
sS'components'
p56
(lp57
g49
(cgluon.html
TABLE
p58
g51
NtRp59
(dp60
g54
(dp61
S'level'
p62
I5
ssS'parent'
p63
Nsg56
(lp64
g49
(cgluon.html
TR
p65
g51
NtRp66
(dp67
g54
(dp68
sg63
g59
sg56
(lp69
g49
(cgluon.html
TD
p70
g51
NtRp71
(dp72
g54
(dp73
S'_style'
p74
S'font-weight:bold;vertical-align:top'
p75
ssg63
g66
sg56
(lp76
S'ajax'
p77
asbag49
(g70
g51
NtRp78
(dp79
g54
(dp80
S'_valign'
p81
S'top'
p82
ssg63
g66
sg56
(lp83
S':'
asbag49
(g70
g51
NtRp84
(dp85
g54
(dp86
sg63
g66
sg56
(lp87
g49
(g50
g51
NtRp88
(dp89
g54
(dp90
g62
I5
ssg63
g84
sg56
(lp91
S'False'
p92
asbasbasbag49
(g65
g51
NtRp93
(dp94
g54
(dp95
sg63
g59
sg56
(lp96
g49
(g70
g51
NtRp97
(dp98
g54
(dp99
g74
g75
ssg63
g93
sg56
(lp100
S'application'
p101
asbag49
(g70
g51
NtRp102
(dp103
g54
(dp104
g81
g82
ssg63
g93
sg56
(lp105
S':'
asbag49
(g70
g51
NtRp106
(dp107
g54
(dp108
sg63
g93
sg56
(lp109
g49
(g50
g51
NtRp110
(dp111
g54
(dp112
g62
I5
ssg63
g106
sg56
(lp113
S'inplace'
p114
asbasbasbag49
(g65
g51
NtRp115
(dp116
g54
(dp117
sg63
g59
sg56
(lp118
g49
(g70
g51
NtRp119
(dp120
g54
(dp121
g74
g75
ssg63
g115
sg56
(lp122
g28
asbag49
(g70
g51
NtRp123
(dp124
g54
(dp125
g81
g82
ssg63
g115
sg56
(lp126
S':'
asbag49
(g70
g51
NtRp127
(dp128
g54
(dp129
sg63
g115
sg56
(lp130
g49
(g50
g51
NtRp131
(dp132
g54
(dp133
g62
I5
ssg63
g127
sg56
(lp134
g49
(g58
g51
NtRp135
(dp136
g54
(dp137
g62
I4
ssg63
Nsg56
(lp138
sbasbasbasbag49
(g65
g51
NtRp139
(dp140
g54
(dp141
sg63
g59
sg56
(lp142
g49
(g70
g51
NtRp143
(dp144
g54
(dp145
g74
g75
ssg63
g139
sg56
(lp146
S'body'
p147
asbag49
(g70
g51
NtRp148
(dp149
g54
(dp150
g81
g82
ssg63
g139
sg56
(lp151
S':'
asbag49
(g70
g51
NtRp152
(dp153
g54
(dp154
sg63
g139
sg56
(lp155
g49
(g50
g51
NtRp156
(dp157
g54
(dp158
g62
I5
ssg63
g152
sg56
(lp159
S'<cStringIO.StringO object at 0x72dda0>'
p160
asbasbasbag49
(g65
g51
NtRp161
(dp162
g54
(dp163
sg63
g59
sg56
(lp164
g49
(g70
g51
NtRp165
(dp166
g54
(dp167
g74
g75
ssg63
g161
sg56
(lp168
S'client'
p169
asbag49
(g70
g51
NtRp170
(dp171
g54
(dp172
g81
g82
ssg63
g161
sg56
(lp173
S':'
asbag49
(g70
g51
NtRp174
(dp175
g54
(dp176
sg63
g161
sg56
(lp177
g49
(g50
g51
NtRp178
(dp179
g54
(dp180
g62
I5
ssg63
g174
sg56
(lp181
S'127.0.0.1'
p182
asbasbasbag49
(g65
g51
NtRp183
(dp184
g54
(dp185
sg63
g59
sg56
(lp186
g49
(g70
g51
NtRp187
(dp188
g54
(dp189
g74
g75
ssg63
g183
sg56
(lp190
S'controller'
p191
asbag49
(g70
g51
NtRp192
(dp193
g54
(dp194
g81
g82
ssg63
g183
sg56
(lp195
S':'
asbag49
(g70
g51
NtRp196
(dp197
g54
(dp198
sg63
g183
sg56
(lp199
g49
(g50
g51
NtRp200
(dp201
g54
(dp202
g62
I5
ssg63
g196
sg56
(lp203
S'default'
p204
asbasbasbag49
(g65
g51
NtRp205
(dp206
g54
(dp207
sg63
g59
sg56
(lp208
g49
(g70
g51
NtRp209
(dp210
g54
(dp211
g74
g75
ssg63
g205
sg56
(lp212
S'cookies'
p213
asbag49
(g70
g51
NtRp214
(dp215
g54
(dp216
g81
g82
ssg63
g205
sg56
(lp217
S':'
asbag49
(g70
g51
NtRp218
(dp219
g54
(dp220
sg63
g205
sg56
(lp221
g49
(g50
g51
NtRp222
(dp223
g54
(dp224
g62
I5
ssg63
g218
sg56
(lp225
g49
(g58
g51
NtRp226
(dp227
g54
(dp228
g62
I4
ssg63
Nsg56
(lp229
g49
(g65
g51
NtRp230
(dp231
g54
(dp232
sg63
g226
sg56
(lp233
g49
(g70
g51
NtRp234
(dp235
g54
(dp236
g74
g75
ssg63
g230
sg56
(lp237
S'el-finder-last-finder'
p238
asbag49
(g70
g51
NtRp239
(dp240
g54
(dp241
g81
g82
ssg63
g230
sg56
(lp242
S':'
asbag49
(g70
g51
NtRp243
(dp244
g54
(dp245
sg63
g230
sg56
(lp246
g49
(g50
g51
NtRp247
(dp248
g54
(dp249
g62
I4
ssg63
g243
sg56
(lp250
g49
(g58
g51
NtRp251
(dp252
g54
(dp253
g62
I3
ssg63
Nsg56
(lp254
g49
(g65
g51
NtRp255
(dp256
g54
(dp257
sg63
g251
sg56
(lp258
g49
(g70
g51
NtRp259
(dp260
g54
(dp261
g74
g75
ssg63
g255
sg56
(lp262
S'comment'
p263
asbag49
(g70
g51
NtRp264
(dp265
g54
(dp266
g81
g82
ssg63
g255
sg56
(lp267
S':'
asbag49
(g70
g51
NtRp268
(dp269
g54
(dp270
sg63
g255
sg56
(lp271
g49
(g50
g51
NtRp272
(dp273
g54
(dp274
g62
I3
ssg63
g268
sg56
(lp275
S''
asbasbasbag49
(g65
g51
NtRp276
(dp277
g54
(dp278
sg63
g251
sg56
(lp279
g49
(g70
g51
NtRp280
(dp281
g54
(dp282
g74
g75
ssg63
g276
sg56
(lp283
S'domain'
p284
asbag49
(g70
g51
NtRp285
(dp286
g54
(dp287
g81
g82
ssg63
g276
sg56
(lp288
S':'
asbag49
(g70
g51
NtRp289
(dp290
g54
(dp291
sg63
g276
sg56
(lp292
g49
(g50
g51
NtRp293
(dp294
g54
(dp295
g62
I3
ssg63
g289
sg56
(lp296
S''
asbasbasbag49
(g65
g51
NtRp297
(dp298
g54
(dp299
sg63
g251
sg56
(lp300
g49
(g70
g51
NtRp301
(dp302
g54
(dp303
g74
g75
ssg63
g297
sg56
(lp304
S'expires'
p305
asbag49
(g70
g51
NtRp306
(dp307
g54
(dp308
g81
g82
ssg63
g297
sg56
(lp309
S':'
asbag49
(g70
g51
NtRp310
(dp311
g54
(dp312
sg63
g297
sg56
(lp313
g49
(g50
g51
NtRp314
(dp315
g54
(dp316
g62
I3
ssg63
g310
sg56
(lp317
S''
asbasbasbag49
(g65
g51
NtRp318
(dp319
g54
(dp320
sg63
g251
sg56
(lp321
g49
(g70
g51
NtRp322
(dp323
g54
(dp324
g74
g75
ssg63
g318
sg56
(lp325
S'max-age'
p326
asbag49
(g70
g51
NtRp327
(dp328
g54
(dp329
g81
g82
ssg63
g318
sg56
(lp330
S':'
asbag49
(g70
g51
NtRp331
(dp332
g54
(dp333
sg63
g318
sg56
(lp334
g49
(g50
g51
NtRp335
(dp336
g54
(dp337
g62
I3
ssg63
g331
sg56
(lp338
S''
asbasbasbag49
(g65
g51
NtRp339
(dp340
g54
(dp341
sg63
g251
sg56
(lp342
g49
(g70
g51
NtRp343
(dp344
g54
(dp345
g74
g75
ssg63
g339
sg56
(lp346
S'path'
p347
asbag49
(g70
g51
NtRp348
(dp349
g54
(dp350
g81
g82
ssg63
g339
sg56
(lp351
S':'
asbag49
(g70
g51
NtRp352
(dp353
g54
(dp354
sg63
g339
sg56
(lp355
g49
(g50
g51
NtRp356
(dp357
g54
(dp358
g62
I3
ssg63
g352
sg56
(lp359
S''
asbasbasbag49
(g65
g51
NtRp360
(dp361
g54
(dp362
sg63
g251
sg56
(lp363
g49
(g70
g51
NtRp364
(dp365
g54
(dp366
g74
g75
ssg63
g360
sg56
(lp367
S'secure'
p368
asbag49
(g70
g51
NtRp369
(dp370
g54
(dp371
g81
g82
ssg63
g360
sg56
(lp372
S':'
asbag49
(g70
g51
NtRp373
(dp374
g54
(dp375
sg63
g360
sg56
(lp376
g49
(g50
g51
NtRp377
(dp378
g54
(dp379
g62
I3
ssg63
g373
sg56
(lp380
S''
asbasbasbag49
(g65
g51
NtRp381
(dp382
g54
(dp383
sg63
g251
sg56
(lp384
g49
(g70
g51
NtRp385
(dp386
g54
(dp387
g74
g75
ssg63
g381
sg56
(lp388
S'version'
p389
asbag49
(g70
g51
NtRp390
(dp391
g54
(dp392
g81
g82
ssg63
g381
sg56
(lp393
S':'
asbag49
(g70
g51
NtRp394
(dp395
g54
(dp396
sg63
g381
sg56
(lp397
g49
(g50
g51
NtRp398
(dp399
g54
(dp400
g62
I3
ssg63
g394
sg56
(lp401
S''
asbasbasbasbasbasbasbag49
(g65
g51
NtRp402
(dp403
g54
(dp404
sg63
g226
sg56
(lp405
g49
(g70
g51
NtRp406
(dp407
g54
(dp408
g74
g75
ssg63
g402
sg56
(lp409
S'registered'
p410
asbag49
(g70
g51
NtRp411
(dp412
g54
(dp413
g81
g82
ssg63
g402
sg56
(lp414
S':'
asbag49
(g70
g51
NtRp415
(dp416
g54
(dp417
sg63
g402
sg56
(lp418
g49
(g50
g51
NtRp419
(dp420
g54
(dp421
g62
I4
ssg63
g415
sg56
(lp422
g49
(g58
g51
NtRp423
(dp424
g54
(dp425
g62
I3
ssg63
Nsg56
(lp426
g49
(g65
g51
NtRp427
(dp428
g54
(dp429
sg63
g423
sg56
(lp430
g49
(g70
g51
NtRp431
(dp432
g54
(dp433
g74
g75
ssg63
g427
sg56
(lp434
g263
asbag49
(g70
g51
NtRp435
(dp436
g54
(dp437
g81
g82
ssg63
g427
sg56
(lp438
S':'
asbag49
(g70
g51
NtRp439
(dp440
g54
(dp441
sg63
g427
sg56
(lp442
g49
(g50
g51
NtRp443
(dp444
g54
(dp445
g62
I3
ssg63
g439
sg56
(lp446
S''
asbasbasbag49
(g65
g51
NtRp447
(dp448
g54
(dp449
sg63
g423
sg56
(lp450
g49
(g70
g51
NtRp451
(dp452
g54
(dp453
g74
g75
ssg63
g447
sg56
(lp454
g284
asbag49
(g70
g51
NtRp455
(dp456
g54
(dp457
g81
g82
ssg63
g447
sg56
(lp458
S':'
asbag49
(g70
g51
NtRp459
(dp460
g54
(dp461
sg63
g447
sg56
(lp462
g49
(g50
g51
NtRp463
(dp464
g54
(dp465
g62
I3
ssg63
g459
sg56
(lp466
S''
asbasbasbag49
(g65
g51
NtRp467
(dp468
g54
(dp469
sg63
g423
sg56
(lp470
g49
(g70
g51
NtRp471
(dp472
g54
(dp473
g74
g75
ssg63
g467
sg56
(lp474
g305
asbag49
(g70
g51
NtRp475
(dp476
g54
(dp477
g81
g82
ssg63
g467
sg56
(lp478
S':'
asbag49
(g70
g51
NtRp479
(dp480
g54
(dp481
sg63
g467
sg56
(lp482
g49
(g50
g51
NtRp483
(dp484
g54
(dp485
g62
I3
ssg63
g479
sg56
(lp486
S''
asbasbasbag49
(g65
g51
NtRp487
(dp488
g54
(dp489
sg63
g423
sg56
(lp490
g49
(g70
g51
NtRp491
(dp492
g54
(dp493
g74
g75
ssg63
g487
sg56
(lp494
g326
asbag49
(g70
g51
NtRp495
(dp496
g54
(dp497
g81
g82
ssg63
g487
sg56
(lp498
S':'
asbag49
(g70
g51
NtRp499
(dp500
g54
(dp501
sg63
g487
sg56
(lp502
g49
(g50
g51
NtRp503
(dp504
g54
(dp505
g62
I3
ssg63
g499
sg56
(lp506
S''
asbasbasbag49
(g65
g51
NtRp507
(dp508
g54
(dp509
sg63
g423
sg56
(lp510
g49
(g70
g51
NtRp511
(dp512
g54
(dp513
g74
g75
ssg63
g507
sg56
(lp514
g347
asbag49
(g70
g51
NtRp515
(dp516
g54
(dp517
g81
g82
ssg63
g507
sg56
(lp518
S':'
asbag49
(g70
g51
NtRp519
(dp520
g54
(dp521
sg63
g507
sg56
(lp522
g49
(g50
g51
NtRp523
(dp524
g54
(dp525
g62
I3
ssg63
g519
sg56
(lp526
S''
asbasbasbag49
(g65
g51
NtRp527
(dp528
g54
(dp529
sg63
g423
sg56
(lp530
g49
(g70
g51
NtRp531
(dp532
g54
(dp533
g74
g75
ssg63
g527
sg56
(lp534
g368
asbag49
(g70
g51
NtRp535
(dp536
g54
(dp537
g81
g82
ssg63
g527
sg56
(lp538
S':'
asbag49
(g70
g51
NtRp539
(dp540
g54
(dp541
sg63
g527
sg56
(lp542
g49
(g50
g51
NtRp543
(dp544
g54
(dp545
g62
I3
ssg63
g539
sg56
(lp546
S''
asbasbasbag49
(g65
g51
NtRp547
(dp548
g54
(dp549
sg63
g423
sg56
(lp550
g49
(g70
g51
NtRp551
(dp552
g54
(dp553
g74
g75
ssg63
g547
sg56
(lp554
g389
asbag49
(g70
g51
NtRp555
(dp556
g54
(dp557
g81
g82
ssg63
g547
sg56
(lp558
S':'
asbag49
(g70
g51
NtRp559
(dp560
g54
(dp561
sg63
g547
sg56
(lp562
g49
(g50
g51
NtRp563
(dp564
g54
(dp565
g62
I3
ssg63
g559
sg56
(lp566
S''
asbasbasbasbasbasbasbag49
(g65
g51
NtRp567
(dp568
g54
(dp569
sg63
g226
sg56
(lp570
g49
(g70
g51
NtRp571
(dp572
g54
(dp573
g74
g75
ssg63
g567
sg56
(lp574
S's_nr'
p575
asbag49
(g70
g51
NtRp576
(dp577
g54
(dp578
g81
g82
ssg63
g567
sg56
(lp579
S':'
asbag49
(g70
g51
NtRp580
(dp581
g54
(dp582
sg63
g567
sg56
(lp583
g49
(g50
g51
NtRp584
(dp585
g54
(dp586
g62
I4
ssg63
g580
sg56
(lp587
g49
(g58
g51
NtRp588
(dp589
g54
(dp590
g62
I3
ssg63
Nsg56
(lp591
g49
(g65
g51
NtRp592
(dp593
g54
(dp594
sg63
g588
sg56
(lp595
g49
(g70
g51
NtRp596
(dp597
g54
(dp598
g74
g75
ssg63
g592
sg56
(lp599
g263
asbag49
(g70
g51
NtRp600
(dp601
g54
(dp602
g81
g82
ssg63
g592
sg56
(lp603
S':'
asbag49
(g70
g51
NtRp604
(dp605
g54
(dp606
sg63
g592
sg56
(lp607
g49
(g50
g51
NtRp608
(dp609
g54
(dp610
g62
I3
ssg63
g604
sg56
(lp611
S''
asbasbasbag49
(g65
g51
NtRp612
(dp613
g54
(dp614
sg63
g588
sg56
(lp615
g49
(g70
g51
NtRp616
(dp617
g54
(dp618
g74
g75
ssg63
g612
sg56
(lp619
g284
asbag49
(g70
g51
NtRp620
(dp621
g54
(dp622
g81
g82
ssg63
g612
sg56
(lp623
S':'
asbag49
(g70
g51
NtRp624
(dp625
g54
(dp626
sg63
g612
sg56
(lp627
g49
(g50
g51
NtRp628
(dp629
g54
(dp630
g62
I3
ssg63
g624
sg56
(lp631
S''
asbasbasbag49
(g65
g51
NtRp632
(dp633
g54
(dp634
sg63
g588
sg56
(lp635
g49
(g70
g51
NtRp636
(dp637
g54
(dp638
g74
g75
ssg63
g632
sg56
(lp639
g305
asbag49
(g70
g51
NtRp640
(dp641
g54
(dp642
g81
g82
ssg63
g632
sg56
(lp643
S':'
asbag49
(g70
g51
NtRp644
(dp645
g54
(dp646
sg63
g632
sg56
(lp647
g49
(g50
g51
NtRp648
(dp649
g54
(dp650
g62
I3
ssg63
g644
sg56
(lp651
S''
asbasbasbag49
(g65
g51
NtRp652
(dp653
g54
(dp654
sg63
g588
sg56
(lp655
g49
(g70
g51
NtRp656
(dp657
g54
(dp658
g74
g75
ssg63
g652
sg56
(lp659
g326
asbag49
(g70
g51
NtRp660
(dp661
g54
(dp662
g81
g82
ssg63
g652
sg56
(lp663
S':'
asbag49
(g70
g51
NtRp664
(dp665
g54
(dp666
sg63
g652
sg56
(lp667
g49
(g50
g51
NtRp668
(dp669
g54
(dp670
g62
I3
ssg63
g664
sg56
(lp671
S''
asbasbasbag49
(g65
g51
NtRp672
(dp673
g54
(dp674
sg63
g588
sg56
(lp675
g49
(g70
g51
NtRp676
(dp677
g54
(dp678
g74
g75
ssg63
g672
sg56
(lp679
g347
asbag49
(g70
g51
NtRp680
(dp681
g54
(dp682
g81
g82
ssg63
g672
sg56
(lp683
S':'
asbag49
(g70
g51
NtRp684
(dp685
g54
(dp686
sg63
g672
sg56
(lp687
g49
(g50
g51
NtRp688
(dp689
g54
(dp690
g62
I3
ssg63
g684
sg56
(lp691
S''
asbasbasbag49
(g65
g51
NtRp692
(dp693
g54
(dp694
sg63
g588
sg56
(lp695
g49
(g70
g51
NtRp696
(dp697
g54
(dp698
g74
g75
ssg63
g692
sg56
(lp699
g368
asbag49
(g70
g51
NtRp700
(dp701
g54
(dp702
g81
g82
ssg63
g692
sg56
(lp703
S':'
asbag49
(g70
g51
NtRp704
(dp705
g54
(dp706
sg63
g692
sg56
(lp707
g49
(g50
g51
NtRp708
(dp709
g54
(dp710
g62
I3
ssg63
g704
sg56
(lp711
S''
asbasbasbag49
(g65
g51
NtRp712
(dp713
g54
(dp714
sg63
g588
sg56
(lp715
g49
(g70
g51
NtRp716
(dp717
g54
(dp718
g74
g75
ssg63
g712
sg56
(lp719
g389
asbag49
(g70
g51
NtRp720
(dp721
g54
(dp722
g81
g82
ssg63
g712
sg56
(lp723
S':'
asbag49
(g70
g51
NtRp724
(dp725
g54
(dp726
sg63
g712
sg56
(lp727
g49
(g50
g51
NtRp728
(dp729
g54
(dp730
g62
I3
ssg63
g724
sg56
(lp731
S''
asbasbasbasbasbasbasbag49
(g65
g51
NtRp732
(dp733
g54
(dp734
sg63
g226
sg56
(lp735
g49
(g70
g51
NtRp736
(dp737
g54
(dp738
g74
g75
ssg63
g732
sg56
(lp739
S'session_id_admin'
p740
asbag49
(g70
g51
NtRp741
(dp742
g54
(dp743
g81
g82
ssg63
g732
sg56
(lp744
S':'
asbag49
(g70
g51
NtRp745
(dp746
g54
(dp747
sg63
g732
sg56
(lp748
g49
(g50
g51
NtRp749
(dp750
g54
(dp751
g62
I4
ssg63
g745
sg56
(lp752
g49
(g58
g51
NtRp753
(dp754
g54
(dp755
g62
I3
ssg63
Nsg56
(lp756
g49
(g65
g51
NtRp757
(dp758
g54
(dp759
sg63
g753
sg56
(lp760
g49
(g70
g51
NtRp761
(dp762
g54
(dp763
g74
g75
ssg63
g757
sg56
(lp764
g263
asbag49
(g70
g51
NtRp765
(dp766
g54
(dp767
g81
g82
ssg63
g757
sg56
(lp768
S':'
asbag49
(g70
g51
NtRp769
(dp770
g54
(dp771
sg63
g757
sg56
(lp772
g49
(g50
g51
NtRp773
(dp774
g54
(dp775
g62
I3
ssg63
g769
sg56
(lp776
S''
asbasbasbag49
(g65
g51
NtRp777
(dp778
g54
(dp779
sg63
g753
sg56
(lp780
g49
(g70
g51
NtRp781
(dp782
g54
(dp783
g74
g75
ssg63
g777
sg56
(lp784
g284
asbag49
(g70
g51
NtRp785
(dp786
g54
(dp787
g81
g82
ssg63
g777
sg56
(lp788
S':'
asbag49
(g70
g51
NtRp789
(dp790
g54
(dp791
sg63
g777
sg56
(lp792
g49
(g50
g51
NtRp793
(dp794
g54
(dp795
g62
I3
ssg63
g789
sg56
(lp796
S''
asbasbasbag49
(g65
g51
NtRp797
(dp798
g54
(dp799
sg63
g753
sg56
(lp800
g49
(g70
g51
NtRp801
(dp802
g54
(dp803
g74
g75
ssg63
g797
sg56
(lp804
g305
asbag49
(g70
g51
NtRp805
(dp806
g54
(dp807
g81
g82
ssg63
g797
sg56
(lp808
S':'
asbag49
(g70
g51
NtRp809
(dp810
g54
(dp811
sg63
g797
sg56
(lp812
g49
(g50
g51
NtRp813
(dp814
g54
(dp815
g62
I3
ssg63
g809
sg56
(lp816
S''
asbasbasbag49
(g65
g51
NtRp817
(dp818
g54
(dp819
sg63
g753
sg56
(lp820
g49
(g70
g51
NtRp821
(dp822
g54
(dp823
g74
g75
ssg63
g817
sg56
(lp824
g326
asbag49
(g70
g51
NtRp825
(dp826
g54
(dp827
g81
g82
ssg63
g817
sg56
(lp828
S':'
asbag49
(g70
g51
NtRp829
(dp830
g54
(dp831
sg63
g817
sg56
(lp832
g49
(g50
g51
NtRp833
(dp834
g54
(dp835
g62
I3
ssg63
g829
sg56
(lp836
S''
asbasbasbag49
(g65
g51
NtRp837
(dp838
g54
(dp839
sg63
g753
sg56
(lp840
g49
(g70
g51
NtRp841
(dp842
g54
(dp843
g74
g75
ssg63
g837
sg56
(lp844
g347
asbag49
(g70
g51
NtRp845
(dp846
g54
(dp847
g81
g82
ssg63
g837
sg56
(lp848
S':'
asbag49
(g70
g51
NtRp849
(dp850
g54
(dp851
sg63
g837
sg56
(lp852
g49
(g50
g51
NtRp853
(dp854
g54
(dp855
g62
I3
ssg63
g849
sg56
(lp856
S''
asbasbasbag49
(g65
g51
NtRp857
(dp858
g54
(dp859
sg63
g753
sg56
(lp860
g49
(g70
g51
NtRp861
(dp862
g54
(dp863
g74
g75
ssg63
g857
sg56
(lp864
g368
asbag49
(g70
g51
NtRp865
(dp866
g54
(dp867
g81
g82
ssg63
g857
sg56
(lp868
S':'
asbag49
(g70
g51
NtRp869
(dp870
g54
(dp871
sg63
g857
sg56
(lp872
g49
(g50
g51
NtRp873
(dp874
g54
(dp875
g62
I3
ssg63
g869
sg56
(lp876
S''
asbasbasbag49
(g65
g51
NtRp877
(dp878
g54
(dp879
sg63
g753
sg56
(lp880
g49
(g70
g51
NtRp881
(dp882
g54
(dp883
g74
g75
ssg63
g877
sg56
(lp884
g389
asbag49
(g70
g51
NtRp885
(dp886
g54
(dp887
g81
g82
ssg63
g877
sg56
(lp888
S':'
asbag49
(g70
g51
NtRp889
(dp890
g54
(dp891
sg63
g877
sg56
(lp892
g49
(g50
g51
NtRp893
(dp894
g54
(dp895
g62
I3
ssg63
g889
sg56
(lp896
S''
asbasbasbasbasbasbasbag49
(g65
g51
NtRp897
(dp898
g54
(dp899
sg63
g226
sg56
(lp900
g49
(g70
g51
NtRp901
(dp902
g54
(dp903
g74
g75
ssg63
g897
sg56
(lp904
S'session_id_cms'
p905
asbag49
(g70
g51
NtRp906
(dp907
g54
(dp908
g81
g82
ssg63
g897
sg56
(lp909
S':'
asbag49
(g70
g51
NtRp910
(dp911
g54
(dp912
sg63
g897
sg56
(lp913
g49
(g50
g51
NtRp914
(dp915
g54
(dp916
g62
I4
ssg63
g910
sg56
(lp917
g49
(g58
g51
NtRp918
(dp919
g54
(dp920
g62
I3
ssg63
Nsg56
(lp921
g49
(g65
g51
NtRp922
(dp923
g54
(dp924
sg63
g918
sg56
(lp925
g49
(g70
g51
NtRp926
(dp927
g54
(dp928
g74
g75
ssg63
g922
sg56
(lp929
g263
asbag49
(g70
g51
NtRp930
(dp931
g54
(dp932
g81
g82
ssg63
g922
sg56
(lp933
S':'
asbag49
(g70
g51
NtRp934
(dp935
g54
(dp936
sg63
g922
sg56
(lp937
g49
(g50
g51
NtRp938
(dp939
g54
(dp940
g62
I3
ssg63
g934
sg56
(lp941
S''
asbasbasbag49
(g65
g51
NtRp942
(dp943
g54
(dp944
sg63
g918
sg56
(lp945
g49
(g70
g51
NtRp946
(dp947
g54
(dp948
g74
g75
ssg63
g942
sg56
(lp949
g284
asbag49
(g70
g51
NtRp950
(dp951
g54
(dp952
g81
g82
ssg63
g942
sg56
(lp953
S':'
asbag49
(g70
g51
NtRp954
(dp955
g54
(dp956
sg63
g942
sg56
(lp957
g49
(g50
g51
NtRp958
(dp959
g54
(dp960
g62
I3
ssg63
g954
sg56
(lp961
S''
asbasbasbag49
(g65
g51
NtRp962
(dp963
g54
(dp964
sg63
g918
sg56
(lp965
g49
(g70
g51
NtRp966
(dp967
g54
(dp968
g74
g75
ssg63
g962
sg56
(lp969
g305
asbag49
(g70
g51
NtRp970
(dp971
g54
(dp972
g81
g82
ssg63
g962
sg56
(lp973
S':'
asbag49
(g70
g51
NtRp974
(dp975
g54
(dp976
sg63
g962
sg56
(lp977
g49
(g50
g51
NtRp978
(dp979
g54
(dp980
g62
I3
ssg63
g974
sg56
(lp981
S''
asbasbasbag49
(g65
g51
NtRp982
(dp983
g54
(dp984
sg63
g918
sg56
(lp985
g49
(g70
g51
NtRp986
(dp987
g54
(dp988
g74
g75
ssg63
g982
sg56
(lp989
g326
asbag49
(g70
g51
NtRp990
(dp991
g54
(dp992
g81
g82
ssg63
g982
sg56
(lp993
S':'
asbag49
(g70
g51
NtRp994
(dp995
g54
(dp996
sg63
g982
sg56
(lp997
g49
(g50
g51
NtRp998
(dp999
g54
(dp1000
g62
I3
ssg63
g994
sg56
(lp1001
S''
asbasbasbag49
(g65
g51
NtRp1002
(dp1003
g54
(dp1004
sg63
g918
sg56
(lp1005
g49
(g70
g51
NtRp1006
(dp1007
g54
(dp1008
g74
g75
ssg63
g1002
sg56
(lp1009
g347
asbag49
(g70
g51
NtRp1010
(dp1011
g54
(dp1012
g81
g82
ssg63
g1002
sg56
(lp1013
S':'
asbag49
(g70
g51
NtRp1014
(dp1015
g54
(dp1016
sg63
g1002
sg56
(lp1017
g49
(g50
g51
NtRp1018
(dp1019
g54
(dp1020
g62
I3
ssg63
g1014
sg56
(lp1021
S''
asbasbasbag49
(g65
g51
NtRp1022
(dp1023
g54
(dp1024
sg63
g918
sg56
(lp1025
g49
(g70
g51
NtRp1026
(dp1027
g54
(dp1028
g74
g75
ssg63
g1022
sg56
(lp1029
g368
asbag49
(g70
g51
NtRp1030
(dp1031
g54
(dp1032
g81
g82
ssg63
g1022
sg56
(lp1033
S':'
asbag49
(g70
g51
NtRp1034
(dp1035
g54
(dp1036
sg63
g1022
sg56
(lp1037
g49
(g50
g51
NtRp1038
(dp1039
g54
(dp1040
g62
I3
ssg63
g1034
sg56
(lp1041
S''
asbasbasbag49
(g65
g51
NtRp1042
(dp1043
g54
(dp1044
sg63
g918
sg56
(lp1045
g49
(g70
g51
NtRp1046
(dp1047
g54
(dp1048
g74
g75
ssg63
g1042
sg56
(lp1049
g389
asbag49
(g70
g51
NtRp1050
(dp1051
g54
(dp1052
g81
g82
ssg63
g1042
sg56
(lp1053
S':'
asbag49
(g70
g51
NtRp1054
(dp1055
g54
(dp1056
sg63
g1042
sg56
(lp1057
g49
(g50
g51
NtRp1058
(dp1059
g54
(dp1060
g62
I3
ssg63
g1054
sg56
(lp1061
S''
asbasbasbasbasbasbasbag49
(g65
g51
NtRp1062
(dp1063
g54
(dp1064
sg63
g226
sg56
(lp1065
g49
(g70
g51
NtRp1066
(dp1067
g54
(dp1068
g74
g75
ssg63
g1062
sg56
(lp1069
S'session_id_inplace'
p1070
asbag49
(g70
g51
NtRp1071
(dp1072
g54
(dp1073
g81
g82
ssg63
g1062
sg56
(lp1074
S':'
asbag49
(g70
g51
NtRp1075
(dp1076
g54
(dp1077
sg63
g1062
sg56
(lp1078
g49
(g50
g51
NtRp1079
(dp1080
g54
(dp1081
g62
I4
ssg63
g1075
sg56
(lp1082
g49
(g58
g51
NtRp1083
(dp1084
g54
(dp1085
g62
I3
ssg63
Nsg56
(lp1086
g49
(g65
g51
NtRp1087
(dp1088
g54
(dp1089
sg63
g1083
sg56
(lp1090
g49
(g70
g51
NtRp1091
(dp1092
g54
(dp1093
g74
g75
ssg63
g1087
sg56
(lp1094
g263
asbag49
(g70
g51
NtRp1095
(dp1096
g54
(dp1097
g81
g82
ssg63
g1087
sg56
(lp1098
S':'
asbag49
(g70
g51
NtRp1099
(dp1100
g54
(dp1101
sg63
g1087
sg56
(lp1102
g49
(g50
g51
NtRp1103
(dp1104
g54
(dp1105
g62
I3
ssg63
g1099
sg56
(lp1106
S''
asbasbasbag49
(g65
g51
NtRp1107
(dp1108
g54
(dp1109
sg63
g1083
sg56
(lp1110
g49
(g70
g51
NtRp1111
(dp1112
g54
(dp1113
g74
g75
ssg63
g1107
sg56
(lp1114
g284
asbag49
(g70
g51
NtRp1115
(dp1116
g54
(dp1117
g81
g82
ssg63
g1107
sg56
(lp1118
S':'
asbag49
(g70
g51
NtRp1119
(dp1120
g54
(dp1121
sg63
g1107
sg56
(lp1122
g49
(g50
g51
NtRp1123
(dp1124
g54
(dp1125
g62
I3
ssg63
g1119
sg56
(lp1126
S''
asbasbasbag49
(g65
g51
NtRp1127
(dp1128
g54
(dp1129
sg63
g1083
sg56
(lp1130
g49
(g70
g51
NtRp1131
(dp1132
g54
(dp1133
g74
g75
ssg63
g1127
sg56
(lp1134
g305
asbag49
(g70
g51
NtRp1135
(dp1136
g54
(dp1137
g81
g82
ssg63
g1127
sg56
(lp1138
S':'
asbag49
(g70
g51
NtRp1139
(dp1140
g54
(dp1141
sg63
g1127
sg56
(lp1142
g49
(g50
g51
NtRp1143
(dp1144
g54
(dp1145
g62
I3
ssg63
g1139
sg56
(lp1146
S''
asbasbasbag49
(g65
g51
NtRp1147
(dp1148
g54
(dp1149
sg63
g1083
sg56
(lp1150
g49
(g70
g51
NtRp1151
(dp1152
g54
(dp1153
g74
g75
ssg63
g1147
sg56
(lp1154
g326
asbag49
(g70
g51
NtRp1155
(dp1156
g54
(dp1157
g81
g82
ssg63
g1147
sg56
(lp1158
S':'
asbag49
(g70
g51
NtRp1159
(dp1160
g54
(dp1161
sg63
g1147
sg56
(lp1162
g49
(g50
g51
NtRp1163
(dp1164
g54
(dp1165
g62
I3
ssg63
g1159
sg56
(lp1166
S''
asbasbasbag49
(g65
g51
NtRp1167
(dp1168
g54
(dp1169
sg63
g1083
sg56
(lp1170
g49
(g70
g51
NtRp1171
(dp1172
g54
(dp1173
g74
g75
ssg63
g1167
sg56
(lp1174
g347
asbag49
(g70
g51
NtRp1175
(dp1176
g54
(dp1177
g81
g82
ssg63
g1167
sg56
(lp1178
S':'
asbag49
(g70
g51
NtRp1179
(dp1180
g54
(dp1181
sg63
g1167
sg56
(lp1182
g49
(g50
g51
NtRp1183
(dp1184
g54
(dp1185
g62
I3
ssg63
g1179
sg56
(lp1186
S''
asbasbasbag49
(g65
g51
NtRp1187
(dp1188
g54
(dp1189
sg63
g1083
sg56
(lp1190
g49
(g70
g51
NtRp1191
(dp1192
g54
(dp1193
g74
g75
ssg63
g1187
sg56
(lp1194
g368
asbag49
(g70
g51
NtRp1195
(dp1196
g54
(dp1197
g81
g82
ssg63
g1187
sg56
(lp1198
S':'
asbag49
(g70
g51
NtRp1199
(dp1200
g54
(dp1201
sg63
g1187
sg56
(lp1202
g49
(g50
g51
NtRp1203
(dp1204
g54
(dp1205
g62
I3
ssg63
g1199
sg56
(lp1206
S''
asbasbasbag49
(g65
g51
NtRp1207
(dp1208
g54
(dp1209
sg63
g1083
sg56
(lp1210
g49
(g70
g51
NtRp1211
(dp1212
g54
(dp1213
g74
g75
ssg63
g1207
sg56
(lp1214
g389
asbag49
(g70
g51
NtRp1215
(dp1216
g54
(dp1217
g81
g82
ssg63
g1207
sg56
(lp1218
S':'
asbag49
(g70
g51
NtRp1219
(dp1220
g54
(dp1221
sg63
g1207
sg56
(lp1222
g49
(g50
g51
NtRp1223
(dp1224
g54
(dp1225
g62
I3
ssg63
g1219
sg56
(lp1226
S''
asbasbasbasbasbasbasbasbasbasbasbag49
(g65
g51
NtRp1227
(dp1228
g54
(dp1229
sg63
g59
sg56
(lp1230
g49
(g70
g51
NtRp1231
(dp1232
g54
(dp1233
g74
g75
ssg63
g1227
sg56
(lp1234
S'env'
p1235
asbag49
(g70
g51
NtRp1236
(dp1237
g54
(dp1238
g81
g82
ssg63
g1227
sg56
(lp1239
S':'
asbag49
(g70
g51
NtRp1240
(dp1241
g54
(dp1242
sg63
g1227
sg56
(lp1243
g49
(g50
g51
NtRp1244
(dp1245
g54
(dp1246
g62
I5
ssg63
g1240
sg56
(lp1247
g49
(g58
g51
NtRp1248
(dp1249
g54
(dp1250
g62
I4
ssg63
Nsg56
(lp1251
g49
(g65
g51
NtRp1252
(dp1253
g54
(dp1254
sg63
g1248
sg56
(lp1255
g49
(g70
g51
NtRp1256
(dp1257
g54
(dp1258
g74
g75
ssg63
g1252
sg56
(lp1259
S'app_folders'
p1260
asbag49
(g70
g51
NtRp1261
(dp1262
g54
(dp1263
g81
g82
ssg63
g1252
sg56
(lp1264
S':'
asbag49
(g70
g51
NtRp1265
(dp1266
g54
(dp1267
sg63
g1252
sg56
(lp1268
g49
(g50
g51
NtRp1269
(dp1270
g54
(dp1271
g62
I4
ssg63
g1265
sg56
(lp1272
S"set(['/Users/mdipierro/Dropbox/web2py/applications/inplace/', '/Users/mdipierro/Dropbox/web2py/applications/cms/', '/Users/mdipierro/Dropbox/web2py/applications/admin/'])"
p1273
asbasbasbag49
(g65
g51
NtRp1274
(dp1275
g54
(dp1276
sg63
g1248
sg56
(lp1277
g49
(g70
g51
NtRp1278
(dp1279
g54
(dp1280
g74
g75
ssg63
g1274
sg56
(lp1281
S'applications_parent'
p1282
asbag49
(g70
g51
NtRp1283
(dp1284
g54
(dp1285
g81
g82
ssg63
g1274
sg56
(lp1286
S':'
asbag49
(g70
g51
NtRp1287
(dp1288
g54
(dp1289
sg63
g1274
sg56
(lp1290
g49
(g50
g51
NtRp1291
(dp1292
g54
(dp1293
g62
I4
ssg63
g1287
sg56
(lp1294
S'/Users/mdipierro/Dropbox/web2py'
p1295
asbasbasbag49
(g65
g51
NtRp1296
(dp1297
g54
(dp1298
sg63
g1248
sg56
(lp1299
g49
(g70
g51
NtRp1300
(dp1301
g54
(dp1302
g74
g75
ssg63
g1296
sg56
(lp1303
S'cmd_args'
p1304
asbag49
(g70
g51
NtRp1305
(dp1306
g54
(dp1307
g81
g82
ssg63
g1296
sg56
(lp1308
S':'
asbag49
(g70
g51
NtRp1309
(dp1310
g54
(dp1311
sg63
g1296
sg56
(lp1312
g49
(g50
g51
NtRp1313
(dp1314
g54
(dp1315
g62
I4
ssg63
g1309
sg56
(lp1316
g49
(g58
g51
NtRp1317
(dp1318
g54
(dp1319
g62
I3
ssg63
Nsg56
(lp1320
sbasbasbasbag49
(g65
g51
NtRp1321
(dp1322
g54
(dp1323
sg63
g1248
sg56
(lp1324
g49
(g70
g51
NtRp1325
(dp1326
g54
(dp1327
g74
g75
ssg63
g1321
sg56
(lp1328
S'cmd_options'
p1329
asbag49
(g70
g51
NtRp1330
(dp1331
g54
(dp1332
g81
g82
ssg63
g1321
sg56
(lp1333
S':'
asbag49
(g70
g51
NtRp1334
(dp1335
g54
(dp1336
sg63
g1321
sg56
(lp1337
g49
(g50
g51
NtRp1338
(dp1339
g54
(dp1340
g62
I4
ssg63
g1334
sg56
(lp1341
S"<Values at 0x153a378: {'verbose': False, 'ip': '127.0.0.1', 'shutdown_timeout': 5, 'taskbar': False, 'nocron': False, 'pid_filename': 'httpserver.pid', 'maxthreads': None, 'softcron': False, 'server_name': 'massimo-di-pierros-macbook-2.local', 'bpython': False, 'nogui': False, 'port': 8000, 'extcron': False, 'debuglevel': 30, 'test': None, 'folder': '/Users/mdipierro/Dropbox/web2py', 'config': '', 'import_models': False, 'winservice': '', 'shell': None, 'run': '', 'log_filename': 'httpserver.log', 'args': [''], 'socket_timeout': 1, 'ssl_ca_certificate': None, 'scheduler': None, 'profiler_filename': None, 'ssl_private_key': '', 'password': 'hello', 'request_queue_size': 5, 'ssl_certificate': '', 'cronjob': False, 'numthreads': None, 'quiet': False, 'interfaces': None, 'minthreads': None, 'timeout': 10, 'plain': False, 'nobanner': False}>"
p1342
asbasbasbag49
(g65
g51
NtRp1343
(dp1344
g54
(dp1345
sg63
g1248
sg56
(lp1346
g49
(g70
g51
NtRp1347
(dp1348
g54
(dp1349
g74
g75
ssg63
g1343
sg56
(lp1350
S'db_sessions'
p1351
asbag49
(g70
g51
NtRp1352
(dp1353
g54
(dp1354
g81
g82
ssg63
g1343
sg56
(lp1355
S':'
asbag49
(g70
g51
NtRp1356
(dp1357
g54
(dp1358
sg63
g1343
sg56
(lp1359
g49
(g50
g51
NtRp1360
(dp1361
g54
(dp1362
g62
I4
ssg63
g1356
sg56
(lp1363
S'set([])'
p1364
asbasbasbag49
(g65
g51
NtRp1365
(dp1366
g54
(dp1367
sg63
g1248
sg56
(lp1368
g49
(g70
g51
NtRp1369
(dp1370
g54
(dp1371
g74
g75
ssg63
g1365
sg56
(lp1372
S'debugging'
p1373
asbag49
(g70
g51
NtRp1374
(dp1375
g54
(dp1376
g81
g82
ssg63
g1365
sg56
(lp1377
S':'
asbag49
(g70
g51
NtRp1378
(dp1379
g54
(dp1380
sg63
g1365
sg56
(lp1381
g49
(g50
g51
NtRp1382
(dp1383
g54
(dp1384
g62
I4
ssg63
g1378
sg56
(lp1385
g92
asbasbasbag49
(g65
g51
NtRp1386
(dp1387
g54
(dp1388
sg63
g1248
sg56
(lp1389
g49
(g70
g51
NtRp1390
(dp1391
g54
(dp1392
g74
g75
ssg63
g1386
sg56
(lp1393
S'gluon_parent'
p1394
asbag49
(g70
g51
NtRp1395
(dp1396
g54
(dp1397
g81
g82
ssg63
g1386
sg56
(lp1398
S':'
asbag49
(g70
g51
NtRp1399
(dp1400
g54
(dp1401
sg63
g1386
sg56
(lp1402
g49
(g50
g51
NtRp1403
(dp1404
g54
(dp1405
g62
I4
ssg63
g1399
sg56
(lp1406
S'/Users/mdipierro/Dropbox/web2py'
p1407
asbasbasbag49
(g65
g51
NtRp1408
(dp1409
g54
(dp1410
sg63
g1248
sg56
(lp1411
g49
(g70
g51
NtRp1412
(dp1413
g54
(dp1414
g74
g75
ssg63
g1408
sg56
(lp1415
S'http_accept'
p1416
asbag49
(g70
g51
NtRp1417
(dp1418
g54
(dp1419
g81
g82
ssg63
g1408
sg56
(lp1420
S':'
asbag49
(g70
g51
NtRp1421
(dp1422
g54
(dp1423
sg63
g1408
sg56
(lp1424
g49
(g50
g51
NtRp1425
(dp1426
g54
(dp1427
g62
I4
ssg63
g1421
sg56
(lp1428
S'text/html,application/xhtml+xml,application/xml;q=0.9,*/*;q=0.8'
p1429
asbasbasbag49
(g65
g51
NtRp1430
(dp1431
g54
(dp1432
sg63
g1248
sg56
(lp1433
g49
(g70
g51
NtRp1434
(dp1435
g54
(dp1436
g74
g75
ssg63
g1430
sg56
(lp1437
S'http_accept_charset'
p1438
asbag49
(g70
g51
NtRp1439
(dp1440
g54
(dp1441
g81
g82
ssg63
g1430
sg56
(lp1442
S':'
asbag49
(g70
g51
NtRp1443
(dp1444
g54
(dp1445
sg63
g1430
sg56
(lp1446
g49
(g50
g51
NtRp1447
(dp1448
g54
(dp1449
g62
I4
ssg63
g1443
sg56
(lp1450
S'ISO-8859-1,utf-8;q=0.7,*;q=0.3'
p1451
asbasbasbag49
(g65
g51
NtRp1452
(dp1453
g54
(dp1454
sg63
g1248
sg56
(lp1455
g49
(g70
g51
NtRp1456
(dp1457
g54
(dp1458
g74
g75
ssg63
g1452
sg56
(lp1459
S'http_accept_encoding'
p1460
asbag49
(g70
g51
NtRp1461
(dp1462
g54
(dp1463
g81
g82
ssg63
g1452
sg56
(lp1464
S':'
asbag49
(g70
g51
NtRp1465
(dp1466
g54
(dp1467
sg63
g1452
sg56
(lp1468
g49
(g50
g51
NtRp1469
(dp1470
g54
(dp1471
g62
I4
ssg63
g1465
sg56
(lp1472
S'gzip,deflate,sdch'
p1473
asbasbasbag49
(g65
g51
NtRp1474
(dp1475
g54
(dp1476
sg63
g1248
sg56
(lp1477
g49
(g70
g51
NtRp1478
(dp1479
g54
(dp1480
g74
g75
ssg63
g1474
sg56
(lp1481
S'http_accept_language'
p1482
asbag49
(g70
g51
NtRp1483
(dp1484
g54
(dp1485
g81
g82
ssg63
g1474
sg56
(lp1486
S':'
asbag49
(g70
g51
NtRp1487
(dp1488
g54
(dp1489
sg63
g1474
sg56
(lp1490
g49
(g50
g51
NtRp1491
(dp1492
g54
(dp1493
g62
I4
ssg63
g1487
sg56
(lp1494
S'en,en-US;q=0.8,de-DE;q=0.6,de;q=0.4,it-IT;q=0.2,it;q=0.2,ja;q=0.2'
p1495
asbasbasbag49
(g65
g51
NtRp1496
(dp1497
g54
(dp1498
sg63
g1248
sg56
(lp1499
g49
(g70
g51
NtRp1500
(dp1501
g54
(dp1502
g74
g75
ssg63
g1496
sg56
(lp1503
S'http_connection'
p1504
asbag49
(g70
g51
NtRp1505
(dp1506
g54
(dp1507
g81
g82
ssg63
g1496
sg56
(lp1508
S':'
asbag49
(g70
g51
NtRp1509
(dp1510
g54
(dp1511
sg63
g1496
sg56
(lp1512
g49
(g50
g51
NtRp1513
(dp1514
g54
(dp1515
g62
I4
ssg63
g1509
sg56
(lp1516
S'keep-alive'
p1517
asbasbasbag49
(g65
g51
NtRp1518
(dp1519
g54
(dp1520
sg63
g1248
sg56
(lp1521
g49
(g70
g51
NtRp1522
(dp1523
g54
(dp1524
g74
g75
ssg63
g1518
sg56
(lp1525
S'http_cookie'
p1526
asbag49
(g70
g51
NtRp1527
(dp1528
g54
(dp1529
g81
g82
ssg63
g1518
sg56
(lp1530
S':'
asbag49
(g70
g51
NtRp1531
(dp1532
g54
(dp1533
sg63
g1518
sg56
(lp1534
g49
(g50
g51
NtRp1535
(dp1536
g54
(dp1537
g62
I4
ssg63
g1531
sg56
(lp1538
S'registered=yes; __utma_a2a=1369166446.1335515545.1303958619.1316700181.1318215879.74; el-finder-last-finder=4f5a448a961f1931173928a6b6d9d4d2; s_nr=1323495907438-New; session_id_admin=127.0.0.1-d7df2493-be50-44c2-bc1d-74581b0ed26d; __qca=P0-1359637726-1323501662225; _chartbeat2=ha3n2egp47d2hmo0.1323501662417; session_id_cms=127.0.0.1-f4c1e56e-4f4d-4936-aaf7-92fdd3a97f53; __utma=96992031.1452952453.1313221394.1323500519.1323533094.5; __utmc=96992031; __utmz=96992031.1313221394.1.1.utmcsr=(direct)|utmccn=(direct)|utmcmd=(none); session_id_inplace=127.0.0.1-b67af904-b8cf-469d-95b3-18285a004db1'
p1539
asbasbasbag49
(g65
g51
NtRp1540
(dp1541
g54
(dp1542
sg63
g1248
sg56
(lp1543
g49
(g70
g51
NtRp1544
(dp1545
g54
(dp1546
g74
g75
ssg63
g1540
sg56
(lp1547
S'http_host'
p1548
asbag49
(g70
g51
NtRp1549
(dp1550
g54
(dp1551
g81
g82
ssg63
g1540
sg56
(lp1552
S':'
asbag49
(g70
g51
NtRp1553
(dp1554
g54
(dp1555
sg63
g1540
sg56
(lp1556
g49
(g50
g51
NtRp1557
(dp1558
g54
(dp1559
g62
I4
ssg63
g1553
sg56
(lp1560
S'127.0.0.1:8000'
p1561
asbasbasbag49
(g65
g51
NtRp1562
(dp1563
g54
(dp1564
sg63
g1248
sg56
(lp1565
g49
(g70
g51
NtRp1566
(dp1567
g54
(dp1568
g74
g75
ssg63
g1562
sg56
(lp1569
S'http_user_agent'
p1570
asbag49
(g70
g51
NtRp1571
(dp1572
g54
(dp1573
g81
g82
ssg63
g1562
sg56
(lp1574
S':'
asbag49
(g70
g51
NtRp1575
(dp1576
g54
(dp1577
sg63
g1562
sg56
(lp1578
g49
(g50
g51
NtRp1579
(dp1580
g54
(dp1581
g62
I4
ssg63
g1575
sg56
(lp1582
S'Mozilla/5.0 (Macintosh; Intel Mac OS X 10_6_8) AppleWebKit/535.7 (KHTML, like Gecko) Chrome/16.0.912.63 Safari/535.7'
p1583
asbasbasbag49
(g65
g51
NtRp1584
(dp1585
g54
(dp1586
sg63
g1248
sg56
(lp1587
g49
(g70
g51
NtRp1588
(dp1589
g54
(dp1590
g74
g75
ssg63
g1584
sg56
(lp1591
S'is_jython'
p1592
asbag49
(g70
g51
NtRp1593
(dp1594
g54
(dp1595
g81
g82
ssg63
g1584
sg56
(lp1596
S':'
asbag49
(g70
g51
NtRp1597
(dp1598
g54
(dp1599
sg63
g1584
sg56
(lp1600
g49
(g50
g51
NtRp1601
(dp1602
g54
(dp1603
g62
I4
ssg63
g1597
sg56
(lp1604
g92
asbasbasbag49
(g65
g51
NtRp1605
(dp1606
g54
(dp1607
sg63
g1248
sg56
(lp1608
g49
(g70
g51
NtRp1609
(dp1610
g54
(dp1611
g74
g75
ssg63
g1605
sg56
(lp1612
S'is_pypy'
p1613
asbag49
(g70
g51
NtRp1614
(dp1615
g54
(dp1616
g81
g82
ssg63
g1605
sg56
(lp1617
S':'
asbag49
(g70
g51
NtRp1618
(dp1619
g54
(dp1620
sg63
g1605
sg56
(lp1621
g49
(g50
g51
NtRp1622
(dp1623
g54
(dp1624
g62
I4
ssg63
g1618
sg56
(lp1625
g92
asbasbasbag49
(g65
g51
NtRp1626
(dp1627
g54
(dp1628
sg63
g1248
sg56
(lp1629
g49
(g70
g51
NtRp1630
(dp1631
g54
(dp1632
g74
g75
ssg63
g1626
sg56
(lp1633
S'path_info'
p1634
asbag49
(g70
g51
NtRp1635
(dp1636
g54
(dp1637
g81
g82
ssg63
g1626
sg56
(lp1638
S':'
asbag49
(g70
g51
NtRp1639
(dp1640
g54
(dp1641
sg63
g1626
sg56
(lp1642
g49
(g50
g51
NtRp1643
(dp1644
g54
(dp1645
g62
I4
ssg63
g1639
sg56
(lp1646
S'/inplace/default/test'
p1647
asbasbasbag49
(g65
g51
NtRp1648
(dp1649
g54
(dp1650
sg63
g1248
sg56
(lp1651
g49
(g70
g51
NtRp1652
(dp1653
g54
(dp1654
g74
g75
ssg63
g1648
sg56
(lp1655
S'query_string'
p1656
asbag49
(g70
g51
NtRp1657
(dp1658
g54
(dp1659
g81
g82
ssg63
g1648
sg56
(lp1660
S':'
asbag49
(g70
g51
NtRp1661
(dp1662
g54
(dp1663
sg63
g1648
sg56
(lp1664
g49
(g50
g51
NtRp1665
(dp1666
g54
(dp1667
g62
I4
ssg63
g1661
sg56
(lp1668
S''
asbasbasbag49
(g65
g51
NtRp1669
(dp1670
g54
(dp1671
sg63
g1248
sg56
(lp1672
g49
(g70
g51
NtRp1673
(dp1674
g54
(dp1675
g74
g75
ssg63
g1669
sg56
(lp1676
S'remote_addr'
p1677
asbag49
(g70
g51
NtRp1678
(dp1679
g54
(dp1680
g81
g82
ssg63
g1669
sg56
(lp1681
S':'
asbag49
(g70
g51
NtRp1682
(dp1683
g54
(dp1684
sg63
g1669
sg56
(lp1685
g49
(g50
g51
NtRp1686
(dp1687
g54
(dp1688
g62
I4
ssg63
g1682
sg56
(lp1689
g182
asbasbasbag49
(g65
g51
NtRp1690
(dp1691
g54
(dp1692
sg63
g1248
sg56
(lp1693
g49
(g70
g51
NtRp1694
(dp1695
g54
(dp1696
g74
g75
ssg63
g1690
sg56
(lp1697
S'remote_port'
p1698
asbag49
(g70
g51
NtRp1699
(dp1700
g54
(dp1701
g81
g82
ssg63
g1690
sg56
(lp1702
S':'
asbag49
(g70
g51
NtRp1703
(dp1704
g54
(dp1705
sg63
g1690
sg56
(lp1706
g49
(g50
g51
NtRp1707
(dp1708
g54
(dp1709
g62
I4
ssg63
g1703
sg56
(lp1710
S'65137'
p1711
asbasbasbag49
(g65
g51
NtRp1712
(dp1713
g54
(dp1714
sg63
g1248
sg56
(lp1715
g49
(g70
g51
NtRp1716
(dp1717
g54
(dp1718
g74
g75
ssg63
g1712
sg56
(lp1719
S'request_method'
p1720
asbag49
(g70
g51
NtRp1721
(dp1722
g54
(dp1723
g81
g82
ssg63
g1712
sg56
(lp1724
S':'
asbag49
(g70
g51
NtRp1725
(dp1726
g54
(dp1727
sg63
g1712
sg56
(lp1728
g49
(g50
g51
NtRp1729
(dp1730
g54
(dp1731
g62
I4
ssg63
g1725
sg56
(lp1732
S'GET'
p1733
asbasbasbag49
(g65
g51
NtRp1734
(dp1735
g54
(dp1736
sg63
g1248
sg56
(lp1737
g49
(g70
g51
NtRp1738
(dp1739
g54
(dp1740
g74
g75
ssg63
g1734
sg56
(lp1741
S'script_name'
p1742
asbag49
(g70
g51
NtRp1743
(dp1744
g54
(dp1745
g81
g82
ssg63
g1734
sg56
(lp1746
S':'
asbag49
(g70
g51
NtRp1747
(dp1748
g54
(dp1749
sg63
g1734
sg56
(lp1750
g49
(g50
g51
NtRp1751
(dp1752
g54
(dp1753
g62
I4
ssg63
g1747
sg56
(lp1754
S''
asbasbasbag49
(g65
g51
NtRp1755
(dp1756
g54
(dp1757
sg63
g1248
sg56
(lp1758
g49
(g70
g51
NtRp1759
(dp1760
g54
(dp1761
g74
g75
ssg63
g1755
sg56
(lp1762
S'server_name'
p1763
asbag49
(g70
g51
NtRp1764
(dp1765
g54
(dp1766
g81
g82
ssg63
g1755
sg56
(lp1767
S':'
asbag49
(g70
g51
NtRp1768
(dp1769
g54
(dp1770
sg63
g1755
sg56
(lp1771
g49
(g50
g51
NtRp1772
(dp1773
g54
(dp1774
g62
I4
ssg63
g1768
sg56
(lp1775
S'massimo-di-pierros-macbook-2.local'
p1776
asbasbasbag49
(g65
g51
NtRp1777
(dp1778
g54
(dp1779
sg63
g1248
sg56
(lp1780
g49
(g70
g51
NtRp1781
(dp1782
g54
(dp1783
g74
g75
ssg63
g1777
sg56
(lp1784
S'server_port'
p1785
asbag49
(g70
g51
NtRp1786
(dp1787
g54
(dp1788
g81
g82
ssg63
g1777
sg56
(lp1789
S':'
asbag49
(g70
g51
NtRp1790
(dp1791
g54
(dp1792
sg63
g1777
sg56
(lp1793
g49
(g50
g51
NtRp1794
(dp1795
g54
(dp1796
g62
I4
ssg63
g1790
sg56
(lp1797
S'8000'
p1798
asbasbasbag49
(g65
g51
NtRp1799
(dp1800
g54
(dp1801
sg63
g1248
sg56
(lp1802
g49
(g70
g51
NtRp1803
(dp1804
g54
(dp1805
g74
g75
ssg63
g1799
sg56
(lp1806
S'server_protocol'
p1807
asbag49
(g70
g51
NtRp1808
(dp1809
g54
(dp1810
g81
g82
ssg63
g1799
sg56
(lp1811
S':'
asbag49
(g70
g51
NtRp1812
(dp1813
g54
(dp1814
sg63
g1799
sg56
(lp1815
g49
(g50
g51
NtRp1816
(dp1817
g54
(dp1818
g62
I4
ssg63
g1812
sg56
(lp1819
S'HTTP/1.1'
p1820
asbasbasbag49
(g65
g51
NtRp1821
(dp1822
g54
(dp1823
sg63
g1248
sg56
(lp1824
g49
(g70
g51
NtRp1825
(dp1826
g54
(dp1827
g74
g75
ssg63
g1821
sg56
(lp1828
S'server_software'
p1829
asbag49
(g70
g51
NtRp1830
(dp1831
g54
(dp1832
g81
g82
ssg63
g1821
sg56
(lp1833
S':'
asbag49
(g70
g51
NtRp1834
(dp1835
g54
(dp1836
sg63
g1821
sg56
(lp1837
g49
(g50
g51
NtRp1838
(dp1839
g54
(dp1840
g62
I4
ssg63
g1834
sg56
(lp1841
S'Rocket 1.2.4'
p1842
asbasbasbag49
(g65
g51
NtRp1843
(dp1844
g54
(dp1845
sg63
g1248
sg56
(lp1846
g49
(g70
g51
NtRp1847
(dp1848
g54
(dp1849
g74
g75
ssg63
g1843
sg56
(lp1850
S'web2py_crontype'
p1851
asbag49
(g70
g51
NtRp1852
(dp1853
g54
(dp1854
g81
g82
ssg63
g1843
sg56
(lp1855
S':'
asbag49
(g70
g51
NtRp1856
(dp1857
g54
(dp1858
sg63
g1843
sg56
(lp1859
g49
(g50
g51
NtRp1860
(dp1861
g54
(dp1862
g62
I4
ssg63
g1856
sg56
(lp1863
S'hard'
p1864
asbasbasbag49
(g65
g51
NtRp1865
(dp1866
g54
(dp1867
sg63
g1248
sg56
(lp1868
g49
(g70
g51
NtRp1869
(dp1870
g54
(dp1871
g74
g75
ssg63
g1865
sg56
(lp1872
S'web2py_path'
p1873
asbag49
(g70
g51
NtRp1874
(dp1875
g54
(dp1876
g81
g82
ssg63
g1865
sg56
(lp1877
S':'
asbag49
(g70
g51
NtRp1878
(dp1879
g54
(dp1880
sg63
g1865
sg56
(lp1881
g49
(g50
g51
NtRp1882
(dp1883
g54
(dp1884
g62
I4
ssg63
g1878
sg56
(lp1885
g1295
asbasbasbag49
(g65
g51
NtRp1886
(dp1887
g54
(dp1888
sg63
g1248
sg56
(lp1889
g49
(g70
g51
NtRp1890
(dp1891
g54
(dp1892
g74
g75
ssg63
g1886
sg56
(lp1893
S'web2py_version'
p1894
asbag49
(g70
g51
NtRp1895
(dp1896
g54
(dp1897
g81
g82
ssg63
g1886
sg56
(lp1898
S':'
asbag49
(g70
g51
NtRp1899
(dp1900
g54
(dp1901
sg63
g1886
sg56
(lp1902
g49
(g50
g51
NtRp1903
(dp1904
g54
(dp1905
g62
I4
ssg63
g1899
sg56
(lp1906
g49
(g58
g51
NtRp1907
(dp1908
g54
(dp1909
g62
I3
ssg63
Nsg56
(lp1910
g49
(g65
g51
NtRp1911
(dp1912
g54
(dp1913
sg63
g1907
sg56
(lp1914
g49
(g70
g51
NtRp1915
(dp1916
g54
(dp1917
sg63
g1911
sg56
(lp1918
g49
(g50
g51
NtRp1919
(dp1920
g54
(dp1921
g62
I3
ssg63
g1915
sg56
(lp1922
S'1'
asbasbasbag49
(g65
g51
NtRp1923
(dp1924
g54
(dp1925
sg63
g1907
sg56
(lp1926
g49
(g70
g51
NtRp1927
(dp1928
g54
(dp1929
sg63
g1923
sg56
(lp1930
g49
(g50
g51
NtRp1931
(dp1932
g54
(dp1933
g62
I3
ssg63
g1927
sg56
(lp1934
S'99'
p1935
asbasbasbag49
(g65
g51
NtRp1936
(dp1937
g54
(dp1938
sg63
g1907
sg56
(lp1939
g49
(g70
g51
NtRp1940
(dp1941
g54
(dp1942
sg63
g1936
sg56
(lp1943
g49
(g50
g51
NtRp1944
(dp1945
g54
(dp1946
g62
I3
ssg63
g1940
sg56
(lp1947
S'3'
asbasbasbag49
(g65
g51
NtRp1948
(dp1949
g54
(dp1950
sg63
g1907
sg56
(lp1951
g49
(g70
g51
NtRp1952
(dp1953
g54
(dp1954
sg63
g1948
sg56
(lp1955
g49
(g50
g51
NtRp1956
(dp1957
g54
(dp1958
g62
I3
ssg63
g1952
sg56
(lp1959
S'datetime.datetime(2011, 12, 9, 21, 5, 4)'
p1960
asbasbasbag49
(g65
g51
NtRp1961
(dp1962
g54
(dp1963
sg63
g1907
sg56
(lp1964
g49
(g70
g51
NtRp1965
(dp1966
g54
(dp1967
sg63
g1961
sg56
(lp1968
g49
(g50
g51
NtRp1969
(dp1970
g54
(dp1971
g62
I3
ssg63
g1965
sg56
(lp1972
S'stable'
p1973
asbasbasbasbasbasbasbag49
(g65
g51
NtRp1974
(dp1975
g54
(dp1976
sg63
g1248
sg56
(lp1977
g49
(g70
g51
NtRp1978
(dp1979
g54
(dp1980
g74
g75
ssg63
g1974
sg56
(lp1981
S'wsgi_errors'
p1982
asbag49
(g70
g51
NtRp1983
(dp1984
g54
(dp1985
g81
g82
ssg63
g1974
sg56
(lp1986
S':'
asbag49
(g70
g51
NtRp1987
(dp1988
g54
(dp1989
sg63
g1974
sg56
(lp1990
g49
(g50
g51
NtRp1991
(dp1992
g54
(dp1993
g62
I4
ssg63
g1987
sg56
(lp1994
S"<open file '<stderr>', mode 'w' at 0x1620b0>"
p1995
asbasbasbag49
(g65
g51
NtRp1996
(dp1997
g54
(dp1998
sg63
g1248
sg56
(lp1999
g49
(g70
g51
NtRp2000
(dp2001
g54
(dp2002
g74
g75
ssg63
g1996
sg56
(lp2003
S'wsgi_file_wrapper'
p2004
asbag49
(g70
g51
NtRp2005
(dp2006
g54
(dp2007
g81
g82
ssg63
g1996
sg56
(lp2008
S':'
asbag49
(g70
g51
NtRp2009
(dp2010
g54
(dp2011
sg63
g1996
sg56
(lp2012
g49
(g50
g51
NtRp2013
(dp2014
g54
(dp2015
g62
I4
ssg63
g2009
sg56
(lp2016
S'<class wsgiref.util.FileWrapper at 0x7c2840>'
p2017
asbasbasbag49
(g65
g51
NtRp2018
(dp2019
g54
(dp2020
sg63
g1248
sg56
(lp2021
g49
(g70
g51
NtRp2022
(dp2023
g54
(dp2024
g74
g75
ssg63
g2018
sg56
(lp2025
S'wsgi_input'
p2026
asbag49
(g70
g51
NtRp2027
(dp2028
g54
(dp2029
g81
g82
ssg63
g2018
sg56
(lp2030
S':'
asbag49
(g70
g51
NtRp2031
(dp2032
g54
(dp2033
sg63
g2018
sg56
(lp2034
g49
(g50
g51
NtRp2035
(dp2036
g54
(dp2037
g62
I4
ssg63
g2031
sg56
(lp2038
S'<socket._fileobject object at 0x1e95d70>'
p2039
asbasbasbag49
(g65
g51
NtRp2040
(dp2041
g54
(dp2042
sg63
g1248
sg56
(lp2043
g49
(g70
g51
NtRp2044
(dp2045
g54
(dp2046
g74
g75
ssg63
g2040
sg56
(lp2047
S'wsgi_multiprocess'
p2048
asbag49
(g70
g51
NtRp2049
(dp2050
g54
(dp2051
g81
g82
ssg63
g2040
sg56
(lp2052
S':'
asbag49
(g70
g51
NtRp2053
(dp2054
g54
(dp2055
sg63
g2040
sg56
(lp2056
g49
(g50
g51
NtRp2057
(dp2058
g54
(dp2059
g62
I4
ssg63
g2053
sg56
(lp2060
g92
asbasbasbag49
(g65
g51
NtRp2061
(dp2062
g54
(dp2063
sg63
g1248
sg56
(lp2064
g49
(g70
g51
NtRp2065
(dp2066
g54
(dp2067
g74
g75
ssg63
g2061
sg56
(lp2068
S'wsgi_multithread'
p2069
asbag49
(g70
g51
NtRp2070
(dp2071
g54
(dp2072
g81
g82
ssg63
g2061
sg56
(lp2073
S':'
asbag49
(g70
g51
NtRp2074
(dp2075
g54
(dp2076
sg63
g2061
sg56
(lp2077
g49
(g50
g51
NtRp2078
(dp2079
g54
(dp2080
g62
I4
ssg63
g2074
sg56
(lp2081
S'True'
p2082
asbasbasbag49
(g65
g51
NtRp2083
(dp2084
g54
(dp2085
sg63
g1248
sg56
(lp2086
g49
(g70
g51
NtRp2087
(dp2088
g54
(dp2089
g74
g75
ssg63
g2083
sg56
(lp2090
S'wsgi_run_once'
p2091
asbag49
(g70
g51
NtRp2092
(dp2093
g54
(dp2094
g81
g82
ssg63
g2083
sg56
(lp2095
S':'
asbag49
(g70
g51
NtRp2096
(dp2097
g54
(dp2098
sg63
g2083
sg56
(lp2099
g49
(g50
g51
NtRp2100
(dp2101
g54
(dp2102
g62
I4
ssg63
g2096
sg56
(lp2103
g92
asbasbasbag49
(g65
g51
NtRp2104
(dp2105
g54
(dp2106
sg63
g1248
sg56
(lp2107
g49
(g70
g51
NtRp2108
(dp2109
g54
(dp2110
g74
g75
ssg63
g2104
sg56
(lp2111
S'wsgi_url_scheme'
p2112
asbag49
(g70
g51
NtRp2113
(dp2114
g54
(dp2115
g81
g82
ssg63
g2104
sg56
(lp2116
S':'
asbag49
(g70
g51
NtRp2117
(dp2118
g54
(dp2119
sg63
g2104
sg56
(lp2120
g49
(g50
g51
NtRp2121
(dp2122
g54
(dp2123
g62
I4
ssg63
g2117
sg56
(lp2124
S'http'
p2125
asbasbasbag49
(g65
g51
NtRp2126
(dp2127
g54
(dp2128
sg63
g1248
sg56
(lp2129
g49
(g70
g51
NtRp2130
(dp2131
g54
(dp2132
g74
g75
ssg63
g2126
sg56
(lp2133
S'wsgi_version'
p2134
asbag49
(g70
g51
NtRp2135
(dp2136
g54
(dp2137
g81
g82
ssg63
g2126
sg56
(lp2138
S':'
asbag49
(g70
g51
NtRp2139
(dp2140
g54
(dp2141
sg63
g2126
sg56
(lp2142
g49
(g50
g51
NtRp2143
(dp2144
g54
(dp2145
g62
I4
ssg63
g2139
sg56
(lp2146
g49
(g58
g51
NtRp2147
(dp2148
g54
(dp2149
g62
I3
ssg63
Nsg56
(lp2150
g49
(g65
g51
NtRp2151
(dp2152
g54
(dp2153
sg63
g2147
sg56
(lp2154
g49
(g70
g51
NtRp2155
(dp2156
g54
(dp2157
sg63
g2151
sg56
(lp2158
g49
(g50
g51
NtRp2159
(dp2160
g54
(dp2161
g62
I3
ssg63
g2155
sg56
(lp2162
S'1'
asbasbasbag49
(g65
g51
NtRp2163
(dp2164
g54
(dp2165
sg63
g2147
sg56
(lp2166
g49
(g70
g51
NtRp2167
(dp2168
g54
(dp2169
sg63
g2163
sg56
(lp2170
g49
(g50
g51
NtRp2171
(dp2172
g54
(dp2173
g62
I3
ssg63
g2167
sg56
(lp2174
S'0'
asbasbasbasbasbasbasbasbasbasbasbag49
(g65
g51
NtRp2175
(dp2176
g54
(dp2177
sg63
g59
sg56
(lp2178
g49
(g70
g51
NtRp2179
(dp2180
g54
(dp2181
g74
g75
ssg63
g2175
sg56
(lp2182
S'extension'
p2183
asbag49
(g70
g51
NtRp2184
(dp2185
g54
(dp2186
g81
g82
ssg63
g2175
sg56
(lp2187
S':'
asbag49
(g70
g51
NtRp2188
(dp2189
g54
(dp2190
sg63
g2175
sg56
(lp2191
g49
(g50
g51
NtRp2192
(dp2193
g54
(dp2194
g62
I5
ssg63
g2188
sg56
(lp2195
S'html'
p2196
asbasbasbag49
(g65
g51
NtRp2197
(dp2198
g54
(dp2199
sg63
g59
sg56
(lp2200
g49
(g70
g51
NtRp2201
(dp2202
g54
(dp2203
g74
g75
ssg63
g2197
sg56
(lp2204
S'folder'
p2205
asbag49
(g70
g51
NtRp2206
(dp2207
g54
(dp2208
g81
g82
ssg63
g2197
sg56
(lp2209
S':'
asbag49
(g70
g51
NtRp2210
(dp2211
g54
(dp2212
sg63
g2197
sg56
(lp2213
g49
(g50
g51
NtRp2214
(dp2215
g54
(dp2216
g62
I5
ssg63
g2210
sg56
(lp2217
S'/Users/mdipierro/Dropbox/web2py/applications/inplace/'
p2218
asbasbasbag49
(g65
g51
NtRp2219
(dp2220
g54
(dp2221
sg63
g59
sg56
(lp2222
g49
(g70
g51
NtRp2223
(dp2224
g54
(dp2225
g74
g75
ssg63
g2219
sg56
(lp2226
S'function'
p2227
asbag49
(g70
g51
NtRp2228
(dp2229
g54
(dp2230
g81
g82
ssg63
g2219
sg56
(lp2231
S':'
asbag49
(g70
g51
NtRp2232
(dp2233
g54
(dp2234
sg63
g2219
sg56
(lp2235
g49
(g50
g51
NtRp2236
(dp2237
g54
(dp2238
g62
I5
ssg63
g2232
sg56
(lp2239
S'test'
p2240
asbasbasbag49
(g65
g51
NtRp2241
(dp2242
g54
(dp2243
sg63
g59
sg56
(lp2244
g49
(g70
g51
NtRp2245
(dp2246
g54
(dp2247
g74
g75
ssg63
g2241
sg56
(lp2248
S'get_vars'
p2249
asbag49
(g70
g51
NtRp2250
(dp2251
g54
(dp2252
g81
g82
ssg63
g2241
sg56
(lp2253
S':'
asbag49
(g70
g51
NtRp2254
(dp2255
g54
(dp2256
sg63
g2241
sg56
(lp2257
g49
(g50
g51
NtRp2258
(dp2259
g54
(dp2260
g62
I5
ssg63
g2254
sg56
(lp2261
g49
(g58
g51
NtRp2262
(dp2263
g54
(dp2264
g62
I4
ssg63
Nsg56
(lp2265
sbasbasbasbag49
(g65
g51
NtRp2266
(dp2267
g54
(dp2268
sg63
g59
sg56
(lp2269
g49
(g70
g51
NtRp2270
(dp2271
g54
(dp2272
g74
g75
ssg63
g2266
sg56
(lp2273
S'global_settings'
p2274
asbag49
(g70
g51
NtRp2275
(dp2276
g54
(dp2277
g81
g82
ssg63
g2266
sg56
(lp2278
S':'
asbag49
(g70
g51
NtRp2279
(dp2280
g54
(dp2281
sg63
g2266
sg56
(lp2282
g49
(g50
g51
NtRp2283
(dp2284
g54
(dp2285
g62
I5
ssg63
g2279
sg56
(lp2286
g49
(g58
g51
NtRp2287
(dp2288
g54
(dp2289
g62
I4
ssg63
Nsg56
(lp2290
g49
(g65
g51
NtRp2291
(dp2292
g54
(dp2293
sg63
g2287
sg56
(lp2294
g49
(g70
g51
NtRp2295
(dp2296
g54
(dp2297
g74
g75
ssg63
g2291
sg56
(lp2298
g1260
asbag49
(g70
g51
NtRp2299
(dp2300
g54
(dp2301
g81
g82
ssg63
g2291
sg56
(lp2302
S':'
asbag49
(g70
g51
NtRp2303
(dp2304
g54
(dp2305
sg63
g2291
sg56
(lp2306
g49
(g50
g51
NtRp2307
(dp2308
g54
(dp2309
g62
I4
ssg63
g2303
sg56
(lp2310
S"set(['/Users/mdipierro/Dropbox/web2py/applications/inplace/', '/Users/mdipierro/Dropbox/web2py/applications/cms/', '/Users/mdipierro/Dropbox/web2py/applications/admin/'])"
p2311
asbasbasbag49
(g65
g51
NtRp2312
(dp2313
g54
(dp2314
sg63
g2287
sg56
(lp2315
g49
(g70
g51
NtRp2316
(dp2317
g54
(dp2318
g74
g75
ssg63
g2312
sg56
(lp2319
g1282
asbag49
(g70
g51
NtRp2320
(dp2321
g54
(dp2322
g81
g82
ssg63
g2312
sg56
(lp2323
S':'
asbag49
(g70
g51
NtRp2324
(dp2325
g54
(dp2326
sg63
g2312
sg56
(lp2327
g49
(g50
g51
NtRp2328
(dp2329
g54
(dp2330
g62
I4
ssg63
g2324
sg56
(lp2331
g1295
asbasbasbag49
(g65
g51
NtRp2332
(dp2333
g54
(dp2334
sg63
g2287
sg56
(lp2335
g49
(g70
g51
NtRp2336
(dp2337
g54
(dp2338
g74
g75
ssg63
g2332
sg56
(lp2339
g1304
asbag49
(g70
g51
NtRp2340
(dp2341
g54
(dp2342
g81
g82
ssg63
g2332
sg56
(lp2343
S':'
asbag49
(g70
g51
NtRp2344
(dp2345
g54
(dp2346
sg63
g2332
sg56
(lp2347
g49
(g50
g51
NtRp2348
(dp2349
g54
(dp2350
g62
I4
ssg63
g2344
sg56
(lp2351
g49
(g58
g51
NtRp2352
(dp2353
g54
(dp2354
g62
I3
ssg63
Nsg56
(lp2355
sbasbasbasbag49
(g65
g51
NtRp2356
(dp2357
g54
(dp2358
sg63
g2287
sg56
(lp2359
g49
(g70
g51
NtRp2360
(dp2361
g54
(dp2362
g74
g75
ssg63
g2356
sg56
(lp2363
g1329
asbag49
(g70
g51
NtRp2364
(dp2365
g54
(dp2366
g81
g82
ssg63
g2356
sg56
(lp2367
S':'
asbag49
(g70
g51
NtRp2368
(dp2369
g54
(dp2370
sg63
g2356
sg56
(lp2371
g49
(g50
g51
NtRp2372
(dp2373
g54
(dp2374
g62
I4
ssg63
g2368
sg56
(lp2375
S"<Values at 0x153a378: {'verbose': False, 'ip': '127.0.0.1', 'shutdown_timeout': 5, 'taskbar': False, 'nocron': False, 'pid_filename': 'httpserver.pid', 'maxthreads': None, 'softcron': False, 'server_name': 'massimo-di-pierros-macbook-2.local', 'bpython': False, 'nogui': False, 'port': 8000, 'extcron': False, 'debuglevel': 30, 'test': None, 'folder': '/Users/mdipierro/Dropbox/web2py', 'config': '', 'import_models': False, 'winservice': '', 'shell': None, 'run': '', 'log_filename': 'httpserver.log', 'args': [''], 'socket_timeout': 1, 'ssl_ca_certificate': None, 'scheduler': None, 'profiler_filename': None, 'ssl_private_key': '', 'password': 'hello', 'request_queue_size': 5, 'ssl_certificate': '', 'cronjob': False, 'numthreads': None, 'quiet': False, 'interfaces': None, 'minthreads': None, 'timeout': 10, 'plain': False, 'nobanner': False}>"
p2376
asbasbasbag49
(g65
g51
NtRp2377
(dp2378
g54
(dp2379
sg63
g2287
sg56
(lp2380
g49
(g70
g51
NtRp2381
(dp2382
g54
(dp2383
g74
g75
ssg63
g2377
sg56
(lp2384
g1351
asbag49
(g70
g51
NtRp2385
(dp2386
g54
(dp2387
g81
g82
ssg63
g2377
sg56
(lp2388
S':'
asbag49
(g70
g51
NtRp2389
(dp2390
g54
(dp2391
sg63
g2377
sg56
(lp2392
g49
(g50
g51
NtRp2393
(dp2394
g54
(dp2395
g62
I4
ssg63
g2389
sg56
(lp2396
S'set([])'
p2397
asbasbasbag49
(g65
g51
NtRp2398
(dp2399
g54
(dp2400
sg63
g2287
sg56
(lp2401
g49
(g70
g51
NtRp2402
(dp2403
g54
(dp2404
g74
g75
ssg63
g2398
sg56
(lp2405
g1373
asbag49
(g70
g51
NtRp2406
(dp2407
g54
(dp2408
g81
g82
ssg63
g2398
sg56
(lp2409
S':'
asbag49
(g70
g51
NtRp2410
(dp2411
g54
(dp2412
sg63
g2398
sg56
(lp2413
g49
(g50
g51
NtRp2414
(dp2415
g54
(dp2416
g62
I4
ssg63
g2410
sg56
(lp2417
g92
asbasbasbag49
(g65
g51
NtRp2418
(dp2419
g54
(dp2420
sg63
g2287
sg56
(lp2421
g49
(g70
g51
NtRp2422
(dp2423
g54
(dp2424
g74
g75
ssg63
g2418
sg56
(lp2425
g1394
asbag49
(g70
g51
NtRp2426
(dp2427
g54
(dp2428
g81
g82
ssg63
g2418
sg56
(lp2429
S':'
asbag49
(g70
g51
NtRp2430
(dp2431
g54
(dp2432
sg63
g2418
sg56
(lp2433
g49
(g50
g51
NtRp2434
(dp2435
g54
(dp2436
g62
I4
ssg63
g2430
sg56
(lp2437
g1407
asbasbasbag49
(g65
g51
NtRp2438
(dp2439
g54
(dp2440
sg63
g2287
sg56
(lp2441
g49
(g70
g51
NtRp2442
(dp2443
g54
(dp2444
g74
g75
ssg63
g2438
sg56
(lp2445
g1592
asbag49
(g70
g51
NtRp2446
(dp2447
g54
(dp2448
g81
g82
ssg63
g2438
sg56
(lp2449
S':'
asbag49
(g70
g51
NtRp2450
(dp2451
g54
(dp2452
sg63
g2438
sg56
(lp2453
g49
(g50
g51
NtRp2454
(dp2455
g54
(dp2456
g62
I4
ssg63
g2450
sg56
(lp2457
g92
asbasbasbag49
(g65
g51
NtRp2458
(dp2459
g54
(dp2460
sg63
g2287
sg56
(lp2461
g49
(g70
g51
NtRp2462
(dp2463
g54
(dp2464
g74
g75
ssg63
g2458
sg56
(lp2465
g1613
asbag49
(g70
g51
NtRp2466
(dp2467
g54
(dp2468
g81
g82
ssg63
g2458
sg56
(lp2469
S':'
asbag49
(g70
g51
NtRp2470
(dp2471
g54
(dp2472
sg63
g2458
sg56
(lp2473
g49
(g50
g51
NtRp2474
(dp2475
g54
(dp2476
g62
I4
ssg63
g2470
sg56
(lp2477
g92
asbasbasbag49
(g65
g51
NtRp2478
(dp2479
g54
(dp2480
sg63
g2287
sg56
(lp2481
g49
(g70
g51
NtRp2482
(dp2483
g54
(dp2484
g74
g75
ssg63
g2478
sg56
(lp2485
g1851
asbag49
(g70
g51
NtRp2486
(dp2487
g54
(dp2488
g81
g82
ssg63
g2478
sg56
(lp2489
S':'
asbag49
(g70
g51
NtRp2490
(dp2491
g54
(dp2492
sg63
g2478
sg56
(lp2493
g49
(g50
g51
NtRp2494
(dp2495
g54
(dp2496
g62
I4
ssg63
g2490
sg56
(lp2497
g1864
asbasbasbag49
(g65
g51
NtRp2498
(dp2499
g54
(dp2500
sg63
g2287
sg56
(lp2501
g49
(g70
g51
NtRp2502
(dp2503
g54
(dp2504
g74
g75
ssg63
g2498
sg56
(lp2505
g1894
asbag49
(g70
g51
NtRp2506
(dp2507
g54
(dp2508
g81
g82
ssg63
g2498
sg56
(lp2509
S':'
asbag49
(g70
g51
NtRp2510
(dp2511
g54
(dp2512
sg63
g2498
sg56
(lp2513
g49
(g50
g51
NtRp2514
(dp2515
g54
(dp2516
g62
I4
ssg63
g2510
sg56
(lp2517
g49
(g58
g51
NtRp2518
(dp2519
g54
(dp2520
g62
I3
ssg63
Nsg56
(lp2521
g49
(g65
g51
NtRp2522
(dp2523
g54
(dp2524
sg63
g2518
sg56
(lp2525
g49
(g70
g51
NtRp2526
(dp2527
g54
(dp2528
sg63
g2522
sg56
(lp2529
g49
(g50
g51
NtRp2530
(dp2531
g54
(dp2532
g62
I3
ssg63
g2526
sg56
(lp2533
S'1'
asbasbasbag49
(g65
g51
NtRp2534
(dp2535
g54
(dp2536
sg63
g2518
sg56
(lp2537
g49
(g70
g51
NtRp2538
(dp2539
g54
(dp2540
sg63
g2534
sg56
(lp2541
g49
(g50
g51
NtRp2542
(dp2543
g54
(dp2544
g62
I3
ssg63
g2538
sg56
(lp2545
S'99'
p2546
asbasbasbag49
(g65
g51
NtRp2547
(dp2548
g54
(dp2549
sg63
g2518
sg56
(lp2550
g49
(g70
g51
NtRp2551
(dp2552
g54
(dp2553
sg63
g2547
sg56
(lp2554
g49
(g50
g51
NtRp2555
(dp2556
g54
(dp2557
g62
I3
ssg63
g2551
sg56
(lp2558
S'3'
asbasbasbag49
(g65
g51
NtRp2559
(dp2560
g54
(dp2561
sg63
g2518
sg56
(lp2562
g49
(g70
g51
NtRp2563
(dp2564
g54
(dp2565
sg63
g2559
sg56
(lp2566
g49
(g50
g51
NtRp2567
(dp2568
g54
(dp2569
g62
I3
ssg63
g2563
sg56
(lp2570
S'datetime.datetime(2011, 12, 9, 21, 5, 4)'
p2571
asbasbasbag49
(g65
g51
NtRp2572
(dp2573
g54
(dp2574
sg63
g2518
sg56
(lp2575
g49
(g70
g51
NtRp2576
(dp2577
g54
(dp2578
sg63
g2572
sg56
(lp2579
g49
(g50
g51
NtRp2580
(dp2581
g54
(dp2582
g62
I3
ssg63
g2576
sg56
(lp2583
g1973
asbasbasbasbasbasbasbasbasbasbasbag49
(g65
g51
NtRp2584
(dp2585
g54
(dp2586
sg63
g59
sg56
(lp2587
g49
(g70
g51
NtRp2588
(dp2589
g54
(dp2590
g74
g75
ssg63
g2584
sg56
(lp2591
S'is_https'
p2592
asbag49
(g70
g51
NtRp2593
(dp2594
g54
(dp2595
g81
g82
ssg63
g2584
sg56
(lp2596
S':'
asbag49
(g70
g51
NtRp2597
(dp2598
g54
(dp2599
sg63
g2584
sg56
(lp2600
g49
(g50
g51
NtRp2601
(dp2602
g54
(dp2603
g62
I5
ssg63
g2597
sg56
(lp2604
g92
asbasbasbag49
(g65
g51
NtRp2605
(dp2606
g54
(dp2607
sg63
g59
sg56
(lp2608
g49
(g70
g51
NtRp2609
(dp2610
g54
(dp2611
g74
g75
ssg63
g2605
sg56
(lp2612
S'is_local'
p2613
asbag49
(g70
g51
NtRp2614
(dp2615
g54
(dp2616
g81
g82
ssg63
g2605
sg56
(lp2617
S':'
asbag49
(g70
g51
NtRp2618
(dp2619
g54
(dp2620
sg63
g2605
sg56
(lp2621
g49
(g50
g51
NtRp2622
(dp2623
g54
(dp2624
g62
I5
ssg63
g2618
sg56
(lp2625
g2082
asbasbasbag49
(g65
g51
NtRp2626
(dp2627
g54
(dp2628
sg63
g59
sg56
(lp2629
g49
(g70
g51
NtRp2630
(dp2631
g54
(dp2632
g74
g75
ssg63
g2626
sg56
(lp2633
S'is_restful'
p2634
asbag49
(g70
g51
NtRp2635
(dp2636
g54
(dp2637
g81
g82
ssg63
g2626
sg56
(lp2638
S':'
asbag49
(g70
g51
NtRp2639
(dp2640
g54
(dp2641
sg63
g2626
sg56
(lp2642
g49
(g50
g51
NtRp2643
(dp2644
g54
(dp2645
g62
I5
ssg63
g2639
sg56
(lp2646
g92
asbasbasbag49
(g65
g51
NtRp2647
(dp2648
g54
(dp2649
sg63
g59
sg56
(lp2650
g49
(g70
g51
NtRp2651
(dp2652
g54
(dp2653
g74
g75
ssg63
g2647
sg56
(lp2654
S'now'
p2655
asbag49
(g70
g51
NtRp2656
(dp2657
g54
(dp2658
g81
g82
ssg63
g2647
sg56
(lp2659
S':'
asbag49
(g70
g51
NtRp2660
(dp2661
g54
(dp2662
sg63
g2647
sg56
(lp2663
g49
(g50
g51
NtRp2664
(dp2665
g54
(dp2666
g62
I5
ssg63
g2660
sg56
(lp2667
S'datetime.datetime(2011, 12, 10, 22, 27, 22, 518254)'
p2668
asbasbasbag49
(g65
g51
NtRp2669
(dp2670
g54
(dp2671
sg63
g59
sg56
(lp2672
g49
(g70
g51
NtRp2673
(dp2674
g54
(dp2675
g74
g75
ssg63
g2669
sg56
(lp2676
S'post_vars'
p2677
asbag49
(g70
g51
NtRp2678
(dp2679
g54
(dp2680
g81
g82
ssg63
g2669
sg56
(lp2681
S':'
asbag49
(g70
g51
NtRp2682
(dp2683
g54
(dp2684
sg63
g2669
sg56
(lp2685
g49
(g50
g51
NtRp2686
(dp2687
g54
(dp2688
g62
I5
ssg63
g2682
sg56
(lp2689
g49
(g58
g51
NtRp2690
(dp2691
g54
(dp2692
g62
I4
ssg63
Nsg56
(lp2693
sbasbasbasbag49
(g65
g51
NtRp2694
(dp2695
g54
(dp2696
sg63
g59
sg56
(lp2697
g49
(g70
g51
NtRp2698
(dp2699
g54
(dp2700
g74
g75
ssg63
g2694
sg56
(lp2701
S'url'
p2702
asbag49
(g70
g51
NtRp2703
(dp2704
g54
(dp2705
g81
g82
ssg63
g2694
sg56
(lp2706
S':'
asbag49
(g70
g51
NtRp2707
(dp2708
g54
(dp2709
sg63
g2694
sg56
(lp2710
g49
(g50
g51
NtRp2711
(dp2712
g54
(dp2713
g62
I5
ssg63
g2707
sg56
(lp2714
S'/inplace/default/test'
p2715
asbasbasbag49
(g65
g51
NtRp2716
(dp2717
g54
(dp2718
sg63
g59
sg56
(lp2719
g49
(g70
g51
NtRp2720
(dp2721
g54
(dp2722
g74
g75
ssg63
g2716
sg56
(lp2723
S'utcnow'
p2724
asbag49
(g70
g51
NtRp2725
(dp2726
g54
(dp2727
g81
g82
ssg63
g2716
sg56
(lp2728
S':'
asbag49
(g70
g51
NtRp2729
(dp2730
g54
(dp2731
sg63
g2716
sg56
(lp2732
g49
(g50
g51
NtRp2733
(dp2734
g54
(dp2735
g62
I5
ssg63
g2729
sg56
(lp2736
S'datetime.datetime(2011, 12, 11, 4, 27, 22, 518266)'
p2737
asbasbasbag49
(g65
g51
NtRp2738
(dp2739
g54
(dp2740
sg63
g59
sg56
(lp2741
g49
(g70
g51
NtRp2742
(dp2743
g54
(dp2744
g74
g75
ssg63
g2738
sg56
(lp2745
S'uuid'
p2746
asbag49
(g70
g51
NtRp2747
(dp2748
g54
(dp2749
g81
g82
ssg63
g2738
sg56
(lp2750
S':'
asbag49
(g70
g51
NtRp2751
(dp2752
g54
(dp2753
sg63
g2738
sg56
(lp2754
g49
(g50
g51
NtRp2755
(dp2756
g54
(dp2757
g62
I5
ssg63
g2751
sg56
(lp2758
S'inplace/127.0.0.1.2011-12-10.22-27-22.091b831a-62b3-478a-a244-b89035bebe60'
p2759
asbasbasbag49
(g65
g51
NtRp2760
(dp2761
g54
(dp2762
sg63
g59
sg56
(lp2763
g49
(g70
g51
NtRp2764
(dp2765
g54
(dp2766
g74
g75
ssg63
g2760
sg56
(lp2767
S'vars'
p2768
asbag49
(g70
g51
NtRp2769
(dp2770
g54
(dp2771
g81
g82
ssg63
g2760
sg56
(lp2772
S':'
asbag49
(g70
g51
NtRp2773
(dp2774
g54
(dp2775
sg63
g2760
sg56
(lp2776
g49
(g50
g51
NtRp2777
(dp2778
g54
(dp2779
g62
I5
ssg63
g2773
sg56
(lp2780
g49
(g58
g51
NtRp2781
(dp2782
g54
(dp2783
g62
I4
ssg63
Nsg56
(lp2784
sbasbasbasbag49
(g65
g51
NtRp2785
(dp2786
g54
(dp2787
sg63
g59
sg56
(lp2788
g49
(g70
g51
NtRp2789
(dp2790
g54
(dp2791
g74
g75
ssg63
g2785
sg56
(lp2792
S'wsgi'
p2793
asbag49
(g70
g51
NtRp2794
(dp2795
g54
(dp2796
g81
g82
ssg63
g2785
sg56
(lp2797
S':'
asbag49
(g70
g51
NtRp2798
(dp2799
g54
(dp2800
sg63
g2785
sg56
(lp2801
g49
(g50
g51
NtRp2802
(dp2803
g54
(dp2804
g62
I5
ssg63
g2798
sg56
(lp2805
g49
(g58
g51
NtRp2806
(dp2807
g54
(dp2808
g62
I4
ssg63
Nsg56
(lp2809
g49
(g65
g51
NtRp2810
(dp2811
g54
(dp2812
sg63
g2806
sg56
(lp2813
g49
(g70
g51
NtRp2814
(dp2815
g54
(dp2816
g74
g75
ssg63
g2810
sg56
(lp2817
S'environ'
p2818
asbag49
(g70
g51
NtRp2819
(dp2820
g54
(dp2821
g81
g82
ssg63
g2810
sg56
(lp2822
S':'
asbag49
(g70
g51
NtRp2823
(dp2824
g54
(dp2825
sg63
g2810
sg56
(lp2826
g49
(g50
g51
NtRp2827
(dp2828
g54
(dp2829
g62
I4
ssg63
g2823
sg56
(lp2830
g49
(g58
g51
NtRp2831
(dp2832
g54
(dp2833
g62
I3
ssg63
Nsg56
(lp2834
g49
(g65
g51
NtRp2835
(dp2836
g54
(dp2837
sg63
g2831
sg56
(lp2838
g49
(g70
g51
NtRp2839
(dp2840
g54
(dp2841
g74
g75
ssg63
g2835
sg56
(lp2842
S'HTTP_ACCEPT'
p2843
asbag49
(g70
g51
NtRp2844
(dp2845
g54
(dp2846
g81
g82
ssg63
g2835
sg56
(lp2847
S':'
asbag49
(g70
g51
NtRp2848
(dp2849
g54
(dp2850
sg63
g2835
sg56
(lp2851
g49
(g50
g51
NtRp2852
(dp2853
g54
(dp2854
g62
I3
ssg63
g2848
sg56
(lp2855
g1429
asbasbasbag49
(g65
g51
NtRp2856
(dp2857
g54
(dp2858
sg63
g2831
sg56
(lp2859
g49
(g70
g51
NtRp2860
(dp2861
g54
(dp2862
g74
g75
ssg63
g2856
sg56
(lp2863
S'HTTP_ACCEPT_CHARSET'
p2864
asbag49
(g70
g51
NtRp2865
(dp2866
g54
(dp2867
g81
g82
ssg63
g2856
sg56
(lp2868
S':'
asbag49
(g70
g51
NtRp2869
(dp2870
g54
(dp2871
sg63
g2856
sg56
(lp2872
g49
(g50
g51
NtRp2873
(dp2874
g54
(dp2875
g62
I3
ssg63
g2869
sg56
(lp2876
g1451
asbasbasbag49
(g65
g51
NtRp2877
(dp2878
g54
(dp2879
sg63
g2831
sg56
(lp2880
g49
(g70
g51
NtRp2881
(dp2882
g54
(dp2883
g74
g75
ssg63
g2877
sg56
(lp2884
S'HTTP_ACCEPT_ENCODING'
p2885
asbag49
(g70
g51
NtRp2886
(dp2887
g54
(dp2888
g81
g82
ssg63
g2877
sg56
(lp2889
S':'
asbag49
(g70
g51
NtRp2890
(dp2891
g54
(dp2892
sg63
g2877
sg56
(lp2893
g49
(g50
g51
NtRp2894
(dp2895
g54
(dp2896
g62
I3
ssg63
g2890
sg56
(lp2897
g1473
asbasbasbag49
(g65
g51
NtRp2898
(dp2899
g54
(dp2900
sg63
g2831
sg56
(lp2901
g49
(g70
g51
NtRp2902
(dp2903
g54
(dp2904
g74
g75
ssg63
g2898
sg56
(lp2905
S'HTTP_ACCEPT_LANGUAGE'
p2906
asbag49
(g70
g51
NtRp2907
(dp2908
g54
(dp2909
g81
g82
ssg63
g2898
sg56
(lp2910
S':'
asbag49
(g70
g51
NtRp2911
(dp2912
g54
(dp2913
sg63
g2898
sg56
(lp2914
g49
(g50
g51
NtRp2915
(dp2916
g54
(dp2917
g62
I3
ssg63
g2911
sg56
(lp2918
g1495
asbasbasbag49
(g65
g51
NtRp2919
(dp2920
g54
(dp2921
sg63
g2831
sg56
(lp2922
g49
(g70
g51
NtRp2923
(dp2924
g54
(dp2925
g74
g75
ssg63
g2919
sg56
(lp2926
S'HTTP_CONNECTION'
p2927
asbag49
(g70
g51
NtRp2928
(dp2929
g54
(dp2930
g81
g82
ssg63
g2919
sg56
(lp2931
S':'
asbag49
(g70
g51
NtRp2932
(dp2933
g54
(dp2934
sg63
g2919
sg56
(lp2935
g49
(g50
g51
NtRp2936
(dp2937
g54
(dp2938
g62
I3
ssg63
g2932
sg56
(lp2939
g1517
asbasbasbag49
(g65
g51
NtRp2940
(dp2941
g54
(dp2942
sg63
g2831
sg56
(lp2943
g49
(g70
g51
NtRp2944
(dp2945
g54
(dp2946
g74
g75
ssg63
g2940
sg56
(lp2947
S'HTTP_COOKIE'
p2948
asbag49
(g70
g51
NtRp2949
(dp2950
g54
(dp2951
g81
g82
ssg63
g2940
sg56
(lp2952
S':'
asbag49
(g70
g51
NtRp2953
(dp2954
g54
(dp2955
sg63
g2940
sg56
(lp2956
g49
(g50
g51
NtRp2957
(dp2958
g54
(dp2959
g62
I3
ssg63
g2953
sg56
(lp2960
g1539
asbasbasbag49
(g65
g51
NtRp2961
(dp2962
g54
(dp2963
sg63
g2831
sg56
(lp2964
g49
(g70
g51
NtRp2965
(dp2966
g54
(dp2967
g74
g75
ssg63
g2961
sg56
(lp2968
S'HTTP_HOST'
p2969
asbag49
(g70
g51
NtRp2970
(dp2971
g54
(dp2972
g81
g82
ssg63
g2961
sg56
(lp2973
S':'
asbag49
(g70
g51
NtRp2974
(dp2975
g54
(dp2976
sg63
g2961
sg56
(lp2977
g49
(g50
g51
NtRp2978
(dp2979
g54
(dp2980
g62
I3
ssg63
g2974
sg56
(lp2981
g1561
asbasbasbag49
(g65
g51
NtRp2982
(dp2983
g54
(dp2984
sg63
g2831
sg56
(lp2985
g49
(g70
g51
NtRp2986
(dp2987
g54
(dp2988
g74
g75
ssg63
g2982
sg56
(lp2989
S'HTTP_USER_AGENT'
p2990
asbag49
(g70
g51
NtRp2991
(dp2992
g54
(dp2993
g81
g82
ssg63
g2982
sg56
(lp2994
S':'
asbag49
(g70
g51
NtRp2995
(dp2996
g54
(dp2997
sg63
g2982
sg56
(lp2998
g49
(g50
g51
NtRp2999
(dp3000
g54
(dp3001
g62
I3
ssg63
g2995
sg56
(lp3002
g1583
asbasbasbag49
(g65
g51
NtRp3003
(dp3004
g54
(dp3005
sg63
g2831
sg56
(lp3006
g49
(g70
g51
NtRp3007
(dp3008
g54
(dp3009
g74
g75
ssg63
g3003
sg56
(lp3010
S'PATH_INFO'
p3011
asbag49
(g70
g51
NtRp3012
(dp3013
g54
(dp3014
g81
g82
ssg63
g3003
sg56
(lp3015
S':'
asbag49
(g70
g51
NtRp3016
(dp3017
g54
(dp3018
sg63
g3003
sg56
(lp3019
g49
(g50
g51
NtRp3020
(dp3021
g54
(dp3022
g62
I3
ssg63
g3016
sg56
(lp3023
g1647
asbasbasbag49
(g65
g51
NtRp3024
(dp3025
g54
(dp3026
sg63
g2831
sg56
(lp3027
g49
(g70
g51
NtRp3028
(dp3029
g54
(dp3030
g74
g75
ssg63
g3024
sg56
(lp3031
S'QUERY_STRING'
p3032
asbag49
(g70
g51
NtRp3033
(dp3034
g54
(dp3035
g81
g82
ssg63
g3024
sg56
(lp3036
S':'
asbag49
(g70
g51
NtRp3037
(dp3038
g54
(dp3039
sg63
g3024
sg56
(lp3040
g49
(g50
g51
NtRp3041
(dp3042
g54
(dp3043
g62
I3
ssg63
g3037
sg56
(lp3044
S''
asbasbasbag49
(g65
g51
NtRp3045
(dp3046
g54
(dp3047
sg63
g2831
sg56
(lp3048
g49
(g70
g51
NtRp3049
(dp3050
g54
(dp3051
g74
g75
ssg63
g3045
sg56
(lp3052
S'REMOTE_ADDR'
p3053
asbag49
(g70
g51
NtRp3054
(dp3055
g54
(dp3056
g81
g82
ssg63
g3045
sg56
(lp3057
S':'
asbag49
(g70
g51
NtRp3058
(dp3059
g54
(dp3060
sg63
g3045
sg56
(lp3061
g49
(g50
g51
NtRp3062
(dp3063
g54
(dp3064
g62
I3
ssg63
g3058
sg56
(lp3065
g182
asbasbasbag49
(g65
g51
NtRp3066
(dp3067
g54
(dp3068
sg63
g2831
sg56
(lp3069
g49
(g70
g51
NtRp3070
(dp3071
g54
(dp3072
g74
g75
ssg63
g3066
sg56
(lp3073
S'REMOTE_PORT'
p3074
asbag49
(g70
g51
NtRp3075
(dp3076
g54
(dp3077
g81
g82
ssg63
g3066
sg56
(lp3078
S':'
asbag49
(g70
g51
NtRp3079
(dp3080
g54
(dp3081
sg63
g3066
sg56
(lp3082
g49
(g50
g51
NtRp3083
(dp3084
g54
(dp3085
g62
I3
ssg63
g3079
sg56
(lp3086
g1711
asbasbasbag49
(g65
g51
NtRp3087
(dp3088
g54
(dp3089
sg63
g2831
sg56
(lp3090
g49
(g70
g51
NtRp3091
(dp3092
g54
(dp3093
g74
g75
ssg63
g3087
sg56
(lp3094
S'REQUEST_METHOD'
p3095
asbag49
(g70
g51
NtRp3096
(dp3097
g54
(dp3098
g81
g82
ssg63
g3087
sg56
(lp3099
S':'
asbag49
(g70
g51
NtRp3100
(dp3101
g54
(dp3102
sg63
g3087
sg56
(lp3103
g49
(g50
g51
NtRp3104
(dp3105
g54
(dp3106
g62
I3
ssg63
g3100
sg56
(lp3107
g1733
asbasbasbag49
(g65
g51
NtRp3108
(dp3109
g54
(dp3110
sg63
g2831
sg56
(lp3111
g49
(g70
g51
NtRp3112
(dp3113
g54
(dp3114
g74
g75
ssg63
g3108
sg56
(lp3115
S'SCRIPT_NAME'
p3116
asbag49
(g70
g51
NtRp3117
(dp3118
g54
(dp3119
g81
g82
ssg63
g3108
sg56
(lp3120
S':'
asbag49
(g70
g51
NtRp3121
(dp3122
g54
(dp3123
sg63
g3108
sg56
(lp3124
g49
(g50
g51
NtRp3125
(dp3126
g54
(dp3127
g62
I3
ssg63
g3121
sg56
(lp3128
S''
asbasbasbag49
(g65
g51
NtRp3129
(dp3130
g54
(dp3131
sg63
g2831
sg56
(lp3132
g49
(g70
g51
NtRp3133
(dp3134
g54
(dp3135
g74
g75
ssg63
g3129
sg56
(lp3136
S'SERVER_NAME'
p3137
asbag49
(g70
g51
NtRp3138
(dp3139
g54
(dp3140
g81
g82
ssg63
g3129
sg56
(lp3141
S':'
asbag49
(g70
g51
NtRp3142
(dp3143
g54
(dp3144
sg63
g3129
sg56
(lp3145
g49
(g50
g51
NtRp3146
(dp3147
g54
(dp3148
g62
I3
ssg63
g3142
sg56
(lp3149
g1776
asbasbasbag49
(g65
g51
NtRp3150
(dp3151
g54
(dp3152
sg63
g2831
sg56
(lp3153
g49
(g70
g51
NtRp3154
(dp3155
g54
(dp3156
g74
g75
ssg63
g3150
sg56
(lp3157
S'SERVER_PORT'
p3158
asbag49
(g70
g51
NtRp3159
(dp3160
g54
(dp3161
g81
g82
ssg63
g3150
sg56
(lp3162
S':'
asbag49
(g70
g51
NtRp3163
(dp3164
g54
(dp3165
sg63
g3150
sg56
(lp3166
g49
(g50
g51
NtRp3167
(dp3168
g54
(dp3169
g62
I3
ssg63
g3163
sg56
(lp3170
g1798
asbasbasbag49
(g65
g51
NtRp3171
(dp3172
g54
(dp3173
sg63
g2831
sg56
(lp3174
g49
(g70
g51
NtRp3175
(dp3176
g54
(dp3177
g74
g75
ssg63
g3171
sg56
(lp3178
S'SERVER_PROTOCOL'
p3179
asbag49
(g70
g51
NtRp3180
(dp3181
g54
(dp3182
g81
g82
ssg63
g3171
sg56
(lp3183
S':'
asbag49
(g70
g51
NtRp3184
(dp3185
g54
(dp3186
sg63
g3171
sg56
(lp3187
g49
(g50
g51
NtRp3188
(dp3189
g54
(dp3190
g62
I3
ssg63
g3184
sg56
(lp3191
g1820
asbasbasbag49
(g65
g51
NtRp3192
(dp3193
g54
(dp3194
sg63
g2831
sg56
(lp3195
g49
(g70
g51
NtRp3196
(dp3197
g54
(dp3198
g74
g75
ssg63
g3192
sg56
(lp3199
S'SERVER_SOFTWARE'
p3200
asbag49
(g70
g51
NtRp3201
(dp3202
g54
(dp3203
g81
g82
ssg63
g3192
sg56
(lp3204
S':'
asbag49
(g70
g51
NtRp3205
(dp3206
g54
(dp3207
sg63
g3192
sg56
(lp3208
g49
(g50
g51
NtRp3209
(dp3210
g54
(dp3211
g62
I3
ssg63
g3205
sg56
(lp3212
g1842
asbasbasbag49
(g65
g51
NtRp3213
(dp3214
g54
(dp3215
sg63
g2831
sg56
(lp3216
g49
(g70
g51
NtRp3217
(dp3218
g54
(dp3219
g74
g75
ssg63
g3213
sg56
(lp3220
S'wsgi.errors'
p3221
asbag49
(g70
g51
NtRp3222
(dp3223
g54
(dp3224
g81
g82
ssg63
g3213
sg56
(lp3225
S':'
asbag49
(g70
g51
NtRp3226
(dp3227
g54
(dp3228
sg63
g3213
sg56
(lp3229
g49
(g50
g51
NtRp3230
(dp3231
g54
(dp3232
g62
I3
ssg63
g3226
sg56
(lp3233
S"<open file '<stderr>', mode 'w' at 0x1620b0>"
p3234
asbasbasbag49
(g65
g51
NtRp3235
(dp3236
g54
(dp3237
sg63
g2831
sg56
(lp3238
g49
(g70
g51
NtRp3239
(dp3240
g54
(dp3241
g74
g75
ssg63
g3235
sg56
(lp3242
S'wsgi.file_wrapper'
p3243
asbag49
(g70
g51
NtRp3244
(dp3245
g54
(dp3246
g81
g82
ssg63
g3235
sg56
(lp3247
S':'
asbag49
(g70
g51
NtRp3248
(dp3249
g54
(dp3250
sg63
g3235
sg56
(lp3251
g49
(g50
g51
NtRp3252
(dp3253
g54
(dp3254
g62
I3
ssg63
g3248
sg56
(lp3255
S'<class wsgiref.util.FileWrapper at 0x7c2840>'
p3256
asbasbasbag49
(g65
g51
NtRp3257
(dp3258
g54
(dp3259
sg63
g2831
sg56
(lp3260
g49
(g70
g51
NtRp3261
(dp3262
g54
(dp3263
g74
g75
ssg63
g3257
sg56
(lp3264
S'wsgi.input'
p3265
asbag49
(g70
g51
NtRp3266
(dp3267
g54
(dp3268
g81
g82
ssg63
g3257
sg56
(lp3269
S':'
asbag49
(g70
g51
NtRp3270
(dp3271
g54
(dp3272
sg63
g3257
sg56
(lp3273
g49
(g50
g51
NtRp3274
(dp3275
g54
(dp3276
g62
I3
ssg63
g3270
sg56
(lp3277
S'<cStringIO.StringO object at 0x72dda0>'
p3278
asbasbasbag49
(g65
g51
NtRp3279
(dp3280
g54
(dp3281
sg63
g2831
sg56
(lp3282
g49
(g70
g51
NtRp3283
(dp3284
g54
(dp3285
g74
g75
ssg63
g3279
sg56
(lp3286
S'wsgi.multiprocess'
p3287
asbag49
(g70
g51
NtRp3288
(dp3289
g54
(dp3290
g81
g82
ssg63
g3279
sg56
(lp3291
S':'
asbag49
(g70
g51
NtRp3292
(dp3293
g54
(dp3294
sg63
g3279
sg56
(lp3295
g49
(g50
g51
NtRp3296
(dp3297
g54
(dp3298
g62
I3
ssg63
g3292
sg56
(lp3299
g92
asbasbasbag49
(g65
g51
NtRp3300
(dp3301
g54
(dp3302
sg63
g2831
sg56
(lp3303
g49
(g70
g51
NtRp3304
(dp3305
g54
(dp3306
g74
g75
ssg63
g3300
sg56
(lp3307
S'wsgi.multithread'
p3308
asbag49
(g70
g51
NtRp3309
(dp3310
g54
(dp3311
g81
g82
ssg63
g3300
sg56
(lp3312
S':'
asbag49
(g70
g51
NtRp3313
(dp3314
g54
(dp3315
sg63
g3300
sg56
(lp3316
g49
(g50
g51
NtRp3317
(dp3318
g54
(dp3319
g62
I3
ssg63
g3313
sg56
(lp3320
g2082
asbasbasbag49
(g65
g51
NtRp3321
(dp3322
g54
(dp3323
sg63
g2831
sg56
(lp3324
g49
(g70
g51
NtRp3325
(dp3326
g54
(dp3327
g74
g75
ssg63
g3321
sg56
(lp3328
S'wsgi.run_once'
p3329
asbag49
(g70
g51
NtRp3330
(dp3331
g54
(dp3332
g81
g82
ssg63
g3321
sg56
(lp3333
S':'
asbag49
(g70
g51
NtRp3334
(dp3335
g54
(dp3336
sg63
g3321
sg56
(lp3337
g49
(g50
g51
NtRp3338
(dp3339
g54
(dp3340
g62
I3
ssg63
g3334
sg56
(lp3341
g92
asbasbasbag49
(g65
g51
NtRp3342
(dp3343
g54
(dp3344
sg63
g2831
sg56
(lp3345
g49
(g70
g51
NtRp3346
(dp3347
g54
(dp3348
g74
g75
ssg63
g3342
sg56
(lp3349
S'wsgi.url_scheme'
p3350
asbag49
(g70
g51
NtRp3351
(dp3352
g54
(dp3353
g81
g82
ssg63
g3342
sg56
(lp3354
S':'
asbag49
(g70
g51
NtRp3355
(dp3356
g54
(dp3357
sg63
g3342
sg56
(lp3358
g49
(g50
g51
NtRp3359
(dp3360
g54
(dp3361
g62
I3
ssg63
g3355
sg56
(lp3362
g2125
asbasbasbag49
(g65
g51
NtRp3363
(dp3364
g54
(dp3365
sg63
g2831
sg56
(lp3366
g49
(g70
g51
NtRp3367
(dp3368
g54
(dp3369
g74
g75
ssg63
g3363
sg56
(lp3370
S'wsgi.version'
p3371
asbag49
(g70
g51
NtRp3372
(dp3373
g54
(dp3374
g81
g82
ssg63
g3363
sg56
(lp3375
S':'
asbag49
(g70
g51
NtRp3376
(dp3377
g54
(dp3378
sg63
g3363
sg56
(lp3379
g49
(g50
g51
NtRp3380
(dp3381
g54
(dp3382
g62
I3
ssg63
g3376
sg56
(lp3383
S'1'
asbasbasbasbasbasbasbasbasbasbasbasbasbsS'frames'
p3384
(lp3385
(dp3386
S'file'
p3387
S'/Users/mdipierro/Dropbox/web2py/gluon/restricted.py'
p3388
sS'dump'
p3389
(dp3390
S'environment'
p3391
S"{'A': <class 'gluon.html.A'>, 'Auth': <class 'gluon.tools.Auth'>, 'B': <class 'gluon.html.B'>, 'BEAUTIFY': <class 'gluon.html.BEAUTIFY'>, 'BODY': <class 'gluon.html.BODY'>, 'BR': <class 'gluon.html.BR'>, 'BUTTON': <class 'gluon.html.BUTTON'>, 'CAT': <class 'gluon.html.CAT'>, 'CENTER': <class 'gluon.html.CENTER'>, 'CLEANUP': <class 'gluon.validators.CLEANUP'>, ...}"
p3392
sS'ccode'
p3393
S'<code object <module> at 0x1d71b18, file "/Users...cations/inplace/views/default/test.html", line 1>'
p3394
ssS'lnum'
p3395
I204
sS'lines'
p3396
(dp3397
I199
S'    try:'
p3398
sI200
S'        if type(code) == types.CodeType:'
p3399
sI201
S'            ccode = code'
p3400
sI202
S'        else:'
p3401
sI203
S'            ccode = compile2(code,layer)'
p3402
sI204
S'        exec ccode in environment'
p3403
sI205
S'    except HTTP:'
p3404
sI206
S'        raise'
p3405
sI207
S'    except RestrictedError:'
p3406
sI208
S'        # do not encapsulate (obfuscate) the original RestrictedError'
p3407
ssS'call'
p3408
S'(code=r"rexponse.files.append(URL(\'static\',\'js/nicEditor...ponse.write(\'\\n</body>\\n</html>\\n\', escape=False)", environment={\'A\': <class \'gluon.html.A\'>, \'Auth\': <class \'gluon.tools.Auth\'>, \'B\': <class \'gluon.html.B\'>, \'BEAUTIFY\': <class \'gluon.html.BEAUTIFY\'>, \'BODY\': <class \'gluon.html.BODY\'>, \'BR\': <class \'gluon.html.BR\'>, \'BUTTON\': <class \'gluon.html.BUTTON\'>, \'CAT\': <class \'gluon.html.CAT\'>, \'CENTER\': <class \'gluon.html.CENTER\'>, \'CLEANUP\': <class \'gluon.validators.CLEANUP\'>, ...}, layer=\'/Users/mdipierro/Dropbox/web2py/applications/inplace/views/default/test.html\')'
p3409
sS'func'
p3410
S'restricted'
p3411
sa(dp3412
g3387
S'/Users/mdipierro/Dropbox/web2py/applications/inplace/views/default/test.html'
p3413
sg3389
(dp3414
S'rexponse'
p3415
S'undefined'
p3416
sS'URL'
p3417
S'<function URL at 0x60d130>'
p3418
ssg3395
I1
sg3396
(dp3419
I1
S"rexponse.files.append(URL('static','js/nicEditor.js'))"
p3420
sI2
S"response.write('\\n', escape=False)"
p3421
sI3
S'response.write(\'<!DOCTYPE html>\\n<!-- paulirish.com/2008/conditional-stylesheets-vs-css-hacks-answer-neither/ -->\\n<!--[if lt IE 7]><html class="ie ie6 ie-lte9 ie-lte8 ie-lte7 no-js" lang="\', escape=False)'
p3422
sI4
S"response.write(T.accepted_language or 'en')"
p3423
sI5
S'response.write(\'"> <![endif]-->\\n<!--[if IE 7]><html class="ie ie7 ie-lte9 ie-lte8 ie-lte7 no-js" lang="\', escape=False)'
p3424
sI6
S"response.write(T.accepted_language or 'en')"
p3425
sI7
S'response.write(\'"> <![endif]-->\\n<!--[if IE 8]><html class="ie ie8 ie-lte9 ie-lte8 no-js" lang="\', escape=False)'
p3426
sI8
S"response.write(T.accepted_language or 'en')"
p3427
sI9
S'response.write(\'"> <![endif]-->\\n<!--[if IE 9]><html class="ie9 ie-lte9 no-js" lang="\', escape=False)'
p3428
sI10
S"response.write(T.accepted_language or 'en')"
p3429
sI11
S'response.write(\'"> <![endif]-->\\n<!--[if (gt IE 9)|!(IE)]><!--> <html class="no-js" lang="\', escape=False)'
p3430
ssg3408
S'()'
p3431
sg3410
S'<module>'
p3432
sasS'pyver'
p3433
S'Python 2.5.4: /usr/bin/python2.5'
p3434
sS'session'
p3435
g49
(g50
g51
NtRp3436
(dp3437
g54
(dp3438
sg56
(lp3439
g49
(g58
g51
NtRp3440
(dp3441
g54
(dp3442
g62
I5
ssg63
Nsg56
(lp3443
g49
(g65
g51
NtRp3444
(dp3445
g54
(dp3446
sg63
g3440
sg56
(lp3447
g49
(g70
g51
NtRp3448
(dp3449
g54
(dp3450
g74
g75
ssg63
g3444
sg56
(lp3451
S'html'
p3452
asbag49
(g70
g51
NtRp3453
(dp3454
g54
(dp3455
g81
g82
ssg63
g3444
sg56
(lp3456
S':'
asbag49
(g70
g51
NtRp3457
(dp3458
g54
(dp3459
sg63
g3444
sg56
(lp3460
g49
(g50
g51
NtRp3461
(dp3462
g54
(dp3463
g62
I5
ssg63
g3457
sg56
(lp3464
S'\n<!DOCTYPE html>\n<!-- paulirish.com/2008/conditional-stylesheets-vs-css-hacks-answer-neither/ -->\n<!--[if lt IE 7]><html class="ie ie6 ie-lte9 ie-lte8 ie-lte7 no-js" lang="en"> <![endif]-->\n<!--[if IE 7]><html class="ie ie7 ie-lte9 ie-lte8 ie-lte7 no-js" lang="en"> <![endif]-->\n<!--[if IE 8]><html class="ie ie8 ie-lte9 ie-lte8 no-js" lang="en"> <![endif]-->\n<!--[if IE 9]><html class="ie9 ie-lte9 no-js" lang="en"> <![endif]-->\n<!--[if (gt IE 9)|!(IE)]><!--> <html class="no-js" lang="en"> <!--<![endif]-->\n<head>\n  <meta charset="utf-8" />\n  <!-- www.phpied.com/conditional-comments-block-downloads/ -->\n  <!-- Always force latest IE rendering engine\n\t   (even in intranet) & Chrome Frame\n\t   Remove this if you use the .htaccess -->\n  <!--[if IE]>\n    <meta http-equiv="X-UA-Compatible" content="IE=edge">\n  <![endif]-->\n  \n  <title>web2py Web Framework</title>\n  \n  <!-- http://dev.w3.org/html5/markup/meta.name.html -->\n  <meta name="application-name" content="examples" />\n  \n  <!-- Speaking of Google, don\'t forget to set your site up:\n\t   http://google.com/webmasters -->\n  <meta name="google-site-verification" content="" />\n\n  <!--  Mobile Viewport Fix\n\t  j.mp/mobileviewport & davidbcalhoun.com/2010/viewport-metatag\n\t  device-width: Occupy full width of the screen in its current orientation\n\t  initial-scale = 1.0 retains dimensions instead of zooming out if page height > device height\n\t  user-scalable = yes allows the user to zoom in -->\n  <meta name="viewport" content="width=device-width, initial-scale=1.0, user-scalable=yes">\n  \n  <!-- Place favicon.ico and apple-touch-icon.png in the root of your domain and delete these references -->\n  <link rel="shortcut icon" href="/examples/static/favicon.ico" type="image/x-icon">\n  <link rel="apple-touch-icon" href="/examples/static/favicon.png">\n\n  <!-- All JavaScript at the bottom, except for Modernizr which enables \n\t   HTML5 elements & feature detects -->\n  <script src="/examples/static/js/modernizr.custom.js"></script>  \n\n  <!-- include stylesheets -->\n  \n\n  <script type="text/javascript"><!--\n    // These variables are used by the web2py_ajax_init function in web2py_ajax.js (which is loaded below).\n    var w2p_ajax_confirm_message = "Are you sure you want to delete this object?";\n    var w2p_ajax_date_format = "%Y-%m-%d";\n    var w2p_ajax_datetime_format = "%Y-%m-%d %H:%M:%S";\n    //--></script>\n<script src="/examples/static/js/jquery.js" type="text/javascript"></script><link href="/examples/static/css/calendar.css" rel="stylesheet" type="text/css" /><script src="/examples/static/js/calendar.js" type="text/javascript"></script><script src="/examples/static/js/web2py.js" type="text/javascript"></script><link href="/examples/static/css/skeleton.css" rel="stylesheet" type="text/css" /><link href="/examples/static/css/web2py.css" rel="stylesheet" type="text/css" /><link href="/examples/static/css/examples.css" rel="stylesheet" type="text/css" /><link href="/examples/static/css/superfish.css" rel="stylesheet" type="text/css" /><script src="/examples/static/js/superfish.js" type="text/javascript"></script>\n\n\n  <script type="text/javascript">\n    jQuery(function(){jQuery(\'.sf-menu\').superfish();});\n  </script>\n\n  \n\n  <!-- uncomment here to load jquery-ui\n  <link rel="stylesheet" href="http://ajax.googleapis.com/ajax/libs/jqueryui/1.8.16/themes/base/jquery-ui.css" type="text/css" media="all" />\n  <script src="http://ajax.googleapis.com/ajax/libs/jqueryui/1.8.16/jquery-ui.min.js" type="text/javascript"></script>\n  uncomment to load jquery-ui //-->\n  </style>\n</head>\n<body>\n  <div class="wrapper"><!-- for sticky footer -->    \n    <div class="flash"></div>    \n    <div class="header">\n      <div class="container">\n        <div class="sixteen columns">\n\t  <img src="/examples/static/images/web2py_logo.png" />\n          <h5></h5>\n        </div>\n        \n        <div class="sixteen columns statusbar">\n\t  \n\t  \n          <div id="menu"><ul class="sf-menu"><li><a href="/examples/default/index">Home</a></li><li><a href="/examples/default/what">About</a></li><li><a href="/examples/default/download">Download</a></li><li><a href="/examples/default/documentation">Docs &amp; Resources</a></li><li><a href="/examples/default/support">Support</a></li><li><a href="/examples/default/who">Contributors</a></li></ul>\n\t    \n            <!-- AddToAny BEGIN -->\n            <div style="float:right;padding-top:6px;" class="a2a_kit a2a_default_style">\n            <a class="a2a_dd" href="http://www.addtoany.com/share_save">Share</a></div>\n            <script type="text/javascript" src="http://static.addtoany.com/menu/page.js"></script>\n            <!-- AddToAny END -->\n          </div>\n\t  \n\t  <div class="sixteen columns announce">\n\t    <a href="http://www.infoworld.com/d/open-source-software/bossie-awards-2011-the-best-open-source-application-development-software-171759-0&current=10&last=1#slideshowTop">2011 BOSSIE AWARD FOR OPEN SOURCE DEVELOPMENT SOFTWARE</a>\n          </div>\n\t</div>\n      </div>\n    </div>\n    <div class="main">\n      <div class="container mainbody">\t\n        <div class="sixteen columns">\n          <div class="ten columns center">\n            \n            \n\n<center>\n  <img src="/examples/static/images/tag-cloud-color-small.png"/>\n</center>\n\n<h3>WEB2PY<sup>TM</sup> WEB FRAMEWORK</h3>\n<p>Free open source full-stack framework for rapid development of fast, scalable, <a href="http://www.web2py.com/book/default/chapter/01#security" target="_blank">secure</a> and portable database-driven web-based applications. Written and programmable in <a href="http://www.python.org" target="_blank">Python</a>. <a href="http://www.gnu.org/licenses/lgpl.html">LGPLv3 License</a>.\nCurrent version: 1.99.3 (2011-12-09 16:18:03) stable</p>\n\n\n\n\n\n\n            \n          </div>\n          \n          \n          <div class="five columns">\n            \n<div style="text-align:center">\n  <a href="http://web2py.com/book"><img src="/examples/static/images/tablet.png" alt="Tablet" /></a><br/>\n  <a href="http://www.lulu.com/product/paperback/web2py-book-(4th-edition)/18738286"><img src="http://static.lulu.com/images/services/buy_now_buttons/us/book.gif?20111206124946" border="0" alt="Support independent publishing: Buy this book on Lulu."></a><br/>\n  <a class="button" href="/examples/default/download" style="width:90%">DOWNLOAD NOW</a><br/>\n  <a class="button" href="http://web2py.com/demo_admin" style="width:90%">ONLINE DEMO</a><br/>\n  <a class="button" href="http://web2py.com/poweredby" style="width:90%">SITES POWERED</a>\n</div>\n\n          </div>    \n          \n        </div>\n      </div><!-- container -->\n      \n<div class="container">\n  <div class="sixteen columns">\n    <div class="five columns">\n      <h3><a href="/examples/default/about">BATTERIES INCLUDED</a></h3>\n      <p>Everything you need in one package including fast multi-threaded web server, SQL database and web-based interface. No third party dependencies but works with <a href=/examples/default/what>third party tools</a>.</p>\n    </div>\n    <div class="five columns">\n      <h3><a href="http://web2py.com/demo_admin">WEB-BASED IDE</a></h3>\n      <p>Create, modify, deploy and manage application from anywhere using your browser. One web2py instance can run multiple web sites using different databases. Try the <a href="http://web2py.com/demo_admin">interactive demo</a>.</p>\n    </div>\n    <div class="five columns">\n      <h3><a href="/examples/default/documentation">EXTENSIVE DOCS</a></h3>\n      <p>Start with some <a href="/examples/default/examples">quick examples</a>, then read the <a href="http://web2py.com/book">reference manual</a>, watch <a href="http://vimeo.com/album/178500">videos</a>, and join a <a href="/examples/default/usergroups">user group</a> for discussion. Take advantage of the <a href="http://web2py.com/layouts">layouts</a>, <a href="http://dev.s-cubism.com/web2py_plugins">plugins</a>, and <a href="http://web2pyslices.com">recipes</a>.</p>\n    </div>\n  </div>\n</div>\n<div class="container">\n  <div class="sixteen columns">\n    <img src="/examples/static/images/shadow-bottom.png" width="100%"/>\n    \n    <div class="five columns">\n      <em>\n\t<p>Please use www.web2py.com when using MVC , no PHP/SQL stuff please...its 2011 not 1999</p>\n      </em>\n      <span class="right">\n\t<a href="http://twitter.com/#!/rabblesoft/status/79189028431343616"><em>rabblesoft</em></a>\n      </span>\n    </div>\n    \n    <div class="five columns">\n      <em>\n\t<p>web2py was the life saver today for me, my blog post: Standalone Usage of web2py&#x27;s</p>\n      </em>\n      <span class="right">\n\t<a href="http://twitter.com/#!/caglartoklu/status/84292131707031553"><em>caglartoklu</em></a>\n      </span>\n    </div>\n    \n    <div class="five columns">\n      <em>\n\t<p>web2py it is. Compatible with everything under the sun and great interfaces to googleappengine</p>\n      </em>\n      <span class="right">\n\t<a href="http://twitter.com/#!/comamitc/status/51744719071477760"><em>comamitc</em></a>\n      </span>\n    </div>\n    \n  </div>\n</div>\n      \n      \n    </div><!-- main -->\n    \n    <div class="push"></div>\n  </div><!-- wrapper -->\n\n  <div class="footer">\n    <div class="container header">    \n      <div class="sixteen columns">\n         <!-- this is default footer -->\n        <div class="footer-content" >\n          Copyright &#169; 2011\n\t  - User communities in <a href="https://groups.google.com/forum/?fromgroups#!forum/web2py" target="_blank">English<a>, <a href="https://groups.google.com/forum/?fromgroups#!forum/web2py-fr" target="_blank">French</a>, <a href="https://groups.google.com/forum/?fromgroups#!forum/web2py-japan" target="_blank">Japanese</a>, <a href="https://groups.google.com/forum/?fromgroups#!forum/web2py-users-brazil" target="_blank">Portuguese</a>, and <a href="https://groups.google.com/forum/?fromgroups#!forum/web2py-usuarios" target="_blank">Spanish</a>.\n          <div style="float: right;">\n            <a href="http://www.web2py.com/" style="float: left; padding-right: 6px;">\n            <img style="padding-bottom: 0;" src="/examples/static/images/poweredby.png"/>\n            </a>\n          </div>\n        </div>\n        \t\n      </div>\n    </div><!-- container -->\n  </div><!-- footer -->\n  \n  <!--[if lt IE 7 ]>\n\t<script src="/examples/static/js/dd_belatedpng.js"></script>\n\t<script> DD_belatedPNG.fix(\'img, .png_bg\'); //fix any <img> or .png_bg background-images </script>\n\t<![endif]-->\n  \n</body>\n</html>\n'
p3465
asbasbasbag49
(g65
g51
NtRp3466
(dp3467
g54
(dp3468
sg63
g3440
sg56
(lp3469
g49
(g70
g51
NtRp3470
(dp3471
g54
(dp3472
g74
g75
ssg63
g3466
sg56
(lp3473
S'new_html'
p3474
asbag49
(g70
g51
NtRp3475
(dp3476
g54
(dp3477
g81
g82
ssg63
g3466
sg56
(lp3478
S':'
asbag49
(g70
g51
NtRp3479
(dp3480
g54
(dp3481
sg63
g3466
sg56
(lp3482
g49
(g50
g51
NtRp3483
(dp3484
g54
(dp3485
g62
I5
ssg63
g3479
sg56
(lp3486
S'\n<!DOCTYPE html>\n<!-- paulirish.com/2008/conditional-stylesheets-vs-css-hacks-answer-neither/ -->\n<!--[if lt IE 7]><html class="ie ie6 ie-lte9 ie-lte8 ie-lte7 no-js" lang="en"> <![endif]-->\n<!--[if IE 7]><html class="ie ie7 ie-lte9 ie-lte8 ie-lte7 no-js" lang="en"> <![endif]-->\n<!--[if IE 8]><html class="ie ie8 ie-lte9 ie-lte8 no-js" lang="en"> <![endif]-->\n<!--[if IE 9]><html class="ie9 ie-lte9 no-js" lang="en"> <![endif]-->\n<!--[if (gt IE 9)|!(IE)]><!--> <html class="no-js" lang="en"> <!--<![endif]-->\n<head>\n  <meta charset="utf-8" />\n  <!-- www.phpied.com/conditional-comments-block-downloads/ -->\n  <!-- Always force latest IE rendering engine\n\t   (even in intranet) & Chrome Frame\n\t   Remove this if you use the .htaccess -->\n  <!--[if IE]>\n    <meta http-equiv="X-UA-Compatible" content="IE=edge">\n  <![endif]-->\n  \n  <title>web2py Web Framework</title>\n  \n  <!-- http://dev.w3.org/html5/markup/meta.name.html -->\n  <meta name="application-name" content="examples" />\n  \n  <!-- Speaking of Google, don\'t forget to set your site up:\n\t   http://google.com/webmasters -->\n  <meta name="google-site-verification" content="" />\n\n  <!--  Mobile Viewport Fix\n\t  j.mp/mobileviewport & davidbcalhoun.com/2010/viewport-metatag\n\t  device-width: Occupy full width of the screen in its current orientation\n\t  initial-scale = 1.0 retains dimensions instead of zooming out if page height > device height\n\t  user-scalable = yes allows the user to zoom in -->\n  <meta name="viewport" content="width=device-width, initial-scale=1.0, user-scalable=yes">\n  \n  <!-- Place favicon.ico and apple-touch-icon.png in the root of your domain and delete these references -->\n  <link rel="shortcut icon" href="/examples/static/favicon.ico" type="image/x-icon">\n  <link rel="apple-touch-icon" href="/examples/static/favicon.png">\n\n  <!-- All JavaScript at the bottom, except for Modernizr which enables \n\t   HTML5 elements & feature detects -->\n  <script src="/examples/static/js/modernizr.custom.js"></script>  \n\n  <!-- include stylesheets -->\n  \n\n  <script type="text/javascript"><!--\n    // These variables are used by the web2py_ajax_init function in web2py_ajax.js (which is loaded below).\n    var w2p_ajax_confirm_message = "Are you sure you want to delete this object?";\n    var w2p_ajax_date_format = "%Y-%m-%d";\n    var w2p_ajax_datetime_format = "%Y-%m-%d %H:%M:%S";\n    //--></script>\n<script src="/examples/static/js/jquery.js" type="text/javascript"></script><link href="/examples/static/css/calendar.css" rel="stylesheet" type="text/css" /><script src="/examples/static/js/calendar.js" type="text/javascript"></script><script src="/examples/static/js/web2py.js" type="text/javascript"></script><link href="/examples/static/css/skeleton.css" rel="stylesheet" type="text/css" /><link href="/examples/static/css/web2py.css" rel="stylesheet" type="text/css" /><link href="/examples/static/css/examples.css" rel="stylesheet" type="text/css" /><link href="/examples/static/css/superfish.css" rel="stylesheet" type="text/css" /><script src="/examples/static/js/superfish.js" type="text/javascript"></script>\n\n\n  <script type="text/javascript">\n    jQuery(function(){jQuery(\'.sf-menu\').superfish();});\n  </script>\n\n  \n\n  <!-- uncomment here to load jquery-ui\n  <link rel="stylesheet" href="http://ajax.googleapis.com/ajax/libs/jqueryui/1.8.16/themes/base/jquery-ui.css" type="text/css" media="all" />\n  <script src="http://ajax.googleapis.com/ajax/libs/jqueryui/1.8.16/jquery-ui.min.js" type="text/javascript"></script>\n  uncomment to load jquery-ui //-->\n  </style>\n</head>\n<body><div style="padding: 5px 20px 5px 20px; font-size: 1.5em; text-align:right;background:black;color:white;height:30px;">Attention: this is a modified copy of the original page!!! [ <a style="color:white" href="javascript:history.go(-1)">back</a> | <a style="color:white" href="page">next</a> ]</div><iframe id="a2apage_sm_ifr" height="1" width="1" style="border-top-width: 0px; border-right-width: 0px; border-bottom-width: 0px; border-left-width: 0px; border-style: initial; border-color: initial; border-image: initial; left: 0px; top: 0px; position: absolute; z-index: 100000; display: none; " transparency="true" allowtransparency="true" frameborder="0" src="http://static.addtoany.com/menu/sm7.html#type=page&amp;event=load&amp;url=http%3A%2F%2F127.0.0.1%3A8000%2Finplace%2Fdefault%2Fedit%3Furl%3Dhttp%253A%252F%252Fweb2py.com&amp;referrer="></iframe><div style="position: static; "><div id="a2apage_dropdown" class="a2a_menu" onmouseover="a2a.onMouseOver_stay()" onmouseout="a2a.onMouseOut_delay()"><div class="a2a_menu_inside"><div id="a2apage_title_container" class="a2a_menu_title_container" style="display: none; "><input id="a2apage_title" class="a2a_menu_title"></div><div class="a2apage_wide a2a_wide"><div class="a2a_tabs a2a_tabs_default"><div id="a2apage_DEFAULT" class="a2a_tab_selected" style="margin-right: 1px; " onclick="return a2a.tabs.open(\'DEFAULT\')"><span class="a2a_i_share">Share</span></div></div><div class="a2a_tabs"><div title="Share via email" id="a2apage_EMAIL" style="margin-right: 1px; " onclick="return a2a.tabs.open(\'EMAIL\')"><span class="a2a_i_email"></span></div></div><div class="a2a_tabs"><div onclick="a2a.bmBrowser()" title="Bookmark in your browser" id="a2apage_BROWSER" style="margin-left: 1px; "><span class="a2a_i_bookmark"></span></div></div></div><div class="a2a_clear"></div><div id="a2apage_find_container" class="a2a_menu_find_container" style=""><input id="a2apage_find" class="a2a_menu_find" type="text" onclick="a2a.focus_find()" onkeyup="a2a.do_find()" autocomplete="off" onfocus="a2a[\'page\'].find_focused=true;a2a.onMouseOver_stay()" title="Instantly find any service"><span id="a2apage_find_icon" class="a2a_i_find" onclick="a2a.focus_find()"></span></div><div id="a2apage_cols_container" class="a2a_cols_container"><div class="a2a_col1" id="a2apage_col1" style=""><a id="a2apage_live" rel="nofollow" class="a2a_i a2a_sss" href="/" target="_blank"><span class="a2a_i_live">Messenger</span></a><a id="a2apage_facebook" rel="nofollow" class="a2a_i" href="/" target="_blank"><span class="a2a_i_facebook">Facebook</span></a><a id="a2apage_twitter" rel="nofollow" class="a2a_i" href="/" target="_blank"><span class="a2a_i_twitter">Twitter</span></a><a id="a2apage_google_plus" rel="nofollow" class="a2a_i" href="/" target="_blank"><span class="a2a_i_google">Google </span></a><a id="a2apage_delicious" rel="nofollow" class="a2a_i" href="/" target="_blank"><span class="a2a_i_delicious">Delicious</span></a><a id="a2apage_digg" rel="nofollow" class="a2a_i" href="/" target="_blank"><span class="a2a_i_digg">Digg</span></a><a id="a2apage_google_bookmarks" rel="nofollow" class="a2a_i" href="/" target="_blank"><span class="a2a_i_google">Google Bookmarks</span></a><a id="a2apage_myspace" rel="nofollow" class="a2a_i" href="/" target="_blank"><span class="a2a_i_myspace">MySpace</span></a><a id="a2apage_stumbleupon" rel="nofollow" class="a2a_i" href="/" target="_blank"><span class="a2a_i_stumbleupon">StumbleUpon</span></a><a id="a2apage_reddit" rel="nofollow" class="a2a_i" href="/" target="_blank"><span class="a2a_i_reddit">Reddit</span></a><a id="a2apage_vodpod" rel="nofollow" class="a2a_i" href="/" target="_blank" style="display: none; "><span class="a2a_i_vodpod">Vodpod</span></a><a id="a2apage_yahoo_bookmarks" rel="nofollow" class="a2a_i" href="/" target="_blank" style="display: none; "><span class="a2a_i_yahoo">Yahoo Bookmarks</span></a><a id="a2apage_bebo" rel="nofollow" class="a2a_i" href="/" target="_blank" style="display: none; "><span class="a2a_i_bebo">Bebo</span></a><a id="a2apage_mister_wong" rel="nofollow" class="a2a_i" href="/" target="_blank" style="display: none; "><span class="a2a_i_mister-wong">Mister-Wong</span></a><a id="a2apage_wordpress" rel="nofollow" class="a2a_i" href="/" target="_blank" style="display: none; "><span class="a2a_i_wordpress">WordPress</span></a><a id="a2apage_google_reader" rel="nofollow" class="a2a_i" href="/" target="_blank" style="display: none; "><span class="a2a_i_reader">Google Reader</span></a><a id="a2apage_orkut" rel="nofollow" class="a2a_i" href="/" target="_blank" style="display: none; "><span class="a2a_i_orkut">Orkut</span></a><a id="a2apage_xing" rel="nofollow" class="a2a_i" href="/" target="_blank" style="display: none; "><span class="a2a_i_xing">XING</span></a><a id="a2apage_evernote" rel="nofollow" class="a2a_i" href="/" target="_blank" style="display: none; "><span class="a2a_i_evernote">Evernote</span></a><a id="a2apage_netvibes_share" rel="nofollow" class="a2a_i" href="/" target="_blank" style="display: none; "><span class="a2a_i_netvibes">Netvibes Share</span></a><a id="a2apage_strands" rel="nofollow" class="a2a_i" href="/" target="_blank" style="display: none; "><span class="a2a_i_strands">Strands</span></a><a id="a2apage_posterous" rel="nofollow" class="a2a_i" href="/" target="_blank" style="display: none; "><span class="a2a_i_posterous">Posterous</span></a><a id="a2apage_business_exchange" rel="nofollow" class="a2a_i" href="/" target="_blank" style="display: none; "><span class="a2a_i_business_exchange">Business Exchange</span></a><a id="a2apage_arto" rel="nofollow" class="a2a_i" href="/" target="_blank" style="display: none; "><span class="a2a_i_arto">Arto</span></a><a id="a2apage_tipd" rel="nofollow" class="a2a_i" href="/" target="_blank" style="display: none; "><span class="a2a_i_tipd">Tipd</span></a><a id="a2apage_smaknews" rel="nofollow" class="a2a_i" href="/" target="_blank" style="display: none; "><span class="a2a_i_smaknews">SmakNews</span></a><a id="a2apage_plurk" rel="nofollow" class="a2a_i" href="/" target="_blank" style="display: none; "><span class="a2a_i_plurk">Plurk</span></a><a id="a2apage_aim" rel="nofollow" class="a2a_i" href="/" target="_blank" style="display: none; "><span class="a2a_i_aim">AIM</span></a><a id="a2apage_yahoo_messenger" rel="nofollow" class="a2a_i" href="/" target="_blank" style="display: none; "><span class="a2a_i_yim">Yahoo Messenger</span></a><a id="a2apage_identi_ca" rel="nofollow" class="a2a_i" href="/" target="_blank" style="display: none; "><span class="a2a_i_identica">Identi.ca</span></a><a id="a2apage_mozillaca" rel="nofollow" class="a2a_i" href="/" target="_blank" style="display: none; "><span class="a2a_i_mozillaca">Mozillaca</span></a><a id="a2apage_blogger_post" rel="nofollow" class="a2a_i" href="/" target="_blank" style="display: none; "><span class="a2a_i_blogger">Blogger Post</span></a><a id="a2apage_typepad_post" rel="nofollow" class="a2a_i" href="/" target="_blank" style="display: none; "><span class="a2a_i_typepad">TypePad Post</span></a><a id="a2apage_box_net" rel="nofollow" class="a2a_i" href="/" target="_blank" style="display: none; "><span class="a2a_i_box">Box.net</span></a><a id="a2apage_netlog" rel="nofollow" class="a2a_i" href="/" target="_blank" style="display: none; "><span class="a2a_i_netlog">Netlog</span></a><a id="a2apage_technorati_favorites" rel="nofollow" class="a2a_i" href="/" target="_blank" style="display: none; "><span class="a2a_i_technorati">Technorati Favorites</span></a><a id="a2apage_citeulike" rel="nofollow" class="a2a_i" href="/" target="_blank" style="display: none; "><span class="a2a_i_citeulike">CiteULike</span></a><a id="a2apage_jumptags" rel="nofollow" class="a2a_i" href="/" target="_blank" style="display: none; "><span class="a2a_i_jumptags">Jumptags</span></a><a id="a2apage_hemidemi" rel="nofollow" class="a2a_i" href="/" target="_blank" style="display: none; "><span class="a2a_i_hemidemi">Hemidemi</span></a><a id="a2apage_funp" rel="nofollow" class="a2a_i" href="/" target="_blank" style="display: none; "><span class="a2a_i_funp">FunP</span></a><a id="a2apage_instapaper" rel="nofollow" class="a2a_i" href="/" target="_blank" style="display: none; "><span class="a2a_i_instapaper">Instapaper</span></a><a id="a2apage_phonefavs" rel="nofollow" class="a2a_i" href="/" target="_blank" style="display: none; "><span class="a2a_i_phonefavs">PhoneFavs</span></a><a id="a2apage_xerpi" rel="nofollow" class="a2a_i" href="/" target="_blank" style="display: none; "><span class="a2a_i_xerpi">Xerpi</span></a><a id="a2apage_netvouz" rel="nofollow" class="a2a_i" href="/" target="_blank" style="display: none; "><span class="a2a_i_netvouz">Netvouz</span></a><a id="a2apage_wink" rel="nofollow" class="a2a_i" href="/" target="_blank" style="display: none; "><span class="a2a_i_wink">Wink</span></a><a id="a2apage_diigo" rel="nofollow" class="a2a_i" href="/" target="_blank" style="display: none; "><span class="a2a_i_diigo">Diigo</span></a><a id="a2apage_bibsonomy" rel="nofollow" class="a2a_i" href="/" target="_blank" style="display: none; "><span class="a2a_i_bibsonomy">BibSonomy</span></a><a id="a2apage_blogmarks" rel="nofollow" class="a2a_i" href="/" target="_blank" style="display: none; "><span class="a2a_i_blogmarks">BlogMarks</span></a><a id="a2apage_tailrank" rel="nofollow" class="a2a_i" href="/" target="_blank" style="display: none; "><span class="a2a_i_tailrank">Tailrank</span></a><a id="a2apage_startaid" rel="nofollow" class="a2a_i" href="/" target="_blank" style="display: none; "><span class="a2a_i_startaid">StartAid</span></a><a id="a2apage_kledy" rel="nofollow" class="a2a_i" href="/" target="_blank" style="display: none; "><span class="a2a_i_kledy">Kledy</span></a><a id="a2apage_khabbr" rel="nofollow" class="a2a_i" href="/" target="_blank" style="display: none; "><span class="a2a_i_khabbr">Khabbr</span></a><a id="a2apage_meneame" rel="nofollow" class="a2a_i" href="/" target="_blank" style="display: none; "><span class="a2a_i_meneame">Meneame</span></a><a id="a2apage_yoolink" rel="nofollow" class="a2a_i" href="/" target="_blank" style="display: none; "><span class="a2a_i_yoolink">Yoolink</span></a><a id="a2apage_bookmarks_fr" rel="nofollow" class="a2a_i" href="/" target="_blank" style="display: none; "><span class="a2a_i_bookmarks_fr">Bookmarks.fr</span></a><a id="a2apage_technotizie" rel="nofollow" class="a2a_i" href="/" target="_blank" style="display: none; "><span class="a2a_i_technotizie">Technotizie</span></a><a id="a2apage_newsvine" rel="nofollow" class="a2a_i" href="/" target="_blank" style="display: none; "><span class="a2a_i_newsvine">NewsVine</span></a><a id="a2apage_multiply" rel="nofollow" class="a2a_i" href="/" target="_blank" style="display: none; "><span class="a2a_i_multiply">Multiply</span></a><a id="a2apage_friendfeed" rel="nofollow" class="a2a_i" href="/" target="_blank" style="display: none; "><span class="a2a_i_friendfeed">FriendFeed</span></a><a id="a2apage_plaxo_pulse" rel="nofollow" class="a2a_i" href="/" target="_blank" style="display: none; "><span class="a2a_i_plaxo">Plaxo Pulse</span></a><a id="a2apage_ping" rel="nofollow" class="a2a_i" href="/" target="_blank" style="display: none; "><span class="a2a_i_ping">Ping</span></a><a id="a2apage_squidoo" rel="nofollow" class="a2a_i" href="/" target="_blank" style="display: none; "><span class="a2a_i_squidoo">Squidoo</span></a><a id="a2apage_protopage_bookmarks" rel="nofollow" class="a2a_i" href="/" target="_blank" style="display: none; "><span class="a2a_i_protopage">Protopage Bookmarks</span></a><a id="a2apage_blinklist" rel="nofollow" class="a2a_i" href="/" target="_blank" style="display: none; "><span class="a2a_i_blinklist">Blinklist</span></a><a id="a2apage_faves" rel="nofollow" class="a2a_i" href="/" target="_blank" style="display: none; "><span class="a2a_i_faves">Faves</span></a><a id="a2apage_yigg" rel="nofollow" class="a2a_i" href="/" target="_blank" style="display: none; "><span class="a2a_i_yigg">YiGG</span></a><a id="a2apage_webnews" rel="nofollow" class="a2a_i" href="/" target="_blank" style="display: none; "><span class="a2a_i_webnews">Webnews</span></a><a id="a2apage_segnalo" rel="nofollow" class="a2a_i" href="/" target="_blank" style="display: none; "><span class="a2a_i_segnalo">Segnalo</span></a><a id="a2apage_pusha" rel="nofollow" class="a2a_i" href="/" target="_blank" style="display: none; "><span class="a2a_i_pusha">Pusha</span></a><a id="a2apage_youmob" rel="nofollow" class="a2a_i" href="/" target="_blank" style="display: none; "><span class="a2a_i_youmob">YouMob</span></a><a id="a2apage_slashdot" rel="nofollow" class="a2a_i" href="/" target="_blank" style="display: none; "><span class="a2a_i_slashdot">Slashdot</span></a><a id="a2apage_fark" rel="nofollow" class="a2a_i" href="/" target="_blank" style="display: none; "><span class="a2a_i_fark">Fark</span></a><a id="a2apage_allvoices" rel="nofollow" class="a2a_i" href="/" target="_blank" style="display: none; "><span class="a2a_i_allvoices">Allvoices</span></a><a id="a2apage_jamespot" rel="nofollow" class="a2a_i" href="/" target="_blank" style="display: none; "><span class="a2a_i_jamespot">Jamespot</span></a><a id="a2apage_imera_brazil" rel="nofollow" class="a2a_i" href="/" target="_blank" style="display: none; "><span class="a2a_i_imera">Imera Brazil</span></a><a id="a2apage_twiddla" rel="nofollow" class="a2a_i" href="/" target="_blank" style="display: none; "><span class="a2a_i_twiddla">Twiddla</span></a><a id="a2apage_linkagogo" rel="nofollow" class="a2a_i" href="/" target="_blank" style="display: none; "><span class="a2a_i_linkagogo">LinkaGoGo</span></a><a id="a2apage_unalog" rel="nofollow" class="a2a_i" href="/" target="_blank" style="display: none; "><span class="a2a_i_unalog">unalog</span></a><a id="a2apage_hugg" rel="nofollow" class="a2a_i" href="/" target="_blank" style="display: none; "><span class="a2a_i_hugg">Hugg</span></a><a id="a2apage_diglog" rel="nofollow" class="a2a_i" href="/" target="_blank" style="display: none; "><span class="a2a_i_diglog">Diglog</span></a><a id="a2apage_nowpublic" rel="nofollow" class="a2a_i" href="/" target="_blank" style="display: none; "><span class="a2a_i_nowpublic">NowPublic</span></a><a id="a2apage_tumblr" rel="nofollow" class="a2a_i" href="/" target="_blank" style="display: none; "><span class="a2a_i_tumblr">Tumblr</span></a><a id="a2apage_livejournal" rel="nofollow" class="a2a_i" href="/" target="_blank" style="display: none; "><span class="a2a_i_livejournal">LiveJournal</span></a><a id="a2apage_current" rel="nofollow" class="a2a_i" href="/" target="_blank" style="display: none; "><span class="a2a_i_current">Current</span></a><a id="a2apage_hellotxt" rel="nofollow" class="a2a_i" href="/" target="_blank" style="display: none; "><span class="a2a_i_hellotxt">HelloTxt</span></a><a id="a2apage_spurl" rel="nofollow" class="a2a_i" href="/" target="_blank" style="display: none; "><span class="a2a_i_spurl">Spurl</span></a><a id="a2apage_yample" rel="nofollow" class="a2a_i" href="/" target="_blank" style="display: none; "><span class="a2a_i_yample">Yample</span></a><a id="a2apage_oneview" rel="nofollow" class="a2a_i" href="/" target="_blank" style="display: none; "><span class="a2a_i_oneview">Oneview</span></a><a id="a2apage_linkatopia" rel="nofollow" class="a2a_i" href="/" target="_blank" style="display: none; "><span class="a2a_i_linkatopia">Linkatopia</span></a><a id="a2apage_simpy" rel="nofollow" class="a2a_i" href="/" target="_blank" style="display: none; "><span class="a2a_i_simpy">Simpy</span></a><a id="a2apage_linkedin" rel="nofollow" class="a2a_i" href="/" target="_blank" style="display: none; "><span class="a2a_i_linkedin">LinkedIn</span></a><a id="a2apage_buddymarks" rel="nofollow" class="a2a_i" href="/" target="_blank" style="display: none; "><span class="a2a_i_buddymarks">BuddyMarks</span></a><a id="a2apage_ask_com_mystuff" rel="nofollow" class="a2a_i" href="/" target="_blank" style="display: none; "><span class="a2a_i_ask">Ask.com MyStuff</span></a><a id="a2apage_viadeo" rel="nofollow" class="a2a_i" href="/" target="_blank" style="display: none; "><span class="a2a_i_viadeo">Viadeo</span></a><a id="a2apage_maple" rel="nofollow" class="a2a_i" href="/" target="_blank" style="display: none; "><span class="a2a_i_maple">Maple</span></a><a id="a2apage_wists" rel="nofollow" class="a2a_i" href="/" target="_blank" style="display: none; "><span class="a2a_i_wists">Wists</span></a><a id="a2apage_connotea" rel="nofollow" class="a2a_i" href="/" target="_blank" style="display: none; "><span class="a2a_i_connotea">Connotea</span></a><a id="a2apage_backflip" rel="nofollow" class="a2a_i" href="/" target="_blank" style="display: none; "><span class="a2a_i_backflip">Backflip</span></a><a id="a2apage_mylinkvault" rel="nofollow" class="a2a_i" href="/" target="_blank" style="display: none; "><span class="a2a_i_mylinkvault">MyLinkVault</span></a><a id="a2apage_sitejot" rel="nofollow" class="a2a_i" href="/" target="_blank" style="display: none; "><span class="a2a_i_sitejot">SiteJot</span></a><a id="a2apage_sphinn" rel="nofollow" class="a2a_i" href="/" target="_blank" style="display: none; "><span class="a2a_i_sphinn">Sphinn</span></a><a id="a2apage_dzone" rel="nofollow" class="a2a_i" href="/" target="_blank" style="display: none; "><span class="a2a_i_dzone">DZone</span></a><a id="a2apage_care2_news" rel="nofollow" class="a2a_i" href="/" target="_blank" style="display: none; "><span class="a2a_i_care2">Care2 News</span></a><a id="a2apage_hyves" rel="nofollow" class="a2a_i" href="/" target="_blank" style="display: none; "><span class="a2a_i_hyves">Hyves</span></a><a id="a2apage_sphere" rel="nofollow" class="a2a_i" href="/" target="_blank" style="display: none; "><span class="a2a_i_sphere">Sphere</span></a><a id="a2apage_bitty_browser" rel="nofollow" class="a2a_i" href="/" target="_blank" style="display: none; "><span class="a2a_i_bitty">Bitty Browser</span></a><a id="a2apage_gabbr" rel="nofollow" class="a2a_i" href="/" target="_blank" style="display: none; "><span class="a2a_i_gabbr">Gabbr</span></a><a id="a2apage_symbaloo_feeds" rel="nofollow" class="a2a_i" href="/" target="_blank" style="display: none; "><span class="a2a_i_symbaloo">Symbaloo Feeds</span></a><a id="a2apage_tagza" rel="nofollow" class="a2a_i" href="/" target="_blank" style="display: none; "><span class="a2a_i_tagza">Tagza</span></a><a id="a2apage_folkd" rel="nofollow" class="a2a_i" href="/" target="_blank" style="display: none; "><span class="a2a_i_folkd">Folkd</span></a><a id="a2apage_newstrust" rel="nofollow" class="a2a_i" href="/" target="_blank" style="display: none; "><span class="a2a_i_newstrust">NewsTrust</span></a><a id="a2apage_amazon_wish_list" rel="nofollow" class="a2a_i" href="/" target="_blank" style="display: none; "><span class="a2a_i_amazon">Amazon Wish List</span></a><a id="a2apage_printfriendly" rel="nofollow" class="a2a_i" href="/" target="_blank" style="display: none; "><span class="a2a_i_printfriendly">PrintFriendly</span></a><a id="a2apage_read_it_later" rel="nofollow" class="a2a_i" href="/" target="_blank" style="display: none; "><span class="a2a_i_read_it_later">Read It Later</span></a><a id="a2apage_tuenti" rel="nofollow" class="a2a_i" href="/" target="_blank" style="display: none; "><span class="a2a_i_tuenti">Tuenti</span></a><a id="a2apage_email" rel="nofollow" class="a2a_i" href="/" target="_blank" style="display: none; "><span class="a2a_i_email">Email</span></a><a id="a2apage_rediff" rel="nofollow" class="a2a_i" href="/" target="_blank" style="display: none; "><span class="a2a_i_rediff">Rediff MyPage</span></a></div><div id="a2apage_2_col1" style="display: none; "><a id="a2apage_google_gmail" rel="nofollow" class="a2a_i" href="/" target="_blank"><span class="a2a_i_gmail">Google Gmail</span></a><a id="a2apage_yahoo_mail" rel="nofollow" class="a2a_i" href="/" target="_blank"><span class="a2a_i_yahoo">Yahoo Mail</span></a><a id="a2apage_hotmail" rel="nofollow" class="a2a_i" href="/" target="_blank"><span class="a2a_i_live">Hotmail</span></a><a id="a2apage_aol_mail" rel="nofollow" class="a2a_i" href="/" target="_blank"><span class="a2a_i_aol">AOL Mail</span></a><a id="a2apage_any_email" rel="nofollow" class="a2a_i a2a_emailer" href="/" target="_blank"><span class="a2a_i_email">Any email</span></a><a id="a2apage_email_client" rel="nofollow" class="a2a_i a2a_emailer a2a_email_client" href="/" target=""><span class="a2a_i_outlook">&nbsp;</span><span class="a2a_i_windows_mail">&nbsp;</span><span class="a2a_i_apple_mail">&nbsp;</span><span class="a2a_i_thunderbird">&nbsp;</span></a></div><div class="a2a_clear"></div></div><div id="a2apage_note_BROWSER" class="a2a_note" style="display:none"></div><div class="a2apage_wide a2a_wide" style=""><a href="javascript:void(0)" id="a2apage_show_more_less" class="a2a_menu_show_more_less" onclick="return a2a.show_more_less(0)" onmouseover="img=this.firstChild;if(a2a.c.color_arrow_hover==\'fff\'){if(img.className.indexOf(\'_wt\')==-1)img.className =\'_wt\'}else img.className=img.className.replace(/_wt/,\'\')" onmouseout="img=this.firstChild;if(a2a.c.color_arrow==\'fff\'){if(img.className.indexOf(\'_wt\')==-1)img.className =\'_wt\'}else img.className=img.className.replace(/_wt/,\'\')" title="Show all"><span class="a2a_i_darr"></span></a></div><div class="a2a_menu_powered_by" id="a2apage_powered_by" onmouseover="if(this.innerHTML!=this.orig&amp;&amp;!window.opera)this.innerHTML=this.orig;this.style.textAlign=\'center\'" style="">By <a href="http://share.lockerz.com/" target="_blank" title="Share Buttons">Lockerz</a></div></div></div></div>\n  <div class="wrapper"><!-- for sticky footer -->\n    <div class="flash" style="display: none; "></div>\n    <div class="header">\n      <div class="container">\n        <div class="sixteen columns">\n\t  <img src="http://web2py.com/examples/static/images/web2py_logo.png">\n          <h5></h5>\n        </div>\n        <div class="sixteen columns statusbar">\n          <div id="menu"><ul class="sf-menu"><li><a href="http://web2py.com/examples/default/index">Home</a></li><li><a href="http://web2py.com/examples/default/what">About</a></li><li><a href="http://web2py.com/examples/default/download">Download</a></li><li><a href="http://web2py.com/examples/default/documentation">Docs &amp; Resources</a></li><li><a href="http://web2py.com/examples/default/support">Support</a></li><li><a href="http://web2py.com/examples/default/who">Contributors</a></li></ul>\n            <!-- AddToAny BEGIN -->\n            <div style="float:right;padding-top:6px;" class="a2a_kit a2a_default_style">\n            <a class="a2a_dd" href="http://www.addtoany.com/share_save#url=http%3A%2F%2F127.0.0.1%3A8000%2Finplace%2Fdefault%2Fedit%3Furl%3Dhttp%253A%252F%252Fweb2py.com&amp;title=web2py%20Web%20Framework&amp;description="><span class="a2a_img a2a_img_text a2a_i_a2a"></span>Share</a><div style="clear: both; "></div></div>\n            <script type="text/javascript" src="http://static.addtoany.com/menu/page.js"></script>\n            <!-- AddToAny END -->\n          </div>\n\t  <div class="sixteen columns announce">\n\t    <a href="http://www.infoworld.com/d/open-source-software/bossie-awards-2011-the-best-open-source-application-development-software-171759-0&amp;current=10&amp;last=1#slideshowTop">2011 BOSSIE AWARD FOR OPEN SOURCE DEVELOPMENT SOFTWARE</a>\n          </div>\n\t</div>\n      </div>\n    </div>\n    <div class="main">\n      <div class="container mainbody">\n        <div class="sixteen columns">\n          <div class="ten columns center">\n<center>\n  <img src="http://web2py.com/examples/static/images/tag-cloud-color-small.png">\n</center>\n<h3>WEB2PY<sup>TM</sup> WEB FRAMEWORK</h3>\n<p>Free open source full-stack framework for rapid development of fast, scalable, <a href="http://www.web2py.com/book/default/chapter/01#security" target="_blank">secure</a> and portable database-driven web-based applications. Written and programmable in <a href="http://www.python.org" target="_blank">Python</a>. <a href="http://www.gnu.org/licenses/lgpl.html">LGPLv3 License</a>.\nCurrent version: 1.99.3 (2011-12-09 16:18:03) stable</p>\n          </div>\n          <div class="five columns">\n<div style="text-align:center">\n  <a href="http://web2py.com/book"><img src="http://web2py.com/examples/static/images/tablet.png" alt="Tablet"></a><br>\n  <a href="http://www.lulu.com/product/paperback/web2py-book-(4th-edition)/18738286"><img src="http://static.lulu.com/images/services/buy_now_buttons/us/book.gif?20111206124946" border="0" alt="Support independent publishing: Buy this book on Lulu."></a><br>\n  <a class="button" href="http://web2py.com/examples/default/download" style="width:90%">DOWNLOAD NOW</a><br>\n  <a class="button" href="http://web2py.com/demo_admin" style="width:90%">ONLINE DEMO</a><br>\n  <a class="button" href="http://web2py.com/poweredby" style="width:90%">SITES POWERED</a>\n</div>\n          </div>\n        </div>\n      </div><!-- container -->\n<div class="container">\n  <div class="sixteen columns">\n    <div class="five columns">\n      <h3><a href="http://web2py.com/examples/default/about">BATTERIES INCLUDED</a></h3>\n      <p>Everything you need in one package including fast multi-threaded web server, SQL database and web-based interface. No third party dependencies but works with <a href="/examples/default/what">third party tools</a>.</p>\n    </div>\n    <div class="five columns">\n      <h3><a href="http://web2py.com/demo_admin">WEB-BASED IDE</a></h3>\n      <p>Create, modify, deploy and manage application from anywhere using your browser. One web2py instance can run multiple web sites using different databases. Try the <a href="http://web2py.com/demo_admin">interactive demo</a>.</p>\n    </div>\n    <div class="five columns">\n      <h3><a href="http://web2py.com/examples/default/documentation">EXTENSIVE DOCS</a></h3>\n      <p>Start with some <a href="http://web2py.com/examples/default/examples">quick examples</a>, then read the <a href="http://web2py.com/book">reference manual</a>, watch <a href="http://vimeo.com/album/178500">videos</a>, and join a <a href="http://web2py.com/examples/default/usergroups">user group</a> for discussion. Take advantage of the <a href="http://web2py.com/layouts">layouts</a>, <a href="http://dev.s-cubism.com/web2py_plugins">plugins</a>, and <a href="http://web2pyslices.com">recipes</a>.</p>\n    </div>\n  </div>\n</div>\n<div class="container">\n  <div class="sixteen columns">\n    <img src="http://web2py.com/examples/static/images/shadow-bottom.png" width="100%">\n    <div class="five columns">\n      <em>\n\t<p>Please use www.web2py.com when using MVC , no PHP/SQL stuff please...its 2011 not 1999</p>\n      </em>\n      <span class="right">\n\t<a href="http://twitter.com/#!/rabblesoft/status/79189028431343616"><em>rabblesoft</em></a>\n      </span>\n    </div>\n    <div class="five columns">\n      <em>\n\t<p>web2py was the life saver today for me, my blog post: Standalone Usage of web2py\'s</p>\n      </em>\n      <span class="right">\n\t<a href="http://twitter.com/#!/caglartoklu/status/84292131707031553"><em>caglartoklu</em></a>\n      </span>\n    </div>\n    <div class="five columns">\n      <em>\n\t<p>web2py it is. Compatible with everything under the sun and great interfaces to googleappengine</p>\n      </em>\n      <span class="right">\n\t<a href="http://twitter.com/#!/comamitc/status/51744719071477760"><em>comamitc</em></a>\n      </span>\n    </div>\n  </div>\n</div>\n    </div><!-- main -->\n    <div class="push"></div>\n  </div><!-- wrapper -->\n  <div class="footer">\n    <div class="container header">\n      <div class="sixteen columns">\n         <!-- this is default footer -->\n        <div class="footer-content">\n          Copyright \xa9 2011\n\t  - User communities in <a href="https://groups.google.com/forum/?fromgroups#!forum/web2py" target="_blank">English</a><a>, </a><a href="https://groups.google.com/forum/?fromgroups#!forum/web2py-fr" target="_blank">French</a>, <a href="https://groups.google.com/forum/?fromgroups#!forum/web2py-japan" target="_blank">Japanese</a>, <a href="https://groups.google.com/forum/?fromgroups#!forum/web2py-users-brazil" target="_blank">Portuguese</a>, and <a href="https://groups.google.com/forum/?fromgroups#!forum/web2py-usuarios" target="_blank">Spanish</a>.\n          <div style="float: right;">\n            <a href="http://www.web2py.com/" style="float: left; padding-right: 6px;">\n            <img style="padding-bottom: 0;" src="http://web2py.com/examples/static/images/poweredby.png">\n            </a>\n          </div>\n        </div>\n      </div>\n    </div><!-- container -->\n  </div><!-- footer -->\n  <!--[if lt IE 7 ]>\n\t<script src="http://web2py.com/examples/static/js/dd_belatedpng.js"></script>\n\t<script> DD_belatedPNG.fix(\'img, .png_bg\'); //fix any <img> or .png_bg background-images </script>\n\t<![endif]-->\n\n\n</body></html>'
p3487
asbasbasbag49
(g65
g51
NtRp3488
(dp3489
g54
(dp3490
sg63
g3440
sg56
(lp3491
g49
(g70
g51
NtRp3492
(dp3493
g54
(dp3494
g74
g75
ssg63
g3488
sg56
(lp3495
S'url'
p3496
asbag49
(g70
g51
NtRp3497
(dp3498
g54
(dp3499
g81
g82
ssg63
g3488
sg56
(lp3500
S':'
asbag49
(g70
g51
NtRp3501
(dp3502
g54
(dp3503
sg63
g3488
sg56
(lp3504
g49
(g50
g51
NtRp3505
(dp3506
g54
(dp3507
g62
I5
ssg63
g3501
sg56
(lp3508
S'http://web2py.com'
p3509
asbasbasbasbasbsS'etype'
p3510
S"<type 'exceptions.NameError'>"
p3511
sS'date'
p3512
S'Sat Dec 10 22:27:22 2011'
p3513
sS'response'
p3514
g49
(g50
g51
NtRp3515
(dp3516
g54
(dp3517
sg56
(lp3518
g49
(g58
g51
NtRp3519
(dp3520
g54
(dp3521
g62
I5
ssg63
Nsg56
(lp3522
g49
(g65
g51
NtRp3523
(dp3524
g54
(dp3525
sg63
g3519
sg56
(lp3526
g49
(g70
g51
NtRp3527
(dp3528
g54
(dp3529
g74
g75
ssg63
g3523
sg56
(lp3530
g147
asbag49
(g70
g51
NtRp3531
(dp3532
g54
(dp3533
g81
g82
ssg63
g3523
sg56
(lp3534
S':'
asbag49
(g70
g51
NtRp3535
(dp3536
g54
(dp3537
sg63
g3523
sg56
(lp3538
g49
(g50
g51
NtRp3539
(dp3540
g54
(dp3541
g62
I5
ssg63
g3535
sg56
(lp3542
S'<cStringIO.StringO object at 0x109ae60>'
p3543
asbasbasbag49
(g65
g51
NtRp3544
(dp3545
g54
(dp3546
sg63
g3519
sg56
(lp3547
g49
(g70
g51
NtRp3548
(dp3549
g54
(dp3550
g74
g75
ssg63
g3544
sg56
(lp3551
g213
asbag49
(g70
g51
NtRp3552
(dp3553
g54
(dp3554
g81
g82
ssg63
g3544
sg56
(lp3555
S':'
asbag49
(g70
g51
NtRp3556
(dp3557
g54
(dp3558
sg63
g3544
sg56
(lp3559
g49
(g50
g51
NtRp3560
(dp3561
g54
(dp3562
g62
I5
ssg63
g3556
sg56
(lp3563
g49
(g58
g51
NtRp3564
(dp3565
g54
(dp3566
g62
I4
ssg63
Nsg56
(lp3567
g49
(g65
g51
NtRp3568
(dp3569
g54
(dp3570
sg63
g3564
sg56
(lp3571
g49
(g70
g51
NtRp3572
(dp3573
g54
(dp3574
g74
g75
ssg63
g3568
sg56
(lp3575
S'session_id_inplace'
p3576
asbag49
(g70
g51
NtRp3577
(dp3578
g54
(dp3579
g81
g82
ssg63
g3568
sg56
(lp3580
S':'
asbag49
(g70
g51
NtRp3581
(dp3582
g54
(dp3583
sg63
g3568
sg56
(lp3584
g49
(g50
g51
NtRp3585
(dp3586
g54
(dp3587
g62
I4
ssg63
g3581
sg56
(lp3588
g49
(g58
g51
NtRp3589
(dp3590
g54
(dp3591
g62
I3
ssg63
Nsg56
(lp3592
g49
(g65
g51
NtRp3593
(dp3594
g54
(dp3595
sg63
g3589
sg56
(lp3596
g49
(g70
g51
NtRp3597
(dp3598
g54
(dp3599
g74
g75
ssg63
g3593
sg56
(lp3600
g263
asbag49
(g70
g51
NtRp3601
(dp3602
g54
(dp3603
g81
g82
ssg63
g3593
sg56
(lp3604
S':'
asbag49
(g70
g51
NtRp3605
(dp3606
g54
(dp3607
sg63
g3593
sg56
(lp3608
g49
(g50
g51
NtRp3609
(dp3610
g54
(dp3611
g62
I3
ssg63
g3605
sg56
(lp3612
S''
asbasbasbag49
(g65
g51
NtRp3613
(dp3614
g54
(dp3615
sg63
g3589
sg56
(lp3616
g49
(g70
g51
NtRp3617
(dp3618
g54
(dp3619
g74
g75
ssg63
g3613
sg56
(lp3620
g284
asbag49
(g70
g51
NtRp3621
(dp3622
g54
(dp3623
g81
g82
ssg63
g3613
sg56
(lp3624
S':'
asbag49
(g70
g51
NtRp3625
(dp3626
g54
(dp3627
sg63
g3613
sg56
(lp3628
g49
(g50
g51
NtRp3629
(dp3630
g54
(dp3631
g62
I3
ssg63
g3625
sg56
(lp3632
S''
asbasbasbag49
(g65
g51
NtRp3633
(dp3634
g54
(dp3635
sg63
g3589
sg56
(lp3636
g49
(g70
g51
NtRp3637
(dp3638
g54
(dp3639
g74
g75
ssg63
g3633
sg56
(lp3640
g305
asbag49
(g70
g51
NtRp3641
(dp3642
g54
(dp3643
g81
g82
ssg63
g3633
sg56
(lp3644
S':'
asbag49
(g70
g51
NtRp3645
(dp3646
g54
(dp3647
sg63
g3633
sg56
(lp3648
g49
(g50
g51
NtRp3649
(dp3650
g54
(dp3651
g62
I3
ssg63
g3645
sg56
(lp3652
S''
asbasbasbag49
(g65
g51
NtRp3653
(dp3654
g54
(dp3655
sg63
g3589
sg56
(lp3656
g49
(g70
g51
NtRp3657
(dp3658
g54
(dp3659
g74
g75
ssg63
g3653
sg56
(lp3660
g326
asbag49
(g70
g51
NtRp3661
(dp3662
g54
(dp3663
g81
g82
ssg63
g3653
sg56
(lp3664
S':'
asbag49
(g70
g51
NtRp3665
(dp3666
g54
(dp3667
sg63
g3653
sg56
(lp3668
g49
(g50
g51
NtRp3669
(dp3670
g54
(dp3671
g62
I3
ssg63
g3665
sg56
(lp3672
S''
asbasbasbag49
(g65
g51
NtRp3673
(dp3674
g54
(dp3675
sg63
g3589
sg56
(lp3676
g49
(g70
g51
NtRp3677
(dp3678
g54
(dp3679
g74
g75
ssg63
g3673
sg56
(lp3680
g347
asbag49
(g70
g51
NtRp3681
(dp3682
g54
(dp3683
g81
g82
ssg63
g3673
sg56
(lp3684
S':'
asbag49
(g70
g51
NtRp3685
(dp3686
g54
(dp3687
sg63
g3673
sg56
(lp3688
g49
(g50
g51
NtRp3689
(dp3690
g54
(dp3691
g62
I3
ssg63
g3685
sg56
(lp3692
S'/'
asbasbasbag49
(g65
g51
NtRp3693
(dp3694
g54
(dp3695
sg63
g3589
sg56
(lp3696
g49
(g70
g51
NtRp3697
(dp3698
g54
(dp3699
g74
g75
ssg63
g3693
sg56
(lp3700
g368
asbag49
(g70
g51
NtRp3701
(dp3702
g54
(dp3703
g81
g82
ssg63
g3693
sg56
(lp3704
S':'
asbag49
(g70
g51
NtRp3705
(dp3706
g54
(dp3707
sg63
g3693
sg56
(lp3708
g49
(g50
g51
NtRp3709
(dp3710
g54
(dp3711
g62
I3
ssg63
g3705
sg56
(lp3712
S''
asbasbasbag49
(g65
g51
NtRp3713
(dp3714
g54
(dp3715
sg63
g3589
sg56
(lp3716
g49
(g70
g51
NtRp3717
(dp3718
g54
(dp3719
g74
g75
ssg63
g3713
sg56
(lp3720
g389
asbag49
(g70
g51
NtRp3721
(dp3722
g54
(dp3723
g81
g82
ssg63
g3713
sg56
(lp3724
S':'
asbag49
(g70
g51
NtRp3725
(dp3726
g54
(dp3727
sg63
g3713
sg56
(lp3728
g49
(g50
g51
NtRp3729
(dp3730
g54
(dp3731
g62
I3
ssg63
g3725
sg56
(lp3732
S''
asbasbasbasbasbasbasbasbasbasbasbag49
(g65
g51
NtRp3733
(dp3734
g54
(dp3735
sg63
g3519
sg56
(lp3736
g49
(g70
g51
NtRp3737
(dp3738
g54
(dp3739
g74
g75
ssg63
g3733
sg56
(lp3740
S'files'
p3741
asbag49
(g70
g51
NtRp3742
(dp3743
g54
(dp3744
g81
g82
ssg63
g3733
sg56
(lp3745
S':'
asbag49
(g70
g51
NtRp3746
(dp3747
g54
(dp3748
sg63
g3733
sg56
(lp3749
g49
(g50
g51
NtRp3750
(dp3751
g54
(dp3752
g62
I5
ssg63
g3746
sg56
(lp3753
g49
(g58
g51
NtRp3754
(dp3755
g54
(dp3756
g62
I4
ssg63
Nsg56
(lp3757
sbasbasbasbag49
(g65
g51
NtRp3758
(dp3759
g54
(dp3760
sg63
g3519
sg56
(lp3761
g49
(g70
g51
NtRp3762
(dp3763
g54
(dp3764
g74
g75
ssg63
g3758
sg56
(lp3765
S'flash'
p3766
asbag49
(g70
g51
NtRp3767
(dp3768
g54
(dp3769
g81
g82
ssg63
g3758
sg56
(lp3770
S':'
asbag49
(g70
g51
NtRp3771
(dp3772
g54
(dp3773
sg63
g3758
sg56
(lp3774
g49
(g50
g51
NtRp3775
(dp3776
g54
(dp3777
g62
I5
ssg63
g3771
sg56
(lp3778
S''
asbasbasbag49
(g65
g51
NtRp3779
(dp3780
g54
(dp3781
sg63
g3519
sg56
(lp3782
g49
(g70
g51
NtRp3783
(dp3784
g54
(dp3785
g74
g75
ssg63
g3779
sg56
(lp3786
S'generic_patterns'
p3787
asbag49
(g70
g51
NtRp3788
(dp3789
g54
(dp3790
g81
g82
ssg63
g3779
sg56
(lp3791
S':'
asbag49
(g70
g51
NtRp3792
(dp3793
g54
(dp3794
sg63
g3779
sg56
(lp3795
g49
(g50
g51
NtRp3796
(dp3797
g54
(dp3798
g62
I5
ssg63
g3792
sg56
(lp3799
g49
(g58
g51
NtRp3800
(dp3801
g54
(dp3802
g62
I4
ssg63
Nsg56
(lp3803
g49
(g65
g51
NtRp3804
(dp3805
g54
(dp3806
sg63
g3800
sg56
(lp3807
g49
(g70
g51
NtRp3808
(dp3809
g54
(dp3810
sg63
g3804
sg56
(lp3811
g49
(g50
g51
NtRp3812
(dp3813
g54
(dp3814
g62
I4
ssg63
g3808
sg56
(lp3815
S'*'
asbasbasbasbasbasbasbag49
(g65
g51
NtRp3816
(dp3817
g54
(dp3818
sg63
g3519
sg56
(lp3819
g49
(g70
g51
NtRp3820
(dp3821
g54
(dp3822
g74
g75
ssg63
g3816
sg56
(lp3823
S'headers'
p3824
asbag49
(g70
g51
NtRp3825
(dp3826
g54
(dp3827
g81
g82
ssg63
g3816
sg56
(lp3828
S':'
asbag49
(g70
g51
NtRp3829
(dp3830
g54
(dp3831
sg63
g3816
sg56
(lp3832
g49
(g50
g51
NtRp3833
(dp3834
g54
(dp3835
g62
I5
ssg63
g3829
sg56
(lp3836
g49
(g58
g51
NtRp3837
(dp3838
g54
(dp3839
g62
I4
ssg63
Nsg56
(lp3840
g49
(g65
g51
NtRp3841
(dp3842
g54
(dp3843
sg63
g3837
sg56
(lp3844
g49
(g70
g51
NtRp3845
(dp3846
g54
(dp3847
g74
g75
ssg63
g3841
sg56
(lp3848
S'Cache-Control'
p3849
asbag49
(g70
g51
NtRp3850
(dp3851
g54
(dp3852
g81
g82
ssg63
g3841
sg56
(lp3853
S':'
asbag49
(g70
g51
NtRp3854
(dp3855
g54
(dp3856
sg63
g3841
sg56
(lp3857
g49
(g50
g51
NtRp3858
(dp3859
g54
(dp3860
g62
I4
ssg63
g3854
sg56
(lp3861
S'no-store, no-cache, must-revalidate, post-check=0, pre-check=0'
p3862
asbasbasbag49
(g65
g51
NtRp3863
(dp3864
g54
(dp3865
sg63
g3837
sg56
(lp3866
g49
(g70
g51
NtRp3867
(dp3868
g54
(dp3869
g74
g75
ssg63
g3863
sg56
(lp3870
S'Content-Type'
p3871
asbag49
(g70
g51
NtRp3872
(dp3873
g54
(dp3874
g81
g82
ssg63
g3863
sg56
(lp3875
S':'
asbag49
(g70
g51
NtRp3876
(dp3877
g54
(dp3878
sg63
g3863
sg56
(lp3879
g49
(g50
g51
NtRp3880
(dp3881
g54
(dp3882
g62
I4
ssg63
g3876
sg56
(lp3883
S'text/html; charset=utf-8'
p3884
asbasbasbag49
(g65
g51
NtRp3885
(dp3886
g54
(dp3887
sg63
g3837
sg56
(lp3888
g49
(g70
g51
NtRp3889
(dp3890
g54
(dp3891
g74
g75
ssg63
g3885
sg56
(lp3892
S'Expires'
p3893
asbag49
(g70
g51
NtRp3894
(dp3895
g54
(dp3896
g81
g82
ssg63
g3885
sg56
(lp3897
S':'
asbag49
(g70
g51
NtRp3898
(dp3899
g54
(dp3900
sg63
g3885
sg56
(lp3901
g49
(g50
g51
NtRp3902
(dp3903
g54
(dp3904
g62
I4
ssg63
g3898
sg56
(lp3905
S'Sun, 11 Dec 2011 04:27:22 GMT'
p3906
asbasbasbag49
(g65
g51
NtRp3907
(dp3908
g54
(dp3909
sg63
g3837
sg56
(lp3910
g49
(g70
g51
NtRp3911
(dp3912
g54
(dp3913
g74
g75
ssg63
g3907
sg56
(lp3914
S'Pragma'
p3915
asbag49
(g70
g51
NtRp3916
(dp3917
g54
(dp3918
g81
g82
ssg63
g3907
sg56
(lp3919
S':'
asbag49
(g70
g51
NtRp3920
(dp3921
g54
(dp3922
sg63
g3907
sg56
(lp3923
g49
(g50
g51
NtRp3924
(dp3925
g54
(dp3926
g62
I4
ssg63
g3920
sg56
(lp3927
S'no-cache'
p3928
asbasbasbag49
(g65
g51
NtRp3929
(dp3930
g54
(dp3931
sg63
g3837
sg56
(lp3932
g49
(g70
g51
NtRp3933
(dp3934
g54
(dp3935
g74
g75
ssg63
g3929
sg56
(lp3936
S'X-Powered-By'
p3937
asbag49
(g70
g51
NtRp3938
(dp3939
g54
(dp3940
g81
g82
ssg63
g3929
sg56
(lp3941
S':'
asbag49
(g70
g51
NtRp3942
(dp3943
g54
(dp3944
sg63
g3929
sg56
(lp3945
g49
(g50
g51
NtRp3946
(dp3947
g54
(dp3948
g62
I4
ssg63
g3942
sg56
(lp3949
S'web2py'
p3950
asbasbasbasbasbasbasbag49
(g65
g51
NtRp3951
(dp3952
g54
(dp3953
sg63
g3519
sg56
(lp3954
g49
(g70
g51
NtRp3955
(dp3956
g54
(dp3957
g74
g75
ssg63
g3951
sg56
(lp3958
S'menu'
p3959
asbag49
(g70
g51
NtRp3960
(dp3961
g54
(dp3962
g81
g82
ssg63
g3951
sg56
(lp3963
S':'
asbag49
(g70
g51
NtRp3964
(dp3965
g54
(dp3966
sg63
g3951
sg56
(lp3967
g49
(g50
g51
NtRp3968
(dp3969
g54
(dp3970
g62
I5
ssg63
g3964
sg56
(lp3971
g49
(g58
g51
NtRp3972
(dp3973
g54
(dp3974
g62
I4
ssg63
Nsg56
(lp3975
sbasbasbasbag49
(g65
g51
NtRp3976
(dp3977
g54
(dp3978
sg63
g3519
sg56
(lp3979
g49
(g70
g51
NtRp3980
(dp3981
g54
(dp3982
g74
g75
ssg63
g3976
sg56
(lp3983
S'meta'
p3984
asbag49
(g70
g51
NtRp3985
(dp3986
g54
(dp3987
g81
g82
ssg63
g3976
sg56
(lp3988
S':'
asbag49
(g70
g51
NtRp3989
(dp3990
g54
(dp3991
sg63
g3976
sg56
(lp3992
g49
(g50
g51
NtRp3993
(dp3994
g54
(dp3995
g62
I5
ssg63
g3989
sg56
(lp3996
g49
(g58
g51
NtRp3997
(dp3998
g54
(dp3999
g62
I4
ssg63
Nsg56
(lp4000
sbasbasbasbag49
(g65
g51
NtRp4001
(dp4002
g54
(dp4003
sg63
g3519
sg56
(lp4004
g49
(g70
g51
NtRp4005
(dp4006
g54
(dp4007
g74
g75
ssg63
g4001
sg56
(lp4008
S'postprocessing'
p4009
asbag49
(g70
g51
NtRp4010
(dp4011
g54
(dp4012
g81
g82
ssg63
g4001
sg56
(lp4013
S':'
asbag49
(g70
g51
NtRp4014
(dp4015
g54
(dp4016
sg63
g4001
sg56
(lp4017
g49
(g50
g51
NtRp4018
(dp4019
g54
(dp4020
g62
I5
ssg63
g4014
sg56
(lp4021
g49
(g58
g51
NtRp4022
(dp4023
g54
(dp4024
g62
I4
ssg63
Nsg56
(lp4025
sbasbasbasbag49
(g65
g51
NtRp4026
(dp4027
g54
(dp4028
sg63
g3519
sg56
(lp4029
g49
(g70
g51
NtRp4030
(dp4031
g54
(dp4032
g74
g75
ssg63
g4026
sg56
(lp4033
S'session_file'
p4034
asbag49
(g70
g51
NtRp4035
(dp4036
g54
(dp4037
g81
g82
ssg63
g4026
sg56
(lp4038
S':'
asbag49
(g70
g51
NtRp4039
(dp4040
g54
(dp4041
sg63
g4026
sg56
(lp4042
g49
(g50
g51
NtRp4043
(dp4044
g54
(dp4045
g62
I5
ssg63
g4039
sg56
(lp4046
S"<open file '/Users/mdipierro/Dropbox/web2py/applications/inplace/sessions/127.0.0.1-b67af904-b8cf-469d-95b3-18285a004db1', mode 'rb+' at 0x1d71800>"
p4047
asbasbasbag49
(g65
g51
NtRp4048
(dp4049
g54
(dp4050
sg63
g3519
sg56
(lp4051
g49
(g70
g51
NtRp4052
(dp4053
g54
(dp4054
g74
g75
ssg63
g4048
sg56
(lp4055
S'session_filename'
p4056
asbag49
(g70
g51
NtRp4057
(dp4058
g54
(dp4059
g81
g82
ssg63
g4048
sg56
(lp4060
S':'
asbag49
(g70
g51
NtRp4061
(dp4062
g54
(dp4063
sg63
g4048
sg56
(lp4064
g49
(g50
g51
NtRp4065
(dp4066
g54
(dp4067
g62
I5
ssg63
g4061
sg56
(lp4068
S'/Users/mdipierro/Dropbox/web2py/applications/inplace/sessions/127.0.0.1-b67af904-b8cf-469d-95b3-18285a004db1'
p4069
asbasbasbag49
(g65
g51
NtRp4070
(dp4071
g54
(dp4072
sg63
g3519
sg56
(lp4073
g49
(g70
g51
NtRp4074
(dp4075
g54
(dp4076
g74
g75
ssg63
g4070
sg56
(lp4077
S'session_id'
p4078
asbag49
(g70
g51
NtRp4079
(dp4080
g54
(dp4081
g81
g82
ssg63
g4070
sg56
(lp4082
S':'
asbag49
(g70
g51
NtRp4083
(dp4084
g54
(dp4085
sg63
g4070
sg56
(lp4086
g49
(g50
g51
NtRp4087
(dp4088
g54
(dp4089
g62
I5
ssg63
g4083
sg56
(lp4090
S'127.0.0.1-b67af904-b8cf-469d-95b3-18285a004db1'
p4091
asbasbasbag49
(g65
g51
NtRp4092
(dp4093
g54
(dp4094
sg63
g3519
sg56
(lp4095
g49
(g70
g51
NtRp4096
(dp4097
g54
(dp4098
g74
g75
ssg63
g4092
sg56
(lp4099
S'session_id_name'
p4100
asbag49
(g70
g51
NtRp4101
(dp4102
g54
(dp4103
g81
g82
ssg63
g4092
sg56
(lp4104
S':'
asbag49
(g70
g51
NtRp4105
(dp4106
g54
(dp4107
sg63
g4092
sg56
(lp4108
g49
(g50
g51
NtRp4109
(dp4110
g54
(dp4111
g62
I5
ssg63
g4105
sg56
(lp4112
g3576
asbasbasbag49
(g65
g51
NtRp4113
(dp4114
g54
(dp4115
sg63
g3519
sg56
(lp4116
g49
(g70
g51
NtRp4117
(dp4118
g54
(dp4119
g74
g75
ssg63
g4113
sg56
(lp4120
S'session_locked'
p4121
asbag49
(g70
g51
NtRp4122
(dp4123
g54
(dp4124
g81
g82
ssg63
g4113
sg56
(lp4125
S':'
asbag49
(g70
g51
NtRp4126
(dp4127
g54
(dp4128
sg63
g4113
sg56
(lp4129
g49
(g50
g51
NtRp4130
(dp4131
g54
(dp4132
g62
I5
ssg63
g4126
sg56
(lp4133
g2082
asbasbasbag49
(g65
g51
NtRp4134
(dp4135
g54
(dp4136
sg63
g3519
sg56
(lp4137
g49
(g70
g51
NtRp4138
(dp4139
g54
(dp4140
g74
g75
ssg63
g4134
sg56
(lp4141
S'session_new'
p4142
asbag49
(g70
g51
NtRp4143
(dp4144
g54
(dp4145
g81
g82
ssg63
g4134
sg56
(lp4146
S':'
asbag49
(g70
g51
NtRp4147
(dp4148
g54
(dp4149
sg63
g4134
sg56
(lp4150
g49
(g50
g51
NtRp4151
(dp4152
g54
(dp4153
g62
I5
ssg63
g4147
sg56
(lp4154
g92
asbasbasbag49
(g65
g51
NtRp4155
(dp4156
g54
(dp4157
sg63
g3519
sg56
(lp4158
g49
(g70
g51
NtRp4159
(dp4160
g54
(dp4161
g74
g75
ssg63
g4155
sg56
(lp4162
S'status'
p4163
asbag49
(g70
g51
NtRp4164
(dp4165
g54
(dp4166
g81
g82
ssg63
g4155
sg56
(lp4167
S':'
asbag49
(g70
g51
NtRp4168
(dp4169
g54
(dp4170
sg63
g4155
sg56
(lp4171
g49
(g50
g51
NtRp4172
(dp4173
g54
(dp4174
g62
I5
ssg63
g4168
sg56
(lp4175
S'200'
p4176
asbasbasbag49
(g65
g51
NtRp4177
(dp4178
g54
(dp4179
sg63
g3519
sg56
(lp4180
g49
(g70
g51
NtRp4181
(dp4182
g54
(dp4183
g74
g75
ssg63
g4177
sg56
(lp4184
S'subtitle'
p4185
asbag49
(g70
g51
NtRp4186
(dp4187
g54
(dp4188
g81
g82
ssg63
g4177
sg56
(lp4189
S':'
asbag49
(g70
g51
NtRp4190
(dp4191
g54
(dp4192
sg63
g4177
sg56
(lp4193
g49
(g50
g51
NtRp4194
(dp4195
g54
(dp4196
g62
I5
ssg63
g4190
sg56
(lp4197
S'experimental!'
p4198
asbasbasbag49
(g65
g51
NtRp4199
(dp4200
g54
(dp4201
sg63
g3519
sg56
(lp4202
g49
(g70
g51
NtRp4203
(dp4204
g54
(dp4205
g74
g75
ssg63
g4199
sg56
(lp4206
S'title'
p4207
asbag49
(g70
g51
NtRp4208
(dp4209
g54
(dp4210
g81
g82
ssg63
g4199
sg56
(lp4211
S':'
asbag49
(g70
g51
NtRp4212
(dp4213
g54
(dp4214
sg63
g4199
sg56
(lp4215
g49
(g50
g51
NtRp4216
(dp4217
g54
(dp4218
g62
I5
ssg63
g4212
sg56
(lp4219
S'Inplace Web Page Editor'
p4220
asbasbasbag49
(g65
g51
NtRp4221
(dp4222
g54
(dp4223
sg63
g3519
sg56
(lp4224
g49
(g70
g51
NtRp4225
(dp4226
g54
(dp4227
g74
g75
ssg63
g4221
sg56
(lp4228
g2746
asbag49
(g70
g51
NtRp4229
(dp4230
g54
(dp4231
g81
g82
ssg63
g4221
sg56
(lp4232
S':'
asbag49
(g70
g51
NtRp4233
(dp4234
g54
(dp4235
sg63
g4221
sg56
(lp4236
g49
(g50
g51
NtRp4237
(dp4238
g54
(dp4239
g62
I5
ssg63
g4233
sg56
(lp4240
g2759
asbasbasbag49
(g65
g51
NtRp4241
(dp4242
g54
(dp4243
sg63
g3519
sg56
(lp4244
g49
(g70
g51
NtRp4245
(dp4246
g54
(dp4247
g74
g75
ssg63
g4241
sg56
(lp4248
S'view'
p4249
asbag49
(g70
g51
NtRp4250
(dp4251
g54
(dp4252
g81
g82
ssg63
g4241
sg56
(lp4253
S':'
asbag49
(g70
g51
NtRp4254
(dp4255
g54
(dp4256
sg63
g4241
sg56
(lp4257
g49
(g50
g51
NtRp4258
(dp4259
g54
(dp4260
g62
I5
ssg63
g4254
sg56
(lp4261
S'default/test.html'
p4262
asbasbasbasbasbsS'locals'
p4263
(dp4264
S'Service'
p4265
S"<class 'gluon.tools.Service'>"
p4266
sS'OBJECT'
p4267
S"<class 'gluon.html.OBJECT'>"
p4268
sS'SQLDB'
p4269
S"<class 'gluon.dal.DAL'>"
p4270
sg3435
S"<Storage {'new_html': '\\n<!DOCTYPE html>\\n<!-- p...reate]': 'b776281f-78d7-4755-9055-b136b2f7e1eb'}>"
p4271
sS'LINK'
p4272
S"<class 'gluon.html.LINK'>"
p4273
sS'BR'
p4274
S"<class 'gluon.html.BR'>"
p4275
sS'local_import'
p4276
S'<function <lambda> at 0x1ce29f0>'
p4277
sS'OPTGROUP'
p4278
S"<class 'gluon.html.OPTGROUP'>"
p4279
sS'PRE'
p4280
S"<class 'gluon.html.PRE'>"
p4281
sS'IS_INT_IN_RANGE'
p4282
S"<class 'gluon.validators.IS_INT_IN_RANGE'>"
p4283
sS'IS_LOWER'
p4284
S"<class 'gluon.validators.IS_LOWER'>"
p4285
sS'IS_STRONG'
p4286
S"<class 'gluon.validators.IS_STRONG'>"
p4287
sS'cache'
p4288
S'<gluon.cache.Cache object at 0x1f80470>'
p4289
sS'IS_IN_DB'
p4290
S"<class 'gluon.validators.IS_IN_DB'>"
p4291
sS'TAG'
p4292
S'<gluon.html.__TAG__ object at 0x5fb850>'
p4293
sS'SQLField'
p4294
S"<class 'gluon.dal.Field'>"
p4295
sS'mail'
p4296
S'<gluon.tools.Mail object at 0x1f80510>'
p4297
sS'BODY'
p4298
S"<class 'gluon.html.BODY'>"
p4299
sS'IS_DATE_IN_RANGE'
p4300
S"<class 'gluon.validators.IS_DATE_IN_RANGE'>"
p4301
sS'TH'
p4302
S"<class 'gluon.html.TH'>"
p4303
sS'URL'
p4304
S'<function URL at 0x60d130>'
p4305
sS'__file__'
p4306
S"'/Users/mdipierro/Dropbox/web2py/applications/inplace/views/default/test.html'"
p4307
sS'db'
p4308
S"<DAL {'auth_event': <Table {'origin': <gluon.dal... '_id': <gluon.dal.Field object at 0x1c89950>}>}>"
p4309
sS'auth'
p4310
S'<gluon.tools.Auth object at 0x1f80790>'
p4311
sS'P'
S"<class 'gluon.html.P'>"
p4312
sS'TFOOT'
p4313
S"<class 'gluon.html.TFOOT'>"
p4314
sS'XHTML'
p4315
S"<class 'gluon.html.XHTML'>"
p4316
sS'ON'
p4317
g2082
sS'OL'
p4318
S"<class 'gluon.html.OL'>"
p4319
sS'TEXTAREA'
p4320
S"<class 'gluon.html.TEXTAREA'>"
p4321
sS'MENU'
p4322
S"<class 'gluon.html.MENU'>"
p4323
sS'LOAD'
p4324
S'<function LOAD at 0x5236b0>'
p4325
sS'CODE'
p4326
S"<class 'gluon.html.CODE'>"
p4327
sS'HTTP'
p4328
S"<class 'gluon.http.HTTP'>"
p4329
sS'HR'
p4330
S"<class 'gluon.html.HR'>"
p4331
sS'IS_DATETIME'
p4332
S"<class 'gluon.validators.IS_DATETIME'>"
p4333
sS'HEAD'
p4334
S"<class 'gluon.html.HEAD'>"
p4335
sS'LABEL'
p4336
S"<class 'gluon.html.LABEL'>"
p4337
sS'CLEANUP'
p4338
S"<class 'gluon.validators.CLEANUP'>"
p4339
sS'plugins'
p4340
S'<gluon.tools.PluginManager object at 0x10b2250>'
p4341
sS'SELECT'
p4342
S"<class 'gluon.html.SELECT'>"
p4343
sS'use_janrain'
p4344
S'<function use_janrain at 0x111f8b0>'
p4345
sS'CENTER'
p4346
S"<class 'gluon.html.CENTER'>"
p4347
sS'prettydate'
p4348
S'<function prettydate at 0x110b030>'
p4349
sS'Crud'
p4350
S"<class 'gluon.tools.Crud'>"
p4351
sS'Auth'
p4352
S"<class 'gluon.tools.Auth'>"
p4353
sS'__builtins__'
p4354
S"{'ArithmeticError': <type 'exceptions.ArithmeticError'>, 'AssertionError': <type 'exceptions.AssertionError'>, 'AttributeError': <type 'exceptions.AttributeError'>, 'BaseException': <type 'exceptions.BaseException'>, 'DeprecationWarning': <type 'exceptions.DeprecationWarning'>, 'EOFError': <type 'exceptions.EOFError'>, 'Ellipsis': Ellipsis, 'EnvironmentError': <type 'exceptions.EnvironmentError'>, 'Exception': <type 'exceptions.Exception'>, 'False': False, ...}"
p4355
sS'HTML'
p4356
S"<class 'gluon.html.HTML'>"
p4357
sS'SQLFORM'
p4358
S"<class 'gluon.sqlhtml.SQLFORM'>"
p4359
sS'EM'
p4360
S"<class 'gluon.html.EM'>"
p4361
sS'redirect'
p4362
S'<function redirect at 0x44f7f0>'
p4363
sS'FIELDSET'
p4364
S"<class 'gluon.html.FIELDSET'>"
p4365
sS'IS_EQUAL_TO'
p4366
S"<class 'gluon.validators.IS_EQUAL_TO'>"
p4367
sS'embed64'
p4368
S'<function embed64 at 0x60dc30>'
p4369
sS'IS_LIST_OF'
p4370
S"<class 'gluon.validators.IS_LIST_OF'>"
p4371
sS'INPUT'
p4372
S"<class 'gluon.html.INPUT'>"
p4373
sS'EMBED'
p4374
S"<class 'gluon.html.EMBED'>"
p4375
sS'FORM'
p4376
S"<class 'gluon.html.FORM'>"
p4377
sS'H2'
p4378
S"<class 'gluon.html.H2'>"
p4379
sS'H3'
p4380
S"<class 'gluon.html.H3'>"
p4381
sS'BUTTON'
p4382
S"<class 'gluon.html.BUTTON'>"
p4383
sS'H1'
p4384
S"<class 'gluon.html.H1'>"
p4385
sS'H6'
p4386
S"<class 'gluon.html.H6'>"
p4387
sS'H4'
p4388
S"<class 'gluon.html.H4'>"
p4389
sS'H5'
p4390
S"<class 'gluon.html.H5'>"
p4391
sS'UL'
p4392
S"<class 'gluon.html.UL'>"
p4393
sS'IS_UPPER'
p4394
S"<class 'gluon.validators.IS_UPPER'>"
p4395
sS'xmlescape'
p4396
S'<function xmlescape at 0x60d0f0>'
p4397
sS'IS_TIME'
p4398
S"<class 'gluon.validators.IS_TIME'>"
p4399
sS'OPTION'
p4400
S"<class 'gluon.html.OPTION'>"
p4401
sS'TITLE'
p4402
S"<class 'gluon.html.TITLE'>"
p4403
sS'CRYPT'
p4404
S"<class 'gluon.validators.CRYPT'>"
p4405
sS'IS_EMPTY_OR'
p4406
S"<class 'gluon.validators.IS_EMPTY_OR'>"
p4407
sS'MARKMIN'
p4408
S"<class 'gluon.html.MARKMIN'>"
p4409
sS'COL'
p4410
S"<class 'gluon.html.COL'>"
p4411
sS'service'
p4412
S'<gluon.tools.Service object at 0x1f80eb0>'
p4413
sS'SCRIPT'
p4414
S"<class 'gluon.html.SCRIPT'>"
p4415
sS'TABLE'
p4416
S"<class 'gluon.html.TABLE'>"
p4417
sS'IS_IPV4'
p4418
S"<class 'gluon.validators.IS_IPV4'>"
p4419
sS'IS_LENGTH'
p4420
S"<class 'gluon.validators.IS_LENGTH'>"
p4421
sS'XML'
p4422
S"<class 'gluon.html.XML'>"
p4423
sS'B'
S"<class 'gluon.html.B'>"
p4424
sS'IMG'
p4425
S"<class 'gluon.html.IMG'>"
p4426
sS'SQLTABLE'
p4427
S"<class 'gluon.sqlhtml.SQLTABLE'>"
p4428
sS'IS_MATCH'
p4429
S"<class 'gluon.validators.IS_MATCH'>"
p4430
sS'IS_ALPHANUMERIC'
p4431
S"<class 'gluon.validators.IS_ALPHANUMERIC'>"
p4432
sS'SPAN'
p4433
S"<class 'gluon.html.SPAN'>"
p4434
sS'IS_SLUG'
p4435
S"<class 'gluon.validators.IS_SLUG'>"
p4436
sS'BEAUTIFY'
p4437
S"<class 'gluon.html.BEAUTIFY'>"
p4438
sS'META'
p4439
S"<class 'gluon.html.META'>"
p4440
sS'IS_DATE'
p4441
S"<class 'gluon.validators.IS_DATE'>"
p4442
sS'IS_EMAIL'
p4443
S"<class 'gluon.validators.IS_EMAIL'>"
p4444
sS'IS_NOT_EMPTY'
p4445
S"<class 'gluon.validators.IS_NOT_EMPTY'>"
p4446
sS'IS_FLOAT_IN_RANGE'
p4447
S"<class 'gluon.validators.IS_FLOAT_IN_RANGE'>"
p4448
sS'TBODY'
p4449
S"<class 'gluon.html.TBODY'>"
p4450
sS'CAT'
p4451
S"<class 'gluon.html.CAT'>"
p4452
sS'Field'
p4453
S"<class 'gluon.dal.Field'>"
p4454
sS'DIV'
p4455
S"<class 'gluon.html.DIV'>"
p4456
sS'LEGEND'
p4457
S"<class 'gluon.html.LEGEND'>"
p4458
sS'COLGROUP'
p4459
S"<class 'gluon.html.COLGROUP'>"
p4460
sS'DAL'
p4461
S"<class 'gluon.dal.DAL'>"
p4462
sS'TT'
p4463
S"<class 'gluon.html.TT'>"
p4464
sS'TR'
p4465
S"<class 'gluon.html.TR'>"
p4466
sS'LI'
p4467
S"<class 'gluon.html.LI'>"
p4468
sS'IFRAME'
p4469
S"<class 'gluon.html.IFRAME'>"
p4470
sS'TD'
p4471
S"<class 'gluon.html.TD'>"
p4472
sS'PluginManager'
p4473
S"<class 'gluon.tools.PluginManager'>"
p4474
sS'IS_URL'
p4475
S"<class 'gluon.validators.IS_URL'>"
p4476
sS'A'
S"<class 'gluon.html.A'>"
p4477
sS'STYLE'
p4478
S"<class 'gluon.html.STYLE'>"
p4479
sS'IS_DATETIME_IN_RANGE'
p4480
S"<class 'gluon.validators.IS_DATETIME_IN_RANGE'>"
p4481
sS'IS_IMAGE'
p4482
S"<class 'gluon.validators.IS_IMAGE'>"
p4483
sS'I'
S"<class 'gluon.html.I'>"
p4484
sS'crud'
p4485
S'<gluon.tools.Crud object at 0x1f804f0>'
p4486
sS'IS_NOT_IN_DB'
p4487
S"<class 'gluon.validators.IS_NOT_IN_DB'>"
p4488
sg3514
S"<Storage {'body': <cStringIO.StringO object at 0...bda> at 0x1e99c70>, 'view': 'default/test.html'}>"
p4489
sS'THEAD'
p4490
S"<class 'gluon.html.THEAD'>"
p4491
sS'IS_NULL_OR'
p4492
S"<class 'gluon.validators.IS_EMPTY_OR'>"
p4493
sg48
S"<Storage {'body': <cStringIO.StringO object at 0..._vars': <Storage {}>, 'post_vars': <Storage {}>}>"
p4494
sS'IS_EXPR'
p4495
S"<class 'gluon.validators.IS_EXPR'>"
p4496
sS'T'
S'<gluon.languages.translator object at 0x1f806d0>'
p4497
sS'IS_IN_SET'
p4498
S"<class 'gluon.validators.IS_IN_SET'>"
p4499
sS'IS_UPLOAD_FILENAME'
p4500
S"<class 'gluon.validators.IS_UPLOAD_FILENAME'>"
p4501
sS'IS_DECIMAL_IN_RANGE'
p4502
S"<class 'gluon.validators.IS_DECIMAL_IN_RANGE'>"
p4503
sssS'traceback'
p4504
S'Traceback (most recent call last):\n  File "/Users/mdipierro/Dropbox/web2py/gluon/restricted.py", line 204, in restricted\n    exec ccode in environment\n  File "/Users/mdipierro/Dropbox/web2py/applications/inplace/views/default/test.html", line 1, in <module>\n    {{rexponse.files.append(URL(\'static\',\'js/nicEditor.js\'))}}\nNameError: name \'rexponse\' is not defined\n'
p4505
s.