(dp1
S'output'
p2
S"<type 'exceptions.SyntaxError'> when calling URL, function or function name required"
p3
sS'layer'
p4
S'/Users/mdipierro/Dropbox/web2py/applications/inplace/controllers/default.py'
p5
sS'code'
p6
S'# -*- coding: utf-8 -*-\n# this file is released under public domain and you can use without limitations\n\nresponse.title=\'Inplace Web Page Editor\'\nresponse.subtitle=\'experimental!\'\n\ndef index():\n    form=SQLFORM.factory(Field(\'url\',requires=IS_URL(),default=\'http://web2py.com\'))\n    if form.process().accepted:\n        redirect(URL(\'edit\',dict(url=form.vars.url)))\n    return dict(form=form)\n\ndef edit():\n    import urllib,re\n    print request.args(0)\n    if request.args(0)==\'post\':\n        return request.vars.value or \'\'\n    if request.args(0)==\'store\':\n        print session.html.split(\'<body>\')[0]+\'<body>\'+request.vars.html+\'</body></html>\'\n        return \'ok\'\n    url = request.vars.url\n    html = urllib.urlopen(url).read()\n    session.html = html\n    html = re.sub(\'\\s+[\\n]\',\'\\n\',html)\n    html = re.sub(\'>[ \\t]+<\',\'> <\',html)\n    html = re.sub(\'(src|SRC)\\s*=\\s*"/(?!/)\',\'src="\'+\'/\'.join(url.split(\'/\')[:3])+\'/\',html)\n    html = re.sub(\'(src|SRC)\\s*=\\s*"(?!(/|http))\',\'src="\'+\'/\'.join(url.split(\'/\'))+\'/\',html)\n    html = re.sub(\'(href|HREF)\\s*=\\s*"/(?!/)\',\'href="\'+\'/\'.join(url.split(\'/\')[:3])+\'/\',html)\n    html = re.sub(\'(href|HREF)\\s*=\\s*"(?!(/|http))\',\'href="\'+\'/\'.join(url.split(\'/\'))+\'/\',html)\n    html = re.sub(\'url\\(/(?!/)\',\'url(\'+\'/\'.join(url.split(\'/\')[:3])+\'/\',html)\n    html = re.sub(\'url\\((?!(/|http))\',\'url(\'+\'/\'.join(url.split(\'/\'))+\'/\',html)\n    inject = \'<script src="%s" language="javascript"></script>\' % URL(\'static\',\'js/inject.js\')\n    html = html.replace(\'</head>\',inject+\'</head>\')\n    return html\n\n\n\n\nresponse._vars=response._caller(index)\n'
p7
sS'snapshot'
p8
(dp9
S'exception'
p10
(dp11
S'__getslice__'
p12
S"<method-wrapper '__getslice__' of exceptions.SyntaxError object at 0x1099070>"
p13
sS'text'
p14
S'None'
p15
sS'__str__'
p16
S"<method-wrapper '__str__' of exceptions.SyntaxError object at 0x1099070>"
p17
sS'__reduce__'
p18
S'<built-in method __reduce__ of exceptions.SyntaxError object at 0x1099070>'
p19
sS'__dict__'
p20
S'{}'
p21
sS'__init__'
p22
S"<method-wrapper '__init__' of exceptions.SyntaxError object at 0x1099070>"
p23
sS'__setattr__'
p24
S"<method-wrapper '__setattr__' of exceptions.SyntaxError object at 0x1099070>"
p25
sS'__reduce_ex__'
p26
S'<built-in method __reduce_ex__ of exceptions.SyntaxError object at 0x1099070>'
p27
sS'__new__'
p28
S'<built-in method __new__ of type object at 0xdc200>'
p29
sS'__class__'
p30
S"<type 'exceptions.SyntaxError'>"
p31
sS'filename'
p32
S'None'
p33
sS'lineno'
p34
S'None'
p35
sS'msg'
p36
S"'when calling URL, function or function name required'"
p37
sS'__doc__'
p38
S"'Invalid syntax.'"
p39
sS'__getitem__'
p40
S"<method-wrapper '__getitem__' of exceptions.SyntaxError object at 0x1099070>"
p41
sS'__setstate__'
p42
S'<built-in method __setstate__ of exceptions.SyntaxError object at 0x1099070>'
p43
sS'__getattribute__'
p44
S"<method-wrapper '__getattribute__' of exceptions.SyntaxError object at 0x1099070>"
p45
sS'print_file_and_line'
p46
S'None'
p47
sS'args'
p48
S"('when calling URL, function or function name required',)"
p49
sS'offset'
p50
S'None'
p51
sS'__delattr__'
p52
S"<method-wrapper '__delattr__' of exceptions.SyntaxError object at 0x1099070>"
p53
sS'__repr__'
p54
S"<method-wrapper '__repr__' of exceptions.SyntaxError object at 0x1099070>"
p55
sS'__hash__'
p56
S"<method-wrapper '__hash__' of exceptions.SyntaxError object at 0x1099070>"
p57
ssS'evalue'
p58
S'when calling URL, function or function name required'
p59
sS'request'
p60
ccopy_reg
_reconstructor
p61
(cgluon.html
BEAUTIFY
p62
c__builtin__
object
p63
NtRp64
(dp65
S'attributes'
p66
(dp67
sS'components'
p68
(lp69
g61
(cgluon.html
TABLE
p70
g63
NtRp71
(dp72
g66
(dp73
S'level'
p74
I5
ssS'parent'
p75
Nsg68
(lp76
g61
(cgluon.html
TR
p77
g63
NtRp78
(dp79
g66
(dp80
sg75
g71
sg68
(lp81
g61
(cgluon.html
TD
p82
g63
NtRp83
(dp84
g66
(dp85
S'_style'
p86
S'font-weight:bold;vertical-align:top'
p87
ssg75
g78
sg68
(lp88
S'ajax'
p89
asbag61
(g82
g63
NtRp90
(dp91
g66
(dp92
S'_valign'
p93
S'top'
p94
ssg75
g78
sg68
(lp95
S':'
asbag61
(g82
g63
NtRp96
(dp97
g66
(dp98
sg75
g78
sg68
(lp99
g61
(g62
g63
NtRp100
(dp101
g66
(dp102
g74
I5
ssg75
g96
sg68
(lp103
S'False'
p104
asbasbasbag61
(g77
g63
NtRp105
(dp106
g66
(dp107
sg75
g71
sg68
(lp108
g61
(g82
g63
NtRp109
(dp110
g66
(dp111
g86
g87
ssg75
g105
sg68
(lp112
S'application'
p113
asbag61
(g82
g63
NtRp114
(dp115
g66
(dp116
g93
g94
ssg75
g105
sg68
(lp117
S':'
asbag61
(g82
g63
NtRp118
(dp119
g66
(dp120
sg75
g105
sg68
(lp121
g61
(g62
g63
NtRp122
(dp123
g66
(dp124
g74
I5
ssg75
g118
sg68
(lp125
S'inplace'
p126
asbasbasbag61
(g77
g63
NtRp127
(dp128
g66
(dp129
sg75
g71
sg68
(lp130
g61
(g82
g63
NtRp131
(dp132
g66
(dp133
g86
g87
ssg75
g127
sg68
(lp134
g48
asbag61
(g82
g63
NtRp135
(dp136
g66
(dp137
g93
g94
ssg75
g127
sg68
(lp138
S':'
asbag61
(g82
g63
NtRp139
(dp140
g66
(dp141
sg75
g127
sg68
(lp142
g61
(g62
g63
NtRp143
(dp144
g66
(dp145
g74
I5
ssg75
g139
sg68
(lp146
g61
(g70
g63
NtRp147
(dp148
g66
(dp149
g74
I4
ssg75
Nsg68
(lp150
sbasbasbasbag61
(g77
g63
NtRp151
(dp152
g66
(dp153
sg75
g71
sg68
(lp154
g61
(g82
g63
NtRp155
(dp156
g66
(dp157
g86
g87
ssg75
g151
sg68
(lp158
S'body'
p159
asbag61
(g82
g63
NtRp160
(dp161
g66
(dp162
g93
g94
ssg75
g151
sg68
(lp163
S':'
asbag61
(g82
g63
NtRp164
(dp165
g66
(dp166
sg75
g151
sg68
(lp167
g61
(g62
g63
NtRp168
(dp169
g66
(dp170
g74
I5
ssg75
g164
sg68
(lp171
S"<open file '<fdopen>', mode 'w+b' at 0x115e920>"
p172
asbasbasbag61
(g77
g63
NtRp173
(dp174
g66
(dp175
sg75
g71
sg68
(lp176
g61
(g82
g63
NtRp177
(dp178
g66
(dp179
g86
g87
ssg75
g173
sg68
(lp180
S'client'
p181
asbag61
(g82
g63
NtRp182
(dp183
g66
(dp184
g93
g94
ssg75
g173
sg68
(lp185
S':'
asbag61
(g82
g63
NtRp186
(dp187
g66
(dp188
sg75
g173
sg68
(lp189
g61
(g62
g63
NtRp190
(dp191
g66
(dp192
g74
I5
ssg75
g186
sg68
(lp193
S'127.0.0.1'
p194
asbasbasbag61
(g77
g63
NtRp195
(dp196
g66
(dp197
sg75
g71
sg68
(lp198
g61
(g82
g63
NtRp199
(dp200
g66
(dp201
g86
g87
ssg75
g195
sg68
(lp202
S'controller'
p203
asbag61
(g82
g63
NtRp204
(dp205
g66
(dp206
g93
g94
ssg75
g195
sg68
(lp207
S':'
asbag61
(g82
g63
NtRp208
(dp209
g66
(dp210
sg75
g195
sg68
(lp211
g61
(g62
g63
NtRp212
(dp213
g66
(dp214
g74
I5
ssg75
g208
sg68
(lp215
S'default'
p216
asbasbasbag61
(g77
g63
NtRp217
(dp218
g66
(dp219
sg75
g71
sg68
(lp220
g61
(g82
g63
NtRp221
(dp222
g66
(dp223
g86
g87
ssg75
g217
sg68
(lp224
S'cookies'
p225
asbag61
(g82
g63
NtRp226
(dp227
g66
(dp228
g93
g94
ssg75
g217
sg68
(lp229
S':'
asbag61
(g82
g63
NtRp230
(dp231
g66
(dp232
sg75
g217
sg68
(lp233
g61
(g62
g63
NtRp234
(dp235
g66
(dp236
g74
I5
ssg75
g230
sg68
(lp237
g61
(g70
g63
NtRp238
(dp239
g66
(dp240
g74
I4
ssg75
Nsg68
(lp241
g61
(g77
g63
NtRp242
(dp243
g66
(dp244
sg75
g238
sg68
(lp245
g61
(g82
g63
NtRp246
(dp247
g66
(dp248
g86
g87
ssg75
g242
sg68
(lp249
S'el-finder-last-finder'
p250
asbag61
(g82
g63
NtRp251
(dp252
g66
(dp253
g93
g94
ssg75
g242
sg68
(lp254
S':'
asbag61
(g82
g63
NtRp255
(dp256
g66
(dp257
sg75
g242
sg68
(lp258
g61
(g62
g63
NtRp259
(dp260
g66
(dp261
g74
I4
ssg75
g255
sg68
(lp262
g61
(g70
g63
NtRp263
(dp264
g66
(dp265
g74
I3
ssg75
Nsg68
(lp266
g61
(g77
g63
NtRp267
(dp268
g66
(dp269
sg75
g263
sg68
(lp270
g61
(g82
g63
NtRp271
(dp272
g66
(dp273
g86
g87
ssg75
g267
sg68
(lp274
S'comment'
p275
asbag61
(g82
g63
NtRp276
(dp277
g66
(dp278
g93
g94
ssg75
g267
sg68
(lp279
S':'
asbag61
(g82
g63
NtRp280
(dp281
g66
(dp282
sg75
g267
sg68
(lp283
g61
(g62
g63
NtRp284
(dp285
g66
(dp286
g74
I3
ssg75
g280
sg68
(lp287
S''
asbasbasbag61
(g77
g63
NtRp288
(dp289
g66
(dp290
sg75
g263
sg68
(lp291
g61
(g82
g63
NtRp292
(dp293
g66
(dp294
g86
g87
ssg75
g288
sg68
(lp295
S'domain'
p296
asbag61
(g82
g63
NtRp297
(dp298
g66
(dp299
g93
g94
ssg75
g288
sg68
(lp300
S':'
asbag61
(g82
g63
NtRp301
(dp302
g66
(dp303
sg75
g288
sg68
(lp304
g61
(g62
g63
NtRp305
(dp306
g66
(dp307
g74
I3
ssg75
g301
sg68
(lp308
S''
asbasbasbag61
(g77
g63
NtRp309
(dp310
g66
(dp311
sg75
g263
sg68
(lp312
g61
(g82
g63
NtRp313
(dp314
g66
(dp315
g86
g87
ssg75
g309
sg68
(lp316
S'expires'
p317
asbag61
(g82
g63
NtRp318
(dp319
g66
(dp320
g93
g94
ssg75
g309
sg68
(lp321
S':'
asbag61
(g82
g63
NtRp322
(dp323
g66
(dp324
sg75
g309
sg68
(lp325
g61
(g62
g63
NtRp326
(dp327
g66
(dp328
g74
I3
ssg75
g322
sg68
(lp329
S''
asbasbasbag61
(g77
g63
NtRp330
(dp331
g66
(dp332
sg75
g263
sg68
(lp333
g61
(g82
g63
NtRp334
(dp335
g66
(dp336
g86
g87
ssg75
g330
sg68
(lp337
S'max-age'
p338
asbag61
(g82
g63
NtRp339
(dp340
g66
(dp341
g93
g94
ssg75
g330
sg68
(lp342
S':'
asbag61
(g82
g63
NtRp343
(dp344
g66
(dp345
sg75
g330
sg68
(lp346
g61
(g62
g63
NtRp347
(dp348
g66
(dp349
g74
I3
ssg75
g343
sg68
(lp350
S''
asbasbasbag61
(g77
g63
NtRp351
(dp352
g66
(dp353
sg75
g263
sg68
(lp354
g61
(g82
g63
NtRp355
(dp356
g66
(dp357
g86
g87
ssg75
g351
sg68
(lp358
S'path'
p359
asbag61
(g82
g63
NtRp360
(dp361
g66
(dp362
g93
g94
ssg75
g351
sg68
(lp363
S':'
asbag61
(g82
g63
NtRp364
(dp365
g66
(dp366
sg75
g351
sg68
(lp367
g61
(g62
g63
NtRp368
(dp369
g66
(dp370
g74
I3
ssg75
g364
sg68
(lp371
S''
asbasbasbag61
(g77
g63
NtRp372
(dp373
g66
(dp374
sg75
g263
sg68
(lp375
g61
(g82
g63
NtRp376
(dp377
g66
(dp378
g86
g87
ssg75
g372
sg68
(lp379
S'secure'
p380
asbag61
(g82
g63
NtRp381
(dp382
g66
(dp383
g93
g94
ssg75
g372
sg68
(lp384
S':'
asbag61
(g82
g63
NtRp385
(dp386
g66
(dp387
sg75
g372
sg68
(lp388
g61
(g62
g63
NtRp389
(dp390
g66
(dp391
g74
I3
ssg75
g385
sg68
(lp392
S''
asbasbasbag61
(g77
g63
NtRp393
(dp394
g66
(dp395
sg75
g263
sg68
(lp396
g61
(g82
g63
NtRp397
(dp398
g66
(dp399
g86
g87
ssg75
g393
sg68
(lp400
S'version'
p401
asbag61
(g82
g63
NtRp402
(dp403
g66
(dp404
g93
g94
ssg75
g393
sg68
(lp405
S':'
asbag61
(g82
g63
NtRp406
(dp407
g66
(dp408
sg75
g393
sg68
(lp409
g61
(g62
g63
NtRp410
(dp411
g66
(dp412
g74
I3
ssg75
g406
sg68
(lp413
S''
asbasbasbasbasbasbasbag61
(g77
g63
NtRp414
(dp415
g66
(dp416
sg75
g238
sg68
(lp417
g61
(g82
g63
NtRp418
(dp419
g66
(dp420
g86
g87
ssg75
g414
sg68
(lp421
S'registered'
p422
asbag61
(g82
g63
NtRp423
(dp424
g66
(dp425
g93
g94
ssg75
g414
sg68
(lp426
S':'
asbag61
(g82
g63
NtRp427
(dp428
g66
(dp429
sg75
g414
sg68
(lp430
g61
(g62
g63
NtRp431
(dp432
g66
(dp433
g74
I4
ssg75
g427
sg68
(lp434
g61
(g70
g63
NtRp435
(dp436
g66
(dp437
g74
I3
ssg75
Nsg68
(lp438
g61
(g77
g63
NtRp439
(dp440
g66
(dp441
sg75
g435
sg68
(lp442
g61
(g82
g63
NtRp443
(dp444
g66
(dp445
g86
g87
ssg75
g439
sg68
(lp446
g275
asbag61
(g82
g63
NtRp447
(dp448
g66
(dp449
g93
g94
ssg75
g439
sg68
(lp450
S':'
asbag61
(g82
g63
NtRp451
(dp452
g66
(dp453
sg75
g439
sg68
(lp454
g61
(g62
g63
NtRp455
(dp456
g66
(dp457
g74
I3
ssg75
g451
sg68
(lp458
S''
asbasbasbag61
(g77
g63
NtRp459
(dp460
g66
(dp461
sg75
g435
sg68
(lp462
g61
(g82
g63
NtRp463
(dp464
g66
(dp465
g86
g87
ssg75
g459
sg68
(lp466
g296
asbag61
(g82
g63
NtRp467
(dp468
g66
(dp469
g93
g94
ssg75
g459
sg68
(lp470
S':'
asbag61
(g82
g63
NtRp471
(dp472
g66
(dp473
sg75
g459
sg68
(lp474
g61
(g62
g63
NtRp475
(dp476
g66
(dp477
g74
I3
ssg75
g471
sg68
(lp478
S''
asbasbasbag61
(g77
g63
NtRp479
(dp480
g66
(dp481
sg75
g435
sg68
(lp482
g61
(g82
g63
NtRp483
(dp484
g66
(dp485
g86
g87
ssg75
g479
sg68
(lp486
g317
asbag61
(g82
g63
NtRp487
(dp488
g66
(dp489
g93
g94
ssg75
g479
sg68
(lp490
S':'
asbag61
(g82
g63
NtRp491
(dp492
g66
(dp493
sg75
g479
sg68
(lp494
g61
(g62
g63
NtRp495
(dp496
g66
(dp497
g74
I3
ssg75
g491
sg68
(lp498
S''
asbasbasbag61
(g77
g63
NtRp499
(dp500
g66
(dp501
sg75
g435
sg68
(lp502
g61
(g82
g63
NtRp503
(dp504
g66
(dp505
g86
g87
ssg75
g499
sg68
(lp506
g338
asbag61
(g82
g63
NtRp507
(dp508
g66
(dp509
g93
g94
ssg75
g499
sg68
(lp510
S':'
asbag61
(g82
g63
NtRp511
(dp512
g66
(dp513
sg75
g499
sg68
(lp514
g61
(g62
g63
NtRp515
(dp516
g66
(dp517
g74
I3
ssg75
g511
sg68
(lp518
S''
asbasbasbag61
(g77
g63
NtRp519
(dp520
g66
(dp521
sg75
g435
sg68
(lp522
g61
(g82
g63
NtRp523
(dp524
g66
(dp525
g86
g87
ssg75
g519
sg68
(lp526
g359
asbag61
(g82
g63
NtRp527
(dp528
g66
(dp529
g93
g94
ssg75
g519
sg68
(lp530
S':'
asbag61
(g82
g63
NtRp531
(dp532
g66
(dp533
sg75
g519
sg68
(lp534
g61
(g62
g63
NtRp535
(dp536
g66
(dp537
g74
I3
ssg75
g531
sg68
(lp538
S''
asbasbasbag61
(g77
g63
NtRp539
(dp540
g66
(dp541
sg75
g435
sg68
(lp542
g61
(g82
g63
NtRp543
(dp544
g66
(dp545
g86
g87
ssg75
g539
sg68
(lp546
g380
asbag61
(g82
g63
NtRp547
(dp548
g66
(dp549
g93
g94
ssg75
g539
sg68
(lp550
S':'
asbag61
(g82
g63
NtRp551
(dp552
g66
(dp553
sg75
g539
sg68
(lp554
g61
(g62
g63
NtRp555
(dp556
g66
(dp557
g74
I3
ssg75
g551
sg68
(lp558
S''
asbasbasbag61
(g77
g63
NtRp559
(dp560
g66
(dp561
sg75
g435
sg68
(lp562
g61
(g82
g63
NtRp563
(dp564
g66
(dp565
g86
g87
ssg75
g559
sg68
(lp566
g401
asbag61
(g82
g63
NtRp567
(dp568
g66
(dp569
g93
g94
ssg75
g559
sg68
(lp570
S':'
asbag61
(g82
g63
NtRp571
(dp572
g66
(dp573
sg75
g559
sg68
(lp574
g61
(g62
g63
NtRp575
(dp576
g66
(dp577
g74
I3
ssg75
g571
sg68
(lp578
S''
asbasbasbasbasbasbasbag61
(g77
g63
NtRp579
(dp580
g66
(dp581
sg75
g238
sg68
(lp582
g61
(g82
g63
NtRp583
(dp584
g66
(dp585
g86
g87
ssg75
g579
sg68
(lp586
S's_nr'
p587
asbag61
(g82
g63
NtRp588
(dp589
g66
(dp590
g93
g94
ssg75
g579
sg68
(lp591
S':'
asbag61
(g82
g63
NtRp592
(dp593
g66
(dp594
sg75
g579
sg68
(lp595
g61
(g62
g63
NtRp596
(dp597
g66
(dp598
g74
I4
ssg75
g592
sg68
(lp599
g61
(g70
g63
NtRp600
(dp601
g66
(dp602
g74
I3
ssg75
Nsg68
(lp603
g61
(g77
g63
NtRp604
(dp605
g66
(dp606
sg75
g600
sg68
(lp607
g61
(g82
g63
NtRp608
(dp609
g66
(dp610
g86
g87
ssg75
g604
sg68
(lp611
g275
asbag61
(g82
g63
NtRp612
(dp613
g66
(dp614
g93
g94
ssg75
g604
sg68
(lp615
S':'
asbag61
(g82
g63
NtRp616
(dp617
g66
(dp618
sg75
g604
sg68
(lp619
g61
(g62
g63
NtRp620
(dp621
g66
(dp622
g74
I3
ssg75
g616
sg68
(lp623
S''
asbasbasbag61
(g77
g63
NtRp624
(dp625
g66
(dp626
sg75
g600
sg68
(lp627
g61
(g82
g63
NtRp628
(dp629
g66
(dp630
g86
g87
ssg75
g624
sg68
(lp631
g296
asbag61
(g82
g63
NtRp632
(dp633
g66
(dp634
g93
g94
ssg75
g624
sg68
(lp635
S':'
asbag61
(g82
g63
NtRp636
(dp637
g66
(dp638
sg75
g624
sg68
(lp639
g61
(g62
g63
NtRp640
(dp641
g66
(dp642
g74
I3
ssg75
g636
sg68
(lp643
S''
asbasbasbag61
(g77
g63
NtRp644
(dp645
g66
(dp646
sg75
g600
sg68
(lp647
g61
(g82
g63
NtRp648
(dp649
g66
(dp650
g86
g87
ssg75
g644
sg68
(lp651
g317
asbag61
(g82
g63
NtRp652
(dp653
g66
(dp654
g93
g94
ssg75
g644
sg68
(lp655
S':'
asbag61
(g82
g63
NtRp656
(dp657
g66
(dp658
sg75
g644
sg68
(lp659
g61
(g62
g63
NtRp660
(dp661
g66
(dp662
g74
I3
ssg75
g656
sg68
(lp663
S''
asbasbasbag61
(g77
g63
NtRp664
(dp665
g66
(dp666
sg75
g600
sg68
(lp667
g61
(g82
g63
NtRp668
(dp669
g66
(dp670
g86
g87
ssg75
g664
sg68
(lp671
g338
asbag61
(g82
g63
NtRp672
(dp673
g66
(dp674
g93
g94
ssg75
g664
sg68
(lp675
S':'
asbag61
(g82
g63
NtRp676
(dp677
g66
(dp678
sg75
g664
sg68
(lp679
g61
(g62
g63
NtRp680
(dp681
g66
(dp682
g74
I3
ssg75
g676
sg68
(lp683
S''
asbasbasbag61
(g77
g63
NtRp684
(dp685
g66
(dp686
sg75
g600
sg68
(lp687
g61
(g82
g63
NtRp688
(dp689
g66
(dp690
g86
g87
ssg75
g684
sg68
(lp691
g359
asbag61
(g82
g63
NtRp692
(dp693
g66
(dp694
g93
g94
ssg75
g684
sg68
(lp695
S':'
asbag61
(g82
g63
NtRp696
(dp697
g66
(dp698
sg75
g684
sg68
(lp699
g61
(g62
g63
NtRp700
(dp701
g66
(dp702
g74
I3
ssg75
g696
sg68
(lp703
S''
asbasbasbag61
(g77
g63
NtRp704
(dp705
g66
(dp706
sg75
g600
sg68
(lp707
g61
(g82
g63
NtRp708
(dp709
g66
(dp710
g86
g87
ssg75
g704
sg68
(lp711
g380
asbag61
(g82
g63
NtRp712
(dp713
g66
(dp714
g93
g94
ssg75
g704
sg68
(lp715
S':'
asbag61
(g82
g63
NtRp716
(dp717
g66
(dp718
sg75
g704
sg68
(lp719
g61
(g62
g63
NtRp720
(dp721
g66
(dp722
g74
I3
ssg75
g716
sg68
(lp723
S''
asbasbasbag61
(g77
g63
NtRp724
(dp725
g66
(dp726
sg75
g600
sg68
(lp727
g61
(g82
g63
NtRp728
(dp729
g66
(dp730
g86
g87
ssg75
g724
sg68
(lp731
g401
asbag61
(g82
g63
NtRp732
(dp733
g66
(dp734
g93
g94
ssg75
g724
sg68
(lp735
S':'
asbag61
(g82
g63
NtRp736
(dp737
g66
(dp738
sg75
g724
sg68
(lp739
g61
(g62
g63
NtRp740
(dp741
g66
(dp742
g74
I3
ssg75
g736
sg68
(lp743
S''
asbasbasbasbasbasbasbag61
(g77
g63
NtRp744
(dp745
g66
(dp746
sg75
g238
sg68
(lp747
g61
(g82
g63
NtRp748
(dp749
g66
(dp750
g86
g87
ssg75
g744
sg68
(lp751
S'session_id_cms'
p752
asbag61
(g82
g63
NtRp753
(dp754
g66
(dp755
g93
g94
ssg75
g744
sg68
(lp756
S':'
asbag61
(g82
g63
NtRp757
(dp758
g66
(dp759
sg75
g744
sg68
(lp760
g61
(g62
g63
NtRp761
(dp762
g66
(dp763
g74
I4
ssg75
g757
sg68
(lp764
g61
(g70
g63
NtRp765
(dp766
g66
(dp767
g74
I3
ssg75
Nsg68
(lp768
g61
(g77
g63
NtRp769
(dp770
g66
(dp771
sg75
g765
sg68
(lp772
g61
(g82
g63
NtRp773
(dp774
g66
(dp775
g86
g87
ssg75
g769
sg68
(lp776
g275
asbag61
(g82
g63
NtRp777
(dp778
g66
(dp779
g93
g94
ssg75
g769
sg68
(lp780
S':'
asbag61
(g82
g63
NtRp781
(dp782
g66
(dp783
sg75
g769
sg68
(lp784
g61
(g62
g63
NtRp785
(dp786
g66
(dp787
g74
I3
ssg75
g781
sg68
(lp788
S''
asbasbasbag61
(g77
g63
NtRp789
(dp790
g66
(dp791
sg75
g765
sg68
(lp792
g61
(g82
g63
NtRp793
(dp794
g66
(dp795
g86
g87
ssg75
g789
sg68
(lp796
g296
asbag61
(g82
g63
NtRp797
(dp798
g66
(dp799
g93
g94
ssg75
g789
sg68
(lp800
S':'
asbag61
(g82
g63
NtRp801
(dp802
g66
(dp803
sg75
g789
sg68
(lp804
g61
(g62
g63
NtRp805
(dp806
g66
(dp807
g74
I3
ssg75
g801
sg68
(lp808
S''
asbasbasbag61
(g77
g63
NtRp809
(dp810
g66
(dp811
sg75
g765
sg68
(lp812
g61
(g82
g63
NtRp813
(dp814
g66
(dp815
g86
g87
ssg75
g809
sg68
(lp816
g317
asbag61
(g82
g63
NtRp817
(dp818
g66
(dp819
g93
g94
ssg75
g809
sg68
(lp820
S':'
asbag61
(g82
g63
NtRp821
(dp822
g66
(dp823
sg75
g809
sg68
(lp824
g61
(g62
g63
NtRp825
(dp826
g66
(dp827
g74
I3
ssg75
g821
sg68
(lp828
S''
asbasbasbag61
(g77
g63
NtRp829
(dp830
g66
(dp831
sg75
g765
sg68
(lp832
g61
(g82
g63
NtRp833
(dp834
g66
(dp835
g86
g87
ssg75
g829
sg68
(lp836
g338
asbag61
(g82
g63
NtRp837
(dp838
g66
(dp839
g93
g94
ssg75
g829
sg68
(lp840
S':'
asbag61
(g82
g63
NtRp841
(dp842
g66
(dp843
sg75
g829
sg68
(lp844
g61
(g62
g63
NtRp845
(dp846
g66
(dp847
g74
I3
ssg75
g841
sg68
(lp848
S''
asbasbasbag61
(g77
g63
NtRp849
(dp850
g66
(dp851
sg75
g765
sg68
(lp852
g61
(g82
g63
NtRp853
(dp854
g66
(dp855
g86
g87
ssg75
g849
sg68
(lp856
g359
asbag61
(g82
g63
NtRp857
(dp858
g66
(dp859
g93
g94
ssg75
g849
sg68
(lp860
S':'
asbag61
(g82
g63
NtRp861
(dp862
g66
(dp863
sg75
g849
sg68
(lp864
g61
(g62
g63
NtRp865
(dp866
g66
(dp867
g74
I3
ssg75
g861
sg68
(lp868
S''
asbasbasbag61
(g77
g63
NtRp869
(dp870
g66
(dp871
sg75
g765
sg68
(lp872
g61
(g82
g63
NtRp873
(dp874
g66
(dp875
g86
g87
ssg75
g869
sg68
(lp876
g380
asbag61
(g82
g63
NtRp877
(dp878
g66
(dp879
g93
g94
ssg75
g869
sg68
(lp880
S':'
asbag61
(g82
g63
NtRp881
(dp882
g66
(dp883
sg75
g869
sg68
(lp884
g61
(g62
g63
NtRp885
(dp886
g66
(dp887
g74
I3
ssg75
g881
sg68
(lp888
S''
asbasbasbag61
(g77
g63
NtRp889
(dp890
g66
(dp891
sg75
g765
sg68
(lp892
g61
(g82
g63
NtRp893
(dp894
g66
(dp895
g86
g87
ssg75
g889
sg68
(lp896
g401
asbag61
(g82
g63
NtRp897
(dp898
g66
(dp899
g93
g94
ssg75
g889
sg68
(lp900
S':'
asbag61
(g82
g63
NtRp901
(dp902
g66
(dp903
sg75
g889
sg68
(lp904
g61
(g62
g63
NtRp905
(dp906
g66
(dp907
g74
I3
ssg75
g901
sg68
(lp908
S''
asbasbasbasbasbasbasbag61
(g77
g63
NtRp909
(dp910
g66
(dp911
sg75
g238
sg68
(lp912
g61
(g82
g63
NtRp913
(dp914
g66
(dp915
g86
g87
ssg75
g909
sg68
(lp916
S'session_id_inplace'
p917
asbag61
(g82
g63
NtRp918
(dp919
g66
(dp920
g93
g94
ssg75
g909
sg68
(lp921
S':'
asbag61
(g82
g63
NtRp922
(dp923
g66
(dp924
sg75
g909
sg68
(lp925
g61
(g62
g63
NtRp926
(dp927
g66
(dp928
g74
I4
ssg75
g922
sg68
(lp929
g61
(g70
g63
NtRp930
(dp931
g66
(dp932
g74
I3
ssg75
Nsg68
(lp933
g61
(g77
g63
NtRp934
(dp935
g66
(dp936
sg75
g930
sg68
(lp937
g61
(g82
g63
NtRp938
(dp939
g66
(dp940
g86
g87
ssg75
g934
sg68
(lp941
g275
asbag61
(g82
g63
NtRp942
(dp943
g66
(dp944
g93
g94
ssg75
g934
sg68
(lp945
S':'
asbag61
(g82
g63
NtRp946
(dp947
g66
(dp948
sg75
g934
sg68
(lp949
g61
(g62
g63
NtRp950
(dp951
g66
(dp952
g74
I3
ssg75
g946
sg68
(lp953
S''
asbasbasbag61
(g77
g63
NtRp954
(dp955
g66
(dp956
sg75
g930
sg68
(lp957
g61
(g82
g63
NtRp958
(dp959
g66
(dp960
g86
g87
ssg75
g954
sg68
(lp961
g296
asbag61
(g82
g63
NtRp962
(dp963
g66
(dp964
g93
g94
ssg75
g954
sg68
(lp965
S':'
asbag61
(g82
g63
NtRp966
(dp967
g66
(dp968
sg75
g954
sg68
(lp969
g61
(g62
g63
NtRp970
(dp971
g66
(dp972
g74
I3
ssg75
g966
sg68
(lp973
S''
asbasbasbag61
(g77
g63
NtRp974
(dp975
g66
(dp976
sg75
g930
sg68
(lp977
g61
(g82
g63
NtRp978
(dp979
g66
(dp980
g86
g87
ssg75
g974
sg68
(lp981
g317
asbag61
(g82
g63
NtRp982
(dp983
g66
(dp984
g93
g94
ssg75
g974
sg68
(lp985
S':'
asbag61
(g82
g63
NtRp986
(dp987
g66
(dp988
sg75
g974
sg68
(lp989
g61
(g62
g63
NtRp990
(dp991
g66
(dp992
g74
I3
ssg75
g986
sg68
(lp993
S''
asbasbasbag61
(g77
g63
NtRp994
(dp995
g66
(dp996
sg75
g930
sg68
(lp997
g61
(g82
g63
NtRp998
(dp999
g66
(dp1000
g86
g87
ssg75
g994
sg68
(lp1001
g338
asbag61
(g82
g63
NtRp1002
(dp1003
g66
(dp1004
g93
g94
ssg75
g994
sg68
(lp1005
S':'
asbag61
(g82
g63
NtRp1006
(dp1007
g66
(dp1008
sg75
g994
sg68
(lp1009
g61
(g62
g63
NtRp1010
(dp1011
g66
(dp1012
g74
I3
ssg75
g1006
sg68
(lp1013
S''
asbasbasbag61
(g77
g63
NtRp1014
(dp1015
g66
(dp1016
sg75
g930
sg68
(lp1017
g61
(g82
g63
NtRp1018
(dp1019
g66
(dp1020
g86
g87
ssg75
g1014
sg68
(lp1021
g359
asbag61
(g82
g63
NtRp1022
(dp1023
g66
(dp1024
g93
g94
ssg75
g1014
sg68
(lp1025
S':'
asbag61
(g82
g63
NtRp1026
(dp1027
g66
(dp1028
sg75
g1014
sg68
(lp1029
g61
(g62
g63
NtRp1030
(dp1031
g66
(dp1032
g74
I3
ssg75
g1026
sg68
(lp1033
S''
asbasbasbag61
(g77
g63
NtRp1034
(dp1035
g66
(dp1036
sg75
g930
sg68
(lp1037
g61
(g82
g63
NtRp1038
(dp1039
g66
(dp1040
g86
g87
ssg75
g1034
sg68
(lp1041
g380
asbag61
(g82
g63
NtRp1042
(dp1043
g66
(dp1044
g93
g94
ssg75
g1034
sg68
(lp1045
S':'
asbag61
(g82
g63
NtRp1046
(dp1047
g66
(dp1048
sg75
g1034
sg68
(lp1049
g61
(g62
g63
NtRp1050
(dp1051
g66
(dp1052
g74
I3
ssg75
g1046
sg68
(lp1053
S''
asbasbasbag61
(g77
g63
NtRp1054
(dp1055
g66
(dp1056
sg75
g930
sg68
(lp1057
g61
(g82
g63
NtRp1058
(dp1059
g66
(dp1060
g86
g87
ssg75
g1054
sg68
(lp1061
g401
asbag61
(g82
g63
NtRp1062
(dp1063
g66
(dp1064
g93
g94
ssg75
g1054
sg68
(lp1065
S':'
asbag61
(g82
g63
NtRp1066
(dp1067
g66
(dp1068
sg75
g1054
sg68
(lp1069
g61
(g62
g63
NtRp1070
(dp1071
g66
(dp1072
g74
I3
ssg75
g1066
sg68
(lp1073
S''
asbasbasbasbasbasbasbasbasbasbasbag61
(g77
g63
NtRp1074
(dp1075
g66
(dp1076
sg75
g71
sg68
(lp1077
g61
(g82
g63
NtRp1078
(dp1079
g66
(dp1080
g86
g87
ssg75
g1074
sg68
(lp1081
S'env'
p1082
asbag61
(g82
g63
NtRp1083
(dp1084
g66
(dp1085
g93
g94
ssg75
g1074
sg68
(lp1086
S':'
asbag61
(g82
g63
NtRp1087
(dp1088
g66
(dp1089
sg75
g1074
sg68
(lp1090
g61
(g62
g63
NtRp1091
(dp1092
g66
(dp1093
g74
I5
ssg75
g1087
sg68
(lp1094
g61
(g70
g63
NtRp1095
(dp1096
g66
(dp1097
g74
I4
ssg75
Nsg68
(lp1098
g61
(g77
g63
NtRp1099
(dp1100
g66
(dp1101
sg75
g1095
sg68
(lp1102
g61
(g82
g63
NtRp1103
(dp1104
g66
(dp1105
g86
g87
ssg75
g1099
sg68
(lp1106
S'app_folders'
p1107
asbag61
(g82
g63
NtRp1108
(dp1109
g66
(dp1110
g93
g94
ssg75
g1099
sg68
(lp1111
S':'
asbag61
(g82
g63
NtRp1112
(dp1113
g66
(dp1114
sg75
g1099
sg68
(lp1115
g61
(g62
g63
NtRp1116
(dp1117
g66
(dp1118
g74
I4
ssg75
g1112
sg68
(lp1119
S"set(['/Users/mdipierro/Dropbox/web2py/applications/inplace/', '/Users/mdipierro/Dropbox/web2py/applications/cms/'])"
p1120
asbasbasbag61
(g77
g63
NtRp1121
(dp1122
g66
(dp1123
sg75
g1095
sg68
(lp1124
g61
(g82
g63
NtRp1125
(dp1126
g66
(dp1127
g86
g87
ssg75
g1121
sg68
(lp1128
S'applications_parent'
p1129
asbag61
(g82
g63
NtRp1130
(dp1131
g66
(dp1132
g93
g94
ssg75
g1121
sg68
(lp1133
S':'
asbag61
(g82
g63
NtRp1134
(dp1135
g66
(dp1136
sg75
g1121
sg68
(lp1137
g61
(g62
g63
NtRp1138
(dp1139
g66
(dp1140
g74
I4
ssg75
g1134
sg68
(lp1141
S'/Users/mdipierro/Dropbox/web2py'
p1142
asbasbasbag61
(g77
g63
NtRp1143
(dp1144
g66
(dp1145
sg75
g1095
sg68
(lp1146
g61
(g82
g63
NtRp1147
(dp1148
g66
(dp1149
g86
g87
ssg75
g1143
sg68
(lp1150
S'cmd_args'
p1151
asbag61
(g82
g63
NtRp1152
(dp1153
g66
(dp1154
g93
g94
ssg75
g1143
sg68
(lp1155
S':'
asbag61
(g82
g63
NtRp1156
(dp1157
g66
(dp1158
sg75
g1143
sg68
(lp1159
g61
(g62
g63
NtRp1160
(dp1161
g66
(dp1162
g74
I4
ssg75
g1156
sg68
(lp1163
g61
(g70
g63
NtRp1164
(dp1165
g66
(dp1166
g74
I3
ssg75
Nsg68
(lp1167
sbasbasbasbag61
(g77
g63
NtRp1168
(dp1169
g66
(dp1170
sg75
g1095
sg68
(lp1171
g61
(g82
g63
NtRp1172
(dp1173
g66
(dp1174
g86
g87
ssg75
g1168
sg68
(lp1175
S'cmd_options'
p1176
asbag61
(g82
g63
NtRp1177
(dp1178
g66
(dp1179
g93
g94
ssg75
g1168
sg68
(lp1180
S':'
asbag61
(g82
g63
NtRp1181
(dp1182
g66
(dp1183
sg75
g1168
sg68
(lp1184
g61
(g62
g63
NtRp1185
(dp1186
g66
(dp1187
g74
I4
ssg75
g1181
sg68
(lp1188
S"<Values at 0x153a378: {'verbose': False, 'ip': '127.0.0.1', 'shutdown_timeout': 5, 'taskbar': False, 'nocron': False, 'pid_filename': 'httpserver.pid', 'maxthreads': None, 'softcron': False, 'server_name': 'massimo-di-pierros-macbook-2.local', 'bpython': False, 'nogui': False, 'port': 8000, 'extcron': False, 'debuglevel': 30, 'test': None, 'folder': '/Users/mdipierro/Dropbox/web2py', 'config': '', 'import_models': False, 'winservice': '', 'shell': None, 'run': '', 'log_filename': 'httpserver.log', 'args': [''], 'socket_timeout': 1, 'ssl_ca_certificate': None, 'scheduler': None, 'profiler_filename': None, 'ssl_private_key': '', 'password': 'hello', 'request_queue_size': 5, 'ssl_certificate': '', 'cronjob': False, 'numthreads': None, 'quiet': False, 'interfaces': None, 'minthreads': None, 'timeout': 10, 'plain': False, 'nobanner': False}>"
p1189
asbasbasbag61
(g77
g63
NtRp1190
(dp1191
g66
(dp1192
sg75
g1095
sg68
(lp1193
g61
(g82
g63
NtRp1194
(dp1195
g66
(dp1196
g86
g87
ssg75
g1190
sg68
(lp1197
S'content_length'
p1198
asbag61
(g82
g63
NtRp1199
(dp1200
g66
(dp1201
g93
g94
ssg75
g1190
sg68
(lp1202
S':'
asbag61
(g82
g63
NtRp1203
(dp1204
g66
(dp1205
sg75
g1190
sg68
(lp1206
g61
(g62
g63
NtRp1207
(dp1208
g66
(dp1209
g74
I4
ssg75
g1203
sg68
(lp1210
S'393'
p1211
asbasbasbag61
(g77
g63
NtRp1212
(dp1213
g66
(dp1214
sg75
g1095
sg68
(lp1215
g61
(g82
g63
NtRp1216
(dp1217
g66
(dp1218
g86
g87
ssg75
g1212
sg68
(lp1219
S'content_type'
p1220
asbag61
(g82
g63
NtRp1221
(dp1222
g66
(dp1223
g93
g94
ssg75
g1212
sg68
(lp1224
S':'
asbag61
(g82
g63
NtRp1225
(dp1226
g66
(dp1227
sg75
g1212
sg68
(lp1228
g61
(g62
g63
NtRp1229
(dp1230
g66
(dp1231
g74
I4
ssg75
g1225
sg68
(lp1232
S'multipart/form-data; boundary=----WebKitFormBoundaryvXPyjfZ0wrX5DL22'
p1233
asbasbasbag61
(g77
g63
NtRp1234
(dp1235
g66
(dp1236
sg75
g1095
sg68
(lp1237
g61
(g82
g63
NtRp1238
(dp1239
g66
(dp1240
g86
g87
ssg75
g1234
sg68
(lp1241
S'db_sessions'
p1242
asbag61
(g82
g63
NtRp1243
(dp1244
g66
(dp1245
g93
g94
ssg75
g1234
sg68
(lp1246
S':'
asbag61
(g82
g63
NtRp1247
(dp1248
g66
(dp1249
sg75
g1234
sg68
(lp1250
g61
(g62
g63
NtRp1251
(dp1252
g66
(dp1253
g74
I4
ssg75
g1247
sg68
(lp1254
S'set([])'
p1255
asbasbasbag61
(g77
g63
NtRp1256
(dp1257
g66
(dp1258
sg75
g1095
sg68
(lp1259
g61
(g82
g63
NtRp1260
(dp1261
g66
(dp1262
g86
g87
ssg75
g1256
sg68
(lp1263
S'debugging'
p1264
asbag61
(g82
g63
NtRp1265
(dp1266
g66
(dp1267
g93
g94
ssg75
g1256
sg68
(lp1268
S':'
asbag61
(g82
g63
NtRp1269
(dp1270
g66
(dp1271
sg75
g1256
sg68
(lp1272
g61
(g62
g63
NtRp1273
(dp1274
g66
(dp1275
g74
I4
ssg75
g1269
sg68
(lp1276
g104
asbasbasbag61
(g77
g63
NtRp1277
(dp1278
g66
(dp1279
sg75
g1095
sg68
(lp1280
g61
(g82
g63
NtRp1281
(dp1282
g66
(dp1283
g86
g87
ssg75
g1277
sg68
(lp1284
S'gluon_parent'
p1285
asbag61
(g82
g63
NtRp1286
(dp1287
g66
(dp1288
g93
g94
ssg75
g1277
sg68
(lp1289
S':'
asbag61
(g82
g63
NtRp1290
(dp1291
g66
(dp1292
sg75
g1277
sg68
(lp1293
g61
(g62
g63
NtRp1294
(dp1295
g66
(dp1296
g74
I4
ssg75
g1290
sg68
(lp1297
S'/Users/mdipierro/Dropbox/web2py'
p1298
asbasbasbag61
(g77
g63
NtRp1299
(dp1300
g66
(dp1301
sg75
g1095
sg68
(lp1302
g61
(g82
g63
NtRp1303
(dp1304
g66
(dp1305
g86
g87
ssg75
g1299
sg68
(lp1306
S'http_accept'
p1307
asbag61
(g82
g63
NtRp1308
(dp1309
g66
(dp1310
g93
g94
ssg75
g1299
sg68
(lp1311
S':'
asbag61
(g82
g63
NtRp1312
(dp1313
g66
(dp1314
sg75
g1299
sg68
(lp1315
g61
(g62
g63
NtRp1316
(dp1317
g66
(dp1318
g74
I4
ssg75
g1312
sg68
(lp1319
S'text/html,application/xhtml+xml,application/xml;q=0.9,*/*;q=0.8'
p1320
asbasbasbag61
(g77
g63
NtRp1321
(dp1322
g66
(dp1323
sg75
g1095
sg68
(lp1324
g61
(g82
g63
NtRp1325
(dp1326
g66
(dp1327
g86
g87
ssg75
g1321
sg68
(lp1328
S'http_accept_charset'
p1329
asbag61
(g82
g63
NtRp1330
(dp1331
g66
(dp1332
g93
g94
ssg75
g1321
sg68
(lp1333
S':'
asbag61
(g82
g63
NtRp1334
(dp1335
g66
(dp1336
sg75
g1321
sg68
(lp1337
g61
(g62
g63
NtRp1338
(dp1339
g66
(dp1340
g74
I4
ssg75
g1334
sg68
(lp1341
S'ISO-8859-1,utf-8;q=0.7,*;q=0.3'
p1342
asbasbasbag61
(g77
g63
NtRp1343
(dp1344
g66
(dp1345
sg75
g1095
sg68
(lp1346
g61
(g82
g63
NtRp1347
(dp1348
g66
(dp1349
g86
g87
ssg75
g1343
sg68
(lp1350
S'http_accept_encoding'
p1351
asbag61
(g82
g63
NtRp1352
(dp1353
g66
(dp1354
g93
g94
ssg75
g1343
sg68
(lp1355
S':'
asbag61
(g82
g63
NtRp1356
(dp1357
g66
(dp1358
sg75
g1343
sg68
(lp1359
g61
(g62
g63
NtRp1360
(dp1361
g66
(dp1362
g74
I4
ssg75
g1356
sg68
(lp1363
S'gzip,deflate,sdch'
p1364
asbasbasbag61
(g77
g63
NtRp1365
(dp1366
g66
(dp1367
sg75
g1095
sg68
(lp1368
g61
(g82
g63
NtRp1369
(dp1370
g66
(dp1371
g86
g87
ssg75
g1365
sg68
(lp1372
S'http_accept_language'
p1373
asbag61
(g82
g63
NtRp1374
(dp1375
g66
(dp1376
g93
g94
ssg75
g1365
sg68
(lp1377
S':'
asbag61
(g82
g63
NtRp1378
(dp1379
g66
(dp1380
sg75
g1365
sg68
(lp1381
g61
(g62
g63
NtRp1382
(dp1383
g66
(dp1384
g74
I4
ssg75
g1378
sg68
(lp1385
S'en,en-US;q=0.8,de-DE;q=0.6,de;q=0.4,it-IT;q=0.2,it;q=0.2,ja;q=0.2'
p1386
asbasbasbag61
(g77
g63
NtRp1387
(dp1388
g66
(dp1389
sg75
g1095
sg68
(lp1390
g61
(g82
g63
NtRp1391
(dp1392
g66
(dp1393
g86
g87
ssg75
g1387
sg68
(lp1394
S'http_cache_control'
p1395
asbag61
(g82
g63
NtRp1396
(dp1397
g66
(dp1398
g93
g94
ssg75
g1387
sg68
(lp1399
S':'
asbag61
(g82
g63
NtRp1400
(dp1401
g66
(dp1402
sg75
g1387
sg68
(lp1403
g61
(g62
g63
NtRp1404
(dp1405
g66
(dp1406
g74
I4
ssg75
g1400
sg68
(lp1407
S'max-age=0'
p1408
asbasbasbag61
(g77
g63
NtRp1409
(dp1410
g66
(dp1411
sg75
g1095
sg68
(lp1412
g61
(g82
g63
NtRp1413
(dp1414
g66
(dp1415
g86
g87
ssg75
g1409
sg68
(lp1416
S'http_connection'
p1417
asbag61
(g82
g63
NtRp1418
(dp1419
g66
(dp1420
g93
g94
ssg75
g1409
sg68
(lp1421
S':'
asbag61
(g82
g63
NtRp1422
(dp1423
g66
(dp1424
sg75
g1409
sg68
(lp1425
g61
(g62
g63
NtRp1426
(dp1427
g66
(dp1428
g74
I4
ssg75
g1422
sg68
(lp1429
S'keep-alive'
p1430
asbasbasbag61
(g77
g63
NtRp1431
(dp1432
g66
(dp1433
sg75
g1095
sg68
(lp1434
g61
(g82
g63
NtRp1435
(dp1436
g66
(dp1437
g86
g87
ssg75
g1431
sg68
(lp1438
S'http_content_length'
p1439
asbag61
(g82
g63
NtRp1440
(dp1441
g66
(dp1442
g93
g94
ssg75
g1431
sg68
(lp1443
S':'
asbag61
(g82
g63
NtRp1444
(dp1445
g66
(dp1446
sg75
g1431
sg68
(lp1447
g61
(g62
g63
NtRp1448
(dp1449
g66
(dp1450
g74
I4
ssg75
g1444
sg68
(lp1451
g1211
asbasbasbag61
(g77
g63
NtRp1452
(dp1453
g66
(dp1454
sg75
g1095
sg68
(lp1455
g61
(g82
g63
NtRp1456
(dp1457
g66
(dp1458
g86
g87
ssg75
g1452
sg68
(lp1459
S'http_content_type'
p1460
asbag61
(g82
g63
NtRp1461
(dp1462
g66
(dp1463
g93
g94
ssg75
g1452
sg68
(lp1464
S':'
asbag61
(g82
g63
NtRp1465
(dp1466
g66
(dp1467
sg75
g1452
sg68
(lp1468
g61
(g62
g63
NtRp1469
(dp1470
g66
(dp1471
g74
I4
ssg75
g1465
sg68
(lp1472
g1233
asbasbasbag61
(g77
g63
NtRp1473
(dp1474
g66
(dp1475
sg75
g1095
sg68
(lp1476
g61
(g82
g63
NtRp1477
(dp1478
g66
(dp1479
g86
g87
ssg75
g1473
sg68
(lp1480
S'http_cookie'
p1481
asbag61
(g82
g63
NtRp1482
(dp1483
g66
(dp1484
g93
g94
ssg75
g1473
sg68
(lp1485
S':'
asbag61
(g82
g63
NtRp1486
(dp1487
g66
(dp1488
sg75
g1473
sg68
(lp1489
g61
(g62
g63
NtRp1490
(dp1491
g66
(dp1492
g74
I4
ssg75
g1486
sg68
(lp1493
S'registered=yes; __utma_a2a=1369166446.1335515545.1303958619.1316700181.1318215879.74; el-finder-last-finder=4f5a448a961f1931173928a6b6d9d4d2; s_nr=1323495907438-New; session_id_cms=127.0.0.1-baae0b06-518d-4c0c-aefc-25db674825fa; __utma=96992031.1452952453.1313221394.1320461924.1323495073.3; __utmb=96992031.23.10.1323495073; __utmc=96992031; __utmz=96992031.1313221394.1.1.utmcsr=(direct)|utmccn=(direct)|utmcmd=(none); session_id_inplace=127.0.0.1-b67af904-b8cf-469d-95b3-18285a004db1'
p1494
asbasbasbag61
(g77
g63
NtRp1495
(dp1496
g66
(dp1497
sg75
g1095
sg68
(lp1498
g61
(g82
g63
NtRp1499
(dp1500
g66
(dp1501
g86
g87
ssg75
g1495
sg68
(lp1502
S'http_host'
p1503
asbag61
(g82
g63
NtRp1504
(dp1505
g66
(dp1506
g93
g94
ssg75
g1495
sg68
(lp1507
S':'
asbag61
(g82
g63
NtRp1508
(dp1509
g66
(dp1510
sg75
g1495
sg68
(lp1511
g61
(g62
g63
NtRp1512
(dp1513
g66
(dp1514
g74
I4
ssg75
g1508
sg68
(lp1515
S'127.0.0.1:8000'
p1516
asbasbasbag61
(g77
g63
NtRp1517
(dp1518
g66
(dp1519
sg75
g1095
sg68
(lp1520
g61
(g82
g63
NtRp1521
(dp1522
g66
(dp1523
g86
g87
ssg75
g1517
sg68
(lp1524
S'http_origin'
p1525
asbag61
(g82
g63
NtRp1526
(dp1527
g66
(dp1528
g93
g94
ssg75
g1517
sg68
(lp1529
S':'
asbag61
(g82
g63
NtRp1530
(dp1531
g66
(dp1532
sg75
g1517
sg68
(lp1533
g61
(g62
g63
NtRp1534
(dp1535
g66
(dp1536
g74
I4
ssg75
g1530
sg68
(lp1537
S'http://127.0.0.1:8000'
p1538
asbasbasbag61
(g77
g63
NtRp1539
(dp1540
g66
(dp1541
sg75
g1095
sg68
(lp1542
g61
(g82
g63
NtRp1543
(dp1544
g66
(dp1545
g86
g87
ssg75
g1539
sg68
(lp1546
S'http_referer'
p1547
asbag61
(g82
g63
NtRp1548
(dp1549
g66
(dp1550
g93
g94
ssg75
g1539
sg68
(lp1551
S':'
asbag61
(g82
g63
NtRp1552
(dp1553
g66
(dp1554
sg75
g1539
sg68
(lp1555
g61
(g62
g63
NtRp1556
(dp1557
g66
(dp1558
g74
I4
ssg75
g1552
sg68
(lp1559
S'http://127.0.0.1:8000/inplace'
p1560
asbasbasbag61
(g77
g63
NtRp1561
(dp1562
g66
(dp1563
sg75
g1095
sg68
(lp1564
g61
(g82
g63
NtRp1565
(dp1566
g66
(dp1567
g86
g87
ssg75
g1561
sg68
(lp1568
S'http_user_agent'
p1569
asbag61
(g82
g63
NtRp1570
(dp1571
g66
(dp1572
g93
g94
ssg75
g1561
sg68
(lp1573
S':'
asbag61
(g82
g63
NtRp1574
(dp1575
g66
(dp1576
sg75
g1561
sg68
(lp1577
g61
(g62
g63
NtRp1578
(dp1579
g66
(dp1580
g74
I4
ssg75
g1574
sg68
(lp1581
S'Mozilla/5.0 (Macintosh; Intel Mac OS X 10_6_8) AppleWebKit/535.7 (KHTML, like Gecko) Chrome/16.0.912.63 Safari/535.7'
p1582
asbasbasbag61
(g77
g63
NtRp1583
(dp1584
g66
(dp1585
sg75
g1095
sg68
(lp1586
g61
(g82
g63
NtRp1587
(dp1588
g66
(dp1589
g86
g87
ssg75
g1583
sg68
(lp1590
S'is_jython'
p1591
asbag61
(g82
g63
NtRp1592
(dp1593
g66
(dp1594
g93
g94
ssg75
g1583
sg68
(lp1595
S':'
asbag61
(g82
g63
NtRp1596
(dp1597
g66
(dp1598
sg75
g1583
sg68
(lp1599
g61
(g62
g63
NtRp1600
(dp1601
g66
(dp1602
g74
I4
ssg75
g1596
sg68
(lp1603
g104
asbasbasbag61
(g77
g63
NtRp1604
(dp1605
g66
(dp1606
sg75
g1095
sg68
(lp1607
g61
(g82
g63
NtRp1608
(dp1609
g66
(dp1610
g86
g87
ssg75
g1604
sg68
(lp1611
S'is_pypy'
p1612
asbag61
(g82
g63
NtRp1613
(dp1614
g66
(dp1615
g93
g94
ssg75
g1604
sg68
(lp1616
S':'
asbag61
(g82
g63
NtRp1617
(dp1618
g66
(dp1619
sg75
g1604
sg68
(lp1620
g61
(g62
g63
NtRp1621
(dp1622
g66
(dp1623
g74
I4
ssg75
g1617
sg68
(lp1624
g104
asbasbasbag61
(g77
g63
NtRp1625
(dp1626
g66
(dp1627
sg75
g1095
sg68
(lp1628
g61
(g82
g63
NtRp1629
(dp1630
g66
(dp1631
g86
g87
ssg75
g1625
sg68
(lp1632
S'path_info'
p1633
asbag61
(g82
g63
NtRp1634
(dp1635
g66
(dp1636
g93
g94
ssg75
g1625
sg68
(lp1637
S':'
asbag61
(g82
g63
NtRp1638
(dp1639
g66
(dp1640
sg75
g1625
sg68
(lp1641
g61
(g62
g63
NtRp1642
(dp1643
g66
(dp1644
g74
I4
ssg75
g1638
sg68
(lp1645
S'/inplace'
p1646
asbasbasbag61
(g77
g63
NtRp1647
(dp1648
g66
(dp1649
sg75
g1095
sg68
(lp1650
g61
(g82
g63
NtRp1651
(dp1652
g66
(dp1653
g86
g87
ssg75
g1647
sg68
(lp1654
S'query_string'
p1655
asbag61
(g82
g63
NtRp1656
(dp1657
g66
(dp1658
g93
g94
ssg75
g1647
sg68
(lp1659
S':'
asbag61
(g82
g63
NtRp1660
(dp1661
g66
(dp1662
sg75
g1647
sg68
(lp1663
g61
(g62
g63
NtRp1664
(dp1665
g66
(dp1666
g74
I4
ssg75
g1660
sg68
(lp1667
S''
asbasbasbag61
(g77
g63
NtRp1668
(dp1669
g66
(dp1670
sg75
g1095
sg68
(lp1671
g61
(g82
g63
NtRp1672
(dp1673
g66
(dp1674
g86
g87
ssg75
g1668
sg68
(lp1675
S'remote_addr'
p1676
asbag61
(g82
g63
NtRp1677
(dp1678
g66
(dp1679
g93
g94
ssg75
g1668
sg68
(lp1680
S':'
asbag61
(g82
g63
NtRp1681
(dp1682
g66
(dp1683
sg75
g1668
sg68
(lp1684
g61
(g62
g63
NtRp1685
(dp1686
g66
(dp1687
g74
I4
ssg75
g1681
sg68
(lp1688
g194
asbasbasbag61
(g77
g63
NtRp1689
(dp1690
g66
(dp1691
sg75
g1095
sg68
(lp1692
g61
(g82
g63
NtRp1693
(dp1694
g66
(dp1695
g86
g87
ssg75
g1689
sg68
(lp1696
S'remote_port'
p1697
asbag61
(g82
g63
NtRp1698
(dp1699
g66
(dp1700
g93
g94
ssg75
g1689
sg68
(lp1701
S':'
asbag61
(g82
g63
NtRp1702
(dp1703
g66
(dp1704
sg75
g1689
sg68
(lp1705
g61
(g62
g63
NtRp1706
(dp1707
g66
(dp1708
g74
I4
ssg75
g1702
sg68
(lp1709
S'60138'
p1710
asbasbasbag61
(g77
g63
NtRp1711
(dp1712
g66
(dp1713
sg75
g1095
sg68
(lp1714
g61
(g82
g63
NtRp1715
(dp1716
g66
(dp1717
g86
g87
ssg75
g1711
sg68
(lp1718
S'request_method'
p1719
asbag61
(g82
g63
NtRp1720
(dp1721
g66
(dp1722
g93
g94
ssg75
g1711
sg68
(lp1723
S':'
asbag61
(g82
g63
NtRp1724
(dp1725
g66
(dp1726
sg75
g1711
sg68
(lp1727
g61
(g62
g63
NtRp1728
(dp1729
g66
(dp1730
g74
I4
ssg75
g1724
sg68
(lp1731
S'POST'
p1732
asbasbasbag61
(g77
g63
NtRp1733
(dp1734
g66
(dp1735
sg75
g1095
sg68
(lp1736
g61
(g82
g63
NtRp1737
(dp1738
g66
(dp1739
g86
g87
ssg75
g1733
sg68
(lp1740
S'script_name'
p1741
asbag61
(g82
g63
NtRp1742
(dp1743
g66
(dp1744
g93
g94
ssg75
g1733
sg68
(lp1745
S':'
asbag61
(g82
g63
NtRp1746
(dp1747
g66
(dp1748
sg75
g1733
sg68
(lp1749
g61
(g62
g63
NtRp1750
(dp1751
g66
(dp1752
g74
I4
ssg75
g1746
sg68
(lp1753
S''
asbasbasbag61
(g77
g63
NtRp1754
(dp1755
g66
(dp1756
sg75
g1095
sg68
(lp1757
g61
(g82
g63
NtRp1758
(dp1759
g66
(dp1760
g86
g87
ssg75
g1754
sg68
(lp1761
S'server_name'
p1762
asbag61
(g82
g63
NtRp1763
(dp1764
g66
(dp1765
g93
g94
ssg75
g1754
sg68
(lp1766
S':'
asbag61
(g82
g63
NtRp1767
(dp1768
g66
(dp1769
sg75
g1754
sg68
(lp1770
g61
(g62
g63
NtRp1771
(dp1772
g66
(dp1773
g74
I4
ssg75
g1767
sg68
(lp1774
S'massimo-di-pierros-macbook-2.local'
p1775
asbasbasbag61
(g77
g63
NtRp1776
(dp1777
g66
(dp1778
sg75
g1095
sg68
(lp1779
g61
(g82
g63
NtRp1780
(dp1781
g66
(dp1782
g86
g87
ssg75
g1776
sg68
(lp1783
S'server_port'
p1784
asbag61
(g82
g63
NtRp1785
(dp1786
g66
(dp1787
g93
g94
ssg75
g1776
sg68
(lp1788
S':'
asbag61
(g82
g63
NtRp1789
(dp1790
g66
(dp1791
sg75
g1776
sg68
(lp1792
g61
(g62
g63
NtRp1793
(dp1794
g66
(dp1795
g74
I4
ssg75
g1789
sg68
(lp1796
S'8000'
p1797
asbasbasbag61
(g77
g63
NtRp1798
(dp1799
g66
(dp1800
sg75
g1095
sg68
(lp1801
g61
(g82
g63
NtRp1802
(dp1803
g66
(dp1804
g86
g87
ssg75
g1798
sg68
(lp1805
S'server_protocol'
p1806
asbag61
(g82
g63
NtRp1807
(dp1808
g66
(dp1809
g93
g94
ssg75
g1798
sg68
(lp1810
S':'
asbag61
(g82
g63
NtRp1811
(dp1812
g66
(dp1813
sg75
g1798
sg68
(lp1814
g61
(g62
g63
NtRp1815
(dp1816
g66
(dp1817
g74
I4
ssg75
g1811
sg68
(lp1818
S'HTTP/1.1'
p1819
asbasbasbag61
(g77
g63
NtRp1820
(dp1821
g66
(dp1822
sg75
g1095
sg68
(lp1823
g61
(g82
g63
NtRp1824
(dp1825
g66
(dp1826
g86
g87
ssg75
g1820
sg68
(lp1827
S'server_software'
p1828
asbag61
(g82
g63
NtRp1829
(dp1830
g66
(dp1831
g93
g94
ssg75
g1820
sg68
(lp1832
S':'
asbag61
(g82
g63
NtRp1833
(dp1834
g66
(dp1835
sg75
g1820
sg68
(lp1836
g61
(g62
g63
NtRp1837
(dp1838
g66
(dp1839
g74
I4
ssg75
g1833
sg68
(lp1840
S'Rocket 1.2.4'
p1841
asbasbasbag61
(g77
g63
NtRp1842
(dp1843
g66
(dp1844
sg75
g1095
sg68
(lp1845
g61
(g82
g63
NtRp1846
(dp1847
g66
(dp1848
g86
g87
ssg75
g1842
sg68
(lp1849
S'web2py_crontype'
p1850
asbag61
(g82
g63
NtRp1851
(dp1852
g66
(dp1853
g93
g94
ssg75
g1842
sg68
(lp1854
S':'
asbag61
(g82
g63
NtRp1855
(dp1856
g66
(dp1857
sg75
g1842
sg68
(lp1858
g61
(g62
g63
NtRp1859
(dp1860
g66
(dp1861
g74
I4
ssg75
g1855
sg68
(lp1862
S'hard'
p1863
asbasbasbag61
(g77
g63
NtRp1864
(dp1865
g66
(dp1866
sg75
g1095
sg68
(lp1867
g61
(g82
g63
NtRp1868
(dp1869
g66
(dp1870
g86
g87
ssg75
g1864
sg68
(lp1871
S'web2py_path'
p1872
asbag61
(g82
g63
NtRp1873
(dp1874
g66
(dp1875
g93
g94
ssg75
g1864
sg68
(lp1876
S':'
asbag61
(g82
g63
NtRp1877
(dp1878
g66
(dp1879
sg75
g1864
sg68
(lp1880
g61
(g62
g63
NtRp1881
(dp1882
g66
(dp1883
g74
I4
ssg75
g1877
sg68
(lp1884
g1142
asbasbasbag61
(g77
g63
NtRp1885
(dp1886
g66
(dp1887
sg75
g1095
sg68
(lp1888
g61
(g82
g63
NtRp1889
(dp1890
g66
(dp1891
g86
g87
ssg75
g1885
sg68
(lp1892
S'web2py_version'
p1893
asbag61
(g82
g63
NtRp1894
(dp1895
g66
(dp1896
g93
g94
ssg75
g1885
sg68
(lp1897
S':'
asbag61
(g82
g63
NtRp1898
(dp1899
g66
(dp1900
sg75
g1885
sg68
(lp1901
g61
(g62
g63
NtRp1902
(dp1903
g66
(dp1904
g74
I4
ssg75
g1898
sg68
(lp1905
g61
(g70
g63
NtRp1906
(dp1907
g66
(dp1908
g74
I3
ssg75
Nsg68
(lp1909
g61
(g77
g63
NtRp1910
(dp1911
g66
(dp1912
sg75
g1906
sg68
(lp1913
g61
(g82
g63
NtRp1914
(dp1915
g66
(dp1916
sg75
g1910
sg68
(lp1917
g61
(g62
g63
NtRp1918
(dp1919
g66
(dp1920
g74
I3
ssg75
g1914
sg68
(lp1921
S'1'
asbasbasbag61
(g77
g63
NtRp1922
(dp1923
g66
(dp1924
sg75
g1906
sg68
(lp1925
g61
(g82
g63
NtRp1926
(dp1927
g66
(dp1928
sg75
g1922
sg68
(lp1929
g61
(g62
g63
NtRp1930
(dp1931
g66
(dp1932
g74
I3
ssg75
g1926
sg68
(lp1933
S'99'
p1934
asbasbasbag61
(g77
g63
NtRp1935
(dp1936
g66
(dp1937
sg75
g1906
sg68
(lp1938
g61
(g82
g63
NtRp1939
(dp1940
g66
(dp1941
sg75
g1935
sg68
(lp1942
g61
(g62
g63
NtRp1943
(dp1944
g66
(dp1945
g74
I3
ssg75
g1939
sg68
(lp1946
S'3'
asbasbasbag61
(g77
g63
NtRp1947
(dp1948
g66
(dp1949
sg75
g1906
sg68
(lp1950
g61
(g82
g63
NtRp1951
(dp1952
g66
(dp1953
sg75
g1947
sg68
(lp1954
g61
(g62
g63
NtRp1955
(dp1956
g66
(dp1957
g74
I3
ssg75
g1951
sg68
(lp1958
S'datetime.datetime(2011, 12, 9, 21, 5, 4)'
p1959
asbasbasbag61
(g77
g63
NtRp1960
(dp1961
g66
(dp1962
sg75
g1906
sg68
(lp1963
g61
(g82
g63
NtRp1964
(dp1965
g66
(dp1966
sg75
g1960
sg68
(lp1967
g61
(g62
g63
NtRp1968
(dp1969
g66
(dp1970
g74
I3
ssg75
g1964
sg68
(lp1971
S'stable'
p1972
asbasbasbasbasbasbasbag61
(g77
g63
NtRp1973
(dp1974
g66
(dp1975
sg75
g1095
sg68
(lp1976
g61
(g82
g63
NtRp1977
(dp1978
g66
(dp1979
g86
g87
ssg75
g1973
sg68
(lp1980
S'wsgi_errors'
p1981
asbag61
(g82
g63
NtRp1982
(dp1983
g66
(dp1984
g93
g94
ssg75
g1973
sg68
(lp1985
S':'
asbag61
(g82
g63
NtRp1986
(dp1987
g66
(dp1988
sg75
g1973
sg68
(lp1989
g61
(g62
g63
NtRp1990
(dp1991
g66
(dp1992
g74
I4
ssg75
g1986
sg68
(lp1993
S"<open file '<stderr>', mode 'w' at 0x1620b0>"
p1994
asbasbasbag61
(g77
g63
NtRp1995
(dp1996
g66
(dp1997
sg75
g1095
sg68
(lp1998
g61
(g82
g63
NtRp1999
(dp2000
g66
(dp2001
g86
g87
ssg75
g1995
sg68
(lp2002
S'wsgi_file_wrapper'
p2003
asbag61
(g82
g63
NtRp2004
(dp2005
g66
(dp2006
g93
g94
ssg75
g1995
sg68
(lp2007
S':'
asbag61
(g82
g63
NtRp2008
(dp2009
g66
(dp2010
sg75
g1995
sg68
(lp2011
g61
(g62
g63
NtRp2012
(dp2013
g66
(dp2014
g74
I4
ssg75
g2008
sg68
(lp2015
S'<class wsgiref.util.FileWrapper at 0x7c2840>'
p2016
asbasbasbag61
(g77
g63
NtRp2017
(dp2018
g66
(dp2019
sg75
g1095
sg68
(lp2020
g61
(g82
g63
NtRp2021
(dp2022
g66
(dp2023
g86
g87
ssg75
g2017
sg68
(lp2024
S'wsgi_input'
p2025
asbag61
(g82
g63
NtRp2026
(dp2027
g66
(dp2028
g93
g94
ssg75
g2017
sg68
(lp2029
S':'
asbag61
(g82
g63
NtRp2030
(dp2031
g66
(dp2032
sg75
g2017
sg68
(lp2033
g61
(g62
g63
NtRp2034
(dp2035
g66
(dp2036
g74
I4
ssg75
g2030
sg68
(lp2037
S'<socket._fileobject object at 0x112f8b0>'
p2038
asbasbasbag61
(g77
g63
NtRp2039
(dp2040
g66
(dp2041
sg75
g1095
sg68
(lp2042
g61
(g82
g63
NtRp2043
(dp2044
g66
(dp2045
g86
g87
ssg75
g2039
sg68
(lp2046
S'wsgi_multiprocess'
p2047
asbag61
(g82
g63
NtRp2048
(dp2049
g66
(dp2050
g93
g94
ssg75
g2039
sg68
(lp2051
S':'
asbag61
(g82
g63
NtRp2052
(dp2053
g66
(dp2054
sg75
g2039
sg68
(lp2055
g61
(g62
g63
NtRp2056
(dp2057
g66
(dp2058
g74
I4
ssg75
g2052
sg68
(lp2059
g104
asbasbasbag61
(g77
g63
NtRp2060
(dp2061
g66
(dp2062
sg75
g1095
sg68
(lp2063
g61
(g82
g63
NtRp2064
(dp2065
g66
(dp2066
g86
g87
ssg75
g2060
sg68
(lp2067
S'wsgi_multithread'
p2068
asbag61
(g82
g63
NtRp2069
(dp2070
g66
(dp2071
g93
g94
ssg75
g2060
sg68
(lp2072
S':'
asbag61
(g82
g63
NtRp2073
(dp2074
g66
(dp2075
sg75
g2060
sg68
(lp2076
g61
(g62
g63
NtRp2077
(dp2078
g66
(dp2079
g74
I4
ssg75
g2073
sg68
(lp2080
S'True'
p2081
asbasbasbag61
(g77
g63
NtRp2082
(dp2083
g66
(dp2084
sg75
g1095
sg68
(lp2085
g61
(g82
g63
NtRp2086
(dp2087
g66
(dp2088
g86
g87
ssg75
g2082
sg68
(lp2089
S'wsgi_run_once'
p2090
asbag61
(g82
g63
NtRp2091
(dp2092
g66
(dp2093
g93
g94
ssg75
g2082
sg68
(lp2094
S':'
asbag61
(g82
g63
NtRp2095
(dp2096
g66
(dp2097
sg75
g2082
sg68
(lp2098
g61
(g62
g63
NtRp2099
(dp2100
g66
(dp2101
g74
I4
ssg75
g2095
sg68
(lp2102
g104
asbasbasbag61
(g77
g63
NtRp2103
(dp2104
g66
(dp2105
sg75
g1095
sg68
(lp2106
g61
(g82
g63
NtRp2107
(dp2108
g66
(dp2109
g86
g87
ssg75
g2103
sg68
(lp2110
S'wsgi_url_scheme'
p2111
asbag61
(g82
g63
NtRp2112
(dp2113
g66
(dp2114
g93
g94
ssg75
g2103
sg68
(lp2115
S':'
asbag61
(g82
g63
NtRp2116
(dp2117
g66
(dp2118
sg75
g2103
sg68
(lp2119
g61
(g62
g63
NtRp2120
(dp2121
g66
(dp2122
g74
I4
ssg75
g2116
sg68
(lp2123
S'http'
p2124
asbasbasbag61
(g77
g63
NtRp2125
(dp2126
g66
(dp2127
sg75
g1095
sg68
(lp2128
g61
(g82
g63
NtRp2129
(dp2130
g66
(dp2131
g86
g87
ssg75
g2125
sg68
(lp2132
S'wsgi_version'
p2133
asbag61
(g82
g63
NtRp2134
(dp2135
g66
(dp2136
g93
g94
ssg75
g2125
sg68
(lp2137
S':'
asbag61
(g82
g63
NtRp2138
(dp2139
g66
(dp2140
sg75
g2125
sg68
(lp2141
g61
(g62
g63
NtRp2142
(dp2143
g66
(dp2144
g74
I4
ssg75
g2138
sg68
(lp2145
g61
(g70
g63
NtRp2146
(dp2147
g66
(dp2148
g74
I3
ssg75
Nsg68
(lp2149
g61
(g77
g63
NtRp2150
(dp2151
g66
(dp2152
sg75
g2146
sg68
(lp2153
g61
(g82
g63
NtRp2154
(dp2155
g66
(dp2156
sg75
g2150
sg68
(lp2157
g61
(g62
g63
NtRp2158
(dp2159
g66
(dp2160
g74
I3
ssg75
g2154
sg68
(lp2161
S'1'
asbasbasbag61
(g77
g63
NtRp2162
(dp2163
g66
(dp2164
sg75
g2146
sg68
(lp2165
g61
(g82
g63
NtRp2166
(dp2167
g66
(dp2168
sg75
g2162
sg68
(lp2169
g61
(g62
g63
NtRp2170
(dp2171
g66
(dp2172
g74
I3
ssg75
g2166
sg68
(lp2173
S'0'
asbasbasbasbasbasbasbasbasbasbasbag61
(g77
g63
NtRp2174
(dp2175
g66
(dp2176
sg75
g71
sg68
(lp2177
g61
(g82
g63
NtRp2178
(dp2179
g66
(dp2180
g86
g87
ssg75
g2174
sg68
(lp2181
S'extension'
p2182
asbag61
(g82
g63
NtRp2183
(dp2184
g66
(dp2185
g93
g94
ssg75
g2174
sg68
(lp2186
S':'
asbag61
(g82
g63
NtRp2187
(dp2188
g66
(dp2189
sg75
g2174
sg68
(lp2190
g61
(g62
g63
NtRp2191
(dp2192
g66
(dp2193
g74
I5
ssg75
g2187
sg68
(lp2194
S'html'
p2195
asbasbasbag61
(g77
g63
NtRp2196
(dp2197
g66
(dp2198
sg75
g71
sg68
(lp2199
g61
(g82
g63
NtRp2200
(dp2201
g66
(dp2202
g86
g87
ssg75
g2196
sg68
(lp2203
S'folder'
p2204
asbag61
(g82
g63
NtRp2205
(dp2206
g66
(dp2207
g93
g94
ssg75
g2196
sg68
(lp2208
S':'
asbag61
(g82
g63
NtRp2209
(dp2210
g66
(dp2211
sg75
g2196
sg68
(lp2212
g61
(g62
g63
NtRp2213
(dp2214
g66
(dp2215
g74
I5
ssg75
g2209
sg68
(lp2216
S'/Users/mdipierro/Dropbox/web2py/applications/inplace/'
p2217
asbasbasbag61
(g77
g63
NtRp2218
(dp2219
g66
(dp2220
sg75
g71
sg68
(lp2221
g61
(g82
g63
NtRp2222
(dp2223
g66
(dp2224
g86
g87
ssg75
g2218
sg68
(lp2225
S'function'
p2226
asbag61
(g82
g63
NtRp2227
(dp2228
g66
(dp2229
g93
g94
ssg75
g2218
sg68
(lp2230
S':'
asbag61
(g82
g63
NtRp2231
(dp2232
g66
(dp2233
sg75
g2218
sg68
(lp2234
g61
(g62
g63
NtRp2235
(dp2236
g66
(dp2237
g74
I5
ssg75
g2231
sg68
(lp2238
S'index'
p2239
asbasbasbag61
(g77
g63
NtRp2240
(dp2241
g66
(dp2242
sg75
g71
sg68
(lp2243
g61
(g82
g63
NtRp2244
(dp2245
g66
(dp2246
g86
g87
ssg75
g2240
sg68
(lp2247
S'get_vars'
p2248
asbag61
(g82
g63
NtRp2249
(dp2250
g66
(dp2251
g93
g94
ssg75
g2240
sg68
(lp2252
S':'
asbag61
(g82
g63
NtRp2253
(dp2254
g66
(dp2255
sg75
g2240
sg68
(lp2256
g61
(g62
g63
NtRp2257
(dp2258
g66
(dp2259
g74
I5
ssg75
g2253
sg68
(lp2260
g61
(g70
g63
NtRp2261
(dp2262
g66
(dp2263
g74
I4
ssg75
Nsg68
(lp2264
sbasbasbasbag61
(g77
g63
NtRp2265
(dp2266
g66
(dp2267
sg75
g71
sg68
(lp2268
g61
(g82
g63
NtRp2269
(dp2270
g66
(dp2271
g86
g87
ssg75
g2265
sg68
(lp2272
S'global_settings'
p2273
asbag61
(g82
g63
NtRp2274
(dp2275
g66
(dp2276
g93
g94
ssg75
g2265
sg68
(lp2277
S':'
asbag61
(g82
g63
NtRp2278
(dp2279
g66
(dp2280
sg75
g2265
sg68
(lp2281
g61
(g62
g63
NtRp2282
(dp2283
g66
(dp2284
g74
I5
ssg75
g2278
sg68
(lp2285
g61
(g70
g63
NtRp2286
(dp2287
g66
(dp2288
g74
I4
ssg75
Nsg68
(lp2289
g61
(g77
g63
NtRp2290
(dp2291
g66
(dp2292
sg75
g2286
sg68
(lp2293
g61
(g82
g63
NtRp2294
(dp2295
g66
(dp2296
g86
g87
ssg75
g2290
sg68
(lp2297
g1107
asbag61
(g82
g63
NtRp2298
(dp2299
g66
(dp2300
g93
g94
ssg75
g2290
sg68
(lp2301
S':'
asbag61
(g82
g63
NtRp2302
(dp2303
g66
(dp2304
sg75
g2290
sg68
(lp2305
g61
(g62
g63
NtRp2306
(dp2307
g66
(dp2308
g74
I4
ssg75
g2302
sg68
(lp2309
S"set(['/Users/mdipierro/Dropbox/web2py/applications/inplace/', '/Users/mdipierro/Dropbox/web2py/applications/cms/'])"
p2310
asbasbasbag61
(g77
g63
NtRp2311
(dp2312
g66
(dp2313
sg75
g2286
sg68
(lp2314
g61
(g82
g63
NtRp2315
(dp2316
g66
(dp2317
g86
g87
ssg75
g2311
sg68
(lp2318
g1129
asbag61
(g82
g63
NtRp2319
(dp2320
g66
(dp2321
g93
g94
ssg75
g2311
sg68
(lp2322
S':'
asbag61
(g82
g63
NtRp2323
(dp2324
g66
(dp2325
sg75
g2311
sg68
(lp2326
g61
(g62
g63
NtRp2327
(dp2328
g66
(dp2329
g74
I4
ssg75
g2323
sg68
(lp2330
g1142
asbasbasbag61
(g77
g63
NtRp2331
(dp2332
g66
(dp2333
sg75
g2286
sg68
(lp2334
g61
(g82
g63
NtRp2335
(dp2336
g66
(dp2337
g86
g87
ssg75
g2331
sg68
(lp2338
g1151
asbag61
(g82
g63
NtRp2339
(dp2340
g66
(dp2341
g93
g94
ssg75
g2331
sg68
(lp2342
S':'
asbag61
(g82
g63
NtRp2343
(dp2344
g66
(dp2345
sg75
g2331
sg68
(lp2346
g61
(g62
g63
NtRp2347
(dp2348
g66
(dp2349
g74
I4
ssg75
g2343
sg68
(lp2350
g61
(g70
g63
NtRp2351
(dp2352
g66
(dp2353
g74
I3
ssg75
Nsg68
(lp2354
sbasbasbasbag61
(g77
g63
NtRp2355
(dp2356
g66
(dp2357
sg75
g2286
sg68
(lp2358
g61
(g82
g63
NtRp2359
(dp2360
g66
(dp2361
g86
g87
ssg75
g2355
sg68
(lp2362
g1176
asbag61
(g82
g63
NtRp2363
(dp2364
g66
(dp2365
g93
g94
ssg75
g2355
sg68
(lp2366
S':'
asbag61
(g82
g63
NtRp2367
(dp2368
g66
(dp2369
sg75
g2355
sg68
(lp2370
g61
(g62
g63
NtRp2371
(dp2372
g66
(dp2373
g74
I4
ssg75
g2367
sg68
(lp2374
S"<Values at 0x153a378: {'verbose': False, 'ip': '127.0.0.1', 'shutdown_timeout': 5, 'taskbar': False, 'nocron': False, 'pid_filename': 'httpserver.pid', 'maxthreads': None, 'softcron': False, 'server_name': 'massimo-di-pierros-macbook-2.local', 'bpython': False, 'nogui': False, 'port': 8000, 'extcron': False, 'debuglevel': 30, 'test': None, 'folder': '/Users/mdipierro/Dropbox/web2py', 'config': '', 'import_models': False, 'winservice': '', 'shell': None, 'run': '', 'log_filename': 'httpserver.log', 'args': [''], 'socket_timeout': 1, 'ssl_ca_certificate': None, 'scheduler': None, 'profiler_filename': None, 'ssl_private_key': '', 'password': 'hello', 'request_queue_size': 5, 'ssl_certificate': '', 'cronjob': False, 'numthreads': None, 'quiet': False, 'interfaces': None, 'minthreads': None, 'timeout': 10, 'plain': False, 'nobanner': False}>"
p2375
asbasbasbag61
(g77
g63
NtRp2376
(dp2377
g66
(dp2378
sg75
g2286
sg68
(lp2379
g61
(g82
g63
NtRp2380
(dp2381
g66
(dp2382
g86
g87
ssg75
g2376
sg68
(lp2383
g1242
asbag61
(g82
g63
NtRp2384
(dp2385
g66
(dp2386
g93
g94
ssg75
g2376
sg68
(lp2387
S':'
asbag61
(g82
g63
NtRp2388
(dp2389
g66
(dp2390
sg75
g2376
sg68
(lp2391
g61
(g62
g63
NtRp2392
(dp2393
g66
(dp2394
g74
I4
ssg75
g2388
sg68
(lp2395
S'set([])'
p2396
asbasbasbag61
(g77
g63
NtRp2397
(dp2398
g66
(dp2399
sg75
g2286
sg68
(lp2400
g61
(g82
g63
NtRp2401
(dp2402
g66
(dp2403
g86
g87
ssg75
g2397
sg68
(lp2404
g1264
asbag61
(g82
g63
NtRp2405
(dp2406
g66
(dp2407
g93
g94
ssg75
g2397
sg68
(lp2408
S':'
asbag61
(g82
g63
NtRp2409
(dp2410
g66
(dp2411
sg75
g2397
sg68
(lp2412
g61
(g62
g63
NtRp2413
(dp2414
g66
(dp2415
g74
I4
ssg75
g2409
sg68
(lp2416
g104
asbasbasbag61
(g77
g63
NtRp2417
(dp2418
g66
(dp2419
sg75
g2286
sg68
(lp2420
g61
(g82
g63
NtRp2421
(dp2422
g66
(dp2423
g86
g87
ssg75
g2417
sg68
(lp2424
g1285
asbag61
(g82
g63
NtRp2425
(dp2426
g66
(dp2427
g93
g94
ssg75
g2417
sg68
(lp2428
S':'
asbag61
(g82
g63
NtRp2429
(dp2430
g66
(dp2431
sg75
g2417
sg68
(lp2432
g61
(g62
g63
NtRp2433
(dp2434
g66
(dp2435
g74
I4
ssg75
g2429
sg68
(lp2436
g1298
asbasbasbag61
(g77
g63
NtRp2437
(dp2438
g66
(dp2439
sg75
g2286
sg68
(lp2440
g61
(g82
g63
NtRp2441
(dp2442
g66
(dp2443
g86
g87
ssg75
g2437
sg68
(lp2444
g1591
asbag61
(g82
g63
NtRp2445
(dp2446
g66
(dp2447
g93
g94
ssg75
g2437
sg68
(lp2448
S':'
asbag61
(g82
g63
NtRp2449
(dp2450
g66
(dp2451
sg75
g2437
sg68
(lp2452
g61
(g62
g63
NtRp2453
(dp2454
g66
(dp2455
g74
I4
ssg75
g2449
sg68
(lp2456
g104
asbasbasbag61
(g77
g63
NtRp2457
(dp2458
g66
(dp2459
sg75
g2286
sg68
(lp2460
g61
(g82
g63
NtRp2461
(dp2462
g66
(dp2463
g86
g87
ssg75
g2457
sg68
(lp2464
g1612
asbag61
(g82
g63
NtRp2465
(dp2466
g66
(dp2467
g93
g94
ssg75
g2457
sg68
(lp2468
S':'
asbag61
(g82
g63
NtRp2469
(dp2470
g66
(dp2471
sg75
g2457
sg68
(lp2472
g61
(g62
g63
NtRp2473
(dp2474
g66
(dp2475
g74
I4
ssg75
g2469
sg68
(lp2476
g104
asbasbasbag61
(g77
g63
NtRp2477
(dp2478
g66
(dp2479
sg75
g2286
sg68
(lp2480
g61
(g82
g63
NtRp2481
(dp2482
g66
(dp2483
g86
g87
ssg75
g2477
sg68
(lp2484
g1850
asbag61
(g82
g63
NtRp2485
(dp2486
g66
(dp2487
g93
g94
ssg75
g2477
sg68
(lp2488
S':'
asbag61
(g82
g63
NtRp2489
(dp2490
g66
(dp2491
sg75
g2477
sg68
(lp2492
g61
(g62
g63
NtRp2493
(dp2494
g66
(dp2495
g74
I4
ssg75
g2489
sg68
(lp2496
g1863
asbasbasbag61
(g77
g63
NtRp2497
(dp2498
g66
(dp2499
sg75
g2286
sg68
(lp2500
g61
(g82
g63
NtRp2501
(dp2502
g66
(dp2503
g86
g87
ssg75
g2497
sg68
(lp2504
g1893
asbag61
(g82
g63
NtRp2505
(dp2506
g66
(dp2507
g93
g94
ssg75
g2497
sg68
(lp2508
S':'
asbag61
(g82
g63
NtRp2509
(dp2510
g66
(dp2511
sg75
g2497
sg68
(lp2512
g61
(g62
g63
NtRp2513
(dp2514
g66
(dp2515
g74
I4
ssg75
g2509
sg68
(lp2516
g61
(g70
g63
NtRp2517
(dp2518
g66
(dp2519
g74
I3
ssg75
Nsg68
(lp2520
g61
(g77
g63
NtRp2521
(dp2522
g66
(dp2523
sg75
g2517
sg68
(lp2524
g61
(g82
g63
NtRp2525
(dp2526
g66
(dp2527
sg75
g2521
sg68
(lp2528
g61
(g62
g63
NtRp2529
(dp2530
g66
(dp2531
g74
I3
ssg75
g2525
sg68
(lp2532
S'1'
asbasbasbag61
(g77
g63
NtRp2533
(dp2534
g66
(dp2535
sg75
g2517
sg68
(lp2536
g61
(g82
g63
NtRp2537
(dp2538
g66
(dp2539
sg75
g2533
sg68
(lp2540
g61
(g62
g63
NtRp2541
(dp2542
g66
(dp2543
g74
I3
ssg75
g2537
sg68
(lp2544
S'99'
p2545
asbasbasbag61
(g77
g63
NtRp2546
(dp2547
g66
(dp2548
sg75
g2517
sg68
(lp2549
g61
(g82
g63
NtRp2550
(dp2551
g66
(dp2552
sg75
g2546
sg68
(lp2553
g61
(g62
g63
NtRp2554
(dp2555
g66
(dp2556
g74
I3
ssg75
g2550
sg68
(lp2557
S'3'
asbasbasbag61
(g77
g63
NtRp2558
(dp2559
g66
(dp2560
sg75
g2517
sg68
(lp2561
g61
(g82
g63
NtRp2562
(dp2563
g66
(dp2564
sg75
g2558
sg68
(lp2565
g61
(g62
g63
NtRp2566
(dp2567
g66
(dp2568
g74
I3
ssg75
g2562
sg68
(lp2569
S'datetime.datetime(2011, 12, 9, 21, 5, 4)'
p2570
asbasbasbag61
(g77
g63
NtRp2571
(dp2572
g66
(dp2573
sg75
g2517
sg68
(lp2574
g61
(g82
g63
NtRp2575
(dp2576
g66
(dp2577
sg75
g2571
sg68
(lp2578
g61
(g62
g63
NtRp2579
(dp2580
g66
(dp2581
g74
I3
ssg75
g2575
sg68
(lp2582
g1972
asbasbasbasbasbasbasbasbasbasbasbag61
(g77
g63
NtRp2583
(dp2584
g66
(dp2585
sg75
g71
sg68
(lp2586
g61
(g82
g63
NtRp2587
(dp2588
g66
(dp2589
g86
g87
ssg75
g2583
sg68
(lp2590
S'is_https'
p2591
asbag61
(g82
g63
NtRp2592
(dp2593
g66
(dp2594
g93
g94
ssg75
g2583
sg68
(lp2595
S':'
asbag61
(g82
g63
NtRp2596
(dp2597
g66
(dp2598
sg75
g2583
sg68
(lp2599
g61
(g62
g63
NtRp2600
(dp2601
g66
(dp2602
g74
I5
ssg75
g2596
sg68
(lp2603
g104
asbasbasbag61
(g77
g63
NtRp2604
(dp2605
g66
(dp2606
sg75
g71
sg68
(lp2607
g61
(g82
g63
NtRp2608
(dp2609
g66
(dp2610
g86
g87
ssg75
g2604
sg68
(lp2611
S'is_local'
p2612
asbag61
(g82
g63
NtRp2613
(dp2614
g66
(dp2615
g93
g94
ssg75
g2604
sg68
(lp2616
S':'
asbag61
(g82
g63
NtRp2617
(dp2618
g66
(dp2619
sg75
g2604
sg68
(lp2620
g61
(g62
g63
NtRp2621
(dp2622
g66
(dp2623
g74
I5
ssg75
g2617
sg68
(lp2624
g2081
asbasbasbag61
(g77
g63
NtRp2625
(dp2626
g66
(dp2627
sg75
g71
sg68
(lp2628
g61
(g82
g63
NtRp2629
(dp2630
g66
(dp2631
g86
g87
ssg75
g2625
sg68
(lp2632
S'is_restful'
p2633
asbag61
(g82
g63
NtRp2634
(dp2635
g66
(dp2636
g93
g94
ssg75
g2625
sg68
(lp2637
S':'
asbag61
(g82
g63
NtRp2638
(dp2639
g66
(dp2640
sg75
g2625
sg68
(lp2641
g61
(g62
g63
NtRp2642
(dp2643
g66
(dp2644
g74
I5
ssg75
g2638
sg68
(lp2645
g104
asbasbasbag61
(g77
g63
NtRp2646
(dp2647
g66
(dp2648
sg75
g71
sg68
(lp2649
g61
(g82
g63
NtRp2650
(dp2651
g66
(dp2652
g86
g87
ssg75
g2646
sg68
(lp2653
S'now'
p2654
asbag61
(g82
g63
NtRp2655
(dp2656
g66
(dp2657
g93
g94
ssg75
g2646
sg68
(lp2658
S':'
asbag61
(g82
g63
NtRp2659
(dp2660
g66
(dp2661
sg75
g2646
sg68
(lp2662
g61
(g62
g63
NtRp2663
(dp2664
g66
(dp2665
g74
I5
ssg75
g2659
sg68
(lp2666
S'datetime.datetime(2011, 12, 10, 1, 0, 2, 39729)'
p2667
asbasbasbag61
(g77
g63
NtRp2668
(dp2669
g66
(dp2670
sg75
g71
sg68
(lp2671
g61
(g82
g63
NtRp2672
(dp2673
g66
(dp2674
g86
g87
ssg75
g2668
sg68
(lp2675
S'post_vars'
p2676
asbag61
(g82
g63
NtRp2677
(dp2678
g66
(dp2679
g93
g94
ssg75
g2668
sg68
(lp2680
S':'
asbag61
(g82
g63
NtRp2681
(dp2682
g66
(dp2683
sg75
g2668
sg68
(lp2684
g61
(g62
g63
NtRp2685
(dp2686
g66
(dp2687
g74
I5
ssg75
g2681
sg68
(lp2688
g61
(g70
g63
NtRp2689
(dp2690
g66
(dp2691
g74
I4
ssg75
Nsg68
(lp2692
g61
(g77
g63
NtRp2693
(dp2694
g66
(dp2695
sg75
g2689
sg68
(lp2696
g61
(g82
g63
NtRp2697
(dp2698
g66
(dp2699
g86
g87
ssg75
g2693
sg68
(lp2700
S'url'
p2701
asbag61
(g82
g63
NtRp2702
(dp2703
g66
(dp2704
g93
g94
ssg75
g2693
sg68
(lp2705
S':'
asbag61
(g82
g63
NtRp2706
(dp2707
g66
(dp2708
sg75
g2693
sg68
(lp2709
g61
(g62
g63
NtRp2710
(dp2711
g66
(dp2712
g74
I4
ssg75
g2706
sg68
(lp2713
S'http://web2py.com'
p2714
asbasbasbasbasbasbasbag61
(g77
g63
NtRp2715
(dp2716
g66
(dp2717
sg75
g71
sg68
(lp2718
g61
(g82
g63
NtRp2719
(dp2720
g66
(dp2721
g86
g87
ssg75
g2715
sg68
(lp2722
S'url'
p2723
asbag61
(g82
g63
NtRp2724
(dp2725
g66
(dp2726
g93
g94
ssg75
g2715
sg68
(lp2727
S':'
asbag61
(g82
g63
NtRp2728
(dp2729
g66
(dp2730
sg75
g2715
sg68
(lp2731
g61
(g62
g63
NtRp2732
(dp2733
g66
(dp2734
g74
I5
ssg75
g2728
sg68
(lp2735
S'/inplace/default/index'
p2736
asbasbasbag61
(g77
g63
NtRp2737
(dp2738
g66
(dp2739
sg75
g71
sg68
(lp2740
g61
(g82
g63
NtRp2741
(dp2742
g66
(dp2743
g86
g87
ssg75
g2737
sg68
(lp2744
S'utcnow'
p2745
asbag61
(g82
g63
NtRp2746
(dp2747
g66
(dp2748
g93
g94
ssg75
g2737
sg68
(lp2749
S':'
asbag61
(g82
g63
NtRp2750
(dp2751
g66
(dp2752
sg75
g2737
sg68
(lp2753
g61
(g62
g63
NtRp2754
(dp2755
g66
(dp2756
g74
I5
ssg75
g2750
sg68
(lp2757
S'datetime.datetime(2011, 12, 10, 7, 0, 2, 39739)'
p2758
asbasbasbag61
(g77
g63
NtRp2759
(dp2760
g66
(dp2761
sg75
g71
sg68
(lp2762
g61
(g82
g63
NtRp2763
(dp2764
g66
(dp2765
g86
g87
ssg75
g2759
sg68
(lp2766
S'uuid'
p2767
asbag61
(g82
g63
NtRp2768
(dp2769
g66
(dp2770
g93
g94
ssg75
g2759
sg68
(lp2771
S':'
asbag61
(g82
g63
NtRp2772
(dp2773
g66
(dp2774
sg75
g2759
sg68
(lp2775
g61
(g62
g63
NtRp2776
(dp2777
g66
(dp2778
g74
I5
ssg75
g2772
sg68
(lp2779
S'inplace/127.0.0.1.2011-12-10.01-00-02.1cfb86bc-5213-495f-9577-33e2bc28a2d6'
p2780
asbasbasbag61
(g77
g63
NtRp2781
(dp2782
g66
(dp2783
sg75
g71
sg68
(lp2784
g61
(g82
g63
NtRp2785
(dp2786
g66
(dp2787
g86
g87
ssg75
g2781
sg68
(lp2788
S'vars'
p2789
asbag61
(g82
g63
NtRp2790
(dp2791
g66
(dp2792
g93
g94
ssg75
g2781
sg68
(lp2793
S':'
asbag61
(g82
g63
NtRp2794
(dp2795
g66
(dp2796
sg75
g2781
sg68
(lp2797
g61
(g62
g63
NtRp2798
(dp2799
g66
(dp2800
g74
I5
ssg75
g2794
sg68
(lp2801
g61
(g70
g63
NtRp2802
(dp2803
g66
(dp2804
g74
I4
ssg75
Nsg68
(lp2805
g61
(g77
g63
NtRp2806
(dp2807
g66
(dp2808
sg75
g2802
sg68
(lp2809
g61
(g82
g63
NtRp2810
(dp2811
g66
(dp2812
g86
g87
ssg75
g2806
sg68
(lp2813
g2701
asbag61
(g82
g63
NtRp2814
(dp2815
g66
(dp2816
g93
g94
ssg75
g2806
sg68
(lp2817
S':'
asbag61
(g82
g63
NtRp2818
(dp2819
g66
(dp2820
sg75
g2806
sg68
(lp2821
g61
(g62
g63
NtRp2822
(dp2823
g66
(dp2824
g74
I4
ssg75
g2818
sg68
(lp2825
g2714
asbasbasbasbasbasbasbag61
(g77
g63
NtRp2826
(dp2827
g66
(dp2828
sg75
g71
sg68
(lp2829
g61
(g82
g63
NtRp2830
(dp2831
g66
(dp2832
g86
g87
ssg75
g2826
sg68
(lp2833
S'wsgi'
p2834
asbag61
(g82
g63
NtRp2835
(dp2836
g66
(dp2837
g93
g94
ssg75
g2826
sg68
(lp2838
S':'
asbag61
(g82
g63
NtRp2839
(dp2840
g66
(dp2841
sg75
g2826
sg68
(lp2842
g61
(g62
g63
NtRp2843
(dp2844
g66
(dp2845
g74
I5
ssg75
g2839
sg68
(lp2846
g61
(g70
g63
NtRp2847
(dp2848
g66
(dp2849
g74
I4
ssg75
Nsg68
(lp2850
g61
(g77
g63
NtRp2851
(dp2852
g66
(dp2853
sg75
g2847
sg68
(lp2854
g61
(g82
g63
NtRp2855
(dp2856
g66
(dp2857
g86
g87
ssg75
g2851
sg68
(lp2858
S'environ'
p2859
asbag61
(g82
g63
NtRp2860
(dp2861
g66
(dp2862
g93
g94
ssg75
g2851
sg68
(lp2863
S':'
asbag61
(g82
g63
NtRp2864
(dp2865
g66
(dp2866
sg75
g2851
sg68
(lp2867
g61
(g62
g63
NtRp2868
(dp2869
g66
(dp2870
g74
I4
ssg75
g2864
sg68
(lp2871
g61
(g70
g63
NtRp2872
(dp2873
g66
(dp2874
g74
I3
ssg75
Nsg68
(lp2875
g61
(g77
g63
NtRp2876
(dp2877
g66
(dp2878
sg75
g2872
sg68
(lp2879
g61
(g82
g63
NtRp2880
(dp2881
g66
(dp2882
g86
g87
ssg75
g2876
sg68
(lp2883
S'CONTENT_LENGTH'
p2884
asbag61
(g82
g63
NtRp2885
(dp2886
g66
(dp2887
g93
g94
ssg75
g2876
sg68
(lp2888
S':'
asbag61
(g82
g63
NtRp2889
(dp2890
g66
(dp2891
sg75
g2876
sg68
(lp2892
g61
(g62
g63
NtRp2893
(dp2894
g66
(dp2895
g74
I3
ssg75
g2889
sg68
(lp2896
g1211
asbasbasbag61
(g77
g63
NtRp2897
(dp2898
g66
(dp2899
sg75
g2872
sg68
(lp2900
g61
(g82
g63
NtRp2901
(dp2902
g66
(dp2903
g86
g87
ssg75
g2897
sg68
(lp2904
S'CONTENT_TYPE'
p2905
asbag61
(g82
g63
NtRp2906
(dp2907
g66
(dp2908
g93
g94
ssg75
g2897
sg68
(lp2909
S':'
asbag61
(g82
g63
NtRp2910
(dp2911
g66
(dp2912
sg75
g2897
sg68
(lp2913
g61
(g62
g63
NtRp2914
(dp2915
g66
(dp2916
g74
I3
ssg75
g2910
sg68
(lp2917
g1233
asbasbasbag61
(g77
g63
NtRp2918
(dp2919
g66
(dp2920
sg75
g2872
sg68
(lp2921
g61
(g82
g63
NtRp2922
(dp2923
g66
(dp2924
g86
g87
ssg75
g2918
sg68
(lp2925
S'HTTP_ACCEPT'
p2926
asbag61
(g82
g63
NtRp2927
(dp2928
g66
(dp2929
g93
g94
ssg75
g2918
sg68
(lp2930
S':'
asbag61
(g82
g63
NtRp2931
(dp2932
g66
(dp2933
sg75
g2918
sg68
(lp2934
g61
(g62
g63
NtRp2935
(dp2936
g66
(dp2937
g74
I3
ssg75
g2931
sg68
(lp2938
g1320
asbasbasbag61
(g77
g63
NtRp2939
(dp2940
g66
(dp2941
sg75
g2872
sg68
(lp2942
g61
(g82
g63
NtRp2943
(dp2944
g66
(dp2945
g86
g87
ssg75
g2939
sg68
(lp2946
S'HTTP_ACCEPT_CHARSET'
p2947
asbag61
(g82
g63
NtRp2948
(dp2949
g66
(dp2950
g93
g94
ssg75
g2939
sg68
(lp2951
S':'
asbag61
(g82
g63
NtRp2952
(dp2953
g66
(dp2954
sg75
g2939
sg68
(lp2955
g61
(g62
g63
NtRp2956
(dp2957
g66
(dp2958
g74
I3
ssg75
g2952
sg68
(lp2959
g1342
asbasbasbag61
(g77
g63
NtRp2960
(dp2961
g66
(dp2962
sg75
g2872
sg68
(lp2963
g61
(g82
g63
NtRp2964
(dp2965
g66
(dp2966
g86
g87
ssg75
g2960
sg68
(lp2967
S'HTTP_ACCEPT_ENCODING'
p2968
asbag61
(g82
g63
NtRp2969
(dp2970
g66
(dp2971
g93
g94
ssg75
g2960
sg68
(lp2972
S':'
asbag61
(g82
g63
NtRp2973
(dp2974
g66
(dp2975
sg75
g2960
sg68
(lp2976
g61
(g62
g63
NtRp2977
(dp2978
g66
(dp2979
g74
I3
ssg75
g2973
sg68
(lp2980
g1364
asbasbasbag61
(g77
g63
NtRp2981
(dp2982
g66
(dp2983
sg75
g2872
sg68
(lp2984
g61
(g82
g63
NtRp2985
(dp2986
g66
(dp2987
g86
g87
ssg75
g2981
sg68
(lp2988
S'HTTP_ACCEPT_LANGUAGE'
p2989
asbag61
(g82
g63
NtRp2990
(dp2991
g66
(dp2992
g93
g94
ssg75
g2981
sg68
(lp2993
S':'
asbag61
(g82
g63
NtRp2994
(dp2995
g66
(dp2996
sg75
g2981
sg68
(lp2997
g61
(g62
g63
NtRp2998
(dp2999
g66
(dp3000
g74
I3
ssg75
g2994
sg68
(lp3001
g1386
asbasbasbag61
(g77
g63
NtRp3002
(dp3003
g66
(dp3004
sg75
g2872
sg68
(lp3005
g61
(g82
g63
NtRp3006
(dp3007
g66
(dp3008
g86
g87
ssg75
g3002
sg68
(lp3009
S'HTTP_CACHE_CONTROL'
p3010
asbag61
(g82
g63
NtRp3011
(dp3012
g66
(dp3013
g93
g94
ssg75
g3002
sg68
(lp3014
S':'
asbag61
(g82
g63
NtRp3015
(dp3016
g66
(dp3017
sg75
g3002
sg68
(lp3018
g61
(g62
g63
NtRp3019
(dp3020
g66
(dp3021
g74
I3
ssg75
g3015
sg68
(lp3022
g1408
asbasbasbag61
(g77
g63
NtRp3023
(dp3024
g66
(dp3025
sg75
g2872
sg68
(lp3026
g61
(g82
g63
NtRp3027
(dp3028
g66
(dp3029
g86
g87
ssg75
g3023
sg68
(lp3030
S'HTTP_CONNECTION'
p3031
asbag61
(g82
g63
NtRp3032
(dp3033
g66
(dp3034
g93
g94
ssg75
g3023
sg68
(lp3035
S':'
asbag61
(g82
g63
NtRp3036
(dp3037
g66
(dp3038
sg75
g3023
sg68
(lp3039
g61
(g62
g63
NtRp3040
(dp3041
g66
(dp3042
g74
I3
ssg75
g3036
sg68
(lp3043
g1430
asbasbasbag61
(g77
g63
NtRp3044
(dp3045
g66
(dp3046
sg75
g2872
sg68
(lp3047
g61
(g82
g63
NtRp3048
(dp3049
g66
(dp3050
g86
g87
ssg75
g3044
sg68
(lp3051
S'HTTP_CONTENT_LENGTH'
p3052
asbag61
(g82
g63
NtRp3053
(dp3054
g66
(dp3055
g93
g94
ssg75
g3044
sg68
(lp3056
S':'
asbag61
(g82
g63
NtRp3057
(dp3058
g66
(dp3059
sg75
g3044
sg68
(lp3060
g61
(g62
g63
NtRp3061
(dp3062
g66
(dp3063
g74
I3
ssg75
g3057
sg68
(lp3064
g1211
asbasbasbag61
(g77
g63
NtRp3065
(dp3066
g66
(dp3067
sg75
g2872
sg68
(lp3068
g61
(g82
g63
NtRp3069
(dp3070
g66
(dp3071
g86
g87
ssg75
g3065
sg68
(lp3072
S'HTTP_CONTENT_TYPE'
p3073
asbag61
(g82
g63
NtRp3074
(dp3075
g66
(dp3076
g93
g94
ssg75
g3065
sg68
(lp3077
S':'
asbag61
(g82
g63
NtRp3078
(dp3079
g66
(dp3080
sg75
g3065
sg68
(lp3081
g61
(g62
g63
NtRp3082
(dp3083
g66
(dp3084
g74
I3
ssg75
g3078
sg68
(lp3085
g1233
asbasbasbag61
(g77
g63
NtRp3086
(dp3087
g66
(dp3088
sg75
g2872
sg68
(lp3089
g61
(g82
g63
NtRp3090
(dp3091
g66
(dp3092
g86
g87
ssg75
g3086
sg68
(lp3093
S'HTTP_COOKIE'
p3094
asbag61
(g82
g63
NtRp3095
(dp3096
g66
(dp3097
g93
g94
ssg75
g3086
sg68
(lp3098
S':'
asbag61
(g82
g63
NtRp3099
(dp3100
g66
(dp3101
sg75
g3086
sg68
(lp3102
g61
(g62
g63
NtRp3103
(dp3104
g66
(dp3105
g74
I3
ssg75
g3099
sg68
(lp3106
g1494
asbasbasbag61
(g77
g63
NtRp3107
(dp3108
g66
(dp3109
sg75
g2872
sg68
(lp3110
g61
(g82
g63
NtRp3111
(dp3112
g66
(dp3113
g86
g87
ssg75
g3107
sg68
(lp3114
S'HTTP_HOST'
p3115
asbag61
(g82
g63
NtRp3116
(dp3117
g66
(dp3118
g93
g94
ssg75
g3107
sg68
(lp3119
S':'
asbag61
(g82
g63
NtRp3120
(dp3121
g66
(dp3122
sg75
g3107
sg68
(lp3123
g61
(g62
g63
NtRp3124
(dp3125
g66
(dp3126
g74
I3
ssg75
g3120
sg68
(lp3127
g1516
asbasbasbag61
(g77
g63
NtRp3128
(dp3129
g66
(dp3130
sg75
g2872
sg68
(lp3131
g61
(g82
g63
NtRp3132
(dp3133
g66
(dp3134
g86
g87
ssg75
g3128
sg68
(lp3135
S'HTTP_ORIGIN'
p3136
asbag61
(g82
g63
NtRp3137
(dp3138
g66
(dp3139
g93
g94
ssg75
g3128
sg68
(lp3140
S':'
asbag61
(g82
g63
NtRp3141
(dp3142
g66
(dp3143
sg75
g3128
sg68
(lp3144
g61
(g62
g63
NtRp3145
(dp3146
g66
(dp3147
g74
I3
ssg75
g3141
sg68
(lp3148
g1538
asbasbasbag61
(g77
g63
NtRp3149
(dp3150
g66
(dp3151
sg75
g2872
sg68
(lp3152
g61
(g82
g63
NtRp3153
(dp3154
g66
(dp3155
g86
g87
ssg75
g3149
sg68
(lp3156
S'HTTP_REFERER'
p3157
asbag61
(g82
g63
NtRp3158
(dp3159
g66
(dp3160
g93
g94
ssg75
g3149
sg68
(lp3161
S':'
asbag61
(g82
g63
NtRp3162
(dp3163
g66
(dp3164
sg75
g3149
sg68
(lp3165
g61
(g62
g63
NtRp3166
(dp3167
g66
(dp3168
g74
I3
ssg75
g3162
sg68
(lp3169
g1560
asbasbasbag61
(g77
g63
NtRp3170
(dp3171
g66
(dp3172
sg75
g2872
sg68
(lp3173
g61
(g82
g63
NtRp3174
(dp3175
g66
(dp3176
g86
g87
ssg75
g3170
sg68
(lp3177
S'HTTP_USER_AGENT'
p3178
asbag61
(g82
g63
NtRp3179
(dp3180
g66
(dp3181
g93
g94
ssg75
g3170
sg68
(lp3182
S':'
asbag61
(g82
g63
NtRp3183
(dp3184
g66
(dp3185
sg75
g3170
sg68
(lp3186
g61
(g62
g63
NtRp3187
(dp3188
g66
(dp3189
g74
I3
ssg75
g3183
sg68
(lp3190
g1582
asbasbasbag61
(g77
g63
NtRp3191
(dp3192
g66
(dp3193
sg75
g2872
sg68
(lp3194
g61
(g82
g63
NtRp3195
(dp3196
g66
(dp3197
g86
g87
ssg75
g3191
sg68
(lp3198
S'PATH_INFO'
p3199
asbag61
(g82
g63
NtRp3200
(dp3201
g66
(dp3202
g93
g94
ssg75
g3191
sg68
(lp3203
S':'
asbag61
(g82
g63
NtRp3204
(dp3205
g66
(dp3206
sg75
g3191
sg68
(lp3207
g61
(g62
g63
NtRp3208
(dp3209
g66
(dp3210
g74
I3
ssg75
g3204
sg68
(lp3211
g1646
asbasbasbag61
(g77
g63
NtRp3212
(dp3213
g66
(dp3214
sg75
g2872
sg68
(lp3215
g61
(g82
g63
NtRp3216
(dp3217
g66
(dp3218
g86
g87
ssg75
g3212
sg68
(lp3219
S'QUERY_STRING'
p3220
asbag61
(g82
g63
NtRp3221
(dp3222
g66
(dp3223
g93
g94
ssg75
g3212
sg68
(lp3224
S':'
asbag61
(g82
g63
NtRp3225
(dp3226
g66
(dp3227
sg75
g3212
sg68
(lp3228
g61
(g62
g63
NtRp3229
(dp3230
g66
(dp3231
g74
I3
ssg75
g3225
sg68
(lp3232
S''
asbasbasbag61
(g77
g63
NtRp3233
(dp3234
g66
(dp3235
sg75
g2872
sg68
(lp3236
g61
(g82
g63
NtRp3237
(dp3238
g66
(dp3239
g86
g87
ssg75
g3233
sg68
(lp3240
S'REMOTE_ADDR'
p3241
asbag61
(g82
g63
NtRp3242
(dp3243
g66
(dp3244
g93
g94
ssg75
g3233
sg68
(lp3245
S':'
asbag61
(g82
g63
NtRp3246
(dp3247
g66
(dp3248
sg75
g3233
sg68
(lp3249
g61
(g62
g63
NtRp3250
(dp3251
g66
(dp3252
g74
I3
ssg75
g3246
sg68
(lp3253
g194
asbasbasbag61
(g77
g63
NtRp3254
(dp3255
g66
(dp3256
sg75
g2872
sg68
(lp3257
g61
(g82
g63
NtRp3258
(dp3259
g66
(dp3260
g86
g87
ssg75
g3254
sg68
(lp3261
S'REMOTE_PORT'
p3262
asbag61
(g82
g63
NtRp3263
(dp3264
g66
(dp3265
g93
g94
ssg75
g3254
sg68
(lp3266
S':'
asbag61
(g82
g63
NtRp3267
(dp3268
g66
(dp3269
sg75
g3254
sg68
(lp3270
g61
(g62
g63
NtRp3271
(dp3272
g66
(dp3273
g74
I3
ssg75
g3267
sg68
(lp3274
g1710
asbasbasbag61
(g77
g63
NtRp3275
(dp3276
g66
(dp3277
sg75
g2872
sg68
(lp3278
g61
(g82
g63
NtRp3279
(dp3280
g66
(dp3281
g86
g87
ssg75
g3275
sg68
(lp3282
S'REQUEST_METHOD'
p3283
asbag61
(g82
g63
NtRp3284
(dp3285
g66
(dp3286
g93
g94
ssg75
g3275
sg68
(lp3287
S':'
asbag61
(g82
g63
NtRp3288
(dp3289
g66
(dp3290
sg75
g3275
sg68
(lp3291
g61
(g62
g63
NtRp3292
(dp3293
g66
(dp3294
g74
I3
ssg75
g3288
sg68
(lp3295
g1732
asbasbasbag61
(g77
g63
NtRp3296
(dp3297
g66
(dp3298
sg75
g2872
sg68
(lp3299
g61
(g82
g63
NtRp3300
(dp3301
g66
(dp3302
g86
g87
ssg75
g3296
sg68
(lp3303
S'SCRIPT_NAME'
p3304
asbag61
(g82
g63
NtRp3305
(dp3306
g66
(dp3307
g93
g94
ssg75
g3296
sg68
(lp3308
S':'
asbag61
(g82
g63
NtRp3309
(dp3310
g66
(dp3311
sg75
g3296
sg68
(lp3312
g61
(g62
g63
NtRp3313
(dp3314
g66
(dp3315
g74
I3
ssg75
g3309
sg68
(lp3316
S''
asbasbasbag61
(g77
g63
NtRp3317
(dp3318
g66
(dp3319
sg75
g2872
sg68
(lp3320
g61
(g82
g63
NtRp3321
(dp3322
g66
(dp3323
g86
g87
ssg75
g3317
sg68
(lp3324
S'SERVER_NAME'
p3325
asbag61
(g82
g63
NtRp3326
(dp3327
g66
(dp3328
g93
g94
ssg75
g3317
sg68
(lp3329
S':'
asbag61
(g82
g63
NtRp3330
(dp3331
g66
(dp3332
sg75
g3317
sg68
(lp3333
g61
(g62
g63
NtRp3334
(dp3335
g66
(dp3336
g74
I3
ssg75
g3330
sg68
(lp3337
g1775
asbasbasbag61
(g77
g63
NtRp3338
(dp3339
g66
(dp3340
sg75
g2872
sg68
(lp3341
g61
(g82
g63
NtRp3342
(dp3343
g66
(dp3344
g86
g87
ssg75
g3338
sg68
(lp3345
S'SERVER_PORT'
p3346
asbag61
(g82
g63
NtRp3347
(dp3348
g66
(dp3349
g93
g94
ssg75
g3338
sg68
(lp3350
S':'
asbag61
(g82
g63
NtRp3351
(dp3352
g66
(dp3353
sg75
g3338
sg68
(lp3354
g61
(g62
g63
NtRp3355
(dp3356
g66
(dp3357
g74
I3
ssg75
g3351
sg68
(lp3358
g1797
asbasbasbag61
(g77
g63
NtRp3359
(dp3360
g66
(dp3361
sg75
g2872
sg68
(lp3362
g61
(g82
g63
NtRp3363
(dp3364
g66
(dp3365
g86
g87
ssg75
g3359
sg68
(lp3366
S'SERVER_PROTOCOL'
p3367
asbag61
(g82
g63
NtRp3368
(dp3369
g66
(dp3370
g93
g94
ssg75
g3359
sg68
(lp3371
S':'
asbag61
(g82
g63
NtRp3372
(dp3373
g66
(dp3374
sg75
g3359
sg68
(lp3375
g61
(g62
g63
NtRp3376
(dp3377
g66
(dp3378
g74
I3
ssg75
g3372
sg68
(lp3379
g1819
asbasbasbag61
(g77
g63
NtRp3380
(dp3381
g66
(dp3382
sg75
g2872
sg68
(lp3383
g61
(g82
g63
NtRp3384
(dp3385
g66
(dp3386
g86
g87
ssg75
g3380
sg68
(lp3387
S'SERVER_SOFTWARE'
p3388
asbag61
(g82
g63
NtRp3389
(dp3390
g66
(dp3391
g93
g94
ssg75
g3380
sg68
(lp3392
S':'
asbag61
(g82
g63
NtRp3393
(dp3394
g66
(dp3395
sg75
g3380
sg68
(lp3396
g61
(g62
g63
NtRp3397
(dp3398
g66
(dp3399
g74
I3
ssg75
g3393
sg68
(lp3400
g1841
asbasbasbag61
(g77
g63
NtRp3401
(dp3402
g66
(dp3403
sg75
g2872
sg68
(lp3404
g61
(g82
g63
NtRp3405
(dp3406
g66
(dp3407
g86
g87
ssg75
g3401
sg68
(lp3408
S'wsgi.errors'
p3409
asbag61
(g82
g63
NtRp3410
(dp3411
g66
(dp3412
g93
g94
ssg75
g3401
sg68
(lp3413
S':'
asbag61
(g82
g63
NtRp3414
(dp3415
g66
(dp3416
sg75
g3401
sg68
(lp3417
g61
(g62
g63
NtRp3418
(dp3419
g66
(dp3420
g74
I3
ssg75
g3414
sg68
(lp3421
S"<open file '<stderr>', mode 'w' at 0x1620b0>"
p3422
asbasbasbag61
(g77
g63
NtRp3423
(dp3424
g66
(dp3425
sg75
g2872
sg68
(lp3426
g61
(g82
g63
NtRp3427
(dp3428
g66
(dp3429
g86
g87
ssg75
g3423
sg68
(lp3430
S'wsgi.file_wrapper'
p3431
asbag61
(g82
g63
NtRp3432
(dp3433
g66
(dp3434
g93
g94
ssg75
g3423
sg68
(lp3435
S':'
asbag61
(g82
g63
NtRp3436
(dp3437
g66
(dp3438
sg75
g3423
sg68
(lp3439
g61
(g62
g63
NtRp3440
(dp3441
g66
(dp3442
g74
I3
ssg75
g3436
sg68
(lp3443
S'<class wsgiref.util.FileWrapper at 0x7c2840>'
p3444
asbasbasbag61
(g77
g63
NtRp3445
(dp3446
g66
(dp3447
sg75
g2872
sg68
(lp3448
g61
(g82
g63
NtRp3449
(dp3450
g66
(dp3451
g86
g87
ssg75
g3445
sg68
(lp3452
S'wsgi.input'
p3453
asbag61
(g82
g63
NtRp3454
(dp3455
g66
(dp3456
g93
g94
ssg75
g3445
sg68
(lp3457
S':'
asbag61
(g82
g63
NtRp3458
(dp3459
g66
(dp3460
sg75
g3445
sg68
(lp3461
g61
(g62
g63
NtRp3462
(dp3463
g66
(dp3464
g74
I3
ssg75
g3458
sg68
(lp3465
S"<open file '<fdopen>', mode 'w+b' at 0x115e920>"
p3466
asbasbasbag61
(g77
g63
NtRp3467
(dp3468
g66
(dp3469
sg75
g2872
sg68
(lp3470
g61
(g82
g63
NtRp3471
(dp3472
g66
(dp3473
g86
g87
ssg75
g3467
sg68
(lp3474
S'wsgi.multiprocess'
p3475
asbag61
(g82
g63
NtRp3476
(dp3477
g66
(dp3478
g93
g94
ssg75
g3467
sg68
(lp3479
S':'
asbag61
(g82
g63
NtRp3480
(dp3481
g66
(dp3482
sg75
g3467
sg68
(lp3483
g61
(g62
g63
NtRp3484
(dp3485
g66
(dp3486
g74
I3
ssg75
g3480
sg68
(lp3487
g104
asbasbasbag61
(g77
g63
NtRp3488
(dp3489
g66
(dp3490
sg75
g2872
sg68
(lp3491
g61
(g82
g63
NtRp3492
(dp3493
g66
(dp3494
g86
g87
ssg75
g3488
sg68
(lp3495
S'wsgi.multithread'
p3496
asbag61
(g82
g63
NtRp3497
(dp3498
g66
(dp3499
g93
g94
ssg75
g3488
sg68
(lp3500
S':'
asbag61
(g82
g63
NtRp3501
(dp3502
g66
(dp3503
sg75
g3488
sg68
(lp3504
g61
(g62
g63
NtRp3505
(dp3506
g66
(dp3507
g74
I3
ssg75
g3501
sg68
(lp3508
g2081
asbasbasbag61
(g77
g63
NtRp3509
(dp3510
g66
(dp3511
sg75
g2872
sg68
(lp3512
g61
(g82
g63
NtRp3513
(dp3514
g66
(dp3515
g86
g87
ssg75
g3509
sg68
(lp3516
S'wsgi.run_once'
p3517
asbag61
(g82
g63
NtRp3518
(dp3519
g66
(dp3520
g93
g94
ssg75
g3509
sg68
(lp3521
S':'
asbag61
(g82
g63
NtRp3522
(dp3523
g66
(dp3524
sg75
g3509
sg68
(lp3525
g61
(g62
g63
NtRp3526
(dp3527
g66
(dp3528
g74
I3
ssg75
g3522
sg68
(lp3529
g104
asbasbasbag61
(g77
g63
NtRp3530
(dp3531
g66
(dp3532
sg75
g2872
sg68
(lp3533
g61
(g82
g63
NtRp3534
(dp3535
g66
(dp3536
g86
g87
ssg75
g3530
sg68
(lp3537
S'wsgi.url_scheme'
p3538
asbag61
(g82
g63
NtRp3539
(dp3540
g66
(dp3541
g93
g94
ssg75
g3530
sg68
(lp3542
S':'
asbag61
(g82
g63
NtRp3543
(dp3544
g66
(dp3545
sg75
g3530
sg68
(lp3546
g61
(g62
g63
NtRp3547
(dp3548
g66
(dp3549
g74
I3
ssg75
g3543
sg68
(lp3550
g2124
asbasbasbag61
(g77
g63
NtRp3551
(dp3552
g66
(dp3553
sg75
g2872
sg68
(lp3554
g61
(g82
g63
NtRp3555
(dp3556
g66
(dp3557
g86
g87
ssg75
g3551
sg68
(lp3558
S'wsgi.version'
p3559
asbag61
(g82
g63
NtRp3560
(dp3561
g66
(dp3562
g93
g94
ssg75
g3551
sg68
(lp3563
S':'
asbag61
(g82
g63
NtRp3564
(dp3565
g66
(dp3566
sg75
g3551
sg68
(lp3567
g61
(g62
g63
NtRp3568
(dp3569
g66
(dp3570
g74
I3
ssg75
g3564
sg68
(lp3571
S'1'
asbasbasbasbasbasbasbasbasbasbasbasbasbsS'frames'
p3572
(lp3573
(dp3574
S'file'
p3575
S'/Users/mdipierro/Dropbox/web2py/gluon/restricted.py'
p3576
sS'dump'
p3577
(dp3578
S'environment'
p3579
S"{'A': <class 'gluon.html.A'>, 'Auth': <class 'gluon.tools.Auth'>, 'B': <class 'gluon.html.B'>, 'BEAUTIFY': <class 'gluon.html.BEAUTIFY'>, 'BODY': <class 'gluon.html.BODY'>, 'BR': <class 'gluon.html.BR'>, 'BUTTON': <class 'gluon.html.BUTTON'>, 'CAT': <class 'gluon.html.CAT'>, 'CENTER': <class 'gluon.html.CENTER'>, 'CLEANUP': <class 'gluon.validators.CLEANUP'>, ...}"
p3580
sS'ccode'
p3581
S'<code object <module> at 0x10beda0, file "/Users...ications/inplace/controllers/default.py", line 4>'
p3582
ssS'lnum'
p3583
I204
sS'lines'
p3584
(dp3585
I199
S'    try:'
p3586
sI200
S'        if type(code) == types.CodeType:'
p3587
sI201
S'            ccode = code'
p3588
sI202
S'        else:'
p3589
sI203
S'            ccode = compile2(code,layer)'
p3590
sI204
S'        exec ccode in environment'
p3591
sI205
S'    except HTTP:'
p3592
sI206
S'        raise'
p3593
sI207
S'    except RestrictedError:'
p3594
sI208
S'        # do not encapsulate (obfuscate) the original RestrictedError'
p3595
ssS'call'
p3596
S"(code='# -*- coding: utf-8 -*-\\n# this file is released ... html\\n\\n\\n\\n\\nresponse._vars=response._caller(index)\\n', environment={'A': <class 'gluon.html.A'>, 'Auth': <class 'gluon.tools.Auth'>, 'B': <class 'gluon.html.B'>, 'BEAUTIFY': <class 'gluon.html.BEAUTIFY'>, 'BODY': <class 'gluon.html.BODY'>, 'BR': <class 'gluon.html.BR'>, 'BUTTON': <class 'gluon.html.BUTTON'>, 'CAT': <class 'gluon.html.CAT'>, 'CENTER': <class 'gluon.html.CENTER'>, 'CLEANUP': <class 'gluon.validators.CLEANUP'>, ...}, layer='/Users/mdipierro/Dropbox/web2py/applications/inplace/controllers/default.py')"
p3597
sS'func'
p3598
S'restricted'
p3599
sa(dp3600
g3575
S'/Users/mdipierro/Dropbox/web2py/applications/inplace/controllers/default.py'
p3601
sg3577
(dp3602
sg3583
I39
sg3584
(dp3603
I32
S'    inject = \'<script src="%s" language="javascript"></script>\' % URL(\'static\',\'js/inject.js\')'
p3604
sI33
S"    html = html.replace('</head>',inject+'</head>')"
p3605
sI34
S'    return html'
p3606
sI35
S''
sI36
S''
sI37
S''
sI28
S'    html = re.sub(\'(href|HREF)\\s*=\\s*"/(?!/)\',\'href="\'+\'/\'.join(url.split(\'/\')[:3])+\'/\',html)'
p3607
sI29
S'    html = re.sub(\'(href|HREF)\\s*=\\s*"(?!(/|http))\',\'href="\'+\'/\'.join(url.split(\'/\'))+\'/\',html)'
p3608
sI30
S"    html = re.sub('url\\(/(?!/)','url('+'/'.join(url.split('/')[:3])+'/',html)"
p3609
sI31
S"    html = re.sub('url\\((?!(/|http))','url('+'/'.join(url.split('/'))+'/',html)"
p3610
ssg3596
S'()'
p3611
sg3598
S'<module>'
p3612
sa(dp3613
g3575
S'/Users/mdipierro/Dropbox/web2py/gluon/globals.py'
p3614
sg3577
(dp3615
S'self'
p3616
S'undefined'
p3617
sS'f'
S'<function index at 0x1099e30>'
p3618
ssg3583
I172
sg3584
(dp3619
I167
S'        self.meta = Storage()      # used by web2py_ajax.html'
p3620
sI168
S'        self.menu = []             # used by the default view layout'
p3621
sI169
S'        self.files = []            # used by web2py_ajax.html'
p3622
sI170
S'        self.generic_patterns = [] # patterns to allow generic views'
p3623
sI171
S'        self._vars = None'
p3624
sI172
S'        self._caller = lambda f: f()'
p3625
sI173
S'        self._view_environment = None'
p3626
sI174
S'        self._custom_commit = None'
p3627
sI175
S'        self._custom_rollback = None'
p3628
sI176
S''
ssg3596
S'(f=<function index at 0x1099e30>)'
p3629
sg3598
S'<lambda>'
p3630
sa(dp3631
g3575
S'/Users/mdipierro/Dropbox/web2py/applications/inplace/controllers/default.py'
p3632
sg3577
(dp3633
S'form.vars'
p3634
S"<Storage {'url': 'http://web2py.com'}>"
p3635
sS'form'
p3636
S'<gluon.sqlhtml.SQLFORM object at 0x10b0890>'
p3637
sS'url'
p3638
g3617
sS'global URL'
p3639
S'<function URL at 0x60d130>'
p3640
sS'global redirect'
p3641
S'<function redirect at 0x44f7f0>'
p3642
sS'form.vars.url'
p3643
S"'http://web2py.com'"
p3644
sS'builtindict'
p3645
S"<type 'dict'>"
p3646
ssg3583
I10
sg3584
(dp3647
I5
S"response.subtitle='experimental!'"
p3648
sI6
S''
sI7
S'def index():'
p3649
sI8
S"    form=SQLFORM.factory(Field('url',requires=IS_URL(),default='http://web2py.com'))"
p3650
sI9
S'    if form.process().accepted:'
p3651
sI10
S"        redirect(URL('edit',dict(url=form.vars.url)))"
p3652
sI11
S'    return dict(form=form)'
p3653
sI12
S''
sI13
S'def edit():'
p3654
sI14
S'    import urllib,re'
p3655
ssg3596
S'()'
p3656
sg3598
g2239
sa(dp3657
g3575
S'/Users/mdipierro/Dropbox/web2py/gluon/html.py'
p3658
sg3577
(dp3659
S'builtinSyntaxError'
p3660
S"<type 'exceptions.SyntaxError'>"
p3661
ssg3583
I233
sg3584
(dp3662
I228
S'    if f:'
p3663
sI229
S'        if not isinstance(f, str):'
p3664
sI230
S"            if hasattr(f,'__name__'):"
p3665
sI231
S'                function = f.__name__'
p3666
sI232
S'            else:'
p3667
sI233
S"                raise SyntaxError, 'when calling URL, function or function name required'"
p3668
sI234
S"        elif '.' in f:"
p3669
sI235
S"            function, extension = f.split('.', 1)"
p3670
sI236
S'        else:'
p3671
sI237
S'            function = f'
p3672
ssg3596
S"(a=None, c='edit', f={'url': 'http://web2py.com'}, r=<Storage {'body': <open file '<fdopen>', mode 'w...28c88da02a27', '_formname': 'no_table/create'}>}>, args=[], vars={}, anchor='', extension=None, env=<Storage {'content_length': '393', 'debugging': ...[]), 'query_string': '', 'wsgi_run_once': False}>, hmac_key=None, hash_vars=True, salt=None, user_signature=None, scheme=None, host=None, port=None, encode_embedded_slash=False)"
p3673
sg3598
S'URL'
p3674
sasS'pyver'
p3675
S'Python 2.5.4: /usr/bin/python2.5'
p3676
sS'session'
p3677
g61
(g62
g63
NtRp3678
(dp3679
g66
(dp3680
sg68
(lp3681
g61
(g70
g63
NtRp3682
(dp3683
g66
(dp3684
g74
I5
ssg75
Nsg68
(lp3685
sbasbsS'etype'
p3686
S"<type 'exceptions.SyntaxError'>"
p3687
sS'date'
p3688
S'Sat Dec 10 01:00:02 2011'
p3689
sS'response'
p3690
g61
(g62
g63
NtRp3691
(dp3692
g66
(dp3693
sg68
(lp3694
g61
(g70
g63
NtRp3695
(dp3696
g66
(dp3697
g74
I5
ssg75
Nsg68
(lp3698
g61
(g77
g63
NtRp3699
(dp3700
g66
(dp3701
sg75
g3695
sg68
(lp3702
g61
(g82
g63
NtRp3703
(dp3704
g66
(dp3705
g86
g87
ssg75
g3699
sg68
(lp3706
g159
asbag61
(g82
g63
NtRp3707
(dp3708
g66
(dp3709
g93
g94
ssg75
g3699
sg68
(lp3710
S':'
asbag61
(g82
g63
NtRp3711
(dp3712
g66
(dp3713
sg75
g3699
sg68
(lp3714
g61
(g62
g63
NtRp3715
(dp3716
g66
(dp3717
g74
I5
ssg75
g3711
sg68
(lp3718
S'<cStringIO.StringO object at 0x114e8e0>'
p3719
asbasbasbag61
(g77
g63
NtRp3720
(dp3721
g66
(dp3722
sg75
g3695
sg68
(lp3723
g61
(g82
g63
NtRp3724
(dp3725
g66
(dp3726
g86
g87
ssg75
g3720
sg68
(lp3727
g225
asbag61
(g82
g63
NtRp3728
(dp3729
g66
(dp3730
g93
g94
ssg75
g3720
sg68
(lp3731
S':'
asbag61
(g82
g63
NtRp3732
(dp3733
g66
(dp3734
sg75
g3720
sg68
(lp3735
g61
(g62
g63
NtRp3736
(dp3737
g66
(dp3738
g74
I5
ssg75
g3732
sg68
(lp3739
g61
(g70
g63
NtRp3740
(dp3741
g66
(dp3742
g74
I4
ssg75
Nsg68
(lp3743
g61
(g77
g63
NtRp3744
(dp3745
g66
(dp3746
sg75
g3740
sg68
(lp3747
g61
(g82
g63
NtRp3748
(dp3749
g66
(dp3750
g86
g87
ssg75
g3744
sg68
(lp3751
S'session_id_inplace'
p3752
asbag61
(g82
g63
NtRp3753
(dp3754
g66
(dp3755
g93
g94
ssg75
g3744
sg68
(lp3756
S':'
asbag61
(g82
g63
NtRp3757
(dp3758
g66
(dp3759
sg75
g3744
sg68
(lp3760
g61
(g62
g63
NtRp3761
(dp3762
g66
(dp3763
g74
I4
ssg75
g3757
sg68
(lp3764
g61
(g70
g63
NtRp3765
(dp3766
g66
(dp3767
g74
I3
ssg75
Nsg68
(lp3768
g61
(g77
g63
NtRp3769
(dp3770
g66
(dp3771
sg75
g3765
sg68
(lp3772
g61
(g82
g63
NtRp3773
(dp3774
g66
(dp3775
g86
g87
ssg75
g3769
sg68
(lp3776
g275
asbag61
(g82
g63
NtRp3777
(dp3778
g66
(dp3779
g93
g94
ssg75
g3769
sg68
(lp3780
S':'
asbag61
(g82
g63
NtRp3781
(dp3782
g66
(dp3783
sg75
g3769
sg68
(lp3784
g61
(g62
g63
NtRp3785
(dp3786
g66
(dp3787
g74
I3
ssg75
g3781
sg68
(lp3788
S''
asbasbasbag61
(g77
g63
NtRp3789
(dp3790
g66
(dp3791
sg75
g3765
sg68
(lp3792
g61
(g82
g63
NtRp3793
(dp3794
g66
(dp3795
g86
g87
ssg75
g3789
sg68
(lp3796
g296
asbag61
(g82
g63
NtRp3797
(dp3798
g66
(dp3799
g93
g94
ssg75
g3789
sg68
(lp3800
S':'
asbag61
(g82
g63
NtRp3801
(dp3802
g66
(dp3803
sg75
g3789
sg68
(lp3804
g61
(g62
g63
NtRp3805
(dp3806
g66
(dp3807
g74
I3
ssg75
g3801
sg68
(lp3808
S''
asbasbasbag61
(g77
g63
NtRp3809
(dp3810
g66
(dp3811
sg75
g3765
sg68
(lp3812
g61
(g82
g63
NtRp3813
(dp3814
g66
(dp3815
g86
g87
ssg75
g3809
sg68
(lp3816
g317
asbag61
(g82
g63
NtRp3817
(dp3818
g66
(dp3819
g93
g94
ssg75
g3809
sg68
(lp3820
S':'
asbag61
(g82
g63
NtRp3821
(dp3822
g66
(dp3823
sg75
g3809
sg68
(lp3824
g61
(g62
g63
NtRp3825
(dp3826
g66
(dp3827
g74
I3
ssg75
g3821
sg68
(lp3828
S''
asbasbasbag61
(g77
g63
NtRp3829
(dp3830
g66
(dp3831
sg75
g3765
sg68
(lp3832
g61
(g82
g63
NtRp3833
(dp3834
g66
(dp3835
g86
g87
ssg75
g3829
sg68
(lp3836
g338
asbag61
(g82
g63
NtRp3837
(dp3838
g66
(dp3839
g93
g94
ssg75
g3829
sg68
(lp3840
S':'
asbag61
(g82
g63
NtRp3841
(dp3842
g66
(dp3843
sg75
g3829
sg68
(lp3844
g61
(g62
g63
NtRp3845
(dp3846
g66
(dp3847
g74
I3
ssg75
g3841
sg68
(lp3848
S''
asbasbasbag61
(g77
g63
NtRp3849
(dp3850
g66
(dp3851
sg75
g3765
sg68
(lp3852
g61
(g82
g63
NtRp3853
(dp3854
g66
(dp3855
g86
g87
ssg75
g3849
sg68
(lp3856
g359
asbag61
(g82
g63
NtRp3857
(dp3858
g66
(dp3859
g93
g94
ssg75
g3849
sg68
(lp3860
S':'
asbag61
(g82
g63
NtRp3861
(dp3862
g66
(dp3863
sg75
g3849
sg68
(lp3864
g61
(g62
g63
NtRp3865
(dp3866
g66
(dp3867
g74
I3
ssg75
g3861
sg68
(lp3868
S'/'
asbasbasbag61
(g77
g63
NtRp3869
(dp3870
g66
(dp3871
sg75
g3765
sg68
(lp3872
g61
(g82
g63
NtRp3873
(dp3874
g66
(dp3875
g86
g87
ssg75
g3869
sg68
(lp3876
g380
asbag61
(g82
g63
NtRp3877
(dp3878
g66
(dp3879
g93
g94
ssg75
g3869
sg68
(lp3880
S':'
asbag61
(g82
g63
NtRp3881
(dp3882
g66
(dp3883
sg75
g3869
sg68
(lp3884
g61
(g62
g63
NtRp3885
(dp3886
g66
(dp3887
g74
I3
ssg75
g3881
sg68
(lp3888
S''
asbasbasbag61
(g77
g63
NtRp3889
(dp3890
g66
(dp3891
sg75
g3765
sg68
(lp3892
g61
(g82
g63
NtRp3893
(dp3894
g66
(dp3895
g86
g87
ssg75
g3889
sg68
(lp3896
g401
asbag61
(g82
g63
NtRp3897
(dp3898
g66
(dp3899
g93
g94
ssg75
g3889
sg68
(lp3900
S':'
asbag61
(g82
g63
NtRp3901
(dp3902
g66
(dp3903
sg75
g3889
sg68
(lp3904
g61
(g62
g63
NtRp3905
(dp3906
g66
(dp3907
g74
I3
ssg75
g3901
sg68
(lp3908
S''
asbasbasbasbasbasbasbasbasbasbasbag61
(g77
g63
NtRp3909
(dp3910
g66
(dp3911
sg75
g3695
sg68
(lp3912
g61
(g82
g63
NtRp3913
(dp3914
g66
(dp3915
g86
g87
ssg75
g3909
sg68
(lp3916
S'files'
p3917
asbag61
(g82
g63
NtRp3918
(dp3919
g66
(dp3920
g93
g94
ssg75
g3909
sg68
(lp3921
S':'
asbag61
(g82
g63
NtRp3922
(dp3923
g66
(dp3924
sg75
g3909
sg68
(lp3925
g61
(g62
g63
NtRp3926
(dp3927
g66
(dp3928
g74
I5
ssg75
g3922
sg68
(lp3929
g61
(g70
g63
NtRp3930
(dp3931
g66
(dp3932
g74
I4
ssg75
Nsg68
(lp3933
sbasbasbasbag61
(g77
g63
NtRp3934
(dp3935
g66
(dp3936
sg75
g3695
sg68
(lp3937
g61
(g82
g63
NtRp3938
(dp3939
g66
(dp3940
g86
g87
ssg75
g3934
sg68
(lp3941
S'flash'
p3942
asbag61
(g82
g63
NtRp3943
(dp3944
g66
(dp3945
g93
g94
ssg75
g3934
sg68
(lp3946
S':'
asbag61
(g82
g63
NtRp3947
(dp3948
g66
(dp3949
sg75
g3934
sg68
(lp3950
g61
(g62
g63
NtRp3951
(dp3952
g66
(dp3953
g74
I5
ssg75
g3947
sg68
(lp3954
cgluon.languages
lazyT_unpickle
p3955
(S's\x08\x00\x00\x00Success!'
tRp3956
asbasbasbag61
(g77
g63
NtRp3957
(dp3958
g66
(dp3959
sg75
g3695
sg68
(lp3960
g61
(g82
g63
NtRp3961
(dp3962
g66
(dp3963
g86
g87
ssg75
g3957
sg68
(lp3964
S'generic_patterns'
p3965
asbag61
(g82
g63
NtRp3966
(dp3967
g66
(dp3968
g93
g94
ssg75
g3957
sg68
(lp3969
S':'
asbag61
(g82
g63
NtRp3970
(dp3971
g66
(dp3972
sg75
g3957
sg68
(lp3973
g61
(g62
g63
NtRp3974
(dp3975
g66
(dp3976
g74
I5
ssg75
g3970
sg68
(lp3977
g61
(g70
g63
NtRp3978
(dp3979
g66
(dp3980
g74
I4
ssg75
Nsg68
(lp3981
g61
(g77
g63
NtRp3982
(dp3983
g66
(dp3984
sg75
g3978
sg68
(lp3985
g61
(g82
g63
NtRp3986
(dp3987
g66
(dp3988
sg75
g3982
sg68
(lp3989
g61
(g62
g63
NtRp3990
(dp3991
g66
(dp3992
g74
I4
ssg75
g3986
sg68
(lp3993
S'*'
asbasbasbasbasbasbasbag61
(g77
g63
NtRp3994
(dp3995
g66
(dp3996
sg75
g3695
sg68
(lp3997
g61
(g82
g63
NtRp3998
(dp3999
g66
(dp4000
g86
g87
ssg75
g3994
sg68
(lp4001
S'headers'
p4002
asbag61
(g82
g63
NtRp4003
(dp4004
g66
(dp4005
g93
g94
ssg75
g3994
sg68
(lp4006
S':'
asbag61
(g82
g63
NtRp4007
(dp4008
g66
(dp4009
sg75
g3994
sg68
(lp4010
g61
(g62
g63
NtRp4011
(dp4012
g66
(dp4013
g74
I5
ssg75
g4007
sg68
(lp4014
g61
(g70
g63
NtRp4015
(dp4016
g66
(dp4017
g74
I4
ssg75
Nsg68
(lp4018
g61
(g77
g63
NtRp4019
(dp4020
g66
(dp4021
sg75
g4015
sg68
(lp4022
g61
(g82
g63
NtRp4023
(dp4024
g66
(dp4025
g86
g87
ssg75
g4019
sg68
(lp4026
S'Cache-Control'
p4027
asbag61
(g82
g63
NtRp4028
(dp4029
g66
(dp4030
g93
g94
ssg75
g4019
sg68
(lp4031
S':'
asbag61
(g82
g63
NtRp4032
(dp4033
g66
(dp4034
sg75
g4019
sg68
(lp4035
g61
(g62
g63
NtRp4036
(dp4037
g66
(dp4038
g74
I4
ssg75
g4032
sg68
(lp4039
S'no-store, no-cache, must-revalidate, post-check=0, pre-check=0'
p4040
asbasbasbag61
(g77
g63
NtRp4041
(dp4042
g66
(dp4043
sg75
g4015
sg68
(lp4044
g61
(g82
g63
NtRp4045
(dp4046
g66
(dp4047
g86
g87
ssg75
g4041
sg68
(lp4048
S'Content-Type'
p4049
asbag61
(g82
g63
NtRp4050
(dp4051
g66
(dp4052
g93
g94
ssg75
g4041
sg68
(lp4053
S':'
asbag61
(g82
g63
NtRp4054
(dp4055
g66
(dp4056
sg75
g4041
sg68
(lp4057
g61
(g62
g63
NtRp4058
(dp4059
g66
(dp4060
g74
I4
ssg75
g4054
sg68
(lp4061
S'text/html; charset=utf-8'
p4062
asbasbasbag61
(g77
g63
NtRp4063
(dp4064
g66
(dp4065
sg75
g4015
sg68
(lp4066
g61
(g82
g63
NtRp4067
(dp4068
g66
(dp4069
g86
g87
ssg75
g4063
sg68
(lp4070
S'Expires'
p4071
asbag61
(g82
g63
NtRp4072
(dp4073
g66
(dp4074
g93
g94
ssg75
g4063
sg68
(lp4075
S':'
asbag61
(g82
g63
NtRp4076
(dp4077
g66
(dp4078
sg75
g4063
sg68
(lp4079
g61
(g62
g63
NtRp4080
(dp4081
g66
(dp4082
g74
I4
ssg75
g4076
sg68
(lp4083
S'Sat, 10 Dec 2011 07:00:02 GMT'
p4084
asbasbasbag61
(g77
g63
NtRp4085
(dp4086
g66
(dp4087
sg75
g4015
sg68
(lp4088
g61
(g82
g63
NtRp4089
(dp4090
g66
(dp4091
g86
g87
ssg75
g4085
sg68
(lp4092
S'Pragma'
p4093
asbag61
(g82
g63
NtRp4094
(dp4095
g66
(dp4096
g93
g94
ssg75
g4085
sg68
(lp4097
S':'
asbag61
(g82
g63
NtRp4098
(dp4099
g66
(dp4100
sg75
g4085
sg68
(lp4101
g61
(g62
g63
NtRp4102
(dp4103
g66
(dp4104
g74
I4
ssg75
g4098
sg68
(lp4105
S'no-cache'
p4106
asbasbasbag61
(g77
g63
NtRp4107
(dp4108
g66
(dp4109
sg75
g4015
sg68
(lp4110
g61
(g82
g63
NtRp4111
(dp4112
g66
(dp4113
g86
g87
ssg75
g4107
sg68
(lp4114
S'X-Powered-By'
p4115
asbag61
(g82
g63
NtRp4116
(dp4117
g66
(dp4118
g93
g94
ssg75
g4107
sg68
(lp4119
S':'
asbag61
(g82
g63
NtRp4120
(dp4121
g66
(dp4122
sg75
g4107
sg68
(lp4123
g61
(g62
g63
NtRp4124
(dp4125
g66
(dp4126
g74
I4
ssg75
g4120
sg68
(lp4127
S'web2py'
p4128
asbasbasbasbasbasbasbag61
(g77
g63
NtRp4129
(dp4130
g66
(dp4131
sg75
g3695
sg68
(lp4132
g61
(g82
g63
NtRp4133
(dp4134
g66
(dp4135
g86
g87
ssg75
g4129
sg68
(lp4136
S'menu'
p4137
asbag61
(g82
g63
NtRp4138
(dp4139
g66
(dp4140
g93
g94
ssg75
g4129
sg68
(lp4141
S':'
asbag61
(g82
g63
NtRp4142
(dp4143
g66
(dp4144
sg75
g4129
sg68
(lp4145
g61
(g62
g63
NtRp4146
(dp4147
g66
(dp4148
g74
I5
ssg75
g4142
sg68
(lp4149
g61
(g70
g63
NtRp4150
(dp4151
g66
(dp4152
g74
I4
ssg75
Nsg68
(lp4153
g61
(g77
g63
NtRp4154
(dp4155
g66
(dp4156
sg75
g4150
sg68
(lp4157
g61
(g82
g63
NtRp4158
(dp4159
g66
(dp4160
sg75
g4154
sg68
(lp4161
g61
(g62
g63
NtRp4162
(dp4163
g66
(dp4164
g74
I4
ssg75
g4158
sg68
(lp4165
g61
(g70
g63
NtRp4166
(dp4167
g66
(dp4168
g74
I3
ssg75
Nsg68
(lp4169
g61
(g77
g63
NtRp4170
(dp4171
g66
(dp4172
sg75
g4166
sg68
(lp4173
g61
(g82
g63
NtRp4174
(dp4175
g66
(dp4176
sg75
g4170
sg68
(lp4177
g61
(g62
g63
NtRp4178
(dp4179
g66
(dp4180
g74
I3
ssg75
g4174
sg68
(lp4181
g3955
(S's\x04\x00\x00\x00Home'
tRp4182
asbasbasbag61
(g77
g63
NtRp4183
(dp4184
g66
(dp4185
sg75
g4166
sg68
(lp4186
g61
(g82
g63
NtRp4187
(dp4188
g66
(dp4189
sg75
g4183
sg68
(lp4190
g61
(g62
g63
NtRp4191
(dp4192
g66
(dp4193
g74
I3
ssg75
g4187
sg68
(lp4194
g104
asbasbasbag61
(g77
g63
NtRp4195
(dp4196
g66
(dp4197
sg75
g4166
sg68
(lp4198
g61
(g82
g63
NtRp4199
(dp4200
g66
(dp4201
sg75
g4195
sg68
(lp4202
g61
(g62
g63
NtRp4203
(dp4204
g66
(dp4205
g74
I3
ssg75
g4199
sg68
(lp4206
S'/inplace/default/index'
p4207
asbasbasbag61
(g77
g63
NtRp4208
(dp4209
g66
(dp4210
sg75
g4166
sg68
(lp4211
g61
(g82
g63
NtRp4212
(dp4213
g66
(dp4214
sg75
g4208
sg68
(lp4215
g61
(g62
g63
NtRp4216
(dp4217
g66
(dp4218
g74
I3
ssg75
g4212
sg68
(lp4219
g61
(g70
g63
NtRp4220
(dp4221
g66
(dp4222
g74
I2
ssg75
Nsg68
(lp4223
sbasbasbasbasbasbasbasbag61
(g77
g63
NtRp4224
(dp4225
g66
(dp4226
sg75
g4150
sg68
(lp4227
g61
(g82
g63
NtRp4228
(dp4229
g66
(dp4230
sg75
g4224
sg68
(lp4231
g61
(g62
g63
NtRp4232
(dp4233
g66
(dp4234
g74
I4
ssg75
g4228
sg68
(lp4235
g61
(g70
g63
NtRp4236
(dp4237
g66
(dp4238
g74
I3
ssg75
Nsg68
(lp4239
g61
(g77
g63
NtRp4240
(dp4241
g66
(dp4242
sg75
g4236
sg68
(lp4243
g61
(g82
g63
NtRp4244
(dp4245
g66
(dp4246
sg75
g4240
sg68
(lp4247
g61
(g62
g63
NtRp4248
(dp4249
g66
(dp4250
g74
I3
ssg75
g4244
sg68
(lp4251
g61
(cgluon.html
SPAN
p4252
g63
NtRp4253
(dp4254
g66
(dp4255
g86
S'color:yellow'
p4256
ssg75
Nsg68
(lp4257
g4128
asbasbasbasbag61
(g77
g63
NtRp4258
(dp4259
g66
(dp4260
sg75
g4236
sg68
(lp4261
g61
(g82
g63
NtRp4262
(dp4263
g66
(dp4264
sg75
g4258
sg68
(lp4265
g61
(g62
g63
NtRp4266
(dp4267
g66
(dp4268
g74
I3
ssg75
g4262
sg68
(lp4269
g104
asbasbasbag61
(g77
g63
NtRp4270
(dp4271
g66
(dp4272
sg75
g4236
sg68
(lp4273
g61
(g82
g63
NtRp4274
(dp4275
g66
(dp4276
sg75
g4270
sg68
(lp4277
g61
(g62
g63
NtRp4278
(dp4279
g66
(dp4280
g74
I3
ssg75
g4274
sg68
(lp4281
S'None'
p4282
asbasbasbag61
(g77
g63
NtRp4283
(dp4284
g66
(dp4285
sg75
g4236
sg68
(lp4286
g61
(g82
g63
NtRp4287
(dp4288
g66
(dp4289
sg75
g4283
sg68
(lp4290
g61
(g62
g63
NtRp4291
(dp4292
g66
(dp4293
g74
I3
ssg75
g4287
sg68
(lp4294
g61
(g70
g63
NtRp4295
(dp4296
g66
(dp4297
g74
I2
ssg75
Nsg68
(lp4298
g61
(g77
g63
NtRp4299
(dp4300
g66
(dp4301
sg75
g4295
sg68
(lp4302
g61
(g82
g63
NtRp4303
(dp4304
g66
(dp4305
sg75
g4299
sg68
(lp4306
g61
(g62
g63
NtRp4307
(dp4308
g66
(dp4309
g74
I2
ssg75
g4303
sg68
(lp4310
g61
(g70
g63
NtRp4311
(dp4312
g66
(dp4313
g74
I1
ssg75
Nsg68
(lp4314
g61
(g77
g63
NtRp4315
(dp4316
g66
(dp4317
sg75
g4311
sg68
(lp4318
g61
(g82
g63
NtRp4319
(dp4320
g66
(dp4321
sg75
g4315
sg68
(lp4322
g61
(g62
g63
NtRp4323
(dp4324
g66
(dp4325
g74
I1
ssg75
g4319
sg68
(lp4326
g3955
(S's\x08\x00\x00\x00My Sites'
tRp4327
asbasbasbag61
(g77
g63
NtRp4328
(dp4329
g66
(dp4330
sg75
g4311
sg68
(lp4331
g61
(g82
g63
NtRp4332
(dp4333
g66
(dp4334
sg75
g4328
sg68
(lp4335
g61
(g62
g63
NtRp4336
(dp4337
g66
(dp4338
g74
I1
ssg75
g4332
sg68
(lp4339
I00
asbasbasbag61
(g77
g63
NtRp4340
(dp4341
g66
(dp4342
sg75
g4311
sg68
(lp4343
g61
(g82
g63
NtRp4344
(dp4345
g66
(dp4346
sg75
g4340
sg68
(lp4347
g61
(g62
g63
NtRp4348
(dp4349
g66
(dp4350
g74
I1
ssg75
g4344
sg68
(lp4351
S'/admin/default/site'
p4352
asbasbasbasbasbasbasbag61
(g77
g63
NtRp4353
(dp4354
g66
(dp4355
sg75
g4295
sg68
(lp4356
g61
(g82
g63
NtRp4357
(dp4358
g66
(dp4359
sg75
g4353
sg68
(lp4360
g61
(g62
g63
NtRp4361
(dp4362
g66
(dp4363
g74
I2
ssg75
g4357
sg68
(lp4364
g61
(g70
g63
NtRp4365
(dp4366
g66
(dp4367
g74
I1
ssg75
Nsg68
(lp4368
g61
(g77
g63
NtRp4369
(dp4370
g66
(dp4371
sg75
g4365
sg68
(lp4372
g61
(g82
g63
NtRp4373
(dp4374
g66
(dp4375
sg75
g4369
sg68
(lp4376
g61
(g62
g63
NtRp4377
(dp4378
g66
(dp4379
g74
I1
ssg75
g4373
sg68
(lp4380
g3955
(S's\x08\x00\x00\x00This App'
tRp4381
asbasbasbag61
(g77
g63
NtRp4382
(dp4383
g66
(dp4384
sg75
g4365
sg68
(lp4385
g61
(g82
g63
NtRp4386
(dp4387
g66
(dp4388
sg75
g4382
sg68
(lp4389
g61
(g62
g63
NtRp4390
(dp4391
g66
(dp4392
g74
I1
ssg75
g4386
sg68
(lp4393
I00
asbasbasbag61
(g77
g63
NtRp4394
(dp4395
g66
(dp4396
sg75
g4365
sg68
(lp4397
g61
(g82
g63
NtRp4398
(dp4399
g66
(dp4400
sg75
g4394
sg68
(lp4401
g61
(g62
g63
NtRp4402
(dp4403
g66
(dp4404
g74
I1
ssg75
g4398
sg68
(lp4405
S'/admin/default/design/inplace'
p4406
asbasbasbag61
(g77
g63
NtRp4407
(dp4408
g66
(dp4409
sg75
g4365
sg68
(lp4410
g61
(g82
g63
NtRp4411
(dp4412
g66
(dp4413
sg75
g4407
sg68
(lp4414
g61
(g62
g63
NtRp4415
(dp4416
g66
(dp4417
g74
I1
ssg75
g4411
sg68
(lp4418
(lp4419
(g3955
(S's\n\x00\x00\x00Controller'
tRp4420
I00
S'/admin/default/edit/inplace/controllers/default.py'
tp4421
a(g3955
(S's\x04\x00\x00\x00View'
tRp4422
I00
S'/admin/default/edit/inplace/views/default/index.html'
tp4423
a(g3955
(S's\x06\x00\x00\x00Layout'
tRp4424
I00
S'/admin/default/edit/inplace/views/layout.html'
tp4425
a(g3955
(S's\n\x00\x00\x00Stylesheet'
tRp4426
I00
S'/admin/default/edit/inplace/static/css/web2py.css'
tp4427
a(g3955
(S's\x08\x00\x00\x00DB Model'
tRp4428
I00
S'/admin/default/edit/inplace/models/db.py'
tp4429
a(g3955
(S's\n\x00\x00\x00Menu Model'
tRp4430
I00
S'/admin/default/edit/inplace/models/menu.py'
tp4431
a(g3955
(S's\x08\x00\x00\x00Database'
tRp4432
I00
S'/inplace/appadmin/index'
tp4433
a(g3955
(S's\x06\x00\x00\x00Errors'
tRp4434
I00
S'/admin/default/errors/inplace'
tp4435
a(g3955
(S's\x05\x00\x00\x00About'
tRp4436
I00
S'/admin/default/about/inplace'
tp4437
aasbasbasbasbasbasbasbag61
(g77
g63
NtRp4438
(dp4439
g66
(dp4440
sg75
g4295
sg68
(lp4441
g61
(g82
g63
NtRp4442
(dp4443
g66
(dp4444
sg75
g4438
sg68
(lp4445
g61
(g62
g63
NtRp4446
(dp4447
g66
(dp4448
g74
I2
ssg75
g4442
sg68
(lp4449
g61
(g70
g63
NtRp4450
(dp4451
g66
(dp4452
g74
I1
ssg75
Nsg68
(lp4453
g61
(g77
g63
NtRp4454
(dp4455
g66
(dp4456
sg75
g4450
sg68
(lp4457
g61
(g82
g63
NtRp4458
(dp4459
g66
(dp4460
sg75
g4454
sg68
(lp4461
g61
(g62
g63
NtRp4462
(dp4463
g66
(dp4464
g74
I1
ssg75
g4458
sg68
(lp4465
S'web2py.com'
p4466
asbasbasbag61
(g77
g63
NtRp4467
(dp4468
g66
(dp4469
sg75
g4450
sg68
(lp4470
g61
(g82
g63
NtRp4471
(dp4472
g66
(dp4473
sg75
g4467
sg68
(lp4474
g61
(g62
g63
NtRp4475
(dp4476
g66
(dp4477
g74
I1
ssg75
g4471
sg68
(lp4478
I00
asbasbasbag61
(g77
g63
NtRp4479
(dp4480
g66
(dp4481
sg75
g4450
sg68
(lp4482
g61
(g82
g63
NtRp4483
(dp4484
g66
(dp4485
sg75
g4479
sg68
(lp4486
g61
(g62
g63
NtRp4487
(dp4488
g66
(dp4489
g74
I1
ssg75
g4483
sg68
(lp4490
S'http://www.web2py.com'
p4491
asbasbasbag61
(g77
g63
NtRp4492
(dp4493
g66
(dp4494
sg75
g4450
sg68
(lp4495
g61
(g82
g63
NtRp4496
(dp4497
g66
(dp4498
sg75
g4492
sg68
(lp4499
g61
(g62
g63
NtRp4500
(dp4501
g66
(dp4502
g74
I1
ssg75
g4496
sg68
(lp4503
(lp4504
(g3955
(S's\x08\x00\x00\x00Download'
tRp4505
I00
S'http://www.web2py.com/examples/default/download'
p4506
tp4507
a(g3955
(S's\x07\x00\x00\x00Support'
tRp4508
I00
S'http://www.web2py.com/examples/default/support'
p4509
tp4510
a(g3955
(S's\x04\x00\x00\x00Demo'
tRp4511
I00
S'http://web2py.com/demo_admin'
p4512
tp4513
a(g3955
(S's\x0e\x00\x00\x00Quick Examples'
tRp4514
I00
S'http://web2py.com/examples/default/examples'
p4515
tp4516
a(g3955
(S's\x03\x00\x00\x00FAQ'
tRp4517
I00
S'http://web2py.com/AlterEgo'
p4518
tp4519
a(g3955
(S's\x06\x00\x00\x00Videos'
tRp4520
I00
S'http://www.web2py.com/examples/default/videos/'
p4521
tp4522
a(g3955
(S's\x11\x00\x00\x00Free Applications'
tRp4523
I00
S'http://web2py.com/appliances'
p4524
tp4525
a(g3955
(S's\x07\x00\x00\x00Plugins'
tRp4526
I00
S'http://web2py.com/plugins'
p4527
tp4528
a(g3955
(S's\x07\x00\x00\x00Layouts'
tRp4529
I00
S'http://web2py.com/layouts'
p4530
tp4531
a(g3955
(S's\x07\x00\x00\x00Recipes'
tRp4532
I00
S'http://web2pyslices.com/'
p4533
tp4534
a(g3955
(S's\x08\x00\x00\x00Semantic'
tRp4535
I00
S'http://web2py.com/semantic'
p4536
tp4537
aasbasbasbasbasbasbasbag61
(g77
g63
NtRp4538
(dp4539
g66
(dp4540
sg75
g4295
sg68
(lp4541
g61
(g82
g63
NtRp4542
(dp4543
g66
(dp4544
sg75
g4538
sg68
(lp4545
g61
(g62
g63
NtRp4546
(dp4547
g66
(dp4548
g74
I2
ssg75
g4542
sg68
(lp4549
g61
(g70
g63
NtRp4550
(dp4551
g66
(dp4552
g74
I1
ssg75
Nsg68
(lp4553
g61
(g77
g63
NtRp4554
(dp4555
g66
(dp4556
sg75
g4550
sg68
(lp4557
g61
(g82
g63
NtRp4558
(dp4559
g66
(dp4560
sg75
g4554
sg68
(lp4561
g61
(g62
g63
NtRp4562
(dp4563
g66
(dp4564
g74
I1
ssg75
g4558
sg68
(lp4565
g3955
(S's\r\x00\x00\x00Documentation'
tRp4566
asbasbasbag61
(g77
g63
NtRp4567
(dp4568
g66
(dp4569
sg75
g4550
sg68
(lp4570
g61
(g82
g63
NtRp4571
(dp4572
g66
(dp4573
sg75
g4567
sg68
(lp4574
g61
(g62
g63
NtRp4575
(dp4576
g66
(dp4577
g74
I1
ssg75
g4571
sg68
(lp4578
I00
asbasbasbag61
(g77
g63
NtRp4579
(dp4580
g66
(dp4581
sg75
g4550
sg68
(lp4582
g61
(g82
g63
NtRp4583
(dp4584
g66
(dp4585
sg75
g4579
sg68
(lp4586
g61
(g62
g63
NtRp4587
(dp4588
g66
(dp4589
g74
I1
ssg75
g4583
sg68
(lp4590
S'http://www.web2py.com/book'
p4591
asbasbasbag61
(g77
g63
NtRp4592
(dp4593
g66
(dp4594
sg75
g4550
sg68
(lp4595
g61
(g82
g63
NtRp4596
(dp4597
g66
(dp4598
sg75
g4592
sg68
(lp4599
g61
(g62
g63
NtRp4600
(dp4601
g66
(dp4602
g74
I1
ssg75
g4596
sg68
(lp4603
(lp4604
(g3955
(S's\x07\x00\x00\x00Preface'
tRp4605
I00
S'http://www.web2py.com/book/default/chapter/00'
p4606
tp4607
a(g3955
(S's\x0c\x00\x00\x00Introduction'
tRp4608
I00
S'http://www.web2py.com/book/default/chapter/01'
p4609
tp4610
a(g3955
(S's\x06\x00\x00\x00Python'
tRp4611
I00
S'http://www.web2py.com/book/default/chapter/02'
p4612
tp4613
a(g3955
(S's\x08\x00\x00\x00Overview'
tRp4614
I00
S'http://www.web2py.com/book/default/chapter/03'
p4615
tp4616
a(g3955
(S's\x08\x00\x00\x00The Core'
tRp4617
I00
S'http://www.web2py.com/book/default/chapter/04'
p4618
tp4619
a(g3955
(S's\t\x00\x00\x00The Views'
tRp4620
I00
S'http://www.web2py.com/book/default/chapter/05'
p4621
tp4622
a(g3955
(S's\x08\x00\x00\x00Database'
tRp4623
I00
S'http://www.web2py.com/book/default/chapter/06'
p4624
tp4625
a(g3955
(S's\x14\x00\x00\x00Forms and Validators'
tRp4626
I00
S'http://www.web2py.com/book/default/chapter/07'
p4627
tp4628
a(g3955
(S's\r\x00\x00\x00Email and SMS'
tRp4629
I00
S'http://www.web2py.com/book/default/chapter/08'
p4630
tp4631
a(g3955
(S's\x0e\x00\x00\x00Access Control'
tRp4632
I00
S'http://www.web2py.com/book/default/chapter/09'
p4633
tp4634
a(g3955
(S's\x08\x00\x00\x00Services'
tRp4635
I00
S'http://www.web2py.com/book/default/chapter/10'
p4636
tp4637
a(g3955
(S's\x0c\x00\x00\x00Ajax Recipes'
tRp4638
I00
S'http://www.web2py.com/book/default/chapter/11'
p4639
tp4640
a(g3955
(S's\x16\x00\x00\x00Components and Plugins'
tRp4641
I00
S'http://www.web2py.com/book/default/chapter/12'
p4642
tp4643
a(g3955
(S's\x12\x00\x00\x00Deployment Recipes'
tRp4644
I00
S'http://www.web2py.com/book/default/chapter/13'
p4645
tp4646
a(g3955
(S's\r\x00\x00\x00Other Recipes'
tRp4647
I00
S'http://www.web2py.com/book/default/chapter/14'
p4648
tp4649
a(g3955
(S's\r\x00\x00\x00Buy this book'
tRp4650
I00
S'http://stores.lulu.com/web2py'
p4651
tp4652
aasbasbasbasbasbasbasbag61
(g77
g63
NtRp4653
(dp4654
g66
(dp4655
sg75
g4295
sg68
(lp4656
g61
(g82
g63
NtRp4657
(dp4658
g66
(dp4659
sg75
g4653
sg68
(lp4660
g61
(g62
g63
NtRp4661
(dp4662
g66
(dp4663
g74
I2
ssg75
g4657
sg68
(lp4664
g61
(g70
g63
NtRp4665
(dp4666
g66
(dp4667
g74
I1
ssg75
Nsg68
(lp4668
g61
(g77
g63
NtRp4669
(dp4670
g66
(dp4671
sg75
g4665
sg68
(lp4672
g61
(g82
g63
NtRp4673
(dp4674
g66
(dp4675
sg75
g4669
sg68
(lp4676
g61
(g62
g63
NtRp4677
(dp4678
g66
(dp4679
g74
I1
ssg75
g4673
sg68
(lp4680
g3955
(S's\t\x00\x00\x00Community'
tRp4681
asbasbasbag61
(g77
g63
NtRp4682
(dp4683
g66
(dp4684
sg75
g4665
sg68
(lp4685
g61
(g82
g63
NtRp4686
(dp4687
g66
(dp4688
sg75
g4682
sg68
(lp4689
g61
(g62
g63
NtRp4690
(dp4691
g66
(dp4692
g74
I1
ssg75
g4686
sg68
(lp4693
I00
asbasbasbag61
(g77
g63
NtRp4694
(dp4695
g66
(dp4696
sg75
g4665
sg68
(lp4697
g61
(g82
g63
NtRp4698
(dp4699
g66
(dp4700
sg75
g4694
sg68
(lp4701
g61
(g62
g63
NtRp4702
(dp4703
g66
(dp4704
g74
I1
ssg75
g4698
sg68
(lp4705
Nasbasbasbag61
(g77
g63
NtRp4706
(dp4707
g66
(dp4708
sg75
g4665
sg68
(lp4709
g61
(g82
g63
NtRp4710
(dp4711
g66
(dp4712
sg75
g4706
sg68
(lp4713
g61
(g62
g63
NtRp4714
(dp4715
g66
(dp4716
g74
I1
ssg75
g4710
sg68
(lp4717
(lp4718
(g3955
(S's\x06\x00\x00\x00Groups'
tRp4719
I00
S'http://www.web2py.com/examples/default/usergroups'
p4720
tp4721
a(g3955
(S's\x07\x00\x00\x00Twitter'
tRp4722
I00
S'http://twitter.com/web2py'
p4723
tp4724
a(g3955
(S's\t\x00\x00\x00Live Chat'
tRp4725
I00
S'http://webchat.freenode.net/?channels=web2py'
p4726
tp4727
aasbasbasbasbasbasbasbag61
(g77
g63
NtRp4728
(dp4729
g66
(dp4730
sg75
g4295
sg68
(lp4731
g61
(g82
g63
NtRp4732
(dp4733
g66
(dp4734
sg75
g4728
sg68
(lp4735
g61
(g62
g63
NtRp4736
(dp4737
g66
(dp4738
g74
I2
ssg75
g4732
sg68
(lp4739
g61
(g70
g63
NtRp4740
(dp4741
g66
(dp4742
g74
I1
ssg75
Nsg68
(lp4743
g61
(g77
g63
NtRp4744
(dp4745
g66
(dp4746
sg75
g4740
sg68
(lp4747
g61
(g82
g63
NtRp4748
(dp4749
g66
(dp4750
sg75
g4744
sg68
(lp4751
g61
(g62
g63
NtRp4752
(dp4753
g66
(dp4754
g74
I1
ssg75
g4748
sg68
(lp4755
g3955
(S's\x07\x00\x00\x00Plugins'
tRp4756
asbasbasbag61
(g77
g63
NtRp4757
(dp4758
g66
(dp4759
sg75
g4740
sg68
(lp4760
g61
(g82
g63
NtRp4761
(dp4762
g66
(dp4763
sg75
g4757
sg68
(lp4764
g61
(g62
g63
NtRp4765
(dp4766
g66
(dp4767
g74
I1
ssg75
g4761
sg68
(lp4768
I00
asbasbasbag61
(g77
g63
NtRp4769
(dp4770
g66
(dp4771
sg75
g4740
sg68
(lp4772
g61
(g82
g63
NtRp4773
(dp4774
g66
(dp4775
sg75
g4769
sg68
(lp4776
g61
(g62
g63
NtRp4777
(dp4778
g66
(dp4779
g74
I1
ssg75
g4773
sg68
(lp4780
Nasbasbasbag61
(g77
g63
NtRp4781
(dp4782
g66
(dp4783
sg75
g4740
sg68
(lp4784
g61
(g82
g63
NtRp4785
(dp4786
g66
(dp4787
sg75
g4781
sg68
(lp4788
g61
(g62
g63
NtRp4789
(dp4790
g66
(dp4791
g74
I1
ssg75
g4785
sg68
(lp4792
(lp4793
(S'plugin_wiki'
p4794
I00
S'http://web2py.com/examples/default/download'
p4795
tp4796
a(g3955
(S's\r\x00\x00\x00Other Plugins'
tRp4797
I00
g4527
tp4798
a(g3955
(S's\x0e\x00\x00\x00Layout Plugins'
tRp4799
I00
g4530
tp4800
aasbasbasbasbasbasbasbasbasbasbasbasbasbasbasbasbasbasbasbag61
(g77
g63
NtRp4801
(dp4802
g66
(dp4803
sg75
g3695
sg68
(lp4804
g61
(g82
g63
NtRp4805
(dp4806
g66
(dp4807
g86
g87
ssg75
g4801
sg68
(lp4808
S'meta'
p4809
asbag61
(g82
g63
NtRp4810
(dp4811
g66
(dp4812
g93
g94
ssg75
g4801
sg68
(lp4813
S':'
asbag61
(g82
g63
NtRp4814
(dp4815
g66
(dp4816
sg75
g4801
sg68
(lp4817
g61
(g62
g63
NtRp4818
(dp4819
g66
(dp4820
g74
I5
ssg75
g4814
sg68
(lp4821
g61
(g70
g63
NtRp4822
(dp4823
g66
(dp4824
g74
I4
ssg75
Nsg68
(lp4825
g61
(g77
g63
NtRp4826
(dp4827
g66
(dp4828
sg75
g4822
sg68
(lp4829
g61
(g82
g63
NtRp4830
(dp4831
g66
(dp4832
g86
g87
ssg75
g4826
sg68
(lp4833
S'author'
p4834
asbag61
(g82
g63
NtRp4835
(dp4836
g66
(dp4837
g93
g94
ssg75
g4826
sg68
(lp4838
S':'
asbag61
(g82
g63
NtRp4839
(dp4840
g66
(dp4841
sg75
g4826
sg68
(lp4842
g61
(g62
g63
NtRp4843
(dp4844
g66
(dp4845
g74
I4
ssg75
g4839
sg68
(lp4846
S'Your Name <you@example.com>'
p4847
asbasbasbag61
(g77
g63
NtRp4848
(dp4849
g66
(dp4850
sg75
g4822
sg68
(lp4851
g61
(g82
g63
NtRp4852
(dp4853
g66
(dp4854
g86
g87
ssg75
g4848
sg68
(lp4855
S'copyright'
p4856
asbag61
(g82
g63
NtRp4857
(dp4858
g66
(dp4859
g93
g94
ssg75
g4848
sg68
(lp4860
S':'
asbag61
(g82
g63
NtRp4861
(dp4862
g66
(dp4863
sg75
g4848
sg68
(lp4864
g61
(g62
g63
NtRp4865
(dp4866
g66
(dp4867
g74
I4
ssg75
g4861
sg68
(lp4868
S'Copyright 2011'
p4869
asbasbasbag61
(g77
g63
NtRp4870
(dp4871
g66
(dp4872
sg75
g4822
sg68
(lp4873
g61
(g82
g63
NtRp4874
(dp4875
g66
(dp4876
g86
g87
ssg75
g4870
sg68
(lp4877
S'description'
p4878
asbag61
(g82
g63
NtRp4879
(dp4880
g66
(dp4881
g93
g94
ssg75
g4870
sg68
(lp4882
S':'
asbag61
(g82
g63
NtRp4883
(dp4884
g66
(dp4885
sg75
g4870
sg68
(lp4886
g61
(g62
g63
NtRp4887
(dp4888
g66
(dp4889
g74
I4
ssg75
g4883
sg68
(lp4890
S'a cool new app'
p4891
asbasbasbag61
(g77
g63
NtRp4892
(dp4893
g66
(dp4894
sg75
g4822
sg68
(lp4895
g61
(g82
g63
NtRp4896
(dp4897
g66
(dp4898
g86
g87
ssg75
g4892
sg68
(lp4899
S'generator'
p4900
asbag61
(g82
g63
NtRp4901
(dp4902
g66
(dp4903
g93
g94
ssg75
g4892
sg68
(lp4904
S':'
asbag61
(g82
g63
NtRp4905
(dp4906
g66
(dp4907
sg75
g4892
sg68
(lp4908
g61
(g62
g63
NtRp4909
(dp4910
g66
(dp4911
g74
I4
ssg75
g4905
sg68
(lp4912
S'Web2py Web Framework'
p4913
asbasbasbag61
(g77
g63
NtRp4914
(dp4915
g66
(dp4916
sg75
g4822
sg68
(lp4917
g61
(g82
g63
NtRp4918
(dp4919
g66
(dp4920
g86
g87
ssg75
g4914
sg68
(lp4921
S'keywords'
p4922
asbag61
(g82
g63
NtRp4923
(dp4924
g66
(dp4925
g93
g94
ssg75
g4914
sg68
(lp4926
S':'
asbag61
(g82
g63
NtRp4927
(dp4928
g66
(dp4929
sg75
g4914
sg68
(lp4930
g61
(g62
g63
NtRp4931
(dp4932
g66
(dp4933
g74
I4
ssg75
g4927
sg68
(lp4934
S'web2py, python, framework'
p4935
asbasbasbasbasbasbasbag61
(g77
g63
NtRp4936
(dp4937
g66
(dp4938
sg75
g3695
sg68
(lp4939
g61
(g82
g63
NtRp4940
(dp4941
g66
(dp4942
g86
g87
ssg75
g4936
sg68
(lp4943
S'postprocessing'
p4944
asbag61
(g82
g63
NtRp4945
(dp4946
g66
(dp4947
g93
g94
ssg75
g4936
sg68
(lp4948
S':'
asbag61
(g82
g63
NtRp4949
(dp4950
g66
(dp4951
sg75
g4936
sg68
(lp4952
g61
(g62
g63
NtRp4953
(dp4954
g66
(dp4955
g74
I5
ssg75
g4949
sg68
(lp4956
g61
(g70
g63
NtRp4957
(dp4958
g66
(dp4959
g74
I4
ssg75
Nsg68
(lp4960
sbasbasbasbag61
(g77
g63
NtRp4961
(dp4962
g66
(dp4963
sg75
g3695
sg68
(lp4964
g61
(g82
g63
NtRp4965
(dp4966
g66
(dp4967
g86
g87
ssg75
g4961
sg68
(lp4968
S'session_file'
p4969
asbag61
(g82
g63
NtRp4970
(dp4971
g66
(dp4972
g93
g94
ssg75
g4961
sg68
(lp4973
S':'
asbag61
(g82
g63
NtRp4974
(dp4975
g66
(dp4976
sg75
g4961
sg68
(lp4977
g61
(g62
g63
NtRp4978
(dp4979
g66
(dp4980
g74
I5
ssg75
g4974
sg68
(lp4981
S"<open file '/Users/mdipierro/Dropbox/web2py/applications/inplace/sessions/127.0.0.1-b67af904-b8cf-469d-95b3-18285a004db1', mode 'rb+' at 0x109c578>"
p4982
asbasbasbag61
(g77
g63
NtRp4983
(dp4984
g66
(dp4985
sg75
g3695
sg68
(lp4986
g61
(g82
g63
NtRp4987
(dp4988
g66
(dp4989
g86
g87
ssg75
g4983
sg68
(lp4990
S'session_filename'
p4991
asbag61
(g82
g63
NtRp4992
(dp4993
g66
(dp4994
g93
g94
ssg75
g4983
sg68
(lp4995
S':'
asbag61
(g82
g63
NtRp4996
(dp4997
g66
(dp4998
sg75
g4983
sg68
(lp4999
g61
(g62
g63
NtRp5000
(dp5001
g66
(dp5002
g74
I5
ssg75
g4996
sg68
(lp5003
S'/Users/mdipierro/Dropbox/web2py/applications/inplace/sessions/127.0.0.1-b67af904-b8cf-469d-95b3-18285a004db1'
p5004
asbasbasbag61
(g77
g63
NtRp5005
(dp5006
g66
(dp5007
sg75
g3695
sg68
(lp5008
g61
(g82
g63
NtRp5009
(dp5010
g66
(dp5011
g86
g87
ssg75
g5005
sg68
(lp5012
S'session_id'
p5013
asbag61
(g82
g63
NtRp5014
(dp5015
g66
(dp5016
g93
g94
ssg75
g5005
sg68
(lp5017
S':'
asbag61
(g82
g63
NtRp5018
(dp5019
g66
(dp5020
sg75
g5005
sg68
(lp5021
g61
(g62
g63
NtRp5022
(dp5023
g66
(dp5024
g74
I5
ssg75
g5018
sg68
(lp5025
S'127.0.0.1-b67af904-b8cf-469d-95b3-18285a004db1'
p5026
asbasbasbag61
(g77
g63
NtRp5027
(dp5028
g66
(dp5029
sg75
g3695
sg68
(lp5030
g61
(g82
g63
NtRp5031
(dp5032
g66
(dp5033
g86
g87
ssg75
g5027
sg68
(lp5034
S'session_id_name'
p5035
asbag61
(g82
g63
NtRp5036
(dp5037
g66
(dp5038
g93
g94
ssg75
g5027
sg68
(lp5039
S':'
asbag61
(g82
g63
NtRp5040
(dp5041
g66
(dp5042
sg75
g5027
sg68
(lp5043
g61
(g62
g63
NtRp5044
(dp5045
g66
(dp5046
g74
I5
ssg75
g5040
sg68
(lp5047
g3752
asbasbasbag61
(g77
g63
NtRp5048
(dp5049
g66
(dp5050
sg75
g3695
sg68
(lp5051
g61
(g82
g63
NtRp5052
(dp5053
g66
(dp5054
g86
g87
ssg75
g5048
sg68
(lp5055
S'session_locked'
p5056
asbag61
(g82
g63
NtRp5057
(dp5058
g66
(dp5059
g93
g94
ssg75
g5048
sg68
(lp5060
S':'
asbag61
(g82
g63
NtRp5061
(dp5062
g66
(dp5063
sg75
g5048
sg68
(lp5064
g61
(g62
g63
NtRp5065
(dp5066
g66
(dp5067
g74
I5
ssg75
g5061
sg68
(lp5068
g2081
asbasbasbag61
(g77
g63
NtRp5069
(dp5070
g66
(dp5071
sg75
g3695
sg68
(lp5072
g61
(g82
g63
NtRp5073
(dp5074
g66
(dp5075
g86
g87
ssg75
g5069
sg68
(lp5076
S'session_new'
p5077
asbag61
(g82
g63
NtRp5078
(dp5079
g66
(dp5080
g93
g94
ssg75
g5069
sg68
(lp5081
S':'
asbag61
(g82
g63
NtRp5082
(dp5083
g66
(dp5084
sg75
g5069
sg68
(lp5085
g61
(g62
g63
NtRp5086
(dp5087
g66
(dp5088
g74
I5
ssg75
g5082
sg68
(lp5089
g104
asbasbasbag61
(g77
g63
NtRp5090
(dp5091
g66
(dp5092
sg75
g3695
sg68
(lp5093
g61
(g82
g63
NtRp5094
(dp5095
g66
(dp5096
g86
g87
ssg75
g5090
sg68
(lp5097
S'status'
p5098
asbag61
(g82
g63
NtRp5099
(dp5100
g66
(dp5101
g93
g94
ssg75
g5090
sg68
(lp5102
S':'
asbag61
(g82
g63
NtRp5103
(dp5104
g66
(dp5105
sg75
g5090
sg68
(lp5106
g61
(g62
g63
NtRp5107
(dp5108
g66
(dp5109
g74
I5
ssg75
g5103
sg68
(lp5110
S'200'
p5111
asbasbasbag61
(g77
g63
NtRp5112
(dp5113
g66
(dp5114
sg75
g3695
sg68
(lp5115
g61
(g82
g63
NtRp5116
(dp5117
g66
(dp5118
g86
g87
ssg75
g5112
sg68
(lp5119
S'subtitle'
p5120
asbag61
(g82
g63
NtRp5121
(dp5122
g66
(dp5123
g93
g94
ssg75
g5112
sg68
(lp5124
S':'
asbag61
(g82
g63
NtRp5125
(dp5126
g66
(dp5127
sg75
g5112
sg68
(lp5128
g61
(g62
g63
NtRp5129
(dp5130
g66
(dp5131
g74
I5
ssg75
g5125
sg68
(lp5132
S'experimental!'
p5133
asbasbasbag61
(g77
g63
NtRp5134
(dp5135
g66
(dp5136
sg75
g3695
sg68
(lp5137
g61
(g82
g63
NtRp5138
(dp5139
g66
(dp5140
g86
g87
ssg75
g5134
sg68
(lp5141
S'title'
p5142
asbag61
(g82
g63
NtRp5143
(dp5144
g66
(dp5145
g93
g94
ssg75
g5134
sg68
(lp5146
S':'
asbag61
(g82
g63
NtRp5147
(dp5148
g66
(dp5149
sg75
g5134
sg68
(lp5150
g61
(g62
g63
NtRp5151
(dp5152
g66
(dp5153
g74
I5
ssg75
g5147
sg68
(lp5154
S'Inplace Web Page Editor'
p5155
asbasbasbag61
(g77
g63
NtRp5156
(dp5157
g66
(dp5158
sg75
g3695
sg68
(lp5159
g61
(g82
g63
NtRp5160
(dp5161
g66
(dp5162
g86
g87
ssg75
g5156
sg68
(lp5163
g2767
asbag61
(g82
g63
NtRp5164
(dp5165
g66
(dp5166
g93
g94
ssg75
g5156
sg68
(lp5167
S':'
asbag61
(g82
g63
NtRp5168
(dp5169
g66
(dp5170
sg75
g5156
sg68
(lp5171
g61
(g62
g63
NtRp5172
(dp5173
g66
(dp5174
g74
I5
ssg75
g5168
sg68
(lp5175
g2780
asbasbasbag61
(g77
g63
NtRp5176
(dp5177
g66
(dp5178
sg75
g3695
sg68
(lp5179
g61
(g82
g63
NtRp5180
(dp5181
g66
(dp5182
g86
g87
ssg75
g5176
sg68
(lp5183
S'view'
p5184
asbag61
(g82
g63
NtRp5185
(dp5186
g66
(dp5187
g93
g94
ssg75
g5176
sg68
(lp5188
S':'
asbag61
(g82
g63
NtRp5189
(dp5190
g66
(dp5191
sg75
g5176
sg68
(lp5192
g61
(g62
g63
NtRp5193
(dp5194
g66
(dp5195
g74
I5
ssg75
g5189
sg68
(lp5196
S'default/index.html'
p5197
asbasbasbasbasbsS'locals'
p5198
(dp5199
g2226
S"'index'"
p5200
sS'a'
S'None'
p5201
sS'c'
S"'edit'"
p5202
sS'scheme'
p5203
S'None'
p5204
sS'encode_embedded_slash'
p5205
g104
sg2182
S'None'
p5206
sg2789
g21
sS'f'
S"{'url': 'http://web2py.com'}"
p5207
sg48
S'[]'
p5208
sS'hash_vars'
p5209
g2081
sg203
S"'edit'"
p5210
sS'port'
p5211
S'None'
p5212
sS'current'
p5213
S'<thread._local object at 0x630368>'
p5214
sS'hmac_key'
p5215
S'None'
p5216
sS'host'
p5217
S'None'
p5218
sg113
S"'inplace'"
p5219
sS'user_signature'
p5220
S'None'
p5221
sg1082
S"<Storage {'content_length': '393', 'debugging': ...[]), 'query_string': '', 'wsgi_run_once': False}>"
p5222
sS'r'
S"<Storage {'body': <open file '<fdopen>', mode 'w...28c88da02a27', '_formname': 'no_table/create'}>}>"
p5223
sS'salt'
p5224
S'None'
p5225
sS'anchor'
p5226
S"''"
p5227
sssS'traceback'
p5228
S'Traceback (most recent call last):\n  File "/Users/mdipierro/Dropbox/web2py/gluon/restricted.py", line 204, in restricted\n    exec ccode in environment\n  File "/Users/mdipierro/Dropbox/web2py/applications/inplace/controllers/default.py", line 39, in <module>\n  File "/Users/mdipierro/Dropbox/web2py/gluon/globals.py", line 172, in <lambda>\n    self._caller = lambda f: f()\n  File "/Users/mdipierro/Dropbox/web2py/applications/inplace/controllers/default.py", line 10, in index\n    redirect(URL(\'edit\',dict(url=form.vars.url)))\n  File "/Users/mdipierro/Dropbox/web2py/gluon/html.py", line 233, in URL\n    raise SyntaxError, \'when calling URL, function or function name required\'\nSyntaxError: when calling URL, function or function name required\n'
p5229
s.