(dp1
S'output'
p2
S"<type 'exceptions.TypeError'> not all arguments converted during string formatting"
p3
sS'layer'
p4
S'/Users/mdipierro/Dropbox/web2py/applications/plasmid/controllers/default.py'
p5
sS'code'
p6
S'# -*- coding: utf-8 -*-\n# developed by Massimo Di Pierro, BSD License\n\n@auth.requires_login()\ndef index():\n    form=SQLFORM.factory(Field(\'url\',requires=IS_URL(),default=\'http://...\'))\n    if form.process().accepted:\n        redirect(URL(\'edit\',vars=dict(url=form.vars.url)))\n    clones = db(db.cms_clone).select()\n    return locals()\n\n@auth.requires_login()\ndef delete():\n    db(db.cms_clone.id==request.args(0))(db.cms_clone.created_by==auth.user.id).delete()\n    redirect(URL(\'index\'))\n\n@auth.requires_login()\ndef edit():\n    return locals()\n\n@auth.requires_login()\ndef edit_clone():\n    session._unlock(response)                    \n    import urllib,re\n    if request.args(0)==\'post\':\n        return request.vars.value or \'\'\n    elif request.args(0)==\'store\':\n        session.new_html = session.html.split(\'<body\')[0]+\'<body>\' + \\\n            request.vars.html+\'</body></html>\'\n        return \'ok\'\n    url = request.vars.url\n    try:\n        html = urllib.urlopen(url).read()\n    except IOError:\n        session.flash = \'web page does not exist!\'\n        redirect(URL(\'index\'))\n    url.rstrip(\'/\')\n    session.url = url\n    a,b = url.split(\'://\')\n    items = b.split(\'/\')\n    base = a+\'://\'+items[0]+\'/\'\n    if len(items)>2:\n        full = base+\'/\'.join(items[1:-1])+\'/\'\n    else:\n        full = base\n    html = re.sub(\'\\s+[\\n]\',\'\\n\',html)\n    html = re.sub(\'>[ \\t]+<\',\'> <\',html)\n    html = re.sub(\'(src|SRC)\\s*=\\s*"/(?!/)\',\'src="\'+base,html)\n    html = re.sub(\'(src|SRC)\\s*=\\s*"(?!(/|http))\',\'src="\'+full,html)\n    html = re.sub(\'(href|HREF)\\s*=\\s*"/(?!/)\',\'href="\'+base,html)\n    html = re.sub(\'(href|HREF)\\s*=\\s*"(?!(/|http))\',\'href="\'+full,html)\n    html = re.sub(\'url\\(/(?!/)\',\'url(\'+base,html)\n    html = re.sub(\'url\\((?!(/|http))\',\'url(\'+full,html)\n    session.new_html = session.html = html\n    inject = \'<script src="%s" language="javascript"></script>\' % URL(\'static\',\'js/inject.js\')\n    html = html.replace(\'</head>\',inject+\'</head>\')\n    return html\n\n@auth.requires_login()\ndef clone():\n    id = db.cms_clone.insert(url=session.url,html=session.new_html)\n    redirect(URL(\'page\',args=id))\n\ndef page():\n    if request.args(0)==\'clone\': redirect(URL(\'index\'))\n    html = db.cms_clone(request.args(0)).html\n    inject = \'<script language="javascript">alert("This is an altered copy of another page.\\nIt was made as an experimental proof of concept.\\nIf this page infringes a copyright, we will take it down.");</script>\' % URL(\'static\',\'js/inject.js\')\n    html = html.replace(\'</head>\',inject+\'</head>\')\n    return html\n\ndef user():\n    return dict(form=auth())\n\n@auth.requires_login()\ndef folder():\n    folder = db.cms_folder(request.args(0),created_by=auth.user.id)\n    if not folder:\n        if db(db.cms_folder).isempty():\n            db.cms_folder.insert(name=\'root\',parent_folder=0,created_by=auth.user.id)\n        folder = db.cms_folder(parent_folder=0,created_by=auth.user.id)\n    folder.path, f = [folder.name], folder.parent_folder\n    while f: folder.path, f = [A(f.name,_href=URL(\'folder\',args=f))]+folder.path, f.parent_folder\n    files = db(db.cms_file.folder==folder.id).select(orderby=db.cms_file.name)\n    folders = db(db.cms_folder.parent_folder==folder.id).select(orderby=db.cms_folder.name)\n    return locals()\n\n@auth.requires_login()\ndef edit_file():\n    folder = db.cms_folder(request.args(0),created_by=auth.user.id)\n    db.cms_file.folder.default=folder.id\n    db.cms_file.name.requires=IS_NOT_IN_DB(\n        db(db.cms_file.folder==folder.id),\'cms_file.name\')\n    file = db.cms_file(request.args(1),created_by=auth.user.id)\n    form = SQLFORM(db.cms_file,file,deletable=True)\\\n        .process(next=URL(\'folder\',args=folder.id))\n    return locals()\n\n@auth.requires_login()\ndef edit_folder():\n    folder = db.cms_folder(request.args(0),created_by=auth.user.id)\n    db.cms_folder.parent_folder.default=folder.id\n    db.cms_folder.name.requires=IS_NOT_IN_DB(\n        db(db.cms_folder.parent_folder==folder.id),\'cms_folder.name\')\n    ofolder = db.cms_folder(request.args(1),created_by=auth.user.id)\n    form = SQLFORM(db.cms_folder,ofolder,deletable=True)\\\n        .process(next=URL(\'folder\',args=folder.id))\n    return locals()\n\nresponse._vars=response._caller(page)\n'
p7
sS'snapshot'
p8
(dp9
S'exception'
p10
(dp11
S'__hash__'
p12
S"<method-wrapper '__hash__' of exceptions.TypeError object at 0x1ecaa58>"
p13
sS'__setattr__'
p14
S"<method-wrapper '__setattr__' of exceptions.TypeError object at 0x1ecaa58>"
p15
sS'__reduce_ex__'
p16
S'<built-in method __reduce_ex__ of exceptions.TypeError object at 0x1ecaa58>'
p17
sS'__getslice__'
p18
S"<method-wrapper '__getslice__' of exceptions.TypeError object at 0x1ecaa58>"
p19
sS'__getitem__'
p20
S"<method-wrapper '__getitem__' of exceptions.TypeError object at 0x1ecaa58>"
p21
sS'__setstate__'
p22
S'<built-in method __setstate__ of exceptions.TypeError object at 0x1ecaa58>'
p23
sS'__reduce__'
p24
S'<built-in method __reduce__ of exceptions.TypeError object at 0x1ecaa58>'
p25
sS'__str__'
p26
S"<method-wrapper '__str__' of exceptions.TypeError object at 0x1ecaa58>"
p27
sS'args'
p28
S"('not all arguments converted during string formatting',)"
p29
sS'__getattribute__'
p30
S"<method-wrapper '__getattribute__' of exceptions.TypeError object at 0x1ecaa58>"
p31
sS'__class__'
p32
S"<type 'exceptions.TypeError'>"
p33
sS'__delattr__'
p34
S"<method-wrapper '__delattr__' of exceptions.TypeError object at 0x1ecaa58>"
p35
sS'__repr__'
p36
S"<method-wrapper '__repr__' of exceptions.TypeError object at 0x1ecaa58>"
p37
sS'__dict__'
p38
S'{}'
p39
sS'__doc__'
p40
S"'Inappropriate argument type.'"
p41
sS'__init__'
p42
S"<method-wrapper '__init__' of exceptions.TypeError object at 0x1ecaa58>"
p43
sS'__new__'
p44
S'<built-in method __new__ of type object at 0xdb6c0>'
p45
ssS'evalue'
p46
S'not all arguments converted during string formatting'
p47
sS'request'
p48
ccopy_reg
_reconstructor
p49
(cgluon.html
BEAUTIFY
p50
c__builtin__
object
p51
NtRp52
(dp53
S'attributes'
p54
(dp55
sS'components'
p56
(lp57
g49
(cgluon.html
TABLE
p58
g51
NtRp59
(dp60
g54
(dp61
S'level'
p62
I5
ssS'parent'
p63
Nsg56
(lp64
g49
(cgluon.html
TR
p65
g51
NtRp66
(dp67
g54
(dp68
sg63
g59
sg56
(lp69
g49
(cgluon.html
TD
p70
g51
NtRp71
(dp72
g54
(dp73
S'_style'
p74
S'font-weight:bold;vertical-align:top'
p75
ssg63
g66
sg56
(lp76
S'ajax'
p77
asbag49
(g70
g51
NtRp78
(dp79
g54
(dp80
S'_valign'
p81
S'top'
p82
ssg63
g66
sg56
(lp83
S':'
asbag49
(g70
g51
NtRp84
(dp85
g54
(dp86
sg63
g66
sg56
(lp87
g49
(g50
g51
NtRp88
(dp89
g54
(dp90
g62
I5
ssg63
g84
sg56
(lp91
S'False'
p92
asbasbasbag49
(g65
g51
NtRp93
(dp94
g54
(dp95
sg63
g59
sg56
(lp96
g49
(g70
g51
NtRp97
(dp98
g54
(dp99
g74
g75
ssg63
g93
sg56
(lp100
S'application'
p101
asbag49
(g70
g51
NtRp102
(dp103
g54
(dp104
g81
g82
ssg63
g93
sg56
(lp105
S':'
asbag49
(g70
g51
NtRp106
(dp107
g54
(dp108
sg63
g93
sg56
(lp109
g49
(g50
g51
NtRp110
(dp111
g54
(dp112
g62
I5
ssg63
g106
sg56
(lp113
S'plasmid'
p114
asbasbasbag49
(g65
g51
NtRp115
(dp116
g54
(dp117
sg63
g59
sg56
(lp118
g49
(g70
g51
NtRp119
(dp120
g54
(dp121
g74
g75
ssg63
g115
sg56
(lp122
g28
asbag49
(g70
g51
NtRp123
(dp124
g54
(dp125
g81
g82
ssg63
g115
sg56
(lp126
S':'
asbag49
(g70
g51
NtRp127
(dp128
g54
(dp129
sg63
g115
sg56
(lp130
g49
(g50
g51
NtRp131
(dp132
g54
(dp133
g62
I5
ssg63
g127
sg56
(lp134
g49
(g58
g51
NtRp135
(dp136
g54
(dp137
g62
I4
ssg63
Nsg56
(lp138
g49
(g65
g51
NtRp139
(dp140
g54
(dp141
sg63
g135
sg56
(lp142
g49
(g70
g51
NtRp143
(dp144
g54
(dp145
sg63
g139
sg56
(lp146
g49
(g50
g51
NtRp147
(dp148
g54
(dp149
g62
I4
ssg63
g143
sg56
(lp150
S'1'
asbasbasbasbasbasbasbag49
(g65
g51
NtRp151
(dp152
g54
(dp153
sg63
g59
sg56
(lp154
g49
(g70
g51
NtRp155
(dp156
g54
(dp157
g74
g75
ssg63
g151
sg56
(lp158
S'body'
p159
asbag49
(g70
g51
NtRp160
(dp161
g54
(dp162
g81
g82
ssg63
g151
sg56
(lp163
S':'
asbag49
(g70
g51
NtRp164
(dp165
g54
(dp166
sg63
g151
sg56
(lp167
g49
(g50
g51
NtRp168
(dp169
g54
(dp170
g62
I5
ssg63
g164
sg56
(lp171
S'<cStringIO.StringO object at 0x2cc28e0>'
p172
asbasbasbag49
(g65
g51
NtRp173
(dp174
g54
(dp175
sg63
g59
sg56
(lp176
g49
(g70
g51
NtRp177
(dp178
g54
(dp179
g74
g75
ssg63
g173
sg56
(lp180
S'client'
p181
asbag49
(g70
g51
NtRp182
(dp183
g54
(dp184
g81
g82
ssg63
g173
sg56
(lp185
S':'
asbag49
(g70
g51
NtRp186
(dp187
g54
(dp188
sg63
g173
sg56
(lp189
g49
(g50
g51
NtRp190
(dp191
g54
(dp192
g62
I5
ssg63
g186
sg56
(lp193
S'127.0.0.1'
p194
asbasbasbag49
(g65
g51
NtRp195
(dp196
g54
(dp197
sg63
g59
sg56
(lp198
g49
(g70
g51
NtRp199
(dp200
g54
(dp201
g74
g75
ssg63
g195
sg56
(lp202
S'controller'
p203
asbag49
(g70
g51
NtRp204
(dp205
g54
(dp206
g81
g82
ssg63
g195
sg56
(lp207
S':'
asbag49
(g70
g51
NtRp208
(dp209
g54
(dp210
sg63
g195
sg56
(lp211
g49
(g50
g51
NtRp212
(dp213
g54
(dp214
g62
I5
ssg63
g208
sg56
(lp215
S'default'
p216
asbasbasbag49
(g65
g51
NtRp217
(dp218
g54
(dp219
sg63
g59
sg56
(lp220
g49
(g70
g51
NtRp221
(dp222
g54
(dp223
g74
g75
ssg63
g217
sg56
(lp224
S'cookies'
p225
asbag49
(g70
g51
NtRp226
(dp227
g54
(dp228
g81
g82
ssg63
g217
sg56
(lp229
S':'
asbag49
(g70
g51
NtRp230
(dp231
g54
(dp232
sg63
g217
sg56
(lp233
g49
(g50
g51
NtRp234
(dp235
g54
(dp236
g62
I5
ssg63
g230
sg56
(lp237
g49
(g58
g51
NtRp238
(dp239
g54
(dp240
g62
I4
ssg63
Nsg56
(lp241
g49
(g65
g51
NtRp242
(dp243
g54
(dp244
sg63
g238
sg56
(lp245
g49
(g70
g51
NtRp246
(dp247
g54
(dp248
g74
g75
ssg63
g242
sg56
(lp249
S'el-finder-last-finder'
p250
asbag49
(g70
g51
NtRp251
(dp252
g54
(dp253
g81
g82
ssg63
g242
sg56
(lp254
S':'
asbag49
(g70
g51
NtRp255
(dp256
g54
(dp257
sg63
g242
sg56
(lp258
g49
(g50
g51
NtRp259
(dp260
g54
(dp261
g62
I4
ssg63
g255
sg56
(lp262
g49
(g58
g51
NtRp263
(dp264
g54
(dp265
g62
I3
ssg63
Nsg56
(lp266
g49
(g65
g51
NtRp267
(dp268
g54
(dp269
sg63
g263
sg56
(lp270
g49
(g70
g51
NtRp271
(dp272
g54
(dp273
g74
g75
ssg63
g267
sg56
(lp274
S'comment'
p275
asbag49
(g70
g51
NtRp276
(dp277
g54
(dp278
g81
g82
ssg63
g267
sg56
(lp279
S':'
asbag49
(g70
g51
NtRp280
(dp281
g54
(dp282
sg63
g267
sg56
(lp283
g49
(g50
g51
NtRp284
(dp285
g54
(dp286
g62
I3
ssg63
g280
sg56
(lp287
S''
asbasbasbag49
(g65
g51
NtRp288
(dp289
g54
(dp290
sg63
g263
sg56
(lp291
g49
(g70
g51
NtRp292
(dp293
g54
(dp294
g74
g75
ssg63
g288
sg56
(lp295
S'domain'
p296
asbag49
(g70
g51
NtRp297
(dp298
g54
(dp299
g81
g82
ssg63
g288
sg56
(lp300
S':'
asbag49
(g70
g51
NtRp301
(dp302
g54
(dp303
sg63
g288
sg56
(lp304
g49
(g50
g51
NtRp305
(dp306
g54
(dp307
g62
I3
ssg63
g301
sg56
(lp308
S''
asbasbasbag49
(g65
g51
NtRp309
(dp310
g54
(dp311
sg63
g263
sg56
(lp312
g49
(g70
g51
NtRp313
(dp314
g54
(dp315
g74
g75
ssg63
g309
sg56
(lp316
S'expires'
p317
asbag49
(g70
g51
NtRp318
(dp319
g54
(dp320
g81
g82
ssg63
g309
sg56
(lp321
S':'
asbag49
(g70
g51
NtRp322
(dp323
g54
(dp324
sg63
g309
sg56
(lp325
g49
(g50
g51
NtRp326
(dp327
g54
(dp328
g62
I3
ssg63
g322
sg56
(lp329
S''
asbasbasbag49
(g65
g51
NtRp330
(dp331
g54
(dp332
sg63
g263
sg56
(lp333
g49
(g70
g51
NtRp334
(dp335
g54
(dp336
g74
g75
ssg63
g330
sg56
(lp337
S'max-age'
p338
asbag49
(g70
g51
NtRp339
(dp340
g54
(dp341
g81
g82
ssg63
g330
sg56
(lp342
S':'
asbag49
(g70
g51
NtRp343
(dp344
g54
(dp345
sg63
g330
sg56
(lp346
g49
(g50
g51
NtRp347
(dp348
g54
(dp349
g62
I3
ssg63
g343
sg56
(lp350
S''
asbasbasbag49
(g65
g51
NtRp351
(dp352
g54
(dp353
sg63
g263
sg56
(lp354
g49
(g70
g51
NtRp355
(dp356
g54
(dp357
g74
g75
ssg63
g351
sg56
(lp358
S'path'
p359
asbag49
(g70
g51
NtRp360
(dp361
g54
(dp362
g81
g82
ssg63
g351
sg56
(lp363
S':'
asbag49
(g70
g51
NtRp364
(dp365
g54
(dp366
sg63
g351
sg56
(lp367
g49
(g50
g51
NtRp368
(dp369
g54
(dp370
g62
I3
ssg63
g364
sg56
(lp371
S''
asbasbasbag49
(g65
g51
NtRp372
(dp373
g54
(dp374
sg63
g263
sg56
(lp375
g49
(g70
g51
NtRp376
(dp377
g54
(dp378
g74
g75
ssg63
g372
sg56
(lp379
S'secure'
p380
asbag49
(g70
g51
NtRp381
(dp382
g54
(dp383
g81
g82
ssg63
g372
sg56
(lp384
S':'
asbag49
(g70
g51
NtRp385
(dp386
g54
(dp387
sg63
g372
sg56
(lp388
g49
(g50
g51
NtRp389
(dp390
g54
(dp391
g62
I3
ssg63
g385
sg56
(lp392
S''
asbasbasbag49
(g65
g51
NtRp393
(dp394
g54
(dp395
sg63
g263
sg56
(lp396
g49
(g70
g51
NtRp397
(dp398
g54
(dp399
g74
g75
ssg63
g393
sg56
(lp400
S'version'
p401
asbag49
(g70
g51
NtRp402
(dp403
g54
(dp404
g81
g82
ssg63
g393
sg56
(lp405
S':'
asbag49
(g70
g51
NtRp406
(dp407
g54
(dp408
sg63
g393
sg56
(lp409
g49
(g50
g51
NtRp410
(dp411
g54
(dp412
g62
I3
ssg63
g406
sg56
(lp413
S''
asbasbasbasbasbasbasbag49
(g65
g51
NtRp414
(dp415
g54
(dp416
sg63
g238
sg56
(lp417
g49
(g70
g51
NtRp418
(dp419
g54
(dp420
g74
g75
ssg63
g414
sg56
(lp421
S'registered'
p422
asbag49
(g70
g51
NtRp423
(dp424
g54
(dp425
g81
g82
ssg63
g414
sg56
(lp426
S':'
asbag49
(g70
g51
NtRp427
(dp428
g54
(dp429
sg63
g414
sg56
(lp430
g49
(g50
g51
NtRp431
(dp432
g54
(dp433
g62
I4
ssg63
g427
sg56
(lp434
g49
(g58
g51
NtRp435
(dp436
g54
(dp437
g62
I3
ssg63
Nsg56
(lp438
g49
(g65
g51
NtRp439
(dp440
g54
(dp441
sg63
g435
sg56
(lp442
g49
(g70
g51
NtRp443
(dp444
g54
(dp445
g74
g75
ssg63
g439
sg56
(lp446
g275
asbag49
(g70
g51
NtRp447
(dp448
g54
(dp449
g81
g82
ssg63
g439
sg56
(lp450
S':'
asbag49
(g70
g51
NtRp451
(dp452
g54
(dp453
sg63
g439
sg56
(lp454
g49
(g50
g51
NtRp455
(dp456
g54
(dp457
g62
I3
ssg63
g451
sg56
(lp458
S''
asbasbasbag49
(g65
g51
NtRp459
(dp460
g54
(dp461
sg63
g435
sg56
(lp462
g49
(g70
g51
NtRp463
(dp464
g54
(dp465
g74
g75
ssg63
g459
sg56
(lp466
g296
asbag49
(g70
g51
NtRp467
(dp468
g54
(dp469
g81
g82
ssg63
g459
sg56
(lp470
S':'
asbag49
(g70
g51
NtRp471
(dp472
g54
(dp473
sg63
g459
sg56
(lp474
g49
(g50
g51
NtRp475
(dp476
g54
(dp477
g62
I3
ssg63
g471
sg56
(lp478
S''
asbasbasbag49
(g65
g51
NtRp479
(dp480
g54
(dp481
sg63
g435
sg56
(lp482
g49
(g70
g51
NtRp483
(dp484
g54
(dp485
g74
g75
ssg63
g479
sg56
(lp486
g317
asbag49
(g70
g51
NtRp487
(dp488
g54
(dp489
g81
g82
ssg63
g479
sg56
(lp490
S':'
asbag49
(g70
g51
NtRp491
(dp492
g54
(dp493
sg63
g479
sg56
(lp494
g49
(g50
g51
NtRp495
(dp496
g54
(dp497
g62
I3
ssg63
g491
sg56
(lp498
S''
asbasbasbag49
(g65
g51
NtRp499
(dp500
g54
(dp501
sg63
g435
sg56
(lp502
g49
(g70
g51
NtRp503
(dp504
g54
(dp505
g74
g75
ssg63
g499
sg56
(lp506
g338
asbag49
(g70
g51
NtRp507
(dp508
g54
(dp509
g81
g82
ssg63
g499
sg56
(lp510
S':'
asbag49
(g70
g51
NtRp511
(dp512
g54
(dp513
sg63
g499
sg56
(lp514
g49
(g50
g51
NtRp515
(dp516
g54
(dp517
g62
I3
ssg63
g511
sg56
(lp518
S''
asbasbasbag49
(g65
g51
NtRp519
(dp520
g54
(dp521
sg63
g435
sg56
(lp522
g49
(g70
g51
NtRp523
(dp524
g54
(dp525
g74
g75
ssg63
g519
sg56
(lp526
g359
asbag49
(g70
g51
NtRp527
(dp528
g54
(dp529
g81
g82
ssg63
g519
sg56
(lp530
S':'
asbag49
(g70
g51
NtRp531
(dp532
g54
(dp533
sg63
g519
sg56
(lp534
g49
(g50
g51
NtRp535
(dp536
g54
(dp537
g62
I3
ssg63
g531
sg56
(lp538
S''
asbasbasbag49
(g65
g51
NtRp539
(dp540
g54
(dp541
sg63
g435
sg56
(lp542
g49
(g70
g51
NtRp543
(dp544
g54
(dp545
g74
g75
ssg63
g539
sg56
(lp546
g380
asbag49
(g70
g51
NtRp547
(dp548
g54
(dp549
g81
g82
ssg63
g539
sg56
(lp550
S':'
asbag49
(g70
g51
NtRp551
(dp552
g54
(dp553
sg63
g539
sg56
(lp554
g49
(g50
g51
NtRp555
(dp556
g54
(dp557
g62
I3
ssg63
g551
sg56
(lp558
S''
asbasbasbag49
(g65
g51
NtRp559
(dp560
g54
(dp561
sg63
g435
sg56
(lp562
g49
(g70
g51
NtRp563
(dp564
g54
(dp565
g74
g75
ssg63
g559
sg56
(lp566
g401
asbag49
(g70
g51
NtRp567
(dp568
g54
(dp569
g81
g82
ssg63
g559
sg56
(lp570
S':'
asbag49
(g70
g51
NtRp571
(dp572
g54
(dp573
sg63
g559
sg56
(lp574
g49
(g50
g51
NtRp575
(dp576
g54
(dp577
g62
I3
ssg63
g571
sg56
(lp578
S''
asbasbasbasbasbasbasbag49
(g65
g51
NtRp579
(dp580
g54
(dp581
sg63
g238
sg56
(lp582
g49
(g70
g51
NtRp583
(dp584
g54
(dp585
g74
g75
ssg63
g579
sg56
(lp586
S's_cc'
p587
asbag49
(g70
g51
NtRp588
(dp589
g54
(dp590
g81
g82
ssg63
g579
sg56
(lp591
S':'
asbag49
(g70
g51
NtRp592
(dp593
g54
(dp594
sg63
g579
sg56
(lp595
g49
(g50
g51
NtRp596
(dp597
g54
(dp598
g62
I4
ssg63
g592
sg56
(lp599
g49
(g58
g51
NtRp600
(dp601
g54
(dp602
g62
I3
ssg63
Nsg56
(lp603
g49
(g65
g51
NtRp604
(dp605
g54
(dp606
sg63
g600
sg56
(lp607
g49
(g70
g51
NtRp608
(dp609
g54
(dp610
g74
g75
ssg63
g604
sg56
(lp611
g275
asbag49
(g70
g51
NtRp612
(dp613
g54
(dp614
g81
g82
ssg63
g604
sg56
(lp615
S':'
asbag49
(g70
g51
NtRp616
(dp617
g54
(dp618
sg63
g604
sg56
(lp619
g49
(g50
g51
NtRp620
(dp621
g54
(dp622
g62
I3
ssg63
g616
sg56
(lp623
S''
asbasbasbag49
(g65
g51
NtRp624
(dp625
g54
(dp626
sg63
g600
sg56
(lp627
g49
(g70
g51
NtRp628
(dp629
g54
(dp630
g74
g75
ssg63
g624
sg56
(lp631
g296
asbag49
(g70
g51
NtRp632
(dp633
g54
(dp634
g81
g82
ssg63
g624
sg56
(lp635
S':'
asbag49
(g70
g51
NtRp636
(dp637
g54
(dp638
sg63
g624
sg56
(lp639
g49
(g50
g51
NtRp640
(dp641
g54
(dp642
g62
I3
ssg63
g636
sg56
(lp643
S''
asbasbasbag49
(g65
g51
NtRp644
(dp645
g54
(dp646
sg63
g600
sg56
(lp647
g49
(g70
g51
NtRp648
(dp649
g54
(dp650
g74
g75
ssg63
g644
sg56
(lp651
g317
asbag49
(g70
g51
NtRp652
(dp653
g54
(dp654
g81
g82
ssg63
g644
sg56
(lp655
S':'
asbag49
(g70
g51
NtRp656
(dp657
g54
(dp658
sg63
g644
sg56
(lp659
g49
(g50
g51
NtRp660
(dp661
g54
(dp662
g62
I3
ssg63
g656
sg56
(lp663
S''
asbasbasbag49
(g65
g51
NtRp664
(dp665
g54
(dp666
sg63
g600
sg56
(lp667
g49
(g70
g51
NtRp668
(dp669
g54
(dp670
g74
g75
ssg63
g664
sg56
(lp671
g338
asbag49
(g70
g51
NtRp672
(dp673
g54
(dp674
g81
g82
ssg63
g664
sg56
(lp675
S':'
asbag49
(g70
g51
NtRp676
(dp677
g54
(dp678
sg63
g664
sg56
(lp679
g49
(g50
g51
NtRp680
(dp681
g54
(dp682
g62
I3
ssg63
g676
sg56
(lp683
S''
asbasbasbag49
(g65
g51
NtRp684
(dp685
g54
(dp686
sg63
g600
sg56
(lp687
g49
(g70
g51
NtRp688
(dp689
g54
(dp690
g74
g75
ssg63
g684
sg56
(lp691
g359
asbag49
(g70
g51
NtRp692
(dp693
g54
(dp694
g81
g82
ssg63
g684
sg56
(lp695
S':'
asbag49
(g70
g51
NtRp696
(dp697
g54
(dp698
sg63
g684
sg56
(lp699
g49
(g50
g51
NtRp700
(dp701
g54
(dp702
g62
I3
ssg63
g696
sg56
(lp703
S''
asbasbasbag49
(g65
g51
NtRp704
(dp705
g54
(dp706
sg63
g600
sg56
(lp707
g49
(g70
g51
NtRp708
(dp709
g54
(dp710
g74
g75
ssg63
g704
sg56
(lp711
g380
asbag49
(g70
g51
NtRp712
(dp713
g54
(dp714
g81
g82
ssg63
g704
sg56
(lp715
S':'
asbag49
(g70
g51
NtRp716
(dp717
g54
(dp718
sg63
g704
sg56
(lp719
g49
(g50
g51
NtRp720
(dp721
g54
(dp722
g62
I3
ssg63
g716
sg56
(lp723
S''
asbasbasbag49
(g65
g51
NtRp724
(dp725
g54
(dp726
sg63
g600
sg56
(lp727
g49
(g70
g51
NtRp728
(dp729
g54
(dp730
g74
g75
ssg63
g724
sg56
(lp731
g401
asbag49
(g70
g51
NtRp732
(dp733
g54
(dp734
g81
g82
ssg63
g724
sg56
(lp735
S':'
asbag49
(g70
g51
NtRp736
(dp737
g54
(dp738
sg63
g724
sg56
(lp739
g49
(g50
g51
NtRp740
(dp741
g54
(dp742
g62
I3
ssg63
g736
sg56
(lp743
S''
asbasbasbasbasbasbasbag49
(g65
g51
NtRp744
(dp745
g54
(dp746
sg63
g238
sg56
(lp747
g49
(g70
g51
NtRp748
(dp749
g54
(dp750
g74
g75
ssg63
g744
sg56
(lp751
S's_nr'
p752
asbag49
(g70
g51
NtRp753
(dp754
g54
(dp755
g81
g82
ssg63
g744
sg56
(lp756
S':'
asbag49
(g70
g51
NtRp757
(dp758
g54
(dp759
sg63
g744
sg56
(lp760
g49
(g50
g51
NtRp761
(dp762
g54
(dp763
g62
I4
ssg63
g757
sg56
(lp764
g49
(g58
g51
NtRp765
(dp766
g54
(dp767
g62
I3
ssg63
Nsg56
(lp768
g49
(g65
g51
NtRp769
(dp770
g54
(dp771
sg63
g765
sg56
(lp772
g49
(g70
g51
NtRp773
(dp774
g54
(dp775
g74
g75
ssg63
g769
sg56
(lp776
g275
asbag49
(g70
g51
NtRp777
(dp778
g54
(dp779
g81
g82
ssg63
g769
sg56
(lp780
S':'
asbag49
(g70
g51
NtRp781
(dp782
g54
(dp783
sg63
g769
sg56
(lp784
g49
(g50
g51
NtRp785
(dp786
g54
(dp787
g62
I3
ssg63
g781
sg56
(lp788
S''
asbasbasbag49
(g65
g51
NtRp789
(dp790
g54
(dp791
sg63
g765
sg56
(lp792
g49
(g70
g51
NtRp793
(dp794
g54
(dp795
g74
g75
ssg63
g789
sg56
(lp796
g296
asbag49
(g70
g51
NtRp797
(dp798
g54
(dp799
g81
g82
ssg63
g789
sg56
(lp800
S':'
asbag49
(g70
g51
NtRp801
(dp802
g54
(dp803
sg63
g789
sg56
(lp804
g49
(g50
g51
NtRp805
(dp806
g54
(dp807
g62
I3
ssg63
g801
sg56
(lp808
S''
asbasbasbag49
(g65
g51
NtRp809
(dp810
g54
(dp811
sg63
g765
sg56
(lp812
g49
(g70
g51
NtRp813
(dp814
g54
(dp815
g74
g75
ssg63
g809
sg56
(lp816
g317
asbag49
(g70
g51
NtRp817
(dp818
g54
(dp819
g81
g82
ssg63
g809
sg56
(lp820
S':'
asbag49
(g70
g51
NtRp821
(dp822
g54
(dp823
sg63
g809
sg56
(lp824
g49
(g50
g51
NtRp825
(dp826
g54
(dp827
g62
I3
ssg63
g821
sg56
(lp828
S''
asbasbasbag49
(g65
g51
NtRp829
(dp830
g54
(dp831
sg63
g765
sg56
(lp832
g49
(g70
g51
NtRp833
(dp834
g54
(dp835
g74
g75
ssg63
g829
sg56
(lp836
g338
asbag49
(g70
g51
NtRp837
(dp838
g54
(dp839
g81
g82
ssg63
g829
sg56
(lp840
S':'
asbag49
(g70
g51
NtRp841
(dp842
g54
(dp843
sg63
g829
sg56
(lp844
g49
(g50
g51
NtRp845
(dp846
g54
(dp847
g62
I3
ssg63
g841
sg56
(lp848
S''
asbasbasbag49
(g65
g51
NtRp849
(dp850
g54
(dp851
sg63
g765
sg56
(lp852
g49
(g70
g51
NtRp853
(dp854
g54
(dp855
g74
g75
ssg63
g849
sg56
(lp856
g359
asbag49
(g70
g51
NtRp857
(dp858
g54
(dp859
g81
g82
ssg63
g849
sg56
(lp860
S':'
asbag49
(g70
g51
NtRp861
(dp862
g54
(dp863
sg63
g849
sg56
(lp864
g49
(g50
g51
NtRp865
(dp866
g54
(dp867
g62
I3
ssg63
g861
sg56
(lp868
S''
asbasbasbag49
(g65
g51
NtRp869
(dp870
g54
(dp871
sg63
g765
sg56
(lp872
g49
(g70
g51
NtRp873
(dp874
g54
(dp875
g74
g75
ssg63
g869
sg56
(lp876
g380
asbag49
(g70
g51
NtRp877
(dp878
g54
(dp879
g81
g82
ssg63
g869
sg56
(lp880
S':'
asbag49
(g70
g51
NtRp881
(dp882
g54
(dp883
sg63
g869
sg56
(lp884
g49
(g50
g51
NtRp885
(dp886
g54
(dp887
g62
I3
ssg63
g881
sg56
(lp888
S''
asbasbasbag49
(g65
g51
NtRp889
(dp890
g54
(dp891
sg63
g765
sg56
(lp892
g49
(g70
g51
NtRp893
(dp894
g54
(dp895
g74
g75
ssg63
g889
sg56
(lp896
g401
asbag49
(g70
g51
NtRp897
(dp898
g54
(dp899
g81
g82
ssg63
g889
sg56
(lp900
S':'
asbag49
(g70
g51
NtRp901
(dp902
g54
(dp903
sg63
g889
sg56
(lp904
g49
(g50
g51
NtRp905
(dp906
g54
(dp907
g62
I3
ssg63
g901
sg56
(lp908
S''
asbasbasbasbasbasbasbag49
(g65
g51
NtRp909
(dp910
g54
(dp911
sg63
g238
sg56
(lp912
g49
(g70
g51
NtRp913
(dp914
g54
(dp915
g74
g75
ssg63
g909
sg56
(lp916
S's_sq'
p917
asbag49
(g70
g51
NtRp918
(dp919
g54
(dp920
g81
g82
ssg63
g909
sg56
(lp921
S':'
asbag49
(g70
g51
NtRp922
(dp923
g54
(dp924
sg63
g909
sg56
(lp925
g49
(g50
g51
NtRp926
(dp927
g54
(dp928
g62
I4
ssg63
g922
sg56
(lp929
g49
(g58
g51
NtRp930
(dp931
g54
(dp932
g62
I3
ssg63
Nsg56
(lp933
g49
(g65
g51
NtRp934
(dp935
g54
(dp936
sg63
g930
sg56
(lp937
g49
(g70
g51
NtRp938
(dp939
g54
(dp940
g74
g75
ssg63
g934
sg56
(lp941
g275
asbag49
(g70
g51
NtRp942
(dp943
g54
(dp944
g81
g82
ssg63
g934
sg56
(lp945
S':'
asbag49
(g70
g51
NtRp946
(dp947
g54
(dp948
sg63
g934
sg56
(lp949
g49
(g50
g51
NtRp950
(dp951
g54
(dp952
g62
I3
ssg63
g946
sg56
(lp953
S''
asbasbasbag49
(g65
g51
NtRp954
(dp955
g54
(dp956
sg63
g930
sg56
(lp957
g49
(g70
g51
NtRp958
(dp959
g54
(dp960
g74
g75
ssg63
g954
sg56
(lp961
g296
asbag49
(g70
g51
NtRp962
(dp963
g54
(dp964
g81
g82
ssg63
g954
sg56
(lp965
S':'
asbag49
(g70
g51
NtRp966
(dp967
g54
(dp968
sg63
g954
sg56
(lp969
g49
(g50
g51
NtRp970
(dp971
g54
(dp972
g62
I3
ssg63
g966
sg56
(lp973
S''
asbasbasbag49
(g65
g51
NtRp974
(dp975
g54
(dp976
sg63
g930
sg56
(lp977
g49
(g70
g51
NtRp978
(dp979
g54
(dp980
g74
g75
ssg63
g974
sg56
(lp981
g317
asbag49
(g70
g51
NtRp982
(dp983
g54
(dp984
g81
g82
ssg63
g974
sg56
(lp985
S':'
asbag49
(g70
g51
NtRp986
(dp987
g54
(dp988
sg63
g974
sg56
(lp989
g49
(g50
g51
NtRp990
(dp991
g54
(dp992
g62
I3
ssg63
g986
sg56
(lp993
S''
asbasbasbag49
(g65
g51
NtRp994
(dp995
g54
(dp996
sg63
g930
sg56
(lp997
g49
(g70
g51
NtRp998
(dp999
g54
(dp1000
g74
g75
ssg63
g994
sg56
(lp1001
g338
asbag49
(g70
g51
NtRp1002
(dp1003
g54
(dp1004
g81
g82
ssg63
g994
sg56
(lp1005
S':'
asbag49
(g70
g51
NtRp1006
(dp1007
g54
(dp1008
sg63
g994
sg56
(lp1009
g49
(g50
g51
NtRp1010
(dp1011
g54
(dp1012
g62
I3
ssg63
g1006
sg56
(lp1013
S''
asbasbasbag49
(g65
g51
NtRp1014
(dp1015
g54
(dp1016
sg63
g930
sg56
(lp1017
g49
(g70
g51
NtRp1018
(dp1019
g54
(dp1020
g74
g75
ssg63
g1014
sg56
(lp1021
g359
asbag49
(g70
g51
NtRp1022
(dp1023
g54
(dp1024
g81
g82
ssg63
g1014
sg56
(lp1025
S':'
asbag49
(g70
g51
NtRp1026
(dp1027
g54
(dp1028
sg63
g1014
sg56
(lp1029
g49
(g50
g51
NtRp1030
(dp1031
g54
(dp1032
g62
I3
ssg63
g1026
sg56
(lp1033
S''
asbasbasbag49
(g65
g51
NtRp1034
(dp1035
g54
(dp1036
sg63
g930
sg56
(lp1037
g49
(g70
g51
NtRp1038
(dp1039
g54
(dp1040
g74
g75
ssg63
g1034
sg56
(lp1041
g380
asbag49
(g70
g51
NtRp1042
(dp1043
g54
(dp1044
g81
g82
ssg63
g1034
sg56
(lp1045
S':'
asbag49
(g70
g51
NtRp1046
(dp1047
g54
(dp1048
sg63
g1034
sg56
(lp1049
g49
(g50
g51
NtRp1050
(dp1051
g54
(dp1052
g62
I3
ssg63
g1046
sg56
(lp1053
S''
asbasbasbag49
(g65
g51
NtRp1054
(dp1055
g54
(dp1056
sg63
g930
sg56
(lp1057
g49
(g70
g51
NtRp1058
(dp1059
g54
(dp1060
g74
g75
ssg63
g1054
sg56
(lp1061
g401
asbag49
(g70
g51
NtRp1062
(dp1063
g54
(dp1064
g81
g82
ssg63
g1054
sg56
(lp1065
S':'
asbag49
(g70
g51
NtRp1066
(dp1067
g54
(dp1068
sg63
g1054
sg56
(lp1069
g49
(g50
g51
NtRp1070
(dp1071
g54
(dp1072
g62
I3
ssg63
g1066
sg56
(lp1073
S''
asbasbasbasbasbasbasbag49
(g65
g51
NtRp1074
(dp1075
g54
(dp1076
sg63
g238
sg56
(lp1077
g49
(g70
g51
NtRp1078
(dp1079
g54
(dp1080
g74
g75
ssg63
g1074
sg56
(lp1081
S'session_id_admin'
p1082
asbag49
(g70
g51
NtRp1083
(dp1084
g54
(dp1085
g81
g82
ssg63
g1074
sg56
(lp1086
S':'
asbag49
(g70
g51
NtRp1087
(dp1088
g54
(dp1089
sg63
g1074
sg56
(lp1090
g49
(g50
g51
NtRp1091
(dp1092
g54
(dp1093
g62
I4
ssg63
g1087
sg56
(lp1094
g49
(g58
g51
NtRp1095
(dp1096
g54
(dp1097
g62
I3
ssg63
Nsg56
(lp1098
g49
(g65
g51
NtRp1099
(dp1100
g54
(dp1101
sg63
g1095
sg56
(lp1102
g49
(g70
g51
NtRp1103
(dp1104
g54
(dp1105
g74
g75
ssg63
g1099
sg56
(lp1106
g275
asbag49
(g70
g51
NtRp1107
(dp1108
g54
(dp1109
g81
g82
ssg63
g1099
sg56
(lp1110
S':'
asbag49
(g70
g51
NtRp1111
(dp1112
g54
(dp1113
sg63
g1099
sg56
(lp1114
g49
(g50
g51
NtRp1115
(dp1116
g54
(dp1117
g62
I3
ssg63
g1111
sg56
(lp1118
S''
asbasbasbag49
(g65
g51
NtRp1119
(dp1120
g54
(dp1121
sg63
g1095
sg56
(lp1122
g49
(g70
g51
NtRp1123
(dp1124
g54
(dp1125
g74
g75
ssg63
g1119
sg56
(lp1126
g296
asbag49
(g70
g51
NtRp1127
(dp1128
g54
(dp1129
g81
g82
ssg63
g1119
sg56
(lp1130
S':'
asbag49
(g70
g51
NtRp1131
(dp1132
g54
(dp1133
sg63
g1119
sg56
(lp1134
g49
(g50
g51
NtRp1135
(dp1136
g54
(dp1137
g62
I3
ssg63
g1131
sg56
(lp1138
S''
asbasbasbag49
(g65
g51
NtRp1139
(dp1140
g54
(dp1141
sg63
g1095
sg56
(lp1142
g49
(g70
g51
NtRp1143
(dp1144
g54
(dp1145
g74
g75
ssg63
g1139
sg56
(lp1146
g317
asbag49
(g70
g51
NtRp1147
(dp1148
g54
(dp1149
g81
g82
ssg63
g1139
sg56
(lp1150
S':'
asbag49
(g70
g51
NtRp1151
(dp1152
g54
(dp1153
sg63
g1139
sg56
(lp1154
g49
(g50
g51
NtRp1155
(dp1156
g54
(dp1157
g62
I3
ssg63
g1151
sg56
(lp1158
S''
asbasbasbag49
(g65
g51
NtRp1159
(dp1160
g54
(dp1161
sg63
g1095
sg56
(lp1162
g49
(g70
g51
NtRp1163
(dp1164
g54
(dp1165
g74
g75
ssg63
g1159
sg56
(lp1166
g338
asbag49
(g70
g51
NtRp1167
(dp1168
g54
(dp1169
g81
g82
ssg63
g1159
sg56
(lp1170
S':'
asbag49
(g70
g51
NtRp1171
(dp1172
g54
(dp1173
sg63
g1159
sg56
(lp1174
g49
(g50
g51
NtRp1175
(dp1176
g54
(dp1177
g62
I3
ssg63
g1171
sg56
(lp1178
S''
asbasbasbag49
(g65
g51
NtRp1179
(dp1180
g54
(dp1181
sg63
g1095
sg56
(lp1182
g49
(g70
g51
NtRp1183
(dp1184
g54
(dp1185
g74
g75
ssg63
g1179
sg56
(lp1186
g359
asbag49
(g70
g51
NtRp1187
(dp1188
g54
(dp1189
g81
g82
ssg63
g1179
sg56
(lp1190
S':'
asbag49
(g70
g51
NtRp1191
(dp1192
g54
(dp1193
sg63
g1179
sg56
(lp1194
g49
(g50
g51
NtRp1195
(dp1196
g54
(dp1197
g62
I3
ssg63
g1191
sg56
(lp1198
S''
asbasbasbag49
(g65
g51
NtRp1199
(dp1200
g54
(dp1201
sg63
g1095
sg56
(lp1202
g49
(g70
g51
NtRp1203
(dp1204
g54
(dp1205
g74
g75
ssg63
g1199
sg56
(lp1206
g380
asbag49
(g70
g51
NtRp1207
(dp1208
g54
(dp1209
g81
g82
ssg63
g1199
sg56
(lp1210
S':'
asbag49
(g70
g51
NtRp1211
(dp1212
g54
(dp1213
sg63
g1199
sg56
(lp1214
g49
(g50
g51
NtRp1215
(dp1216
g54
(dp1217
g62
I3
ssg63
g1211
sg56
(lp1218
S''
asbasbasbag49
(g65
g51
NtRp1219
(dp1220
g54
(dp1221
sg63
g1095
sg56
(lp1222
g49
(g70
g51
NtRp1223
(dp1224
g54
(dp1225
g74
g75
ssg63
g1219
sg56
(lp1226
g401
asbag49
(g70
g51
NtRp1227
(dp1228
g54
(dp1229
g81
g82
ssg63
g1219
sg56
(lp1230
S':'
asbag49
(g70
g51
NtRp1231
(dp1232
g54
(dp1233
sg63
g1219
sg56
(lp1234
g49
(g50
g51
NtRp1235
(dp1236
g54
(dp1237
g62
I3
ssg63
g1231
sg56
(lp1238
S''
asbasbasbasbasbasbasbag49
(g65
g51
NtRp1239
(dp1240
g54
(dp1241
sg63
g238
sg56
(lp1242
g49
(g70
g51
NtRp1243
(dp1244
g54
(dp1245
g74
g75
ssg63
g1239
sg56
(lp1246
S'session_id_cms'
p1247
asbag49
(g70
g51
NtRp1248
(dp1249
g54
(dp1250
g81
g82
ssg63
g1239
sg56
(lp1251
S':'
asbag49
(g70
g51
NtRp1252
(dp1253
g54
(dp1254
sg63
g1239
sg56
(lp1255
g49
(g50
g51
NtRp1256
(dp1257
g54
(dp1258
g62
I4
ssg63
g1252
sg56
(lp1259
g49
(g58
g51
NtRp1260
(dp1261
g54
(dp1262
g62
I3
ssg63
Nsg56
(lp1263
g49
(g65
g51
NtRp1264
(dp1265
g54
(dp1266
sg63
g1260
sg56
(lp1267
g49
(g70
g51
NtRp1268
(dp1269
g54
(dp1270
g74
g75
ssg63
g1264
sg56
(lp1271
g275
asbag49
(g70
g51
NtRp1272
(dp1273
g54
(dp1274
g81
g82
ssg63
g1264
sg56
(lp1275
S':'
asbag49
(g70
g51
NtRp1276
(dp1277
g54
(dp1278
sg63
g1264
sg56
(lp1279
g49
(g50
g51
NtRp1280
(dp1281
g54
(dp1282
g62
I3
ssg63
g1276
sg56
(lp1283
S''
asbasbasbag49
(g65
g51
NtRp1284
(dp1285
g54
(dp1286
sg63
g1260
sg56
(lp1287
g49
(g70
g51
NtRp1288
(dp1289
g54
(dp1290
g74
g75
ssg63
g1284
sg56
(lp1291
g296
asbag49
(g70
g51
NtRp1292
(dp1293
g54
(dp1294
g81
g82
ssg63
g1284
sg56
(lp1295
S':'
asbag49
(g70
g51
NtRp1296
(dp1297
g54
(dp1298
sg63
g1284
sg56
(lp1299
g49
(g50
g51
NtRp1300
(dp1301
g54
(dp1302
g62
I3
ssg63
g1296
sg56
(lp1303
S''
asbasbasbag49
(g65
g51
NtRp1304
(dp1305
g54
(dp1306
sg63
g1260
sg56
(lp1307
g49
(g70
g51
NtRp1308
(dp1309
g54
(dp1310
g74
g75
ssg63
g1304
sg56
(lp1311
g317
asbag49
(g70
g51
NtRp1312
(dp1313
g54
(dp1314
g81
g82
ssg63
g1304
sg56
(lp1315
S':'
asbag49
(g70
g51
NtRp1316
(dp1317
g54
(dp1318
sg63
g1304
sg56
(lp1319
g49
(g50
g51
NtRp1320
(dp1321
g54
(dp1322
g62
I3
ssg63
g1316
sg56
(lp1323
S''
asbasbasbag49
(g65
g51
NtRp1324
(dp1325
g54
(dp1326
sg63
g1260
sg56
(lp1327
g49
(g70
g51
NtRp1328
(dp1329
g54
(dp1330
g74
g75
ssg63
g1324
sg56
(lp1331
g338
asbag49
(g70
g51
NtRp1332
(dp1333
g54
(dp1334
g81
g82
ssg63
g1324
sg56
(lp1335
S':'
asbag49
(g70
g51
NtRp1336
(dp1337
g54
(dp1338
sg63
g1324
sg56
(lp1339
g49
(g50
g51
NtRp1340
(dp1341
g54
(dp1342
g62
I3
ssg63
g1336
sg56
(lp1343
S''
asbasbasbag49
(g65
g51
NtRp1344
(dp1345
g54
(dp1346
sg63
g1260
sg56
(lp1347
g49
(g70
g51
NtRp1348
(dp1349
g54
(dp1350
g74
g75
ssg63
g1344
sg56
(lp1351
g359
asbag49
(g70
g51
NtRp1352
(dp1353
g54
(dp1354
g81
g82
ssg63
g1344
sg56
(lp1355
S':'
asbag49
(g70
g51
NtRp1356
(dp1357
g54
(dp1358
sg63
g1344
sg56
(lp1359
g49
(g50
g51
NtRp1360
(dp1361
g54
(dp1362
g62
I3
ssg63
g1356
sg56
(lp1363
S''
asbasbasbag49
(g65
g51
NtRp1364
(dp1365
g54
(dp1366
sg63
g1260
sg56
(lp1367
g49
(g70
g51
NtRp1368
(dp1369
g54
(dp1370
g74
g75
ssg63
g1364
sg56
(lp1371
g380
asbag49
(g70
g51
NtRp1372
(dp1373
g54
(dp1374
g81
g82
ssg63
g1364
sg56
(lp1375
S':'
asbag49
(g70
g51
NtRp1376
(dp1377
g54
(dp1378
sg63
g1364
sg56
(lp1379
g49
(g50
g51
NtRp1380
(dp1381
g54
(dp1382
g62
I3
ssg63
g1376
sg56
(lp1383
S''
asbasbasbag49
(g65
g51
NtRp1384
(dp1385
g54
(dp1386
sg63
g1260
sg56
(lp1387
g49
(g70
g51
NtRp1388
(dp1389
g54
(dp1390
g74
g75
ssg63
g1384
sg56
(lp1391
g401
asbag49
(g70
g51
NtRp1392
(dp1393
g54
(dp1394
g81
g82
ssg63
g1384
sg56
(lp1395
S':'
asbag49
(g70
g51
NtRp1396
(dp1397
g54
(dp1398
sg63
g1384
sg56
(lp1399
g49
(g50
g51
NtRp1400
(dp1401
g54
(dp1402
g62
I3
ssg63
g1396
sg56
(lp1403
S''
asbasbasbasbasbasbasbag49
(g65
g51
NtRp1404
(dp1405
g54
(dp1406
sg63
g238
sg56
(lp1407
g49
(g70
g51
NtRp1408
(dp1409
g54
(dp1410
g74
g75
ssg63
g1404
sg56
(lp1411
S'session_id_inplace'
p1412
asbag49
(g70
g51
NtRp1413
(dp1414
g54
(dp1415
g81
g82
ssg63
g1404
sg56
(lp1416
S':'
asbag49
(g70
g51
NtRp1417
(dp1418
g54
(dp1419
sg63
g1404
sg56
(lp1420
g49
(g50
g51
NtRp1421
(dp1422
g54
(dp1423
g62
I4
ssg63
g1417
sg56
(lp1424
g49
(g58
g51
NtRp1425
(dp1426
g54
(dp1427
g62
I3
ssg63
Nsg56
(lp1428
g49
(g65
g51
NtRp1429
(dp1430
g54
(dp1431
sg63
g1425
sg56
(lp1432
g49
(g70
g51
NtRp1433
(dp1434
g54
(dp1435
g74
g75
ssg63
g1429
sg56
(lp1436
g275
asbag49
(g70
g51
NtRp1437
(dp1438
g54
(dp1439
g81
g82
ssg63
g1429
sg56
(lp1440
S':'
asbag49
(g70
g51
NtRp1441
(dp1442
g54
(dp1443
sg63
g1429
sg56
(lp1444
g49
(g50
g51
NtRp1445
(dp1446
g54
(dp1447
g62
I3
ssg63
g1441
sg56
(lp1448
S''
asbasbasbag49
(g65
g51
NtRp1449
(dp1450
g54
(dp1451
sg63
g1425
sg56
(lp1452
g49
(g70
g51
NtRp1453
(dp1454
g54
(dp1455
g74
g75
ssg63
g1449
sg56
(lp1456
g296
asbag49
(g70
g51
NtRp1457
(dp1458
g54
(dp1459
g81
g82
ssg63
g1449
sg56
(lp1460
S':'
asbag49
(g70
g51
NtRp1461
(dp1462
g54
(dp1463
sg63
g1449
sg56
(lp1464
g49
(g50
g51
NtRp1465
(dp1466
g54
(dp1467
g62
I3
ssg63
g1461
sg56
(lp1468
S''
asbasbasbag49
(g65
g51
NtRp1469
(dp1470
g54
(dp1471
sg63
g1425
sg56
(lp1472
g49
(g70
g51
NtRp1473
(dp1474
g54
(dp1475
g74
g75
ssg63
g1469
sg56
(lp1476
g317
asbag49
(g70
g51
NtRp1477
(dp1478
g54
(dp1479
g81
g82
ssg63
g1469
sg56
(lp1480
S':'
asbag49
(g70
g51
NtRp1481
(dp1482
g54
(dp1483
sg63
g1469
sg56
(lp1484
g49
(g50
g51
NtRp1485
(dp1486
g54
(dp1487
g62
I3
ssg63
g1481
sg56
(lp1488
S''
asbasbasbag49
(g65
g51
NtRp1489
(dp1490
g54
(dp1491
sg63
g1425
sg56
(lp1492
g49
(g70
g51
NtRp1493
(dp1494
g54
(dp1495
g74
g75
ssg63
g1489
sg56
(lp1496
g338
asbag49
(g70
g51
NtRp1497
(dp1498
g54
(dp1499
g81
g82
ssg63
g1489
sg56
(lp1500
S':'
asbag49
(g70
g51
NtRp1501
(dp1502
g54
(dp1503
sg63
g1489
sg56
(lp1504
g49
(g50
g51
NtRp1505
(dp1506
g54
(dp1507
g62
I3
ssg63
g1501
sg56
(lp1508
S''
asbasbasbag49
(g65
g51
NtRp1509
(dp1510
g54
(dp1511
sg63
g1425
sg56
(lp1512
g49
(g70
g51
NtRp1513
(dp1514
g54
(dp1515
g74
g75
ssg63
g1509
sg56
(lp1516
g359
asbag49
(g70
g51
NtRp1517
(dp1518
g54
(dp1519
g81
g82
ssg63
g1509
sg56
(lp1520
S':'
asbag49
(g70
g51
NtRp1521
(dp1522
g54
(dp1523
sg63
g1509
sg56
(lp1524
g49
(g50
g51
NtRp1525
(dp1526
g54
(dp1527
g62
I3
ssg63
g1521
sg56
(lp1528
S''
asbasbasbag49
(g65
g51
NtRp1529
(dp1530
g54
(dp1531
sg63
g1425
sg56
(lp1532
g49
(g70
g51
NtRp1533
(dp1534
g54
(dp1535
g74
g75
ssg63
g1529
sg56
(lp1536
g380
asbag49
(g70
g51
NtRp1537
(dp1538
g54
(dp1539
g81
g82
ssg63
g1529
sg56
(lp1540
S':'
asbag49
(g70
g51
NtRp1541
(dp1542
g54
(dp1543
sg63
g1529
sg56
(lp1544
g49
(g50
g51
NtRp1545
(dp1546
g54
(dp1547
g62
I3
ssg63
g1541
sg56
(lp1548
S''
asbasbasbag49
(g65
g51
NtRp1549
(dp1550
g54
(dp1551
sg63
g1425
sg56
(lp1552
g49
(g70
g51
NtRp1553
(dp1554
g54
(dp1555
g74
g75
ssg63
g1549
sg56
(lp1556
g401
asbag49
(g70
g51
NtRp1557
(dp1558
g54
(dp1559
g81
g82
ssg63
g1549
sg56
(lp1560
S':'
asbag49
(g70
g51
NtRp1561
(dp1562
g54
(dp1563
sg63
g1549
sg56
(lp1564
g49
(g50
g51
NtRp1565
(dp1566
g54
(dp1567
g62
I3
ssg63
g1561
sg56
(lp1568
S''
asbasbasbasbasbasbasbag49
(g65
g51
NtRp1569
(dp1570
g54
(dp1571
sg63
g238
sg56
(lp1572
g49
(g70
g51
NtRp1573
(dp1574
g54
(dp1575
g74
g75
ssg63
g1569
sg56
(lp1576
S'session_id_plasmid'
p1577
asbag49
(g70
g51
NtRp1578
(dp1579
g54
(dp1580
g81
g82
ssg63
g1569
sg56
(lp1581
S':'
asbag49
(g70
g51
NtRp1582
(dp1583
g54
(dp1584
sg63
g1569
sg56
(lp1585
g49
(g50
g51
NtRp1586
(dp1587
g54
(dp1588
g62
I4
ssg63
g1582
sg56
(lp1589
g49
(g58
g51
NtRp1590
(dp1591
g54
(dp1592
g62
I3
ssg63
Nsg56
(lp1593
g49
(g65
g51
NtRp1594
(dp1595
g54
(dp1596
sg63
g1590
sg56
(lp1597
g49
(g70
g51
NtRp1598
(dp1599
g54
(dp1600
g74
g75
ssg63
g1594
sg56
(lp1601
g275
asbag49
(g70
g51
NtRp1602
(dp1603
g54
(dp1604
g81
g82
ssg63
g1594
sg56
(lp1605
S':'
asbag49
(g70
g51
NtRp1606
(dp1607
g54
(dp1608
sg63
g1594
sg56
(lp1609
g49
(g50
g51
NtRp1610
(dp1611
g54
(dp1612
g62
I3
ssg63
g1606
sg56
(lp1613
S''
asbasbasbag49
(g65
g51
NtRp1614
(dp1615
g54
(dp1616
sg63
g1590
sg56
(lp1617
g49
(g70
g51
NtRp1618
(dp1619
g54
(dp1620
g74
g75
ssg63
g1614
sg56
(lp1621
g296
asbag49
(g70
g51
NtRp1622
(dp1623
g54
(dp1624
g81
g82
ssg63
g1614
sg56
(lp1625
S':'
asbag49
(g70
g51
NtRp1626
(dp1627
g54
(dp1628
sg63
g1614
sg56
(lp1629
g49
(g50
g51
NtRp1630
(dp1631
g54
(dp1632
g62
I3
ssg63
g1626
sg56
(lp1633
S''
asbasbasbag49
(g65
g51
NtRp1634
(dp1635
g54
(dp1636
sg63
g1590
sg56
(lp1637
g49
(g70
g51
NtRp1638
(dp1639
g54
(dp1640
g74
g75
ssg63
g1634
sg56
(lp1641
g317
asbag49
(g70
g51
NtRp1642
(dp1643
g54
(dp1644
g81
g82
ssg63
g1634
sg56
(lp1645
S':'
asbag49
(g70
g51
NtRp1646
(dp1647
g54
(dp1648
sg63
g1634
sg56
(lp1649
g49
(g50
g51
NtRp1650
(dp1651
g54
(dp1652
g62
I3
ssg63
g1646
sg56
(lp1653
S''
asbasbasbag49
(g65
g51
NtRp1654
(dp1655
g54
(dp1656
sg63
g1590
sg56
(lp1657
g49
(g70
g51
NtRp1658
(dp1659
g54
(dp1660
g74
g75
ssg63
g1654
sg56
(lp1661
g338
asbag49
(g70
g51
NtRp1662
(dp1663
g54
(dp1664
g81
g82
ssg63
g1654
sg56
(lp1665
S':'
asbag49
(g70
g51
NtRp1666
(dp1667
g54
(dp1668
sg63
g1654
sg56
(lp1669
g49
(g50
g51
NtRp1670
(dp1671
g54
(dp1672
g62
I3
ssg63
g1666
sg56
(lp1673
S''
asbasbasbag49
(g65
g51
NtRp1674
(dp1675
g54
(dp1676
sg63
g1590
sg56
(lp1677
g49
(g70
g51
NtRp1678
(dp1679
g54
(dp1680
g74
g75
ssg63
g1674
sg56
(lp1681
g359
asbag49
(g70
g51
NtRp1682
(dp1683
g54
(dp1684
g81
g82
ssg63
g1674
sg56
(lp1685
S':'
asbag49
(g70
g51
NtRp1686
(dp1687
g54
(dp1688
sg63
g1674
sg56
(lp1689
g49
(g50
g51
NtRp1690
(dp1691
g54
(dp1692
g62
I3
ssg63
g1686
sg56
(lp1693
S''
asbasbasbag49
(g65
g51
NtRp1694
(dp1695
g54
(dp1696
sg63
g1590
sg56
(lp1697
g49
(g70
g51
NtRp1698
(dp1699
g54
(dp1700
g74
g75
ssg63
g1694
sg56
(lp1701
g380
asbag49
(g70
g51
NtRp1702
(dp1703
g54
(dp1704
g81
g82
ssg63
g1694
sg56
(lp1705
S':'
asbag49
(g70
g51
NtRp1706
(dp1707
g54
(dp1708
sg63
g1694
sg56
(lp1709
g49
(g50
g51
NtRp1710
(dp1711
g54
(dp1712
g62
I3
ssg63
g1706
sg56
(lp1713
S''
asbasbasbag49
(g65
g51
NtRp1714
(dp1715
g54
(dp1716
sg63
g1590
sg56
(lp1717
g49
(g70
g51
NtRp1718
(dp1719
g54
(dp1720
g74
g75
ssg63
g1714
sg56
(lp1721
g401
asbag49
(g70
g51
NtRp1722
(dp1723
g54
(dp1724
g81
g82
ssg63
g1714
sg56
(lp1725
S':'
asbag49
(g70
g51
NtRp1726
(dp1727
g54
(dp1728
sg63
g1714
sg56
(lp1729
g49
(g50
g51
NtRp1730
(dp1731
g54
(dp1732
g62
I3
ssg63
g1726
sg56
(lp1733
S''
asbasbasbasbasbasbasbasbasbasbasbag49
(g65
g51
NtRp1734
(dp1735
g54
(dp1736
sg63
g59
sg56
(lp1737
g49
(g70
g51
NtRp1738
(dp1739
g54
(dp1740
g74
g75
ssg63
g1734
sg56
(lp1741
S'env'
p1742
asbag49
(g70
g51
NtRp1743
(dp1744
g54
(dp1745
g81
g82
ssg63
g1734
sg56
(lp1746
S':'
asbag49
(g70
g51
NtRp1747
(dp1748
g54
(dp1749
sg63
g1734
sg56
(lp1750
g49
(g50
g51
NtRp1751
(dp1752
g54
(dp1753
g62
I5
ssg63
g1747
sg56
(lp1754
g49
(g58
g51
NtRp1755
(dp1756
g54
(dp1757
g62
I4
ssg63
Nsg56
(lp1758
g49
(g65
g51
NtRp1759
(dp1760
g54
(dp1761
sg63
g1755
sg56
(lp1762
g49
(g70
g51
NtRp1763
(dp1764
g54
(dp1765
g74
g75
ssg63
g1759
sg56
(lp1766
S'app_folders'
p1767
asbag49
(g70
g51
NtRp1768
(dp1769
g54
(dp1770
g81
g82
ssg63
g1759
sg56
(lp1771
S':'
asbag49
(g70
g51
NtRp1772
(dp1773
g54
(dp1774
sg63
g1759
sg56
(lp1775
g49
(g50
g51
NtRp1776
(dp1777
g54
(dp1778
g62
I4
ssg63
g1772
sg56
(lp1779
S"set(['/Users/mdipierro/Dropbox/web2py/applications/inplace/', '/Users/mdipierro/Dropbox/web2py/applications/plasmid/', '/Users/mdipierro/Dropbox/web2py/applications/admin/'])"
p1780
asbasbasbag49
(g65
g51
NtRp1781
(dp1782
g54
(dp1783
sg63
g1755
sg56
(lp1784
g49
(g70
g51
NtRp1785
(dp1786
g54
(dp1787
g74
g75
ssg63
g1781
sg56
(lp1788
S'applications_parent'
p1789
asbag49
(g70
g51
NtRp1790
(dp1791
g54
(dp1792
g81
g82
ssg63
g1781
sg56
(lp1793
S':'
asbag49
(g70
g51
NtRp1794
(dp1795
g54
(dp1796
sg63
g1781
sg56
(lp1797
g49
(g50
g51
NtRp1798
(dp1799
g54
(dp1800
g62
I4
ssg63
g1794
sg56
(lp1801
S'/Users/mdipierro/Dropbox/web2py'
p1802
asbasbasbag49
(g65
g51
NtRp1803
(dp1804
g54
(dp1805
sg63
g1755
sg56
(lp1806
g49
(g70
g51
NtRp1807
(dp1808
g54
(dp1809
g74
g75
ssg63
g1803
sg56
(lp1810
S'cmd_args'
p1811
asbag49
(g70
g51
NtRp1812
(dp1813
g54
(dp1814
g81
g82
ssg63
g1803
sg56
(lp1815
S':'
asbag49
(g70
g51
NtRp1816
(dp1817
g54
(dp1818
sg63
g1803
sg56
(lp1819
g49
(g50
g51
NtRp1820
(dp1821
g54
(dp1822
g62
I4
ssg63
g1816
sg56
(lp1823
g49
(g58
g51
NtRp1824
(dp1825
g54
(dp1826
g62
I3
ssg63
Nsg56
(lp1827
sbasbasbasbag49
(g65
g51
NtRp1828
(dp1829
g54
(dp1830
sg63
g1755
sg56
(lp1831
g49
(g70
g51
NtRp1832
(dp1833
g54
(dp1834
g74
g75
ssg63
g1828
sg56
(lp1835
S'cmd_options'
p1836
asbag49
(g70
g51
NtRp1837
(dp1838
g54
(dp1839
g81
g82
ssg63
g1828
sg56
(lp1840
S':'
asbag49
(g70
g51
NtRp1841
(dp1842
g54
(dp1843
sg63
g1828
sg56
(lp1844
g49
(g50
g51
NtRp1845
(dp1846
g54
(dp1847
g62
I4
ssg63
g1841
sg56
(lp1848
S"<Values at 0x153a378: {'verbose': False, 'ip': '127.0.0.1', 'shutdown_timeout': 5, 'taskbar': False, 'nocron': False, 'pid_filename': 'httpserver.pid', 'maxthreads': None, 'softcron': False, 'server_name': 'massimo-di-pierros-macbook-2.local', 'bpython': False, 'nogui': False, 'port': 8000, 'extcron': False, 'debuglevel': 30, 'test': None, 'folder': '/Users/mdipierro/Dropbox/web2py', 'config': '', 'import_models': False, 'winservice': '', 'shell': None, 'run': '', 'log_filename': 'httpserver.log', 'args': [''], 'socket_timeout': 1, 'ssl_ca_certificate': None, 'scheduler': None, 'profiler_filename': None, 'ssl_private_key': '', 'password': 'hello', 'request_queue_size': 5, 'ssl_certificate': '', 'cronjob': False, 'numthreads': None, 'quiet': False, 'interfaces': None, 'minthreads': None, 'timeout': 10, 'plain': False, 'nobanner': False}>"
p1849
asbasbasbag49
(g65
g51
NtRp1850
(dp1851
g54
(dp1852
sg63
g1755
sg56
(lp1853
g49
(g70
g51
NtRp1854
(dp1855
g54
(dp1856
g74
g75
ssg63
g1850
sg56
(lp1857
S'db_sessions'
p1858
asbag49
(g70
g51
NtRp1859
(dp1860
g54
(dp1861
g81
g82
ssg63
g1850
sg56
(lp1862
S':'
asbag49
(g70
g51
NtRp1863
(dp1864
g54
(dp1865
sg63
g1850
sg56
(lp1866
g49
(g50
g51
NtRp1867
(dp1868
g54
(dp1869
g62
I4
ssg63
g1863
sg56
(lp1870
S'set([])'
p1871
asbasbasbag49
(g65
g51
NtRp1872
(dp1873
g54
(dp1874
sg63
g1755
sg56
(lp1875
g49
(g70
g51
NtRp1876
(dp1877
g54
(dp1878
g74
g75
ssg63
g1872
sg56
(lp1879
S'debugging'
p1880
asbag49
(g70
g51
NtRp1881
(dp1882
g54
(dp1883
g81
g82
ssg63
g1872
sg56
(lp1884
S':'
asbag49
(g70
g51
NtRp1885
(dp1886
g54
(dp1887
sg63
g1872
sg56
(lp1888
g49
(g50
g51
NtRp1889
(dp1890
g54
(dp1891
g62
I4
ssg63
g1885
sg56
(lp1892
g92
asbasbasbag49
(g65
g51
NtRp1893
(dp1894
g54
(dp1895
sg63
g1755
sg56
(lp1896
g49
(g70
g51
NtRp1897
(dp1898
g54
(dp1899
g74
g75
ssg63
g1893
sg56
(lp1900
S'gluon_parent'
p1901
asbag49
(g70
g51
NtRp1902
(dp1903
g54
(dp1904
g81
g82
ssg63
g1893
sg56
(lp1905
S':'
asbag49
(g70
g51
NtRp1906
(dp1907
g54
(dp1908
sg63
g1893
sg56
(lp1909
g49
(g50
g51
NtRp1910
(dp1911
g54
(dp1912
g62
I4
ssg63
g1906
sg56
(lp1913
S'/Users/mdipierro/Dropbox/web2py'
p1914
asbasbasbag49
(g65
g51
NtRp1915
(dp1916
g54
(dp1917
sg63
g1755
sg56
(lp1918
g49
(g70
g51
NtRp1919
(dp1920
g54
(dp1921
g74
g75
ssg63
g1915
sg56
(lp1922
S'http_accept'
p1923
asbag49
(g70
g51
NtRp1924
(dp1925
g54
(dp1926
g81
g82
ssg63
g1915
sg56
(lp1927
S':'
asbag49
(g70
g51
NtRp1928
(dp1929
g54
(dp1930
sg63
g1915
sg56
(lp1931
g49
(g50
g51
NtRp1932
(dp1933
g54
(dp1934
g62
I4
ssg63
g1928
sg56
(lp1935
S'text/html,application/xhtml+xml,application/xml;q=0.9,*/*;q=0.8'
p1936
asbasbasbag49
(g65
g51
NtRp1937
(dp1938
g54
(dp1939
sg63
g1755
sg56
(lp1940
g49
(g70
g51
NtRp1941
(dp1942
g54
(dp1943
g74
g75
ssg63
g1937
sg56
(lp1944
S'http_accept_charset'
p1945
asbag49
(g70
g51
NtRp1946
(dp1947
g54
(dp1948
g81
g82
ssg63
g1937
sg56
(lp1949
S':'
asbag49
(g70
g51
NtRp1950
(dp1951
g54
(dp1952
sg63
g1937
sg56
(lp1953
g49
(g50
g51
NtRp1954
(dp1955
g54
(dp1956
g62
I4
ssg63
g1950
sg56
(lp1957
S'ISO-8859-1,utf-8;q=0.7,*;q=0.3'
p1958
asbasbasbag49
(g65
g51
NtRp1959
(dp1960
g54
(dp1961
sg63
g1755
sg56
(lp1962
g49
(g70
g51
NtRp1963
(dp1964
g54
(dp1965
g74
g75
ssg63
g1959
sg56
(lp1966
S'http_accept_encoding'
p1967
asbag49
(g70
g51
NtRp1968
(dp1969
g54
(dp1970
g81
g82
ssg63
g1959
sg56
(lp1971
S':'
asbag49
(g70
g51
NtRp1972
(dp1973
g54
(dp1974
sg63
g1959
sg56
(lp1975
g49
(g50
g51
NtRp1976
(dp1977
g54
(dp1978
g62
I4
ssg63
g1972
sg56
(lp1979
S'gzip,deflate,sdch'
p1980
asbasbasbag49
(g65
g51
NtRp1981
(dp1982
g54
(dp1983
sg63
g1755
sg56
(lp1984
g49
(g70
g51
NtRp1985
(dp1986
g54
(dp1987
g74
g75
ssg63
g1981
sg56
(lp1988
S'http_accept_language'
p1989
asbag49
(g70
g51
NtRp1990
(dp1991
g54
(dp1992
g81
g82
ssg63
g1981
sg56
(lp1993
S':'
asbag49
(g70
g51
NtRp1994
(dp1995
g54
(dp1996
sg63
g1981
sg56
(lp1997
g49
(g50
g51
NtRp1998
(dp1999
g54
(dp2000
g62
I4
ssg63
g1994
sg56
(lp2001
S'en,en-US;q=0.8,de-DE;q=0.6,de;q=0.4,it-IT;q=0.2,it;q=0.2,ja;q=0.2'
p2002
asbasbasbag49
(g65
g51
NtRp2003
(dp2004
g54
(dp2005
sg63
g1755
sg56
(lp2006
g49
(g70
g51
NtRp2007
(dp2008
g54
(dp2009
g74
g75
ssg63
g2003
sg56
(lp2010
S'http_connection'
p2011
asbag49
(g70
g51
NtRp2012
(dp2013
g54
(dp2014
g81
g82
ssg63
g2003
sg56
(lp2015
S':'
asbag49
(g70
g51
NtRp2016
(dp2017
g54
(dp2018
sg63
g2003
sg56
(lp2019
g49
(g50
g51
NtRp2020
(dp2021
g54
(dp2022
g62
I4
ssg63
g2016
sg56
(lp2023
S'keep-alive'
p2024
asbasbasbag49
(g65
g51
NtRp2025
(dp2026
g54
(dp2027
sg63
g1755
sg56
(lp2028
g49
(g70
g51
NtRp2029
(dp2030
g54
(dp2031
g74
g75
ssg63
g2025
sg56
(lp2032
S'http_cookie'
p2033
asbag49
(g70
g51
NtRp2034
(dp2035
g54
(dp2036
g81
g82
ssg63
g2025
sg56
(lp2037
S':'
asbag49
(g70
g51
NtRp2038
(dp2039
g54
(dp2040
sg63
g2025
sg56
(lp2041
g49
(g50
g51
NtRp2042
(dp2043
g54
(dp2044
g62
I4
ssg63
g2038
sg56
(lp2045
S'registered=yes; __utma_a2a=1369166446.1335515545.1303958619.1316700181.1318215879.74; el-finder-last-finder=4f5a448a961f1931173928a6b6d9d4d2; s_nr=1323495907438-New; __qca=P0-1359637726-1323501662225; _chartbeat2=ha3n2egp47d2hmo0.1323501662417; session_id_cms=127.0.0.1-f4c1e56e-4f4d-4936-aaf7-92fdd3a97f53; session_id_inplace=127.0.0.1-b67af904-b8cf-469d-95b3-18285a004db1; s_cc=true; s_sq=%5B%5BB%5D%5D; session_id_admin=127.0.0.1-6a37fabc-e407-41b8-ae02-b2fc0eaa9b75; __utma=96992031.1452952453.1313221394.1323645249.1323659594.8; __utmb=96992031.18.10.1323659594; __utmc=96992031; __utmz=96992031.1313221394.1.1.utmcsr=(direct)|utmccn=(direct)|utmcmd=(none); session_id_plasmid=127.0.0.1-559f98a2-79dd-406f-bad1-d5c08eab6b4a'
p2046
asbasbasbag49
(g65
g51
NtRp2047
(dp2048
g54
(dp2049
sg63
g1755
sg56
(lp2050
g49
(g70
g51
NtRp2051
(dp2052
g54
(dp2053
g74
g75
ssg63
g2047
sg56
(lp2054
S'http_host'
p2055
asbag49
(g70
g51
NtRp2056
(dp2057
g54
(dp2058
g81
g82
ssg63
g2047
sg56
(lp2059
S':'
asbag49
(g70
g51
NtRp2060
(dp2061
g54
(dp2062
sg63
g2047
sg56
(lp2063
g49
(g50
g51
NtRp2064
(dp2065
g54
(dp2066
g62
I4
ssg63
g2060
sg56
(lp2067
S'127.0.0.1:8000'
p2068
asbasbasbag49
(g65
g51
NtRp2069
(dp2070
g54
(dp2071
sg63
g1755
sg56
(lp2072
g49
(g70
g51
NtRp2073
(dp2074
g54
(dp2075
g74
g75
ssg63
g2069
sg56
(lp2076
S'http_referer'
p2077
asbag49
(g70
g51
NtRp2078
(dp2079
g54
(dp2080
g81
g82
ssg63
g2069
sg56
(lp2081
S':'
asbag49
(g70
g51
NtRp2082
(dp2083
g54
(dp2084
sg63
g2069
sg56
(lp2085
g49
(g50
g51
NtRp2086
(dp2087
g54
(dp2088
g62
I4
ssg63
g2082
sg56
(lp2089
S'http://127.0.0.1:8000/plasmid/default/edit?url=http%3A%2F%2Fwww.webpagedesign.com.au%2FFree_Templates%2Fgreefies%2Fhome.html'
p2090
asbasbasbag49
(g65
g51
NtRp2091
(dp2092
g54
(dp2093
sg63
g1755
sg56
(lp2094
g49
(g70
g51
NtRp2095
(dp2096
g54
(dp2097
g74
g75
ssg63
g2091
sg56
(lp2098
S'http_user_agent'
p2099
asbag49
(g70
g51
NtRp2100
(dp2101
g54
(dp2102
g81
g82
ssg63
g2091
sg56
(lp2103
S':'
asbag49
(g70
g51
NtRp2104
(dp2105
g54
(dp2106
sg63
g2091
sg56
(lp2107
g49
(g50
g51
NtRp2108
(dp2109
g54
(dp2110
g62
I4
ssg63
g2104
sg56
(lp2111
S'Mozilla/5.0 (Macintosh; Intel Mac OS X 10_6_8) AppleWebKit/535.7 (KHTML, like Gecko) Chrome/16.0.912.63 Safari/535.7'
p2112
asbasbasbag49
(g65
g51
NtRp2113
(dp2114
g54
(dp2115
sg63
g1755
sg56
(lp2116
g49
(g70
g51
NtRp2117
(dp2118
g54
(dp2119
g74
g75
ssg63
g2113
sg56
(lp2120
S'is_jython'
p2121
asbag49
(g70
g51
NtRp2122
(dp2123
g54
(dp2124
g81
g82
ssg63
g2113
sg56
(lp2125
S':'
asbag49
(g70
g51
NtRp2126
(dp2127
g54
(dp2128
sg63
g2113
sg56
(lp2129
g49
(g50
g51
NtRp2130
(dp2131
g54
(dp2132
g62
I4
ssg63
g2126
sg56
(lp2133
g92
asbasbasbag49
(g65
g51
NtRp2134
(dp2135
g54
(dp2136
sg63
g1755
sg56
(lp2137
g49
(g70
g51
NtRp2138
(dp2139
g54
(dp2140
g74
g75
ssg63
g2134
sg56
(lp2141
S'is_pypy'
p2142
asbag49
(g70
g51
NtRp2143
(dp2144
g54
(dp2145
g81
g82
ssg63
g2134
sg56
(lp2146
S':'
asbag49
(g70
g51
NtRp2147
(dp2148
g54
(dp2149
sg63
g2134
sg56
(lp2150
g49
(g50
g51
NtRp2151
(dp2152
g54
(dp2153
g62
I4
ssg63
g2147
sg56
(lp2154
g92
asbasbasbag49
(g65
g51
NtRp2155
(dp2156
g54
(dp2157
sg63
g1755
sg56
(lp2158
g49
(g70
g51
NtRp2159
(dp2160
g54
(dp2161
g74
g75
ssg63
g2155
sg56
(lp2162
S'path_info'
p2163
asbag49
(g70
g51
NtRp2164
(dp2165
g54
(dp2166
g81
g82
ssg63
g2155
sg56
(lp2167
S':'
asbag49
(g70
g51
NtRp2168
(dp2169
g54
(dp2170
sg63
g2155
sg56
(lp2171
g49
(g50
g51
NtRp2172
(dp2173
g54
(dp2174
g62
I4
ssg63
g2168
sg56
(lp2175
S'/plasmid/default/page/1'
p2176
asbasbasbag49
(g65
g51
NtRp2177
(dp2178
g54
(dp2179
sg63
g1755
sg56
(lp2180
g49
(g70
g51
NtRp2181
(dp2182
g54
(dp2183
g74
g75
ssg63
g2177
sg56
(lp2184
S'query_string'
p2185
asbag49
(g70
g51
NtRp2186
(dp2187
g54
(dp2188
g81
g82
ssg63
g2177
sg56
(lp2189
S':'
asbag49
(g70
g51
NtRp2190
(dp2191
g54
(dp2192
sg63
g2177
sg56
(lp2193
g49
(g50
g51
NtRp2194
(dp2195
g54
(dp2196
g62
I4
ssg63
g2190
sg56
(lp2197
S''
asbasbasbag49
(g65
g51
NtRp2198
(dp2199
g54
(dp2200
sg63
g1755
sg56
(lp2201
g49
(g70
g51
NtRp2202
(dp2203
g54
(dp2204
g74
g75
ssg63
g2198
sg56
(lp2205
S'remote_addr'
p2206
asbag49
(g70
g51
NtRp2207
(dp2208
g54
(dp2209
g81
g82
ssg63
g2198
sg56
(lp2210
S':'
asbag49
(g70
g51
NtRp2211
(dp2212
g54
(dp2213
sg63
g2198
sg56
(lp2214
g49
(g50
g51
NtRp2215
(dp2216
g54
(dp2217
g62
I4
ssg63
g2211
sg56
(lp2218
g194
asbasbasbag49
(g65
g51
NtRp2219
(dp2220
g54
(dp2221
sg63
g1755
sg56
(lp2222
g49
(g70
g51
NtRp2223
(dp2224
g54
(dp2225
g74
g75
ssg63
g2219
sg56
(lp2226
S'remote_port'
p2227
asbag49
(g70
g51
NtRp2228
(dp2229
g54
(dp2230
g81
g82
ssg63
g2219
sg56
(lp2231
S':'
asbag49
(g70
g51
NtRp2232
(dp2233
g54
(dp2234
sg63
g2219
sg56
(lp2235
g49
(g50
g51
NtRp2236
(dp2237
g54
(dp2238
g62
I4
ssg63
g2232
sg56
(lp2239
S'59684'
p2240
asbasbasbag49
(g65
g51
NtRp2241
(dp2242
g54
(dp2243
sg63
g1755
sg56
(lp2244
g49
(g70
g51
NtRp2245
(dp2246
g54
(dp2247
g74
g75
ssg63
g2241
sg56
(lp2248
S'request_method'
p2249
asbag49
(g70
g51
NtRp2250
(dp2251
g54
(dp2252
g81
g82
ssg63
g2241
sg56
(lp2253
S':'
asbag49
(g70
g51
NtRp2254
(dp2255
g54
(dp2256
sg63
g2241
sg56
(lp2257
g49
(g50
g51
NtRp2258
(dp2259
g54
(dp2260
g62
I4
ssg63
g2254
sg56
(lp2261
S'GET'
p2262
asbasbasbag49
(g65
g51
NtRp2263
(dp2264
g54
(dp2265
sg63
g1755
sg56
(lp2266
g49
(g70
g51
NtRp2267
(dp2268
g54
(dp2269
g74
g75
ssg63
g2263
sg56
(lp2270
S'script_name'
p2271
asbag49
(g70
g51
NtRp2272
(dp2273
g54
(dp2274
g81
g82
ssg63
g2263
sg56
(lp2275
S':'
asbag49
(g70
g51
NtRp2276
(dp2277
g54
(dp2278
sg63
g2263
sg56
(lp2279
g49
(g50
g51
NtRp2280
(dp2281
g54
(dp2282
g62
I4
ssg63
g2276
sg56
(lp2283
S''
asbasbasbag49
(g65
g51
NtRp2284
(dp2285
g54
(dp2286
sg63
g1755
sg56
(lp2287
g49
(g70
g51
NtRp2288
(dp2289
g54
(dp2290
g74
g75
ssg63
g2284
sg56
(lp2291
S'server_name'
p2292
asbag49
(g70
g51
NtRp2293
(dp2294
g54
(dp2295
g81
g82
ssg63
g2284
sg56
(lp2296
S':'
asbag49
(g70
g51
NtRp2297
(dp2298
g54
(dp2299
sg63
g2284
sg56
(lp2300
g49
(g50
g51
NtRp2301
(dp2302
g54
(dp2303
g62
I4
ssg63
g2297
sg56
(lp2304
S'massimo-di-pierros-macbook-2.local'
p2305
asbasbasbag49
(g65
g51
NtRp2306
(dp2307
g54
(dp2308
sg63
g1755
sg56
(lp2309
g49
(g70
g51
NtRp2310
(dp2311
g54
(dp2312
g74
g75
ssg63
g2306
sg56
(lp2313
S'server_port'
p2314
asbag49
(g70
g51
NtRp2315
(dp2316
g54
(dp2317
g81
g82
ssg63
g2306
sg56
(lp2318
S':'
asbag49
(g70
g51
NtRp2319
(dp2320
g54
(dp2321
sg63
g2306
sg56
(lp2322
g49
(g50
g51
NtRp2323
(dp2324
g54
(dp2325
g62
I4
ssg63
g2319
sg56
(lp2326
S'8000'
p2327
asbasbasbag49
(g65
g51
NtRp2328
(dp2329
g54
(dp2330
sg63
g1755
sg56
(lp2331
g49
(g70
g51
NtRp2332
(dp2333
g54
(dp2334
g74
g75
ssg63
g2328
sg56
(lp2335
S'server_protocol'
p2336
asbag49
(g70
g51
NtRp2337
(dp2338
g54
(dp2339
g81
g82
ssg63
g2328
sg56
(lp2340
S':'
asbag49
(g70
g51
NtRp2341
(dp2342
g54
(dp2343
sg63
g2328
sg56
(lp2344
g49
(g50
g51
NtRp2345
(dp2346
g54
(dp2347
g62
I4
ssg63
g2341
sg56
(lp2348
S'HTTP/1.1'
p2349
asbasbasbag49
(g65
g51
NtRp2350
(dp2351
g54
(dp2352
sg63
g1755
sg56
(lp2353
g49
(g70
g51
NtRp2354
(dp2355
g54
(dp2356
g74
g75
ssg63
g2350
sg56
(lp2357
S'server_software'
p2358
asbag49
(g70
g51
NtRp2359
(dp2360
g54
(dp2361
g81
g82
ssg63
g2350
sg56
(lp2362
S':'
asbag49
(g70
g51
NtRp2363
(dp2364
g54
(dp2365
sg63
g2350
sg56
(lp2366
g49
(g50
g51
NtRp2367
(dp2368
g54
(dp2369
g62
I4
ssg63
g2363
sg56
(lp2370
S'Rocket 1.2.4'
p2371
asbasbasbag49
(g65
g51
NtRp2372
(dp2373
g54
(dp2374
sg63
g1755
sg56
(lp2375
g49
(g70
g51
NtRp2376
(dp2377
g54
(dp2378
g74
g75
ssg63
g2372
sg56
(lp2379
S'web2py_crontype'
p2380
asbag49
(g70
g51
NtRp2381
(dp2382
g54
(dp2383
g81
g82
ssg63
g2372
sg56
(lp2384
S':'
asbag49
(g70
g51
NtRp2385
(dp2386
g54
(dp2387
sg63
g2372
sg56
(lp2388
g49
(g50
g51
NtRp2389
(dp2390
g54
(dp2391
g62
I4
ssg63
g2385
sg56
(lp2392
S'hard'
p2393
asbasbasbag49
(g65
g51
NtRp2394
(dp2395
g54
(dp2396
sg63
g1755
sg56
(lp2397
g49
(g70
g51
NtRp2398
(dp2399
g54
(dp2400
g74
g75
ssg63
g2394
sg56
(lp2401
S'web2py_path'
p2402
asbag49
(g70
g51
NtRp2403
(dp2404
g54
(dp2405
g81
g82
ssg63
g2394
sg56
(lp2406
S':'
asbag49
(g70
g51
NtRp2407
(dp2408
g54
(dp2409
sg63
g2394
sg56
(lp2410
g49
(g50
g51
NtRp2411
(dp2412
g54
(dp2413
g62
I4
ssg63
g2407
sg56
(lp2414
g1802
asbasbasbag49
(g65
g51
NtRp2415
(dp2416
g54
(dp2417
sg63
g1755
sg56
(lp2418
g49
(g70
g51
NtRp2419
(dp2420
g54
(dp2421
g74
g75
ssg63
g2415
sg56
(lp2422
S'web2py_version'
p2423
asbag49
(g70
g51
NtRp2424
(dp2425
g54
(dp2426
g81
g82
ssg63
g2415
sg56
(lp2427
S':'
asbag49
(g70
g51
NtRp2428
(dp2429
g54
(dp2430
sg63
g2415
sg56
(lp2431
g49
(g50
g51
NtRp2432
(dp2433
g54
(dp2434
g62
I4
ssg63
g2428
sg56
(lp2435
g49
(g58
g51
NtRp2436
(dp2437
g54
(dp2438
g62
I3
ssg63
Nsg56
(lp2439
g49
(g65
g51
NtRp2440
(dp2441
g54
(dp2442
sg63
g2436
sg56
(lp2443
g49
(g70
g51
NtRp2444
(dp2445
g54
(dp2446
sg63
g2440
sg56
(lp2447
g49
(g50
g51
NtRp2448
(dp2449
g54
(dp2450
g62
I3
ssg63
g2444
sg56
(lp2451
S'1'
asbasbasbag49
(g65
g51
NtRp2452
(dp2453
g54
(dp2454
sg63
g2436
sg56
(lp2455
g49
(g70
g51
NtRp2456
(dp2457
g54
(dp2458
sg63
g2452
sg56
(lp2459
g49
(g50
g51
NtRp2460
(dp2461
g54
(dp2462
g62
I3
ssg63
g2456
sg56
(lp2463
S'99'
p2464
asbasbasbag49
(g65
g51
NtRp2465
(dp2466
g54
(dp2467
sg63
g2436
sg56
(lp2468
g49
(g70
g51
NtRp2469
(dp2470
g54
(dp2471
sg63
g2465
sg56
(lp2472
g49
(g50
g51
NtRp2473
(dp2474
g54
(dp2475
g62
I3
ssg63
g2469
sg56
(lp2476
S'3'
asbasbasbag49
(g65
g51
NtRp2477
(dp2478
g54
(dp2479
sg63
g2436
sg56
(lp2480
g49
(g70
g51
NtRp2481
(dp2482
g54
(dp2483
sg63
g2477
sg56
(lp2484
g49
(g50
g51
NtRp2485
(dp2486
g54
(dp2487
g62
I3
ssg63
g2481
sg56
(lp2488
S'datetime.datetime(2011, 12, 9, 21, 5, 4)'
p2489
asbasbasbag49
(g65
g51
NtRp2490
(dp2491
g54
(dp2492
sg63
g2436
sg56
(lp2493
g49
(g70
g51
NtRp2494
(dp2495
g54
(dp2496
sg63
g2490
sg56
(lp2497
g49
(g50
g51
NtRp2498
(dp2499
g54
(dp2500
g62
I3
ssg63
g2494
sg56
(lp2501
S'stable'
p2502
asbasbasbasbasbasbasbag49
(g65
g51
NtRp2503
(dp2504
g54
(dp2505
sg63
g1755
sg56
(lp2506
g49
(g70
g51
NtRp2507
(dp2508
g54
(dp2509
g74
g75
ssg63
g2503
sg56
(lp2510
S'wsgi_errors'
p2511
asbag49
(g70
g51
NtRp2512
(dp2513
g54
(dp2514
g81
g82
ssg63
g2503
sg56
(lp2515
S':'
asbag49
(g70
g51
NtRp2516
(dp2517
g54
(dp2518
sg63
g2503
sg56
(lp2519
g49
(g50
g51
NtRp2520
(dp2521
g54
(dp2522
g62
I4
ssg63
g2516
sg56
(lp2523
S"<open file '<stderr>', mode 'w' at 0x1620b0>"
p2524
asbasbasbag49
(g65
g51
NtRp2525
(dp2526
g54
(dp2527
sg63
g1755
sg56
(lp2528
g49
(g70
g51
NtRp2529
(dp2530
g54
(dp2531
g74
g75
ssg63
g2525
sg56
(lp2532
S'wsgi_file_wrapper'
p2533
asbag49
(g70
g51
NtRp2534
(dp2535
g54
(dp2536
g81
g82
ssg63
g2525
sg56
(lp2537
S':'
asbag49
(g70
g51
NtRp2538
(dp2539
g54
(dp2540
sg63
g2525
sg56
(lp2541
g49
(g50
g51
NtRp2542
(dp2543
g54
(dp2544
g62
I4
ssg63
g2538
sg56
(lp2545
S'<class wsgiref.util.FileWrapper at 0x7c2840>'
p2546
asbasbasbag49
(g65
g51
NtRp2547
(dp2548
g54
(dp2549
sg63
g1755
sg56
(lp2550
g49
(g70
g51
NtRp2551
(dp2552
g54
(dp2553
g74
g75
ssg63
g2547
sg56
(lp2554
S'wsgi_input'
p2555
asbag49
(g70
g51
NtRp2556
(dp2557
g54
(dp2558
g81
g82
ssg63
g2547
sg56
(lp2559
S':'
asbag49
(g70
g51
NtRp2560
(dp2561
g54
(dp2562
sg63
g2547
sg56
(lp2563
g49
(g50
g51
NtRp2564
(dp2565
g54
(dp2566
g62
I4
ssg63
g2560
sg56
(lp2567
S'<socket._fileobject object at 0x13af2f0>'
p2568
asbasbasbag49
(g65
g51
NtRp2569
(dp2570
g54
(dp2571
sg63
g1755
sg56
(lp2572
g49
(g70
g51
NtRp2573
(dp2574
g54
(dp2575
g74
g75
ssg63
g2569
sg56
(lp2576
S'wsgi_multiprocess'
p2577
asbag49
(g70
g51
NtRp2578
(dp2579
g54
(dp2580
g81
g82
ssg63
g2569
sg56
(lp2581
S':'
asbag49
(g70
g51
NtRp2582
(dp2583
g54
(dp2584
sg63
g2569
sg56
(lp2585
g49
(g50
g51
NtRp2586
(dp2587
g54
(dp2588
g62
I4
ssg63
g2582
sg56
(lp2589
g92
asbasbasbag49
(g65
g51
NtRp2590
(dp2591
g54
(dp2592
sg63
g1755
sg56
(lp2593
g49
(g70
g51
NtRp2594
(dp2595
g54
(dp2596
g74
g75
ssg63
g2590
sg56
(lp2597
S'wsgi_multithread'
p2598
asbag49
(g70
g51
NtRp2599
(dp2600
g54
(dp2601
g81
g82
ssg63
g2590
sg56
(lp2602
S':'
asbag49
(g70
g51
NtRp2603
(dp2604
g54
(dp2605
sg63
g2590
sg56
(lp2606
g49
(g50
g51
NtRp2607
(dp2608
g54
(dp2609
g62
I4
ssg63
g2603
sg56
(lp2610
S'True'
p2611
asbasbasbag49
(g65
g51
NtRp2612
(dp2613
g54
(dp2614
sg63
g1755
sg56
(lp2615
g49
(g70
g51
NtRp2616
(dp2617
g54
(dp2618
g74
g75
ssg63
g2612
sg56
(lp2619
S'wsgi_run_once'
p2620
asbag49
(g70
g51
NtRp2621
(dp2622
g54
(dp2623
g81
g82
ssg63
g2612
sg56
(lp2624
S':'
asbag49
(g70
g51
NtRp2625
(dp2626
g54
(dp2627
sg63
g2612
sg56
(lp2628
g49
(g50
g51
NtRp2629
(dp2630
g54
(dp2631
g62
I4
ssg63
g2625
sg56
(lp2632
g92
asbasbasbag49
(g65
g51
NtRp2633
(dp2634
g54
(dp2635
sg63
g1755
sg56
(lp2636
g49
(g70
g51
NtRp2637
(dp2638
g54
(dp2639
g74
g75
ssg63
g2633
sg56
(lp2640
S'wsgi_url_scheme'
p2641
asbag49
(g70
g51
NtRp2642
(dp2643
g54
(dp2644
g81
g82
ssg63
g2633
sg56
(lp2645
S':'
asbag49
(g70
g51
NtRp2646
(dp2647
g54
(dp2648
sg63
g2633
sg56
(lp2649
g49
(g50
g51
NtRp2650
(dp2651
g54
(dp2652
g62
I4
ssg63
g2646
sg56
(lp2653
S'http'
p2654
asbasbasbag49
(g65
g51
NtRp2655
(dp2656
g54
(dp2657
sg63
g1755
sg56
(lp2658
g49
(g70
g51
NtRp2659
(dp2660
g54
(dp2661
g74
g75
ssg63
g2655
sg56
(lp2662
S'wsgi_version'
p2663
asbag49
(g70
g51
NtRp2664
(dp2665
g54
(dp2666
g81
g82
ssg63
g2655
sg56
(lp2667
S':'
asbag49
(g70
g51
NtRp2668
(dp2669
g54
(dp2670
sg63
g2655
sg56
(lp2671
g49
(g50
g51
NtRp2672
(dp2673
g54
(dp2674
g62
I4
ssg63
g2668
sg56
(lp2675
g49
(g58
g51
NtRp2676
(dp2677
g54
(dp2678
g62
I3
ssg63
Nsg56
(lp2679
g49
(g65
g51
NtRp2680
(dp2681
g54
(dp2682
sg63
g2676
sg56
(lp2683
g49
(g70
g51
NtRp2684
(dp2685
g54
(dp2686
sg63
g2680
sg56
(lp2687
g49
(g50
g51
NtRp2688
(dp2689
g54
(dp2690
g62
I3
ssg63
g2684
sg56
(lp2691
S'1'
asbasbasbag49
(g65
g51
NtRp2692
(dp2693
g54
(dp2694
sg63
g2676
sg56
(lp2695
g49
(g70
g51
NtRp2696
(dp2697
g54
(dp2698
sg63
g2692
sg56
(lp2699
g49
(g50
g51
NtRp2700
(dp2701
g54
(dp2702
g62
I3
ssg63
g2696
sg56
(lp2703
S'0'
asbasbasbasbasbasbasbasbasbasbasbag49
(g65
g51
NtRp2704
(dp2705
g54
(dp2706
sg63
g59
sg56
(lp2707
g49
(g70
g51
NtRp2708
(dp2709
g54
(dp2710
g74
g75
ssg63
g2704
sg56
(lp2711
S'extension'
p2712
asbag49
(g70
g51
NtRp2713
(dp2714
g54
(dp2715
g81
g82
ssg63
g2704
sg56
(lp2716
S':'
asbag49
(g70
g51
NtRp2717
(dp2718
g54
(dp2719
sg63
g2704
sg56
(lp2720
g49
(g50
g51
NtRp2721
(dp2722
g54
(dp2723
g62
I5
ssg63
g2717
sg56
(lp2724
S'html'
p2725
asbasbasbag49
(g65
g51
NtRp2726
(dp2727
g54
(dp2728
sg63
g59
sg56
(lp2729
g49
(g70
g51
NtRp2730
(dp2731
g54
(dp2732
g74
g75
ssg63
g2726
sg56
(lp2733
S'folder'
p2734
asbag49
(g70
g51
NtRp2735
(dp2736
g54
(dp2737
g81
g82
ssg63
g2726
sg56
(lp2738
S':'
asbag49
(g70
g51
NtRp2739
(dp2740
g54
(dp2741
sg63
g2726
sg56
(lp2742
g49
(g50
g51
NtRp2743
(dp2744
g54
(dp2745
g62
I5
ssg63
g2739
sg56
(lp2746
S'/Users/mdipierro/Dropbox/web2py/applications/plasmid/'
p2747
asbasbasbag49
(g65
g51
NtRp2748
(dp2749
g54
(dp2750
sg63
g59
sg56
(lp2751
g49
(g70
g51
NtRp2752
(dp2753
g54
(dp2754
g74
g75
ssg63
g2748
sg56
(lp2755
S'function'
p2756
asbag49
(g70
g51
NtRp2757
(dp2758
g54
(dp2759
g81
g82
ssg63
g2748
sg56
(lp2760
S':'
asbag49
(g70
g51
NtRp2761
(dp2762
g54
(dp2763
sg63
g2748
sg56
(lp2764
g49
(g50
g51
NtRp2765
(dp2766
g54
(dp2767
g62
I5
ssg63
g2761
sg56
(lp2768
S'page'
p2769
asbasbasbag49
(g65
g51
NtRp2770
(dp2771
g54
(dp2772
sg63
g59
sg56
(lp2773
g49
(g70
g51
NtRp2774
(dp2775
g54
(dp2776
g74
g75
ssg63
g2770
sg56
(lp2777
S'get_vars'
p2778
asbag49
(g70
g51
NtRp2779
(dp2780
g54
(dp2781
g81
g82
ssg63
g2770
sg56
(lp2782
S':'
asbag49
(g70
g51
NtRp2783
(dp2784
g54
(dp2785
sg63
g2770
sg56
(lp2786
g49
(g50
g51
NtRp2787
(dp2788
g54
(dp2789
g62
I5
ssg63
g2783
sg56
(lp2790
g49
(g58
g51
NtRp2791
(dp2792
g54
(dp2793
g62
I4
ssg63
Nsg56
(lp2794
sbasbasbasbag49
(g65
g51
NtRp2795
(dp2796
g54
(dp2797
sg63
g59
sg56
(lp2798
g49
(g70
g51
NtRp2799
(dp2800
g54
(dp2801
g74
g75
ssg63
g2795
sg56
(lp2802
S'global_settings'
p2803
asbag49
(g70
g51
NtRp2804
(dp2805
g54
(dp2806
g81
g82
ssg63
g2795
sg56
(lp2807
S':'
asbag49
(g70
g51
NtRp2808
(dp2809
g54
(dp2810
sg63
g2795
sg56
(lp2811
g49
(g50
g51
NtRp2812
(dp2813
g54
(dp2814
g62
I5
ssg63
g2808
sg56
(lp2815
g49
(g58
g51
NtRp2816
(dp2817
g54
(dp2818
g62
I4
ssg63
Nsg56
(lp2819
g49
(g65
g51
NtRp2820
(dp2821
g54
(dp2822
sg63
g2816
sg56
(lp2823
g49
(g70
g51
NtRp2824
(dp2825
g54
(dp2826
g74
g75
ssg63
g2820
sg56
(lp2827
g1767
asbag49
(g70
g51
NtRp2828
(dp2829
g54
(dp2830
g81
g82
ssg63
g2820
sg56
(lp2831
S':'
asbag49
(g70
g51
NtRp2832
(dp2833
g54
(dp2834
sg63
g2820
sg56
(lp2835
g49
(g50
g51
NtRp2836
(dp2837
g54
(dp2838
g62
I4
ssg63
g2832
sg56
(lp2839
S"set(['/Users/mdipierro/Dropbox/web2py/applications/inplace/', '/Users/mdipierro/Dropbox/web2py/applications/plasmid/', '/Users/mdipierro/Dropbox/web2py/applications/admin/'])"
p2840
asbasbasbag49
(g65
g51
NtRp2841
(dp2842
g54
(dp2843
sg63
g2816
sg56
(lp2844
g49
(g70
g51
NtRp2845
(dp2846
g54
(dp2847
g74
g75
ssg63
g2841
sg56
(lp2848
g1789
asbag49
(g70
g51
NtRp2849
(dp2850
g54
(dp2851
g81
g82
ssg63
g2841
sg56
(lp2852
S':'
asbag49
(g70
g51
NtRp2853
(dp2854
g54
(dp2855
sg63
g2841
sg56
(lp2856
g49
(g50
g51
NtRp2857
(dp2858
g54
(dp2859
g62
I4
ssg63
g2853
sg56
(lp2860
g1802
asbasbasbag49
(g65
g51
NtRp2861
(dp2862
g54
(dp2863
sg63
g2816
sg56
(lp2864
g49
(g70
g51
NtRp2865
(dp2866
g54
(dp2867
g74
g75
ssg63
g2861
sg56
(lp2868
g1811
asbag49
(g70
g51
NtRp2869
(dp2870
g54
(dp2871
g81
g82
ssg63
g2861
sg56
(lp2872
S':'
asbag49
(g70
g51
NtRp2873
(dp2874
g54
(dp2875
sg63
g2861
sg56
(lp2876
g49
(g50
g51
NtRp2877
(dp2878
g54
(dp2879
g62
I4
ssg63
g2873
sg56
(lp2880
g49
(g58
g51
NtRp2881
(dp2882
g54
(dp2883
g62
I3
ssg63
Nsg56
(lp2884
sbasbasbasbag49
(g65
g51
NtRp2885
(dp2886
g54
(dp2887
sg63
g2816
sg56
(lp2888
g49
(g70
g51
NtRp2889
(dp2890
g54
(dp2891
g74
g75
ssg63
g2885
sg56
(lp2892
g1836
asbag49
(g70
g51
NtRp2893
(dp2894
g54
(dp2895
g81
g82
ssg63
g2885
sg56
(lp2896
S':'
asbag49
(g70
g51
NtRp2897
(dp2898
g54
(dp2899
sg63
g2885
sg56
(lp2900
g49
(g50
g51
NtRp2901
(dp2902
g54
(dp2903
g62
I4
ssg63
g2897
sg56
(lp2904
S"<Values at 0x153a378: {'verbose': False, 'ip': '127.0.0.1', 'shutdown_timeout': 5, 'taskbar': False, 'nocron': False, 'pid_filename': 'httpserver.pid', 'maxthreads': None, 'softcron': False, 'server_name': 'massimo-di-pierros-macbook-2.local', 'bpython': False, 'nogui': False, 'port': 8000, 'extcron': False, 'debuglevel': 30, 'test': None, 'folder': '/Users/mdipierro/Dropbox/web2py', 'config': '', 'import_models': False, 'winservice': '', 'shell': None, 'run': '', 'log_filename': 'httpserver.log', 'args': [''], 'socket_timeout': 1, 'ssl_ca_certificate': None, 'scheduler': None, 'profiler_filename': None, 'ssl_private_key': '', 'password': 'hello', 'request_queue_size': 5, 'ssl_certificate': '', 'cronjob': False, 'numthreads': None, 'quiet': False, 'interfaces': None, 'minthreads': None, 'timeout': 10, 'plain': False, 'nobanner': False}>"
p2905
asbasbasbag49
(g65
g51
NtRp2906
(dp2907
g54
(dp2908
sg63
g2816
sg56
(lp2909
g49
(g70
g51
NtRp2910
(dp2911
g54
(dp2912
g74
g75
ssg63
g2906
sg56
(lp2913
g1858
asbag49
(g70
g51
NtRp2914
(dp2915
g54
(dp2916
g81
g82
ssg63
g2906
sg56
(lp2917
S':'
asbag49
(g70
g51
NtRp2918
(dp2919
g54
(dp2920
sg63
g2906
sg56
(lp2921
g49
(g50
g51
NtRp2922
(dp2923
g54
(dp2924
g62
I4
ssg63
g2918
sg56
(lp2925
S'set([])'
p2926
asbasbasbag49
(g65
g51
NtRp2927
(dp2928
g54
(dp2929
sg63
g2816
sg56
(lp2930
g49
(g70
g51
NtRp2931
(dp2932
g54
(dp2933
g74
g75
ssg63
g2927
sg56
(lp2934
g1880
asbag49
(g70
g51
NtRp2935
(dp2936
g54
(dp2937
g81
g82
ssg63
g2927
sg56
(lp2938
S':'
asbag49
(g70
g51
NtRp2939
(dp2940
g54
(dp2941
sg63
g2927
sg56
(lp2942
g49
(g50
g51
NtRp2943
(dp2944
g54
(dp2945
g62
I4
ssg63
g2939
sg56
(lp2946
g92
asbasbasbag49
(g65
g51
NtRp2947
(dp2948
g54
(dp2949
sg63
g2816
sg56
(lp2950
g49
(g70
g51
NtRp2951
(dp2952
g54
(dp2953
g74
g75
ssg63
g2947
sg56
(lp2954
g1901
asbag49
(g70
g51
NtRp2955
(dp2956
g54
(dp2957
g81
g82
ssg63
g2947
sg56
(lp2958
S':'
asbag49
(g70
g51
NtRp2959
(dp2960
g54
(dp2961
sg63
g2947
sg56
(lp2962
g49
(g50
g51
NtRp2963
(dp2964
g54
(dp2965
g62
I4
ssg63
g2959
sg56
(lp2966
g1914
asbasbasbag49
(g65
g51
NtRp2967
(dp2968
g54
(dp2969
sg63
g2816
sg56
(lp2970
g49
(g70
g51
NtRp2971
(dp2972
g54
(dp2973
g74
g75
ssg63
g2967
sg56
(lp2974
g2121
asbag49
(g70
g51
NtRp2975
(dp2976
g54
(dp2977
g81
g82
ssg63
g2967
sg56
(lp2978
S':'
asbag49
(g70
g51
NtRp2979
(dp2980
g54
(dp2981
sg63
g2967
sg56
(lp2982
g49
(g50
g51
NtRp2983
(dp2984
g54
(dp2985
g62
I4
ssg63
g2979
sg56
(lp2986
g92
asbasbasbag49
(g65
g51
NtRp2987
(dp2988
g54
(dp2989
sg63
g2816
sg56
(lp2990
g49
(g70
g51
NtRp2991
(dp2992
g54
(dp2993
g74
g75
ssg63
g2987
sg56
(lp2994
g2142
asbag49
(g70
g51
NtRp2995
(dp2996
g54
(dp2997
g81
g82
ssg63
g2987
sg56
(lp2998
S':'
asbag49
(g70
g51
NtRp2999
(dp3000
g54
(dp3001
sg63
g2987
sg56
(lp3002
g49
(g50
g51
NtRp3003
(dp3004
g54
(dp3005
g62
I4
ssg63
g2999
sg56
(lp3006
g92
asbasbasbag49
(g65
g51
NtRp3007
(dp3008
g54
(dp3009
sg63
g2816
sg56
(lp3010
g49
(g70
g51
NtRp3011
(dp3012
g54
(dp3013
g74
g75
ssg63
g3007
sg56
(lp3014
g2380
asbag49
(g70
g51
NtRp3015
(dp3016
g54
(dp3017
g81
g82
ssg63
g3007
sg56
(lp3018
S':'
asbag49
(g70
g51
NtRp3019
(dp3020
g54
(dp3021
sg63
g3007
sg56
(lp3022
g49
(g50
g51
NtRp3023
(dp3024
g54
(dp3025
g62
I4
ssg63
g3019
sg56
(lp3026
g2393
asbasbasbag49
(g65
g51
NtRp3027
(dp3028
g54
(dp3029
sg63
g2816
sg56
(lp3030
g49
(g70
g51
NtRp3031
(dp3032
g54
(dp3033
g74
g75
ssg63
g3027
sg56
(lp3034
g2423
asbag49
(g70
g51
NtRp3035
(dp3036
g54
(dp3037
g81
g82
ssg63
g3027
sg56
(lp3038
S':'
asbag49
(g70
g51
NtRp3039
(dp3040
g54
(dp3041
sg63
g3027
sg56
(lp3042
g49
(g50
g51
NtRp3043
(dp3044
g54
(dp3045
g62
I4
ssg63
g3039
sg56
(lp3046
g49
(g58
g51
NtRp3047
(dp3048
g54
(dp3049
g62
I3
ssg63
Nsg56
(lp3050
g49
(g65
g51
NtRp3051
(dp3052
g54
(dp3053
sg63
g3047
sg56
(lp3054
g49
(g70
g51
NtRp3055
(dp3056
g54
(dp3057
sg63
g3051
sg56
(lp3058
g49
(g50
g51
NtRp3059
(dp3060
g54
(dp3061
g62
I3
ssg63
g3055
sg56
(lp3062
S'1'
asbasbasbag49
(g65
g51
NtRp3063
(dp3064
g54
(dp3065
sg63
g3047
sg56
(lp3066
g49
(g70
g51
NtRp3067
(dp3068
g54
(dp3069
sg63
g3063
sg56
(lp3070
g49
(g50
g51
NtRp3071
(dp3072
g54
(dp3073
g62
I3
ssg63
g3067
sg56
(lp3074
S'99'
p3075
asbasbasbag49
(g65
g51
NtRp3076
(dp3077
g54
(dp3078
sg63
g3047
sg56
(lp3079
g49
(g70
g51
NtRp3080
(dp3081
g54
(dp3082
sg63
g3076
sg56
(lp3083
g49
(g50
g51
NtRp3084
(dp3085
g54
(dp3086
g62
I3
ssg63
g3080
sg56
(lp3087
S'3'
asbasbasbag49
(g65
g51
NtRp3088
(dp3089
g54
(dp3090
sg63
g3047
sg56
(lp3091
g49
(g70
g51
NtRp3092
(dp3093
g54
(dp3094
sg63
g3088
sg56
(lp3095
g49
(g50
g51
NtRp3096
(dp3097
g54
(dp3098
g62
I3
ssg63
g3092
sg56
(lp3099
S'datetime.datetime(2011, 12, 9, 21, 5, 4)'
p3100
asbasbasbag49
(g65
g51
NtRp3101
(dp3102
g54
(dp3103
sg63
g3047
sg56
(lp3104
g49
(g70
g51
NtRp3105
(dp3106
g54
(dp3107
sg63
g3101
sg56
(lp3108
g49
(g50
g51
NtRp3109
(dp3110
g54
(dp3111
g62
I3
ssg63
g3105
sg56
(lp3112
g2502
asbasbasbasbasbasbasbasbasbasbasbag49
(g65
g51
NtRp3113
(dp3114
g54
(dp3115
sg63
g59
sg56
(lp3116
g49
(g70
g51
NtRp3117
(dp3118
g54
(dp3119
g74
g75
ssg63
g3113
sg56
(lp3120
S'is_https'
p3121
asbag49
(g70
g51
NtRp3122
(dp3123
g54
(dp3124
g81
g82
ssg63
g3113
sg56
(lp3125
S':'
asbag49
(g70
g51
NtRp3126
(dp3127
g54
(dp3128
sg63
g3113
sg56
(lp3129
g49
(g50
g51
NtRp3130
(dp3131
g54
(dp3132
g62
I5
ssg63
g3126
sg56
(lp3133
g92
asbasbasbag49
(g65
g51
NtRp3134
(dp3135
g54
(dp3136
sg63
g59
sg56
(lp3137
g49
(g70
g51
NtRp3138
(dp3139
g54
(dp3140
g74
g75
ssg63
g3134
sg56
(lp3141
S'is_local'
p3142
asbag49
(g70
g51
NtRp3143
(dp3144
g54
(dp3145
g81
g82
ssg63
g3134
sg56
(lp3146
S':'
asbag49
(g70
g51
NtRp3147
(dp3148
g54
(dp3149
sg63
g3134
sg56
(lp3150
g49
(g50
g51
NtRp3151
(dp3152
g54
(dp3153
g62
I5
ssg63
g3147
sg56
(lp3154
g2611
asbasbasbag49
(g65
g51
NtRp3155
(dp3156
g54
(dp3157
sg63
g59
sg56
(lp3158
g49
(g70
g51
NtRp3159
(dp3160
g54
(dp3161
g74
g75
ssg63
g3155
sg56
(lp3162
S'is_restful'
p3163
asbag49
(g70
g51
NtRp3164
(dp3165
g54
(dp3166
g81
g82
ssg63
g3155
sg56
(lp3167
S':'
asbag49
(g70
g51
NtRp3168
(dp3169
g54
(dp3170
sg63
g3155
sg56
(lp3171
g49
(g50
g51
NtRp3172
(dp3173
g54
(dp3174
g62
I5
ssg63
g3168
sg56
(lp3175
g92
asbasbasbag49
(g65
g51
NtRp3176
(dp3177
g54
(dp3178
sg63
g59
sg56
(lp3179
g49
(g70
g51
NtRp3180
(dp3181
g54
(dp3182
g74
g75
ssg63
g3176
sg56
(lp3183
S'now'
p3184
asbag49
(g70
g51
NtRp3185
(dp3186
g54
(dp3187
g81
g82
ssg63
g3176
sg56
(lp3188
S':'
asbag49
(g70
g51
NtRp3189
(dp3190
g54
(dp3191
sg63
g3176
sg56
(lp3192
g49
(g50
g51
NtRp3193
(dp3194
g54
(dp3195
g62
I5
ssg63
g3189
sg56
(lp3196
S'datetime.datetime(2011, 12, 11, 21, 52, 40, 322674)'
p3197
asbasbasbag49
(g65
g51
NtRp3198
(dp3199
g54
(dp3200
sg63
g59
sg56
(lp3201
g49
(g70
g51
NtRp3202
(dp3203
g54
(dp3204
g74
g75
ssg63
g3198
sg56
(lp3205
S'post_vars'
p3206
asbag49
(g70
g51
NtRp3207
(dp3208
g54
(dp3209
g81
g82
ssg63
g3198
sg56
(lp3210
S':'
asbag49
(g70
g51
NtRp3211
(dp3212
g54
(dp3213
sg63
g3198
sg56
(lp3214
g49
(g50
g51
NtRp3215
(dp3216
g54
(dp3217
g62
I5
ssg63
g3211
sg56
(lp3218
g49
(g58
g51
NtRp3219
(dp3220
g54
(dp3221
g62
I4
ssg63
Nsg56
(lp3222
sbasbasbasbag49
(g65
g51
NtRp3223
(dp3224
g54
(dp3225
sg63
g59
sg56
(lp3226
g49
(g70
g51
NtRp3227
(dp3228
g54
(dp3229
g74
g75
ssg63
g3223
sg56
(lp3230
S'raw_args'
p3231
asbag49
(g70
g51
NtRp3232
(dp3233
g54
(dp3234
g81
g82
ssg63
g3223
sg56
(lp3235
S':'
asbag49
(g70
g51
NtRp3236
(dp3237
g54
(dp3238
sg63
g3223
sg56
(lp3239
g49
(g50
g51
NtRp3240
(dp3241
g54
(dp3242
g62
I5
ssg63
g3236
sg56
(lp3243
S'1'
asbasbasbag49
(g65
g51
NtRp3244
(dp3245
g54
(dp3246
sg63
g59
sg56
(lp3247
g49
(g70
g51
NtRp3248
(dp3249
g54
(dp3250
g74
g75
ssg63
g3244
sg56
(lp3251
S'url'
p3252
asbag49
(g70
g51
NtRp3253
(dp3254
g54
(dp3255
g81
g82
ssg63
g3244
sg56
(lp3256
S':'
asbag49
(g70
g51
NtRp3257
(dp3258
g54
(dp3259
sg63
g3244
sg56
(lp3260
g49
(g50
g51
NtRp3261
(dp3262
g54
(dp3263
g62
I5
ssg63
g3257
sg56
(lp3264
S'/plasmid/default/page/1'
p3265
asbasbasbag49
(g65
g51
NtRp3266
(dp3267
g54
(dp3268
sg63
g59
sg56
(lp3269
g49
(g70
g51
NtRp3270
(dp3271
g54
(dp3272
g74
g75
ssg63
g3266
sg56
(lp3273
S'utcnow'
p3274
asbag49
(g70
g51
NtRp3275
(dp3276
g54
(dp3277
g81
g82
ssg63
g3266
sg56
(lp3278
S':'
asbag49
(g70
g51
NtRp3279
(dp3280
g54
(dp3281
sg63
g3266
sg56
(lp3282
g49
(g50
g51
NtRp3283
(dp3284
g54
(dp3285
g62
I5
ssg63
g3279
sg56
(lp3286
S'datetime.datetime(2011, 12, 12, 3, 52, 40, 322687)'
p3287
asbasbasbag49
(g65
g51
NtRp3288
(dp3289
g54
(dp3290
sg63
g59
sg56
(lp3291
g49
(g70
g51
NtRp3292
(dp3293
g54
(dp3294
g74
g75
ssg63
g3288
sg56
(lp3295
S'uuid'
p3296
asbag49
(g70
g51
NtRp3297
(dp3298
g54
(dp3299
g81
g82
ssg63
g3288
sg56
(lp3300
S':'
asbag49
(g70
g51
NtRp3301
(dp3302
g54
(dp3303
sg63
g3288
sg56
(lp3304
g49
(g50
g51
NtRp3305
(dp3306
g54
(dp3307
g62
I5
ssg63
g3301
sg56
(lp3308
S'plasmid/127.0.0.1.2011-12-11.21-52-40.590b03a3-7ccd-43ae-a963-3896ecd05706'
p3309
asbasbasbag49
(g65
g51
NtRp3310
(dp3311
g54
(dp3312
sg63
g59
sg56
(lp3313
g49
(g70
g51
NtRp3314
(dp3315
g54
(dp3316
g74
g75
ssg63
g3310
sg56
(lp3317
S'vars'
p3318
asbag49
(g70
g51
NtRp3319
(dp3320
g54
(dp3321
g81
g82
ssg63
g3310
sg56
(lp3322
S':'
asbag49
(g70
g51
NtRp3323
(dp3324
g54
(dp3325
sg63
g3310
sg56
(lp3326
g49
(g50
g51
NtRp3327
(dp3328
g54
(dp3329
g62
I5
ssg63
g3323
sg56
(lp3330
g49
(g58
g51
NtRp3331
(dp3332
g54
(dp3333
g62
I4
ssg63
Nsg56
(lp3334
sbasbasbasbag49
(g65
g51
NtRp3335
(dp3336
g54
(dp3337
sg63
g59
sg56
(lp3338
g49
(g70
g51
NtRp3339
(dp3340
g54
(dp3341
g74
g75
ssg63
g3335
sg56
(lp3342
S'wsgi'
p3343
asbag49
(g70
g51
NtRp3344
(dp3345
g54
(dp3346
g81
g82
ssg63
g3335
sg56
(lp3347
S':'
asbag49
(g70
g51
NtRp3348
(dp3349
g54
(dp3350
sg63
g3335
sg56
(lp3351
g49
(g50
g51
NtRp3352
(dp3353
g54
(dp3354
g62
I5
ssg63
g3348
sg56
(lp3355
g49
(g58
g51
NtRp3356
(dp3357
g54
(dp3358
g62
I4
ssg63
Nsg56
(lp3359
g49
(g65
g51
NtRp3360
(dp3361
g54
(dp3362
sg63
g3356
sg56
(lp3363
g49
(g70
g51
NtRp3364
(dp3365
g54
(dp3366
g74
g75
ssg63
g3360
sg56
(lp3367
S'environ'
p3368
asbag49
(g70
g51
NtRp3369
(dp3370
g54
(dp3371
g81
g82
ssg63
g3360
sg56
(lp3372
S':'
asbag49
(g70
g51
NtRp3373
(dp3374
g54
(dp3375
sg63
g3360
sg56
(lp3376
g49
(g50
g51
NtRp3377
(dp3378
g54
(dp3379
g62
I4
ssg63
g3373
sg56
(lp3380
g49
(g58
g51
NtRp3381
(dp3382
g54
(dp3383
g62
I3
ssg63
Nsg56
(lp3384
g49
(g65
g51
NtRp3385
(dp3386
g54
(dp3387
sg63
g3381
sg56
(lp3388
g49
(g70
g51
NtRp3389
(dp3390
g54
(dp3391
g74
g75
ssg63
g3385
sg56
(lp3392
S'HTTP_ACCEPT'
p3393
asbag49
(g70
g51
NtRp3394
(dp3395
g54
(dp3396
g81
g82
ssg63
g3385
sg56
(lp3397
S':'
asbag49
(g70
g51
NtRp3398
(dp3399
g54
(dp3400
sg63
g3385
sg56
(lp3401
g49
(g50
g51
NtRp3402
(dp3403
g54
(dp3404
g62
I3
ssg63
g3398
sg56
(lp3405
g1936
asbasbasbag49
(g65
g51
NtRp3406
(dp3407
g54
(dp3408
sg63
g3381
sg56
(lp3409
g49
(g70
g51
NtRp3410
(dp3411
g54
(dp3412
g74
g75
ssg63
g3406
sg56
(lp3413
S'HTTP_ACCEPT_CHARSET'
p3414
asbag49
(g70
g51
NtRp3415
(dp3416
g54
(dp3417
g81
g82
ssg63
g3406
sg56
(lp3418
S':'
asbag49
(g70
g51
NtRp3419
(dp3420
g54
(dp3421
sg63
g3406
sg56
(lp3422
g49
(g50
g51
NtRp3423
(dp3424
g54
(dp3425
g62
I3
ssg63
g3419
sg56
(lp3426
g1958
asbasbasbag49
(g65
g51
NtRp3427
(dp3428
g54
(dp3429
sg63
g3381
sg56
(lp3430
g49
(g70
g51
NtRp3431
(dp3432
g54
(dp3433
g74
g75
ssg63
g3427
sg56
(lp3434
S'HTTP_ACCEPT_ENCODING'
p3435
asbag49
(g70
g51
NtRp3436
(dp3437
g54
(dp3438
g81
g82
ssg63
g3427
sg56
(lp3439
S':'
asbag49
(g70
g51
NtRp3440
(dp3441
g54
(dp3442
sg63
g3427
sg56
(lp3443
g49
(g50
g51
NtRp3444
(dp3445
g54
(dp3446
g62
I3
ssg63
g3440
sg56
(lp3447
g1980
asbasbasbag49
(g65
g51
NtRp3448
(dp3449
g54
(dp3450
sg63
g3381
sg56
(lp3451
g49
(g70
g51
NtRp3452
(dp3453
g54
(dp3454
g74
g75
ssg63
g3448
sg56
(lp3455
S'HTTP_ACCEPT_LANGUAGE'
p3456
asbag49
(g70
g51
NtRp3457
(dp3458
g54
(dp3459
g81
g82
ssg63
g3448
sg56
(lp3460
S':'
asbag49
(g70
g51
NtRp3461
(dp3462
g54
(dp3463
sg63
g3448
sg56
(lp3464
g49
(g50
g51
NtRp3465
(dp3466
g54
(dp3467
g62
I3
ssg63
g3461
sg56
(lp3468
g2002
asbasbasbag49
(g65
g51
NtRp3469
(dp3470
g54
(dp3471
sg63
g3381
sg56
(lp3472
g49
(g70
g51
NtRp3473
(dp3474
g54
(dp3475
g74
g75
ssg63
g3469
sg56
(lp3476
S'HTTP_CONNECTION'
p3477
asbag49
(g70
g51
NtRp3478
(dp3479
g54
(dp3480
g81
g82
ssg63
g3469
sg56
(lp3481
S':'
asbag49
(g70
g51
NtRp3482
(dp3483
g54
(dp3484
sg63
g3469
sg56
(lp3485
g49
(g50
g51
NtRp3486
(dp3487
g54
(dp3488
g62
I3
ssg63
g3482
sg56
(lp3489
g2024
asbasbasbag49
(g65
g51
NtRp3490
(dp3491
g54
(dp3492
sg63
g3381
sg56
(lp3493
g49
(g70
g51
NtRp3494
(dp3495
g54
(dp3496
g74
g75
ssg63
g3490
sg56
(lp3497
S'HTTP_COOKIE'
p3498
asbag49
(g70
g51
NtRp3499
(dp3500
g54
(dp3501
g81
g82
ssg63
g3490
sg56
(lp3502
S':'
asbag49
(g70
g51
NtRp3503
(dp3504
g54
(dp3505
sg63
g3490
sg56
(lp3506
g49
(g50
g51
NtRp3507
(dp3508
g54
(dp3509
g62
I3
ssg63
g3503
sg56
(lp3510
g2046
asbasbasbag49
(g65
g51
NtRp3511
(dp3512
g54
(dp3513
sg63
g3381
sg56
(lp3514
g49
(g70
g51
NtRp3515
(dp3516
g54
(dp3517
g74
g75
ssg63
g3511
sg56
(lp3518
S'HTTP_HOST'
p3519
asbag49
(g70
g51
NtRp3520
(dp3521
g54
(dp3522
g81
g82
ssg63
g3511
sg56
(lp3523
S':'
asbag49
(g70
g51
NtRp3524
(dp3525
g54
(dp3526
sg63
g3511
sg56
(lp3527
g49
(g50
g51
NtRp3528
(dp3529
g54
(dp3530
g62
I3
ssg63
g3524
sg56
(lp3531
g2068
asbasbasbag49
(g65
g51
NtRp3532
(dp3533
g54
(dp3534
sg63
g3381
sg56
(lp3535
g49
(g70
g51
NtRp3536
(dp3537
g54
(dp3538
g74
g75
ssg63
g3532
sg56
(lp3539
S'HTTP_REFERER'
p3540
asbag49
(g70
g51
NtRp3541
(dp3542
g54
(dp3543
g81
g82
ssg63
g3532
sg56
(lp3544
S':'
asbag49
(g70
g51
NtRp3545
(dp3546
g54
(dp3547
sg63
g3532
sg56
(lp3548
g49
(g50
g51
NtRp3549
(dp3550
g54
(dp3551
g62
I3
ssg63
g3545
sg56
(lp3552
g2090
asbasbasbag49
(g65
g51
NtRp3553
(dp3554
g54
(dp3555
sg63
g3381
sg56
(lp3556
g49
(g70
g51
NtRp3557
(dp3558
g54
(dp3559
g74
g75
ssg63
g3553
sg56
(lp3560
S'HTTP_USER_AGENT'
p3561
asbag49
(g70
g51
NtRp3562
(dp3563
g54
(dp3564
g81
g82
ssg63
g3553
sg56
(lp3565
S':'
asbag49
(g70
g51
NtRp3566
(dp3567
g54
(dp3568
sg63
g3553
sg56
(lp3569
g49
(g50
g51
NtRp3570
(dp3571
g54
(dp3572
g62
I3
ssg63
g3566
sg56
(lp3573
g2112
asbasbasbag49
(g65
g51
NtRp3574
(dp3575
g54
(dp3576
sg63
g3381
sg56
(lp3577
g49
(g70
g51
NtRp3578
(dp3579
g54
(dp3580
g74
g75
ssg63
g3574
sg56
(lp3581
S'PATH_INFO'
p3582
asbag49
(g70
g51
NtRp3583
(dp3584
g54
(dp3585
g81
g82
ssg63
g3574
sg56
(lp3586
S':'
asbag49
(g70
g51
NtRp3587
(dp3588
g54
(dp3589
sg63
g3574
sg56
(lp3590
g49
(g50
g51
NtRp3591
(dp3592
g54
(dp3593
g62
I3
ssg63
g3587
sg56
(lp3594
g2176
asbasbasbag49
(g65
g51
NtRp3595
(dp3596
g54
(dp3597
sg63
g3381
sg56
(lp3598
g49
(g70
g51
NtRp3599
(dp3600
g54
(dp3601
g74
g75
ssg63
g3595
sg56
(lp3602
S'QUERY_STRING'
p3603
asbag49
(g70
g51
NtRp3604
(dp3605
g54
(dp3606
g81
g82
ssg63
g3595
sg56
(lp3607
S':'
asbag49
(g70
g51
NtRp3608
(dp3609
g54
(dp3610
sg63
g3595
sg56
(lp3611
g49
(g50
g51
NtRp3612
(dp3613
g54
(dp3614
g62
I3
ssg63
g3608
sg56
(lp3615
S''
asbasbasbag49
(g65
g51
NtRp3616
(dp3617
g54
(dp3618
sg63
g3381
sg56
(lp3619
g49
(g70
g51
NtRp3620
(dp3621
g54
(dp3622
g74
g75
ssg63
g3616
sg56
(lp3623
S'REMOTE_ADDR'
p3624
asbag49
(g70
g51
NtRp3625
(dp3626
g54
(dp3627
g81
g82
ssg63
g3616
sg56
(lp3628
S':'
asbag49
(g70
g51
NtRp3629
(dp3630
g54
(dp3631
sg63
g3616
sg56
(lp3632
g49
(g50
g51
NtRp3633
(dp3634
g54
(dp3635
g62
I3
ssg63
g3629
sg56
(lp3636
g194
asbasbasbag49
(g65
g51
NtRp3637
(dp3638
g54
(dp3639
sg63
g3381
sg56
(lp3640
g49
(g70
g51
NtRp3641
(dp3642
g54
(dp3643
g74
g75
ssg63
g3637
sg56
(lp3644
S'REMOTE_PORT'
p3645
asbag49
(g70
g51
NtRp3646
(dp3647
g54
(dp3648
g81
g82
ssg63
g3637
sg56
(lp3649
S':'
asbag49
(g70
g51
NtRp3650
(dp3651
g54
(dp3652
sg63
g3637
sg56
(lp3653
g49
(g50
g51
NtRp3654
(dp3655
g54
(dp3656
g62
I3
ssg63
g3650
sg56
(lp3657
g2240
asbasbasbag49
(g65
g51
NtRp3658
(dp3659
g54
(dp3660
sg63
g3381
sg56
(lp3661
g49
(g70
g51
NtRp3662
(dp3663
g54
(dp3664
g74
g75
ssg63
g3658
sg56
(lp3665
S'REQUEST_METHOD'
p3666
asbag49
(g70
g51
NtRp3667
(dp3668
g54
(dp3669
g81
g82
ssg63
g3658
sg56
(lp3670
S':'
asbag49
(g70
g51
NtRp3671
(dp3672
g54
(dp3673
sg63
g3658
sg56
(lp3674
g49
(g50
g51
NtRp3675
(dp3676
g54
(dp3677
g62
I3
ssg63
g3671
sg56
(lp3678
g2262
asbasbasbag49
(g65
g51
NtRp3679
(dp3680
g54
(dp3681
sg63
g3381
sg56
(lp3682
g49
(g70
g51
NtRp3683
(dp3684
g54
(dp3685
g74
g75
ssg63
g3679
sg56
(lp3686
S'SCRIPT_NAME'
p3687
asbag49
(g70
g51
NtRp3688
(dp3689
g54
(dp3690
g81
g82
ssg63
g3679
sg56
(lp3691
S':'
asbag49
(g70
g51
NtRp3692
(dp3693
g54
(dp3694
sg63
g3679
sg56
(lp3695
g49
(g50
g51
NtRp3696
(dp3697
g54
(dp3698
g62
I3
ssg63
g3692
sg56
(lp3699
S''
asbasbasbag49
(g65
g51
NtRp3700
(dp3701
g54
(dp3702
sg63
g3381
sg56
(lp3703
g49
(g70
g51
NtRp3704
(dp3705
g54
(dp3706
g74
g75
ssg63
g3700
sg56
(lp3707
S'SERVER_NAME'
p3708
asbag49
(g70
g51
NtRp3709
(dp3710
g54
(dp3711
g81
g82
ssg63
g3700
sg56
(lp3712
S':'
asbag49
(g70
g51
NtRp3713
(dp3714
g54
(dp3715
sg63
g3700
sg56
(lp3716
g49
(g50
g51
NtRp3717
(dp3718
g54
(dp3719
g62
I3
ssg63
g3713
sg56
(lp3720
g2305
asbasbasbag49
(g65
g51
NtRp3721
(dp3722
g54
(dp3723
sg63
g3381
sg56
(lp3724
g49
(g70
g51
NtRp3725
(dp3726
g54
(dp3727
g74
g75
ssg63
g3721
sg56
(lp3728
S'SERVER_PORT'
p3729
asbag49
(g70
g51
NtRp3730
(dp3731
g54
(dp3732
g81
g82
ssg63
g3721
sg56
(lp3733
S':'
asbag49
(g70
g51
NtRp3734
(dp3735
g54
(dp3736
sg63
g3721
sg56
(lp3737
g49
(g50
g51
NtRp3738
(dp3739
g54
(dp3740
g62
I3
ssg63
g3734
sg56
(lp3741
g2327
asbasbasbag49
(g65
g51
NtRp3742
(dp3743
g54
(dp3744
sg63
g3381
sg56
(lp3745
g49
(g70
g51
NtRp3746
(dp3747
g54
(dp3748
g74
g75
ssg63
g3742
sg56
(lp3749
S'SERVER_PROTOCOL'
p3750
asbag49
(g70
g51
NtRp3751
(dp3752
g54
(dp3753
g81
g82
ssg63
g3742
sg56
(lp3754
S':'
asbag49
(g70
g51
NtRp3755
(dp3756
g54
(dp3757
sg63
g3742
sg56
(lp3758
g49
(g50
g51
NtRp3759
(dp3760
g54
(dp3761
g62
I3
ssg63
g3755
sg56
(lp3762
g2349
asbasbasbag49
(g65
g51
NtRp3763
(dp3764
g54
(dp3765
sg63
g3381
sg56
(lp3766
g49
(g70
g51
NtRp3767
(dp3768
g54
(dp3769
g74
g75
ssg63
g3763
sg56
(lp3770
S'SERVER_SOFTWARE'
p3771
asbag49
(g70
g51
NtRp3772
(dp3773
g54
(dp3774
g81
g82
ssg63
g3763
sg56
(lp3775
S':'
asbag49
(g70
g51
NtRp3776
(dp3777
g54
(dp3778
sg63
g3763
sg56
(lp3779
g49
(g50
g51
NtRp3780
(dp3781
g54
(dp3782
g62
I3
ssg63
g3776
sg56
(lp3783
g2371
asbasbasbag49
(g65
g51
NtRp3784
(dp3785
g54
(dp3786
sg63
g3381
sg56
(lp3787
g49
(g70
g51
NtRp3788
(dp3789
g54
(dp3790
g74
g75
ssg63
g3784
sg56
(lp3791
S'wsgi.errors'
p3792
asbag49
(g70
g51
NtRp3793
(dp3794
g54
(dp3795
g81
g82
ssg63
g3784
sg56
(lp3796
S':'
asbag49
(g70
g51
NtRp3797
(dp3798
g54
(dp3799
sg63
g3784
sg56
(lp3800
g49
(g50
g51
NtRp3801
(dp3802
g54
(dp3803
g62
I3
ssg63
g3797
sg56
(lp3804
S"<open file '<stderr>', mode 'w' at 0x1620b0>"
p3805
asbasbasbag49
(g65
g51
NtRp3806
(dp3807
g54
(dp3808
sg63
g3381
sg56
(lp3809
g49
(g70
g51
NtRp3810
(dp3811
g54
(dp3812
g74
g75
ssg63
g3806
sg56
(lp3813
S'wsgi.file_wrapper'
p3814
asbag49
(g70
g51
NtRp3815
(dp3816
g54
(dp3817
g81
g82
ssg63
g3806
sg56
(lp3818
S':'
asbag49
(g70
g51
NtRp3819
(dp3820
g54
(dp3821
sg63
g3806
sg56
(lp3822
g49
(g50
g51
NtRp3823
(dp3824
g54
(dp3825
g62
I3
ssg63
g3819
sg56
(lp3826
S'<class wsgiref.util.FileWrapper at 0x7c2840>'
p3827
asbasbasbag49
(g65
g51
NtRp3828
(dp3829
g54
(dp3830
sg63
g3381
sg56
(lp3831
g49
(g70
g51
NtRp3832
(dp3833
g54
(dp3834
g74
g75
ssg63
g3828
sg56
(lp3835
S'wsgi.input'
p3836
asbag49
(g70
g51
NtRp3837
(dp3838
g54
(dp3839
g81
g82
ssg63
g3828
sg56
(lp3840
S':'
asbag49
(g70
g51
NtRp3841
(dp3842
g54
(dp3843
sg63
g3828
sg56
(lp3844
g49
(g50
g51
NtRp3845
(dp3846
g54
(dp3847
g62
I3
ssg63
g3841
sg56
(lp3848
S'<cStringIO.StringO object at 0x2cc28e0>'
p3849
asbasbasbag49
(g65
g51
NtRp3850
(dp3851
g54
(dp3852
sg63
g3381
sg56
(lp3853
g49
(g70
g51
NtRp3854
(dp3855
g54
(dp3856
g74
g75
ssg63
g3850
sg56
(lp3857
S'wsgi.multiprocess'
p3858
asbag49
(g70
g51
NtRp3859
(dp3860
g54
(dp3861
g81
g82
ssg63
g3850
sg56
(lp3862
S':'
asbag49
(g70
g51
NtRp3863
(dp3864
g54
(dp3865
sg63
g3850
sg56
(lp3866
g49
(g50
g51
NtRp3867
(dp3868
g54
(dp3869
g62
I3
ssg63
g3863
sg56
(lp3870
g92
asbasbasbag49
(g65
g51
NtRp3871
(dp3872
g54
(dp3873
sg63
g3381
sg56
(lp3874
g49
(g70
g51
NtRp3875
(dp3876
g54
(dp3877
g74
g75
ssg63
g3871
sg56
(lp3878
S'wsgi.multithread'
p3879
asbag49
(g70
g51
NtRp3880
(dp3881
g54
(dp3882
g81
g82
ssg63
g3871
sg56
(lp3883
S':'
asbag49
(g70
g51
NtRp3884
(dp3885
g54
(dp3886
sg63
g3871
sg56
(lp3887
g49
(g50
g51
NtRp3888
(dp3889
g54
(dp3890
g62
I3
ssg63
g3884
sg56
(lp3891
g2611
asbasbasbag49
(g65
g51
NtRp3892
(dp3893
g54
(dp3894
sg63
g3381
sg56
(lp3895
g49
(g70
g51
NtRp3896
(dp3897
g54
(dp3898
g74
g75
ssg63
g3892
sg56
(lp3899
S'wsgi.run_once'
p3900
asbag49
(g70
g51
NtRp3901
(dp3902
g54
(dp3903
g81
g82
ssg63
g3892
sg56
(lp3904
S':'
asbag49
(g70
g51
NtRp3905
(dp3906
g54
(dp3907
sg63
g3892
sg56
(lp3908
g49
(g50
g51
NtRp3909
(dp3910
g54
(dp3911
g62
I3
ssg63
g3905
sg56
(lp3912
g92
asbasbasbag49
(g65
g51
NtRp3913
(dp3914
g54
(dp3915
sg63
g3381
sg56
(lp3916
g49
(g70
g51
NtRp3917
(dp3918
g54
(dp3919
g74
g75
ssg63
g3913
sg56
(lp3920
S'wsgi.url_scheme'
p3921
asbag49
(g70
g51
NtRp3922
(dp3923
g54
(dp3924
g81
g82
ssg63
g3913
sg56
(lp3925
S':'
asbag49
(g70
g51
NtRp3926
(dp3927
g54
(dp3928
sg63
g3913
sg56
(lp3929
g49
(g50
g51
NtRp3930
(dp3931
g54
(dp3932
g62
I3
ssg63
g3926
sg56
(lp3933
g2654
asbasbasbag49
(g65
g51
NtRp3934
(dp3935
g54
(dp3936
sg63
g3381
sg56
(lp3937
g49
(g70
g51
NtRp3938
(dp3939
g54
(dp3940
g74
g75
ssg63
g3934
sg56
(lp3941
S'wsgi.version'
p3942
asbag49
(g70
g51
NtRp3943
(dp3944
g54
(dp3945
g81
g82
ssg63
g3934
sg56
(lp3946
S':'
asbag49
(g70
g51
NtRp3947
(dp3948
g54
(dp3949
sg63
g3934
sg56
(lp3950
g49
(g50
g51
NtRp3951
(dp3952
g54
(dp3953
g62
I3
ssg63
g3947
sg56
(lp3954
S'1'
asbasbasbasbasbasbasbasbasbasbasbasbasbsS'frames'
p3955
(lp3956
(dp3957
S'file'
p3958
S'/Users/mdipierro/Dropbox/web2py/gluon/restricted.py'
p3959
sS'dump'
p3960
(dp3961
S'environment'
p3962
S"{'A': <class 'gluon.html.A'>, 'Auth': <class 'gluon.tools.Auth'>, 'B': <class 'gluon.html.B'>, 'BEAUTIFY': <class 'gluon.html.BEAUTIFY'>, 'BODY': <class 'gluon.html.BODY'>, 'BR': <class 'gluon.html.BR'>, 'BUTTON': <class 'gluon.html.BUTTON'>, 'CAT': <class 'gluon.html.CAT'>, 'CENTER': <class 'gluon.html.CENTER'>, 'CLEANUP': <class 'gluon.validators.CLEANUP'>, ...}"
p3963
sS'ccode'
p3964
S'<code object <module> at 0x2cc1ba8, file "/Users...ications/plasmid/controllers/default.py", line 4>'
p3965
ssS'lnum'
p3966
I204
sS'lines'
p3967
(dp3968
I199
S'    try:'
p3969
sI200
S'        if type(code) == types.CodeType:'
p3970
sI201
S'            ccode = code'
p3971
sI202
S'        else:'
p3972
sI203
S'            ccode = compile2(code,layer)'
p3973
sI204
S'        exec ccode in environment'
p3974
sI205
S'    except HTTP:'
p3975
sI206
S'        raise'
p3976
sI207
S'    except RestrictedError:'
p3977
sI208
S'        # do not encapsulate (obfuscate) the original RestrictedError'
p3978
ssS'call'
p3979
S"(code='# -*- coding: utf-8 -*-\\n# developed by Massimo D... locals()\\n\\nresponse._vars=response._caller(page)\\n', environment={'A': <class 'gluon.html.A'>, 'Auth': <class 'gluon.tools.Auth'>, 'B': <class 'gluon.html.B'>, 'BEAUTIFY': <class 'gluon.html.BEAUTIFY'>, 'BODY': <class 'gluon.html.BODY'>, 'BR': <class 'gluon.html.BR'>, 'BUTTON': <class 'gluon.html.BUTTON'>, 'CAT': <class 'gluon.html.CAT'>, 'CENTER': <class 'gluon.html.CENTER'>, 'CLEANUP': <class 'gluon.validators.CLEANUP'>, ...}, layer='/Users/mdipierro/Dropbox/web2py/applications/plasmid/controllers/default.py')"
p3980
sS'func'
p3981
S'restricted'
p3982
sa(dp3983
g3958
S'/Users/mdipierro/Dropbox/web2py/applications/plasmid/controllers/default.py'
p3984
sg3960
(dp3985
sg3966
I109
sg3967
(dp3986
I98
S'@auth.requires_login()'
p3987
sI99
S'def edit_folder():'
p3988
sI100
S'    folder = db.cms_folder(request.args(0),created_by=auth.user.id)'
p3989
sI101
S'    db.cms_folder.parent_folder.default=folder.id'
p3990
sI102
S'    db.cms_folder.name.requires=IS_NOT_IN_DB('
p3991
sI103
S"        db(db.cms_folder.parent_folder==folder.id),'cms_folder.name')"
p3992
sI104
S'    ofolder = db.cms_folder(request.args(1),created_by=auth.user.id)'
p3993
sI105
S'    form = SQLFORM(db.cms_folder,ofolder,deletable=True)\\'
p3994
sI106
S"        .process(next=URL('folder',args=folder.id))"
p3995
sI107
S'    return locals()'
p3996
ssg3979
S'()'
p3997
sg3981
S'<module>'
p3998
sa(dp3999
g3958
S'/Users/mdipierro/Dropbox/web2py/gluon/globals.py'
p4000
sg3960
(dp4001
S'self'
p4002
S'undefined'
p4003
sS'f'
S'<function page at 0x2cc46f0>'
p4004
ssg3966
I172
sg3967
(dp4005
I167
S'        self.meta = Storage()      # used by web2py_ajax.html'
p4006
sI168
S'        self.menu = []             # used by the default view layout'
p4007
sI169
S'        self.files = []            # used by web2py_ajax.html'
p4008
sI170
S'        self.generic_patterns = [] # patterns to allow generic views'
p4009
sI171
S'        self._vars = None'
p4010
sI172
S'        self._caller = lambda f: f()'
p4011
sI173
S'        self._view_environment = None'
p4012
sI174
S'        self._custom_commit = None'
p4013
sI175
S'        self._custom_rollback = None'
p4014
sI176
S''
ssg3979
S'(f=<function page at 0x2cc46f0>)'
p4015
sg3981
S'<lambda>'
p4016
sa(dp4017
g3958
S'/Users/mdipierro/Dropbox/web2py/applications/plasmid/controllers/default.py'
p4018
sg3960
(dp4019
S'global URL'
p4020
S'<function URL at 0x60d130>'
p4021
sS'inject'
p4022
g4003
ssg3966
I67
sg3967
(dp4023
I64
S'def page():'
p4024
sI65
S"    if request.args(0)=='clone': redirect(URL('index'))"
p4025
sI66
S'    html = db.cms_clone(request.args(0)).html'
p4026
sI67
S'    inject = \'<script language="javascript">alert("This is an altered copy of another page.\\nIt was made as an experimental proof of concept.\\nIf this page infringes a copyright, we will take it down.");</script>\' % URL(\'static\',\'js/inject.js\')'
p4027
sI68
S"    html = html.replace('</head>',inject+'</head>')"
p4028
sI69
S'    return html'
p4029
sI70
S''
sI71
S'def user():'
p4030
sI62
S"    redirect(URL('page',args=id))"
p4031
sI63
S''
ssg3979
S'()'
p4032
sg3981
S'page'
p4033
sasS'pyver'
p4034
S'Python 2.5.4: /usr/bin/python2.5'
p4035
sS'session'
p4036
g49
(g50
g51
NtRp4037
(dp4038
g54
(dp4039
sg56
(lp4040
g49
(g58
g51
NtRp4041
(dp4042
g54
(dp4043
g62
I5
ssg63
Nsg56
(lp4044
g49
(g65
g51
NtRp4045
(dp4046
g54
(dp4047
sg63
g4041
sg56
(lp4048
g49
(g70
g51
NtRp4049
(dp4050
g54
(dp4051
g74
g75
ssg63
g4045
sg56
(lp4052
S'auth'
p4053
asbag49
(g70
g51
NtRp4054
(dp4055
g54
(dp4056
g81
g82
ssg63
g4045
sg56
(lp4057
S':'
asbag49
(g70
g51
NtRp4058
(dp4059
g54
(dp4060
sg63
g4045
sg56
(lp4061
g49
(g50
g51
NtRp4062
(dp4063
g54
(dp4064
g62
I5
ssg63
g4058
sg56
(lp4065
g49
(g58
g51
NtRp4066
(dp4067
g54
(dp4068
g62
I4
ssg63
Nsg56
(lp4069
g49
(g65
g51
NtRp4070
(dp4071
g54
(dp4072
sg63
g4066
sg56
(lp4073
g49
(g70
g51
NtRp4074
(dp4075
g54
(dp4076
g74
g75
ssg63
g4070
sg56
(lp4077
S'expiration'
p4078
asbag49
(g70
g51
NtRp4079
(dp4080
g54
(dp4081
g81
g82
ssg63
g4070
sg56
(lp4082
S':'
asbag49
(g70
g51
NtRp4083
(dp4084
g54
(dp4085
sg63
g4070
sg56
(lp4086
g49
(g50
g51
NtRp4087
(dp4088
g54
(dp4089
g62
I4
ssg63
g4083
sg56
(lp4090
S'2592000'
p4091
asbasbasbag49
(g65
g51
NtRp4092
(dp4093
g54
(dp4094
sg63
g4066
sg56
(lp4095
g49
(g70
g51
NtRp4096
(dp4097
g54
(dp4098
g74
g75
ssg63
g4092
sg56
(lp4099
S'hmac_key'
p4100
asbag49
(g70
g51
NtRp4101
(dp4102
g54
(dp4103
g81
g82
ssg63
g4092
sg56
(lp4104
S':'
asbag49
(g70
g51
NtRp4105
(dp4106
g54
(dp4107
sg63
g4092
sg56
(lp4108
g49
(g50
g51
NtRp4109
(dp4110
g54
(dp4111
g62
I4
ssg63
g4105
sg56
(lp4112
S'bc239bc2-5dec-49b9-818b-2150038ec2df'
p4113
asbasbasbag49
(g65
g51
NtRp4114
(dp4115
g54
(dp4116
sg63
g4066
sg56
(lp4117
g49
(g70
g51
NtRp4118
(dp4119
g54
(dp4120
g74
g75
ssg63
g4114
sg56
(lp4121
S'last_visit'
p4122
asbag49
(g70
g51
NtRp4123
(dp4124
g54
(dp4125
g81
g82
ssg63
g4114
sg56
(lp4126
S':'
asbag49
(g70
g51
NtRp4127
(dp4128
g54
(dp4129
sg63
g4114
sg56
(lp4130
g49
(g50
g51
NtRp4131
(dp4132
g54
(dp4133
g62
I4
ssg63
g4127
sg56
(lp4134
S'datetime.datetime(2011, 12, 11, 21, 0, 55, 597351)'
p4135
asbasbasbag49
(g65
g51
NtRp4136
(dp4137
g54
(dp4138
sg63
g4066
sg56
(lp4139
g49
(g70
g51
NtRp4140
(dp4141
g54
(dp4142
g74
g75
ssg63
g4136
sg56
(lp4143
S'remember'
p4144
asbag49
(g70
g51
NtRp4145
(dp4146
g54
(dp4147
g81
g82
ssg63
g4136
sg56
(lp4148
S':'
asbag49
(g70
g51
NtRp4149
(dp4150
g54
(dp4151
sg63
g4136
sg56
(lp4152
g49
(g50
g51
NtRp4153
(dp4154
g54
(dp4155
g62
I4
ssg63
g4149
sg56
(lp4156
g92
asbasbasbag49
(g65
g51
NtRp4157
(dp4158
g54
(dp4159
sg63
g4066
sg56
(lp4160
g49
(g70
g51
NtRp4161
(dp4162
g54
(dp4163
g74
g75
ssg63
g4157
sg56
(lp4164
S'user'
p4165
asbag49
(g70
g51
NtRp4166
(dp4167
g54
(dp4168
g81
g82
ssg63
g4157
sg56
(lp4169
S':'
asbag49
(g70
g51
NtRp4170
(dp4171
g54
(dp4172
sg63
g4157
sg56
(lp4173
g49
(g50
g51
NtRp4174
(dp4175
g54
(dp4176
g62
I4
ssg63
g4170
sg56
(lp4177
g49
(g58
g51
NtRp4178
(dp4179
g54
(dp4180
g62
I3
ssg63
Nsg56
(lp4181
g49
(g65
g51
NtRp4182
(dp4183
g54
(dp4184
sg63
g4178
sg56
(lp4185
g49
(g70
g51
NtRp4186
(dp4187
g54
(dp4188
g74
g75
ssg63
g4182
sg56
(lp4189
S'email'
p4190
asbag49
(g70
g51
NtRp4191
(dp4192
g54
(dp4193
g81
g82
ssg63
g4182
sg56
(lp4194
S':'
asbag49
(g70
g51
NtRp4195
(dp4196
g54
(dp4197
sg63
g4182
sg56
(lp4198
g49
(g50
g51
NtRp4199
(dp4200
g54
(dp4201
g62
I3
ssg63
g4195
sg56
(lp4202
S'mdipierro@cs.depaul.edu'
p4203
asbasbasbag49
(g65
g51
NtRp4204
(dp4205
g54
(dp4206
sg63
g4178
sg56
(lp4207
g49
(g70
g51
NtRp4208
(dp4209
g54
(dp4210
g74
g75
ssg63
g4204
sg56
(lp4211
S'first_name'
p4212
asbag49
(g70
g51
NtRp4213
(dp4214
g54
(dp4215
g81
g82
ssg63
g4204
sg56
(lp4216
S':'
asbag49
(g70
g51
NtRp4217
(dp4218
g54
(dp4219
sg63
g4204
sg56
(lp4220
g49
(g50
g51
NtRp4221
(dp4222
g54
(dp4223
g62
I3
ssg63
g4217
sg56
(lp4224
S'Massimo'
p4225
asbasbasbag49
(g65
g51
NtRp4226
(dp4227
g54
(dp4228
sg63
g4178
sg56
(lp4229
g49
(g70
g51
NtRp4230
(dp4231
g54
(dp4232
g74
g75
ssg63
g4226
sg56
(lp4233
S'id'
p4234
asbag49
(g70
g51
NtRp4235
(dp4236
g54
(dp4237
g81
g82
ssg63
g4226
sg56
(lp4238
S':'
asbag49
(g70
g51
NtRp4239
(dp4240
g54
(dp4241
sg63
g4226
sg56
(lp4242
g49
(g50
g51
NtRp4243
(dp4244
g54
(dp4245
g62
I3
ssg63
g4239
sg56
(lp4246
S'1'
asbasbasbag49
(g65
g51
NtRp4247
(dp4248
g54
(dp4249
sg63
g4178
sg56
(lp4250
g49
(g70
g51
NtRp4251
(dp4252
g54
(dp4253
g74
g75
ssg63
g4247
sg56
(lp4254
S'last_name'
p4255
asbag49
(g70
g51
NtRp4256
(dp4257
g54
(dp4258
g81
g82
ssg63
g4247
sg56
(lp4259
S':'
asbag49
(g70
g51
NtRp4260
(dp4261
g54
(dp4262
sg63
g4247
sg56
(lp4263
g49
(g50
g51
NtRp4264
(dp4265
g54
(dp4266
g62
I3
ssg63
g4260
sg56
(lp4267
S'Di Pierro'
p4268
asbasbasbag49
(g65
g51
NtRp4269
(dp4270
g54
(dp4271
sg63
g4178
sg56
(lp4272
g49
(g70
g51
NtRp4273
(dp4274
g54
(dp4275
g74
g75
ssg63
g4269
sg56
(lp4276
S'password'
p4277
asbag49
(g70
g51
NtRp4278
(dp4279
g54
(dp4280
g81
g82
ssg63
g4269
sg56
(lp4281
S':'
asbag49
(g70
g51
NtRp4282
(dp4283
g54
(dp4284
sg63
g4269
sg56
(lp4285
g49
(g50
g51
NtRp4286
(dp4287
g54
(dp4288
g62
I3
ssg63
g4282
sg56
(lp4289
S'12923092f4d9e86e56018b9cdd790947'
p4290
asbasbasbag49
(g65
g51
NtRp4291
(dp4292
g54
(dp4293
sg63
g4178
sg56
(lp4294
g49
(g70
g51
NtRp4295
(dp4296
g54
(dp4297
g74
g75
ssg63
g4291
sg56
(lp4298
S'registration_id'
p4299
asbag49
(g70
g51
NtRp4300
(dp4301
g54
(dp4302
g81
g82
ssg63
g4291
sg56
(lp4303
S':'
asbag49
(g70
g51
NtRp4304
(dp4305
g54
(dp4306
sg63
g4291
sg56
(lp4307
g49
(g50
g51
NtRp4308
(dp4309
g54
(dp4310
g62
I3
ssg63
g4304
sg56
(lp4311
S''
asbasbasbag49
(g65
g51
NtRp4312
(dp4313
g54
(dp4314
sg63
g4178
sg56
(lp4315
g49
(g70
g51
NtRp4316
(dp4317
g54
(dp4318
g74
g75
ssg63
g4312
sg56
(lp4319
S'registration_key'
p4320
asbag49
(g70
g51
NtRp4321
(dp4322
g54
(dp4323
g81
g82
ssg63
g4312
sg56
(lp4324
S':'
asbag49
(g70
g51
NtRp4325
(dp4326
g54
(dp4327
sg63
g4312
sg56
(lp4328
g49
(g50
g51
NtRp4329
(dp4330
g54
(dp4331
g62
I3
ssg63
g4325
sg56
(lp4332
S''
asbasbasbag49
(g65
g51
NtRp4333
(dp4334
g54
(dp4335
sg63
g4178
sg56
(lp4336
g49
(g70
g51
NtRp4337
(dp4338
g54
(dp4339
g74
g75
ssg63
g4333
sg56
(lp4340
S'reset_password_key'
p4341
asbag49
(g70
g51
NtRp4342
(dp4343
g54
(dp4344
g81
g82
ssg63
g4333
sg56
(lp4345
S':'
asbag49
(g70
g51
NtRp4346
(dp4347
g54
(dp4348
sg63
g4333
sg56
(lp4349
g49
(g50
g51
NtRp4350
(dp4351
g54
(dp4352
g62
I3
ssg63
g4346
sg56
(lp4353
S''
asbasbasbasbasbasbasbasbasbasbasbag49
(g65
g51
NtRp4354
(dp4355
g54
(dp4356
sg63
g4041
sg56
(lp4357
g49
(g70
g51
NtRp4358
(dp4359
g54
(dp4360
g74
g75
ssg63
g4354
sg56
(lp4361
S'html'
p4362
asbag49
(g70
g51
NtRp4363
(dp4364
g54
(dp4365
g81
g82
ssg63
g4354
sg56
(lp4366
S':'
asbag49
(g70
g51
NtRp4367
(dp4368
g54
(dp4369
sg63
g4354
sg56
(lp4370
g49
(g50
g51
NtRp4371
(dp4372
g54
(dp4373
g62
I5
ssg63
g4367
sg56
(lp4374
S'<!DOCTYPE html PUBLIC "-//W3C//DTD XHTML 1.0 Transitional//EN" "http://www.w3.org/TR/xhtml1/DTD/xhtml1-transitional.dtd">\n<html xmlns="http://www.w3.org/1999/xhtml"><head>\n<meta http-equiv="Content-Type" content="text/html; charset=UTF-8">\n<title>Greefies Css Template</title>\n<link rel="stylesheet" type="text/css" href="http://www.webpagedesign.com.au/Free_Templates/greefies/style.css" media="screen">\n</head>\n<body>\n<div id="main_container">\n\t<div id="header">\n    \t<div id="logo"><a href="http://www.webpagedesign.com.au/Free_Templates/greefies/home.html"><img src="http://www.webpagedesign.com.au/Free_Templates/greefies/images/logo.gif" alt="" title="" border="0"></a></div>\n        <div id="menu">\n            <ul>\n                <li><a class="current" href="http://www.webpagedesign.com.au/Free_Templates/greefies/home.html" title="">home</a></li>\n                <li><a href="http://www.webpagedesign.com.au/Free_Templates/greefies/services.html" title="">services</a></li>\n                <li><a href="http://www.webpagedesign.com.au/Free_Templates/greefies/#" title="">clients</a></li>\n                <li><a href="http://www.webpagedesign.com.au/Free_Templates/greefies/#" title="">testimonials</a></li>\n                <li><a href="http://www.webpagedesign.com.au/Free_Templates/greefies/contact.html" title="">contact us</a></li>\n            </ul>\n        </div>\n    </div>\n    <div class="green_box">\n    \t<div class="clock">\n        <img src="http://www.webpagedesign.com.au/Free_Templates/greefies/images/clock.png" alt="" title="">\n        </div>\n        <div class="text_content">\n        <h1>What is your biological clock?</h1>\n        <p class="green">\n        "Lorem ipsum dolor sit amet, consectetur adipisicing elit, sed\ndo eiusmod tempor incididunt ut labore et dolore magna aliqua. Ut enim\nad minim veniam, quis nostrud exercitation ullamco laboris nisi ut\naliquip ex ea commodo consequat. Duis aute irure dolor in reprehenderit\nin voluptate velit esse cillum dolore eu fugiat nulla pariatur.\nExcepteur sint occaecat cupidatat non proident, sunt in culpa qui\nofficia deserunt mollit anim id est laborum."\n        </p>\n        <div class="read_more"><a href="http://www.webpagedesign.com.au/Free_Templates/greefies/#">read more</a></div>\n        </div>\n        <div id="right_nav">\n            <ul>\n                <li><a href="http://www.webpagedesign.com.au/Free_Templates/greefies/home.html" title="">Lorem ipsum dolor sit amet cons</a></li>\n                <li><a href="http://www.webpagedesign.com.au/Free_Templates/greefies/services.html" title="">Lorem ipsum dolor sit amet cons</a></li>\n                <li><a class="current" href="http://www.webpagedesign.com.au/Free_Templates/greefies/#" title="">Lorem ipsum dolor sit amet cons</a></li>\n                <li><a href="http://www.webpagedesign.com.au/Free_Templates/greefies/#" title="">Lorem ipsum dolor sit amet cons</a></li>\n                <li><a href="http://www.webpagedesign.com.au/Free_Templates/greefies/contact.html" title="">Lorem ipsum dolor sit amet cons</a></li>\n            </ul>\n        </div>\n    </div><!--end of green box-->\n    <div id="main_content">\n    \t<div id="left_content">\n        <h2>Welcome to greefies</h2>\n        <p>\n"Lorem ipsum dolor sit amet, consectetur adipisicing elit, sed do\neiusmod tempor incididunt ut labore et dolore magna aliqua. Ut enim ad\nminim veniam, quis nostrud exercitation ullamco laboris nisi ut aliquip\nex ea commodo consequat.\n        </p>\n         <div id="left_nav">\n            <ul>\n                <li><a href="http://www.webpagedesign.com.au/Free_Templates/greefies/home.html" title="">Lorem ipsum dolor sit amet</a></li>\n                <li><a href="http://www.webpagedesign.com.au/Free_Templates/greefies/services.html" title="">Lorem ipsum dolor sit amet</a></li>\n                <li><a href="http://www.webpagedesign.com.au/Free_Templates/greefies/#" title="">Lorem ipsum dolor sit amet</a></li>\n                <li><a href="http://www.webpagedesign.com.au/Free_Templates/greefies/#" title="">Lorem ipsum dolor sit amet</a></li>\n            </ul>\n        </div>\n        <p class="clear">\n        <img src="http://www.webpagedesign.com.au/Free_Templates/greefies/images/pic1.jpg" alt="" title="" class="left_img">\n        "Lorem ipsum dolor sit amet, consectetur adipisicing elit, sed\ndo eiusmod tempor incididunt ut labore et dolore magna aliqua. Ut enim\nad minim veniam, quis nostrud exercitation ullamco laboris nisi ut\naliquip ex ea commodo consequat.\n        </p>\n        <div class="read_more_link"><a href="http://www.webpagedesign.com.au/Free_Templates/greefies/#">read more</a></div>\n        </div><!--end of left content-->\n    \t<div id="right_content">\n        <h2>Our Products</h2>\n        \t<div class="products_box">\n  <img src="http://www.webpagedesign.com.au/Free_Templates/greefies/images/box_icon.gif" alt="" title="" class="box_img">\n <h3>Dolore magna aliqua</h3>\n            <p>\n"Lorem ipsum dolor sit amet, consectetur adipisicing elit, sed do\neiusmod tempor incididunt ut labore et dolore magna aliqua. Ut enim ad\nminim veniam, quis nostrud exercitation ullamco laboris nisi ut aliquip\nex ea commodo consequat.\n            </p>\n            <div class="read_more_link"><a href="http://www.webpagedesign.com.au/Free_Templates/greefies/#">read more</a></div>\n            </div>\n         \t<div class="products_box">\n  <img src="http://www.webpagedesign.com.au/Free_Templates/greefies/images/box_icon.gif" alt="" title="" class="box_img">\n <h3>Dolore magna aliqua</h3>\n            <p>\n"Lorem ipsum dolor sit amet, consectetur adipisicing elit, sed do\neiusmod tempor incididunt ut labore et dolore magna aliqua. Ut enim ad\nminim veniam, quis nostrud exercitation ullamco laboris nisi ut aliquip\nex ea commodo consequat.\n            </p>\n            <div class="read_more_link"><a href="http://www.webpagedesign.com.au/Free_Templates/greefies/#">read more</a></div>\n            </div>\n            <div class="search_box">\n            <div class="search_title">Dolore magna aliqua</div>\n            <input class="search_input" type="text">\n            <input src="http://www.webpagedesign.com.au/Free_Templates/greefies/images/search.gif" class="submit" type="image">\n            <div class="subsearch">\n            "Lorem ipsum dolor sit amet.\n            </div>\n            </div>\n            <div class="contact_information">\n            <h4>Free Customers Support</h4>\n            <p>\n            <img src="http://www.webpagedesign.com.au/Free_Templates/greefies/images/phone_icon.gif" alt="" title="" class="box_img">\n            0700 679 122 489<br>\n            0700 679 122 489\n            </p>\n            <br><br>\n            <p>\n            <img src="http://www.webpagedesign.com.au/Free_Templates/greefies/images/contact_icon.gif" alt="" title="" class="box_img">\n            info@company.com<br>\n            contact@company.com\n            </p>\n            </div>\n        </div><!--end of right content-->\n    <div style=" clear:both;"></div>\n    </div><!--end of main content-->\n     <div id="footer">\n     \t<div class="copyright">\n<a href="http://www.webpagedesign.com.au/Free_Templates/greefies/home.html"><img src="http://www.webpagedesign.com.au/Free_Templates/greefies/images/footer_logo.gif" alt="" title="" border="0"></a>\n        </div>\n    \t<div class="footer_links">\n        <a href="http://www.webpagedesign.com.au/Free_Templates/greefies/#">About us</a>\n         <a href="http://www.webpagedesign.com.au/Free_Templates/greefies/privacy.html">Privacy policy</a>\n        <a href="http://www.webpagedesign.com.au/Free_Templates/greefies/contact.html">Contact us </a>\n        <a href="http://www.wix.com/start/matrix/?utm_campaign=af_webpagedesign.com.au&amp;experiment_id=Greefies">Create your own free web site</a>\n        </div>\n    </div>\n</div> <!--end of main container-->\n</body></html>'
p4375
asbasbasbag49
(g65
g51
NtRp4376
(dp4377
g54
(dp4378
sg63
g4041
sg56
(lp4379
g49
(g70
g51
NtRp4380
(dp4381
g54
(dp4382
g74
g75
ssg63
g4376
sg56
(lp4383
S'new_html'
p4384
asbag49
(g70
g51
NtRp4385
(dp4386
g54
(dp4387
g81
g82
ssg63
g4376
sg56
(lp4388
S':'
asbag49
(g70
g51
NtRp4389
(dp4390
g54
(dp4391
sg63
g4376
sg56
(lp4392
g49
(g50
g51
NtRp4393
(dp4394
g54
(dp4395
g62
I5
ssg63
g4389
sg56
(lp4396
S'<!DOCTYPE html PUBLIC "-//W3C//DTD XHTML 1.0 Transitional//EN" "http://www.w3.org/TR/xhtml1/DTD/xhtml1-transitional.dtd">\n<html xmlns="http://www.w3.org/1999/xhtml"><head>\n<meta http-equiv="Content-Type" content="text/html; charset=UTF-8">\n<title>Greefies Css Template</title>\n<link rel="stylesheet" type="text/css" href="http://www.webpagedesign.com.au/Free_Templates/greefies/style.css" media="screen">\n</head>\n<body>\n<div id="main_container">\n\t<div id="header">\n    \t<div id="logo"><br></div>\n        <div id="menu">\n            <ul>\n                <li><a class="current" href="http://www.webpagedesign.com.au/Free_Templates/greefies/home.html" title="">home</a></li>\n                <li><a href="http://www.webpagedesign.com.au/Free_Templates/greefies/services.html" title="">services</a></li>\n                <li><a href="http://www.webpagedesign.com.au/Free_Templates/greefies/#" title="">clients</a></li>\n                <li><a href="http://www.webpagedesign.com.au/Free_Templates/greefies/#" title="">testimonials</a></li>\n                <li><a href="http://www.webpagedesign.com.au/Free_Templates/greefies/contact.html" title="">contact us</a></li>\n            </ul>\n        </div>\n    </div>\n    <div class="green_box">\n    \t<div class="clock" style="">\n        <img src="http://www.webpagedesign.com.au/Free_Templates/greefies/images/clock.png" alt="" title="">\n        </div>\n        <div class="text_content">\n        <h1>The best clocks</h1>\n        <p class="green"><font color="#ffff99">\n        "Lorem ipsum dolor sit amet, consectetur adipisicing elit, sed\ndo eiusmod tempor incididunt ut labore et dolore magna aliqua. Ut enim\nad minim veniam, quis nostrud exercitation ullamco laboris nisi ut\naliquip ex ea commodo consequat. Duis aute irure dolor in reprehenderit\nin voluptate velit esse cillum dolore eu fugiat nulla pariatur.\nExcepteur sint occaecat cupidatat non proident, sunt in culpa qui\nofficia deserunt mollit anim id est laborum."\n        </font></p>\n        <div class="read_more"><a href="http://www.webpagedesign.com.au/Free_Templates/greefies/#">read more</a></div>\n        </div>\n        <div id="right_nav">\n            <ul>\n                <li><a href="http://www.webpagedesign.com.au/Free_Templates/greefies/home.html" title="">Lorem ipsum dolor sit amet cons</a></li>\n                <li><a href="http://www.webpagedesign.com.au/Free_Templates/greefies/services.html" title="">Lorem ipsum dolor sit amet cons</a></li>\n                <li><a class="current" href="http://www.webpagedesign.com.au/Free_Templates/greefies/#" title="">Lorem ipsum dolor sit amet cons</a></li>\n                <li><a href="http://www.webpagedesign.com.au/Free_Templates/greefies/#" title="">Lorem ipsum dolor sit amet cons</a></li>\n                <li><a href="http://www.webpagedesign.com.au/Free_Templates/greefies/contact.html" title="">Lorem ipsum dolor sit amet cons</a></li>\n            </ul>\n        </div>\n    </div><!--end of green box-->\n    <div id="main_content">\n    \t<div id="left_content">\n        <h2>Welcome to greefies</h2>\n        <p>\n"Lorem ipsum dolor sit amet, consectetur adipisicing elit, sed do\neiusmod tempor incididunt ut labore et dolore magna aliqua. Ut enim ad\nminim veniam, quis nostrud exercitation ullamco laboris nisi ut aliquip\nex ea commodo consequat.\n        </p>\n         <div id="left_nav">\n            <ul>\n                <li><a href="http://www.webpagedesign.com.au/Free_Templates/greefies/home.html" title="">Lorem ipsum dolor sit amet</a></li>\n                <li><a href="http://www.webpagedesign.com.au/Free_Templates/greefies/services.html" title="">Lorem ipsum dolor sit amet</a></li>\n                <li><a href="http://www.webpagedesign.com.au/Free_Templates/greefies/#" title="">Lorem ipsum dolor sit amet</a></li>\n                <li><a href="http://www.webpagedesign.com.au/Free_Templates/greefies/#" title="">Lorem ipsum dolor sit amet</a></li>\n            </ul>\n        </div>\n        <p class="clear">\n        <img src="http://www.webpagedesign.com.au/Free_Templates/greefies/images/pic1.jpg" alt="" title="" class="left_img">\n        "Lorem ipsum dolor sit amet, consectetur adipisicing elit, sed\ndo eiusmod tempor incididunt ut labore et dolore magna aliqua. Ut enim\nad minim veniam, quis nostrud exercitation ullamco laboris nisi ut\naliquip ex ea commodo consequat.\n        </p>\n        <div class="read_more_link"><a href="http://www.webpagedesign.com.au/Free_Templates/greefies/#">read more</a></div>\n        </div><!--end of left content-->\n    \t<div id="right_content">\n        <h2>Our Products</h2>\n        \t<div class="products_box">\n  <img src="http://www.webpagedesign.com.au/Free_Templates/greefies/images/box_icon.gif" alt="" title="" class="box_img">\n <h3>Dolore magna aliqua</h3>\n            <p>\n"Lorem ipsum dolor sit amet, consectetur adipisicing elit, sed do\neiusmod tempor incididunt ut labore et dolore magna aliqua. Ut enim ad\nminim veniam, quis nostrud exercitation ullamco laboris nisi ut aliquip\nex ea commodo consequat.\n            </p>\n            <div class="read_more_link"><a href="http://www.webpagedesign.com.au/Free_Templates/greefies/#">read more</a></div>\n            </div>\n         \t<div class="products_box">\n  <img src="http://www.webpagedesign.com.au/Free_Templates/greefies/images/box_icon.gif" alt="" title="" class="box_img">\n <h3>Dolore magna aliqua</h3>\n            <p>\n"Lorem ipsum dolor sit amet, consectetur adipisicing elit, sed do\neiusmod tempor incididunt ut labore et dolore magna aliqua. Ut enim ad\nminim veniam, quis nostrud exercitation ullamco laboris nisi ut aliquip\nex ea commodo consequat.\n            </p>\n            <div class="read_more_link"><a href="http://www.webpagedesign.com.au/Free_Templates/greefies/#">read more</a></div>\n            </div>\n            <div class="search_box">\n            <div class="search_title">Dolore magna aliqua</div>\n            <input class="search_input" type="text">\n            <input src="http://www.webpagedesign.com.au/Free_Templates/greefies/images/search.gif" class="submit" type="image">\n            <div class="subsearch">\n            "Lorem ipsum dolor sit amet.\n            </div>\n            </div>\n            <div class="contact_information">\n            <h4>Free Customers Support</h4>\n            <p>\n            <img src="http://www.webpagedesign.com.au/Free_Templates/greefies/images/phone_icon.gif" alt="" title="" class="box_img">\n            0700 679 122 489<br>\n            0700 679 122 489\n            </p>\n            <br><br>\n            <p>\n            <img src="http://www.webpagedesign.com.au/Free_Templates/greefies/images/contact_icon.gif" alt="" title="" class="box_img">\n            info@company.com<br>\n            contact@company.com\n            </p>\n            </div>\n        </div><!--end of right content-->\n    <div style=" clear:both;"></div>\n    </div><!--end of main content-->\n     <div id="footer">\n     \t<div class="copyright">\n<a href="http://www.webpagedesign.com.au/Free_Templates/greefies/home.html"><img src="http://www.webpagedesign.com.au/Free_Templates/greefies/images/footer_logo.gif" alt="" title="" border="0"></a>\n        </div>\n    \t<div class="footer_links">\n        <a href="http://www.webpagedesign.com.au/Free_Templates/greefies/#">About us</a>\n         <a href="http://www.webpagedesign.com.au/Free_Templates/greefies/privacy.html">Privacy policy</a>\n        <a href="http://www.webpagedesign.com.au/Free_Templates/greefies/contact.html">Contact us </a>\n        <a href="http://www.wix.com/start/matrix/?utm_campaign=af_webpagedesign.com.au&amp;experiment_id=Greefies">Create your own free web site</a>\n        </div>\n    </div>\n</div> <!--end of main container-->\n</body></html>'
p4397
asbasbasbag49
(g65
g51
NtRp4398
(dp4399
g54
(dp4400
sg63
g4041
sg56
(lp4401
g49
(g70
g51
NtRp4402
(dp4403
g54
(dp4404
g74
g75
ssg63
g4398
sg56
(lp4405
S'url'
p4406
asbag49
(g70
g51
NtRp4407
(dp4408
g54
(dp4409
g81
g82
ssg63
g4398
sg56
(lp4410
S':'
asbag49
(g70
g51
NtRp4411
(dp4412
g54
(dp4413
sg63
g4398
sg56
(lp4414
g49
(g50
g51
NtRp4415
(dp4416
g54
(dp4417
g62
I5
ssg63
g4411
sg56
(lp4418
S'http://www.webpagedesign.com.au/Free_Templates/greefies/home.html'
p4419
asbasbasbasbasbsS'etype'
p4420
S"<type 'exceptions.TypeError'>"
p4421
sS'date'
p4422
S'Sun Dec 11 21:52:40 2011'
p4423
sS'response'
p4424
g49
(g50
g51
NtRp4425
(dp4426
g54
(dp4427
sg56
(lp4428
g49
(g58
g51
NtRp4429
(dp4430
g54
(dp4431
g62
I5
ssg63
Nsg56
(lp4432
g49
(g65
g51
NtRp4433
(dp4434
g54
(dp4435
sg63
g4429
sg56
(lp4436
g49
(g70
g51
NtRp4437
(dp4438
g54
(dp4439
g74
g75
ssg63
g4433
sg56
(lp4440
g159
asbag49
(g70
g51
NtRp4441
(dp4442
g54
(dp4443
g81
g82
ssg63
g4433
sg56
(lp4444
S':'
asbag49
(g70
g51
NtRp4445
(dp4446
g54
(dp4447
sg63
g4433
sg56
(lp4448
g49
(g50
g51
NtRp4449
(dp4450
g54
(dp4451
g62
I5
ssg63
g4445
sg56
(lp4452
S'<cStringIO.StringO object at 0x10b1be0>'
p4453
asbasbasbag49
(g65
g51
NtRp4454
(dp4455
g54
(dp4456
sg63
g4429
sg56
(lp4457
g49
(g70
g51
NtRp4458
(dp4459
g54
(dp4460
g74
g75
ssg63
g4454
sg56
(lp4461
g225
asbag49
(g70
g51
NtRp4462
(dp4463
g54
(dp4464
g81
g82
ssg63
g4454
sg56
(lp4465
S':'
asbag49
(g70
g51
NtRp4466
(dp4467
g54
(dp4468
sg63
g4454
sg56
(lp4469
g49
(g50
g51
NtRp4470
(dp4471
g54
(dp4472
g62
I5
ssg63
g4466
sg56
(lp4473
g49
(g58
g51
NtRp4474
(dp4475
g54
(dp4476
g62
I4
ssg63
Nsg56
(lp4477
g49
(g65
g51
NtRp4478
(dp4479
g54
(dp4480
sg63
g4474
sg56
(lp4481
g49
(g70
g51
NtRp4482
(dp4483
g54
(dp4484
g74
g75
ssg63
g4478
sg56
(lp4485
S'session_id_plasmid'
p4486
asbag49
(g70
g51
NtRp4487
(dp4488
g54
(dp4489
g81
g82
ssg63
g4478
sg56
(lp4490
S':'
asbag49
(g70
g51
NtRp4491
(dp4492
g54
(dp4493
sg63
g4478
sg56
(lp4494
g49
(g50
g51
NtRp4495
(dp4496
g54
(dp4497
g62
I4
ssg63
g4491
sg56
(lp4498
g49
(g58
g51
NtRp4499
(dp4500
g54
(dp4501
g62
I3
ssg63
Nsg56
(lp4502
g49
(g65
g51
NtRp4503
(dp4504
g54
(dp4505
sg63
g4499
sg56
(lp4506
g49
(g70
g51
NtRp4507
(dp4508
g54
(dp4509
g74
g75
ssg63
g4503
sg56
(lp4510
g275
asbag49
(g70
g51
NtRp4511
(dp4512
g54
(dp4513
g81
g82
ssg63
g4503
sg56
(lp4514
S':'
asbag49
(g70
g51
NtRp4515
(dp4516
g54
(dp4517
sg63
g4503
sg56
(lp4518
g49
(g50
g51
NtRp4519
(dp4520
g54
(dp4521
g62
I3
ssg63
g4515
sg56
(lp4522
S''
asbasbasbag49
(g65
g51
NtRp4523
(dp4524
g54
(dp4525
sg63
g4499
sg56
(lp4526
g49
(g70
g51
NtRp4527
(dp4528
g54
(dp4529
g74
g75
ssg63
g4523
sg56
(lp4530
g296
asbag49
(g70
g51
NtRp4531
(dp4532
g54
(dp4533
g81
g82
ssg63
g4523
sg56
(lp4534
S':'
asbag49
(g70
g51
NtRp4535
(dp4536
g54
(dp4537
sg63
g4523
sg56
(lp4538
g49
(g50
g51
NtRp4539
(dp4540
g54
(dp4541
g62
I3
ssg63
g4535
sg56
(lp4542
S''
asbasbasbag49
(g65
g51
NtRp4543
(dp4544
g54
(dp4545
sg63
g4499
sg56
(lp4546
g49
(g70
g51
NtRp4547
(dp4548
g54
(dp4549
g74
g75
ssg63
g4543
sg56
(lp4550
g317
asbag49
(g70
g51
NtRp4551
(dp4552
g54
(dp4553
g81
g82
ssg63
g4543
sg56
(lp4554
S':'
asbag49
(g70
g51
NtRp4555
(dp4556
g54
(dp4557
sg63
g4543
sg56
(lp4558
g49
(g50
g51
NtRp4559
(dp4560
g54
(dp4561
g62
I3
ssg63
g4555
sg56
(lp4562
S''
asbasbasbag49
(g65
g51
NtRp4563
(dp4564
g54
(dp4565
sg63
g4499
sg56
(lp4566
g49
(g70
g51
NtRp4567
(dp4568
g54
(dp4569
g74
g75
ssg63
g4563
sg56
(lp4570
g338
asbag49
(g70
g51
NtRp4571
(dp4572
g54
(dp4573
g81
g82
ssg63
g4563
sg56
(lp4574
S':'
asbag49
(g70
g51
NtRp4575
(dp4576
g54
(dp4577
sg63
g4563
sg56
(lp4578
g49
(g50
g51
NtRp4579
(dp4580
g54
(dp4581
g62
I3
ssg63
g4575
sg56
(lp4582
S''
asbasbasbag49
(g65
g51
NtRp4583
(dp4584
g54
(dp4585
sg63
g4499
sg56
(lp4586
g49
(g70
g51
NtRp4587
(dp4588
g54
(dp4589
g74
g75
ssg63
g4583
sg56
(lp4590
g359
asbag49
(g70
g51
NtRp4591
(dp4592
g54
(dp4593
g81
g82
ssg63
g4583
sg56
(lp4594
S':'
asbag49
(g70
g51
NtRp4595
(dp4596
g54
(dp4597
sg63
g4583
sg56
(lp4598
g49
(g50
g51
NtRp4599
(dp4600
g54
(dp4601
g62
I3
ssg63
g4595
sg56
(lp4602
S'/'
asbasbasbag49
(g65
g51
NtRp4603
(dp4604
g54
(dp4605
sg63
g4499
sg56
(lp4606
g49
(g70
g51
NtRp4607
(dp4608
g54
(dp4609
g74
g75
ssg63
g4603
sg56
(lp4610
g380
asbag49
(g70
g51
NtRp4611
(dp4612
g54
(dp4613
g81
g82
ssg63
g4603
sg56
(lp4614
S':'
asbag49
(g70
g51
NtRp4615
(dp4616
g54
(dp4617
sg63
g4603
sg56
(lp4618
g49
(g50
g51
NtRp4619
(dp4620
g54
(dp4621
g62
I3
ssg63
g4615
sg56
(lp4622
S''
asbasbasbag49
(g65
g51
NtRp4623
(dp4624
g54
(dp4625
sg63
g4499
sg56
(lp4626
g49
(g70
g51
NtRp4627
(dp4628
g54
(dp4629
g74
g75
ssg63
g4623
sg56
(lp4630
g401
asbag49
(g70
g51
NtRp4631
(dp4632
g54
(dp4633
g81
g82
ssg63
g4623
sg56
(lp4634
S':'
asbag49
(g70
g51
NtRp4635
(dp4636
g54
(dp4637
sg63
g4623
sg56
(lp4638
g49
(g50
g51
NtRp4639
(dp4640
g54
(dp4641
g62
I3
ssg63
g4635
sg56
(lp4642
S''
asbasbasbasbasbasbasbasbasbasbasbag49
(g65
g51
NtRp4643
(dp4644
g54
(dp4645
sg63
g4429
sg56
(lp4646
g49
(g70
g51
NtRp4647
(dp4648
g54
(dp4649
g74
g75
ssg63
g4643
sg56
(lp4650
S'files'
p4651
asbag49
(g70
g51
NtRp4652
(dp4653
g54
(dp4654
g81
g82
ssg63
g4643
sg56
(lp4655
S':'
asbag49
(g70
g51
NtRp4656
(dp4657
g54
(dp4658
sg63
g4643
sg56
(lp4659
g49
(g50
g51
NtRp4660
(dp4661
g54
(dp4662
g62
I5
ssg63
g4656
sg56
(lp4663
g49
(g58
g51
NtRp4664
(dp4665
g54
(dp4666
g62
I4
ssg63
Nsg56
(lp4667
sbasbasbasbag49
(g65
g51
NtRp4668
(dp4669
g54
(dp4670
sg63
g4429
sg56
(lp4671
g49
(g70
g51
NtRp4672
(dp4673
g54
(dp4674
g74
g75
ssg63
g4668
sg56
(lp4675
S'flash'
p4676
asbag49
(g70
g51
NtRp4677
(dp4678
g54
(dp4679
g81
g82
ssg63
g4668
sg56
(lp4680
S':'
asbag49
(g70
g51
NtRp4681
(dp4682
g54
(dp4683
sg63
g4668
sg56
(lp4684
g49
(g50
g51
NtRp4685
(dp4686
g54
(dp4687
g62
I5
ssg63
g4681
sg56
(lp4688
S''
asbasbasbag49
(g65
g51
NtRp4689
(dp4690
g54
(dp4691
sg63
g4429
sg56
(lp4692
g49
(g70
g51
NtRp4693
(dp4694
g54
(dp4695
g74
g75
ssg63
g4689
sg56
(lp4696
S'generic_patterns'
p4697
asbag49
(g70
g51
NtRp4698
(dp4699
g54
(dp4700
g81
g82
ssg63
g4689
sg56
(lp4701
S':'
asbag49
(g70
g51
NtRp4702
(dp4703
g54
(dp4704
sg63
g4689
sg56
(lp4705
g49
(g50
g51
NtRp4706
(dp4707
g54
(dp4708
g62
I5
ssg63
g4702
sg56
(lp4709
g49
(g58
g51
NtRp4710
(dp4711
g54
(dp4712
g62
I4
ssg63
Nsg56
(lp4713
g49
(g65
g51
NtRp4714
(dp4715
g54
(dp4716
sg63
g4710
sg56
(lp4717
g49
(g70
g51
NtRp4718
(dp4719
g54
(dp4720
sg63
g4714
sg56
(lp4721
g49
(g50
g51
NtRp4722
(dp4723
g54
(dp4724
g62
I4
ssg63
g4718
sg56
(lp4725
S'*'
asbasbasbasbasbasbasbag49
(g65
g51
NtRp4726
(dp4727
g54
(dp4728
sg63
g4429
sg56
(lp4729
g49
(g70
g51
NtRp4730
(dp4731
g54
(dp4732
g74
g75
ssg63
g4726
sg56
(lp4733
S'headers'
p4734
asbag49
(g70
g51
NtRp4735
(dp4736
g54
(dp4737
g81
g82
ssg63
g4726
sg56
(lp4738
S':'
asbag49
(g70
g51
NtRp4739
(dp4740
g54
(dp4741
sg63
g4726
sg56
(lp4742
g49
(g50
g51
NtRp4743
(dp4744
g54
(dp4745
g62
I5
ssg63
g4739
sg56
(lp4746
g49
(g58
g51
NtRp4747
(dp4748
g54
(dp4749
g62
I4
ssg63
Nsg56
(lp4750
g49
(g65
g51
NtRp4751
(dp4752
g54
(dp4753
sg63
g4747
sg56
(lp4754
g49
(g70
g51
NtRp4755
(dp4756
g54
(dp4757
g74
g75
ssg63
g4751
sg56
(lp4758
S'Cache-Control'
p4759
asbag49
(g70
g51
NtRp4760
(dp4761
g54
(dp4762
g81
g82
ssg63
g4751
sg56
(lp4763
S':'
asbag49
(g70
g51
NtRp4764
(dp4765
g54
(dp4766
sg63
g4751
sg56
(lp4767
g49
(g50
g51
NtRp4768
(dp4769
g54
(dp4770
g62
I4
ssg63
g4764
sg56
(lp4771
S'no-store, no-cache, must-revalidate, post-check=0, pre-check=0'
p4772
asbasbasbag49
(g65
g51
NtRp4773
(dp4774
g54
(dp4775
sg63
g4747
sg56
(lp4776
g49
(g70
g51
NtRp4777
(dp4778
g54
(dp4779
g74
g75
ssg63
g4773
sg56
(lp4780
S'Content-Type'
p4781
asbag49
(g70
g51
NtRp4782
(dp4783
g54
(dp4784
g81
g82
ssg63
g4773
sg56
(lp4785
S':'
asbag49
(g70
g51
NtRp4786
(dp4787
g54
(dp4788
sg63
g4773
sg56
(lp4789
g49
(g50
g51
NtRp4790
(dp4791
g54
(dp4792
g62
I4
ssg63
g4786
sg56
(lp4793
S'text/html; charset=utf-8'
p4794
asbasbasbag49
(g65
g51
NtRp4795
(dp4796
g54
(dp4797
sg63
g4747
sg56
(lp4798
g49
(g70
g51
NtRp4799
(dp4800
g54
(dp4801
g74
g75
ssg63
g4795
sg56
(lp4802
S'Expires'
p4803
asbag49
(g70
g51
NtRp4804
(dp4805
g54
(dp4806
g81
g82
ssg63
g4795
sg56
(lp4807
S':'
asbag49
(g70
g51
NtRp4808
(dp4809
g54
(dp4810
sg63
g4795
sg56
(lp4811
g49
(g50
g51
NtRp4812
(dp4813
g54
(dp4814
g62
I4
ssg63
g4808
sg56
(lp4815
S'Mon, 12 Dec 2011 03:52:40 GMT'
p4816
asbasbasbag49
(g65
g51
NtRp4817
(dp4818
g54
(dp4819
sg63
g4747
sg56
(lp4820
g49
(g70
g51
NtRp4821
(dp4822
g54
(dp4823
g74
g75
ssg63
g4817
sg56
(lp4824
S'Pragma'
p4825
asbag49
(g70
g51
NtRp4826
(dp4827
g54
(dp4828
g81
g82
ssg63
g4817
sg56
(lp4829
S':'
asbag49
(g70
g51
NtRp4830
(dp4831
g54
(dp4832
sg63
g4817
sg56
(lp4833
g49
(g50
g51
NtRp4834
(dp4835
g54
(dp4836
g62
I4
ssg63
g4830
sg56
(lp4837
S'no-cache'
p4838
asbasbasbag49
(g65
g51
NtRp4839
(dp4840
g54
(dp4841
sg63
g4747
sg56
(lp4842
g49
(g70
g51
NtRp4843
(dp4844
g54
(dp4845
g74
g75
ssg63
g4839
sg56
(lp4846
S'X-Powered-By'
p4847
asbag49
(g70
g51
NtRp4848
(dp4849
g54
(dp4850
g81
g82
ssg63
g4839
sg56
(lp4851
S':'
asbag49
(g70
g51
NtRp4852
(dp4853
g54
(dp4854
sg63
g4839
sg56
(lp4855
g49
(g50
g51
NtRp4856
(dp4857
g54
(dp4858
g62
I4
ssg63
g4852
sg56
(lp4859
S'web2py'
p4860
asbasbasbasbasbasbasbag49
(g65
g51
NtRp4861
(dp4862
g54
(dp4863
sg63
g4429
sg56
(lp4864
g49
(g70
g51
NtRp4865
(dp4866
g54
(dp4867
g74
g75
ssg63
g4861
sg56
(lp4868
S'menu'
p4869
asbag49
(g70
g51
NtRp4870
(dp4871
g54
(dp4872
g81
g82
ssg63
g4861
sg56
(lp4873
S':'
asbag49
(g70
g51
NtRp4874
(dp4875
g54
(dp4876
sg63
g4861
sg56
(lp4877
g49
(g50
g51
NtRp4878
(dp4879
g54
(dp4880
g62
I5
ssg63
g4874
sg56
(lp4881
g49
(g58
g51
NtRp4882
(dp4883
g54
(dp4884
g62
I4
ssg63
Nsg56
(lp4885
sbasbasbasbag49
(g65
g51
NtRp4886
(dp4887
g54
(dp4888
sg63
g4429
sg56
(lp4889
g49
(g70
g51
NtRp4890
(dp4891
g54
(dp4892
g74
g75
ssg63
g4886
sg56
(lp4893
S'meta'
p4894
asbag49
(g70
g51
NtRp4895
(dp4896
g54
(dp4897
g81
g82
ssg63
g4886
sg56
(lp4898
S':'
asbag49
(g70
g51
NtRp4899
(dp4900
g54
(dp4901
sg63
g4886
sg56
(lp4902
g49
(g50
g51
NtRp4903
(dp4904
g54
(dp4905
g62
I5
ssg63
g4899
sg56
(lp4906
g49
(g58
g51
NtRp4907
(dp4908
g54
(dp4909
g62
I4
ssg63
Nsg56
(lp4910
sbasbasbasbag49
(g65
g51
NtRp4911
(dp4912
g54
(dp4913
sg63
g4429
sg56
(lp4914
g49
(g70
g51
NtRp4915
(dp4916
g54
(dp4917
g74
g75
ssg63
g4911
sg56
(lp4918
S'postprocessing'
p4919
asbag49
(g70
g51
NtRp4920
(dp4921
g54
(dp4922
g81
g82
ssg63
g4911
sg56
(lp4923
S':'
asbag49
(g70
g51
NtRp4924
(dp4925
g54
(dp4926
sg63
g4911
sg56
(lp4927
g49
(g50
g51
NtRp4928
(dp4929
g54
(dp4930
g62
I5
ssg63
g4924
sg56
(lp4931
g49
(g58
g51
NtRp4932
(dp4933
g54
(dp4934
g62
I4
ssg63
Nsg56
(lp4935
sbasbasbasbag49
(g65
g51
NtRp4936
(dp4937
g54
(dp4938
sg63
g4429
sg56
(lp4939
g49
(g70
g51
NtRp4940
(dp4941
g54
(dp4942
g74
g75
ssg63
g4936
sg56
(lp4943
S'session_file'
p4944
asbag49
(g70
g51
NtRp4945
(dp4946
g54
(dp4947
g81
g82
ssg63
g4936
sg56
(lp4948
S':'
asbag49
(g70
g51
NtRp4949
(dp4950
g54
(dp4951
sg63
g4936
sg56
(lp4952
g49
(g50
g51
NtRp4953
(dp4954
g54
(dp4955
g62
I5
ssg63
g4949
sg56
(lp4956
S"<open file '/Users/mdipierro/Dropbox/web2py/applications/plasmid/sessions/127.0.0.1-559f98a2-79dd-406f-bad1-d5c08eab6b4a', mode 'rb+' at 0x2cf44e8>"
p4957
asbasbasbag49
(g65
g51
NtRp4958
(dp4959
g54
(dp4960
sg63
g4429
sg56
(lp4961
g49
(g70
g51
NtRp4962
(dp4963
g54
(dp4964
g74
g75
ssg63
g4958
sg56
(lp4965
S'session_filename'
p4966
asbag49
(g70
g51
NtRp4967
(dp4968
g54
(dp4969
g81
g82
ssg63
g4958
sg56
(lp4970
S':'
asbag49
(g70
g51
NtRp4971
(dp4972
g54
(dp4973
sg63
g4958
sg56
(lp4974
g49
(g50
g51
NtRp4975
(dp4976
g54
(dp4977
g62
I5
ssg63
g4971
sg56
(lp4978
S'/Users/mdipierro/Dropbox/web2py/applications/plasmid/sessions/127.0.0.1-559f98a2-79dd-406f-bad1-d5c08eab6b4a'
p4979
asbasbasbag49
(g65
g51
NtRp4980
(dp4981
g54
(dp4982
sg63
g4429
sg56
(lp4983
g49
(g70
g51
NtRp4984
(dp4985
g54
(dp4986
g74
g75
ssg63
g4980
sg56
(lp4987
S'session_id'
p4988
asbag49
(g70
g51
NtRp4989
(dp4990
g54
(dp4991
g81
g82
ssg63
g4980
sg56
(lp4992
S':'
asbag49
(g70
g51
NtRp4993
(dp4994
g54
(dp4995
sg63
g4980
sg56
(lp4996
g49
(g50
g51
NtRp4997
(dp4998
g54
(dp4999
g62
I5
ssg63
g4993
sg56
(lp5000
S'127.0.0.1-559f98a2-79dd-406f-bad1-d5c08eab6b4a'
p5001
asbasbasbag49
(g65
g51
NtRp5002
(dp5003
g54
(dp5004
sg63
g4429
sg56
(lp5005
g49
(g70
g51
NtRp5006
(dp5007
g54
(dp5008
g74
g75
ssg63
g5002
sg56
(lp5009
S'session_id_name'
p5010
asbag49
(g70
g51
NtRp5011
(dp5012
g54
(dp5013
g81
g82
ssg63
g5002
sg56
(lp5014
S':'
asbag49
(g70
g51
NtRp5015
(dp5016
g54
(dp5017
sg63
g5002
sg56
(lp5018
g49
(g50
g51
NtRp5019
(dp5020
g54
(dp5021
g62
I5
ssg63
g5015
sg56
(lp5022
g4486
asbasbasbag49
(g65
g51
NtRp5023
(dp5024
g54
(dp5025
sg63
g4429
sg56
(lp5026
g49
(g70
g51
NtRp5027
(dp5028
g54
(dp5029
g74
g75
ssg63
g5023
sg56
(lp5030
S'session_locked'
p5031
asbag49
(g70
g51
NtRp5032
(dp5033
g54
(dp5034
g81
g82
ssg63
g5023
sg56
(lp5035
S':'
asbag49
(g70
g51
NtRp5036
(dp5037
g54
(dp5038
sg63
g5023
sg56
(lp5039
g49
(g50
g51
NtRp5040
(dp5041
g54
(dp5042
g62
I5
ssg63
g5036
sg56
(lp5043
g2611
asbasbasbag49
(g65
g51
NtRp5044
(dp5045
g54
(dp5046
sg63
g4429
sg56
(lp5047
g49
(g70
g51
NtRp5048
(dp5049
g54
(dp5050
g74
g75
ssg63
g5044
sg56
(lp5051
S'session_new'
p5052
asbag49
(g70
g51
NtRp5053
(dp5054
g54
(dp5055
g81
g82
ssg63
g5044
sg56
(lp5056
S':'
asbag49
(g70
g51
NtRp5057
(dp5058
g54
(dp5059
sg63
g5044
sg56
(lp5060
g49
(g50
g51
NtRp5061
(dp5062
g54
(dp5063
g62
I5
ssg63
g5057
sg56
(lp5064
g92
asbasbasbag49
(g65
g51
NtRp5065
(dp5066
g54
(dp5067
sg63
g4429
sg56
(lp5068
g49
(g70
g51
NtRp5069
(dp5070
g54
(dp5071
g74
g75
ssg63
g5065
sg56
(lp5072
S'status'
p5073
asbag49
(g70
g51
NtRp5074
(dp5075
g54
(dp5076
g81
g82
ssg63
g5065
sg56
(lp5077
S':'
asbag49
(g70
g51
NtRp5078
(dp5079
g54
(dp5080
sg63
g5065
sg56
(lp5081
g49
(g50
g51
NtRp5082
(dp5083
g54
(dp5084
g62
I5
ssg63
g5078
sg56
(lp5085
S'200'
p5086
asbasbasbag49
(g65
g51
NtRp5087
(dp5088
g54
(dp5089
sg63
g4429
sg56
(lp5090
g49
(g70
g51
NtRp5091
(dp5092
g54
(dp5093
g74
g75
ssg63
g5087
sg56
(lp5094
S'subtitle'
p5095
asbag49
(g70
g51
NtRp5096
(dp5097
g54
(dp5098
g81
g82
ssg63
g5087
sg56
(lp5099
S':'
asbag49
(g70
g51
NtRp5100
(dp5101
g54
(dp5102
sg63
g5087
sg56
(lp5103
g49
(g50
g51
NtRp5104
(dp5105
g54
(dp5106
g62
I5
ssg63
g5100
sg56
(lp5107
S'The CMS that replicates pages'
p5108
asbasbasbag49
(g65
g51
NtRp5109
(dp5110
g54
(dp5111
sg63
g4429
sg56
(lp5112
g49
(g70
g51
NtRp5113
(dp5114
g54
(dp5115
g74
g75
ssg63
g5109
sg56
(lp5116
S'title'
p5117
asbag49
(g70
g51
NtRp5118
(dp5119
g54
(dp5120
g81
g82
ssg63
g5109
sg56
(lp5121
S':'
asbag49
(g70
g51
NtRp5122
(dp5123
g54
(dp5124
sg63
g5109
sg56
(lp5125
g49
(g50
g51
NtRp5126
(dp5127
g54
(dp5128
g62
I5
ssg63
g5122
sg56
(lp5129
S'Plasmid'
p5130
asbasbasbag49
(g65
g51
NtRp5131
(dp5132
g54
(dp5133
sg63
g4429
sg56
(lp5134
g49
(g70
g51
NtRp5135
(dp5136
g54
(dp5137
g74
g75
ssg63
g5131
sg56
(lp5138
g3296
asbag49
(g70
g51
NtRp5139
(dp5140
g54
(dp5141
g81
g82
ssg63
g5131
sg56
(lp5142
S':'
asbag49
(g70
g51
NtRp5143
(dp5144
g54
(dp5145
sg63
g5131
sg56
(lp5146
g49
(g50
g51
NtRp5147
(dp5148
g54
(dp5149
g62
I5
ssg63
g5143
sg56
(lp5150
g3309
asbasbasbag49
(g65
g51
NtRp5151
(dp5152
g54
(dp5153
sg63
g4429
sg56
(lp5154
g49
(g70
g51
NtRp5155
(dp5156
g54
(dp5157
g74
g75
ssg63
g5151
sg56
(lp5158
S'view'
p5159
asbag49
(g70
g51
NtRp5160
(dp5161
g54
(dp5162
g81
g82
ssg63
g5151
sg56
(lp5163
S':'
asbag49
(g70
g51
NtRp5164
(dp5165
g54
(dp5166
sg63
g5151
sg56
(lp5167
g49
(g50
g51
NtRp5168
(dp5169
g54
(dp5170
g62
I5
ssg63
g5164
sg56
(lp5171
S'default/page.html'
p5172
asbasbasbasbasbsS'locals'
p5173
(dp5174
g2725
S'\'<!DOCTYPE html PUBLIC "-//W3C//DTD XHTML 1.0 Tra.../div> <!--end of main container-->\\n</body></html>\''
p5175
sssS'traceback'
p5176
S'Traceback (most recent call last):\n  File "/Users/mdipierro/Dropbox/web2py/gluon/restricted.py", line 204, in restricted\n    exec ccode in environment\n  File "/Users/mdipierro/Dropbox/web2py/applications/plasmid/controllers/default.py", line 109, in <module>\n  File "/Users/mdipierro/Dropbox/web2py/gluon/globals.py", line 172, in <lambda>\n    self._caller = lambda f: f()\n  File "/Users/mdipierro/Dropbox/web2py/applications/plasmid/controllers/default.py", line 67, in page\n    inject = \'<script language="javascript">alert("This is an altered copy of another page.\\nIt was made as an experimental proof of concept.\\nIf this page infringes a copyright, we will take it down.");</script>\' % URL(\'static\',\'js/inject.js\')\nTypeError: not all arguments converted during string formatting\n'
p5177
s.