(dp1
S'output'
p2
S"<type 'exceptions.AttributeError'> 'NoneType' object has no attribute 'name'"
p3
sS'layer'
p4
S'/Users/mdipierro/Dropbox/web2py/applications/inplace/controllers/default.py'
p5
sS'code'
p6
S'# -*- coding: utf-8 -*-\n# developed by Massimo Di Pierro, BSD License\n\nresponse.title = \'InPlace\'\nresponse.subtitle = \'The revolutionary CMS\'\n\n@auth.requires_login()\ndef index():\n    form=SQLFORM.factory(Field(\'url\',requires=IS_URL(),default=\'http://web2py.com\'))\n    if form.process().accepted:\n        redirect(URL(\'edit\',vars=dict(url=form.vars.url)))\n    clones = db(db.clone).select()\n    return locals()\n\n@auth.requires_login()\ndef delete():\n    db(db.clone.id==request.args(0))(db.clone.created_by==auth.user.id).delete()\n    redirect(URL(\'index\'))\n\n@auth.requires_login()\ndef edit():\n    session._unlock(response)                    \n    import urllib,re\n    print request.args(0)\n    if request.args(0)==\'post\':\n        return request.vars.value or \'\'\n    elif request.args(0)==\'store\':\n        session.new_html = session.html.split(\'<body\')[0]+\'<body>\'+request.vars.html+\'</body></html>\'\n        return \'ok\'\n    \n    url = request.vars.url\n    try:\n        html = urllib.urlopen(url).read()\n    except IOError:\n        session.flash = \'web page does not exist!\'\n        redirect(URL(\'index\'))\n    session.url = url\n    session.new_html = session.html = html\n    html = re.sub(\'\\s+[\\n]\',\'\\n\',html)\n    html = re.sub(\'>[ \\t]+<\',\'> <\',html)\n    html = re.sub(\'(src|SRC)\\s*=\\s*"/(?!/)\',\'src="\'+\'/\'.join(url.split(\'/\')[:3])+\'/\',html)\n    html = re.sub(\'(src|SRC)\\s*=\\s*"(?!(/|http))\',\'src="\'+\'/\'.join(url.split(\'/\'))+\'/\',html)\n    html = re.sub(\'(href|HREF)\\s*=\\s*"/(?!/)\',\'href="\'+\'/\'.join(url.split(\'/\')[:3])+\'/\',html)\n    html = re.sub(\'(href|HREF)\\s*=\\s*"(?!(/|http))\',\'href="\'+\'/\'.join(url.split(\'/\'))+\'/\',html)\n    html = re.sub(\'url\\(/(?!/)\',\'url(\'+\'/\'.join(url.split(\'/\')[:3])+\'/\',html)\n    html = re.sub(\'url\\((?!(/|http))\',\'url(\'+\'/\'.join(url.split(\'/\'))+\'/\',html)\n    inject = \'<script src="%s" language="javascript"></script>\' % URL(\'static\',\'js/inject.js\')\n    html = html.replace(\'</head>\',inject+\'</head>\')\n    return html\n\n@auth.requires_login()\ndef clone():\n    id = db.clone.insert(url=session.url,html=session.new_html)\n    redirect(URL(\'page\',args=id))\n\ndef page():\n    if request.args(0)==\'clone\': redirect(URL(\'index\'))\n    return db.clone(request.args(0)).html\n\ndef user():\n    return dict(form=auth())\n\ndef folder():\n    folder = db.cms_folder(request.args(0))\n    folder.path, f = [folder.name], folder.parent_folder\n    while f: folder.path, f = [A(f.name,_href=URL(\'folder\',args=f))]+folder.path, f.parent_folder\n    files = db(db.cms_file.folder==folder.id).select(orderby=db.cms_file.name)\n    folders = db(db.cms_folder.parent_folder==folder.id).select(orderby=db.cms_folder.name)\n    return locals()\n\ndef edit_file():\n    folder = db.cms_folder(request.args(0))\n    db.cms_file.folder.default=folder.id\n    db.cms_file.name.requires=IS_NOT_IN_DB(\n        db(db.cms_file.folder==folder.id),\'cms_file.name\')\n    form = SQLFORM(db.cms_file,request.args(1),deletable=True)\\\n        .process(next=URL(\'folder\',args=folder.id))\n    return locals()\n\ndef edit_folder():\n    folder = db.cms_folder(request.args(0))\n    db.cms_folder.parent_folder.default=folder.id\n    db.cms_folder.name.requires=IS_NOT_IN_DB(\n        db(db.cms_folder.parent_folder==folder.id),\'cms_folder.name\')\n    form = SQLFORM(db.cms_folder,request.args(1),deletable=True)\\\n        .process(next=URL(\'folder\',args=folder.id))\n    return locals()\n\n\nresponse._vars=response._caller(folder)\n'
p7
sS'snapshot'
p8
(dp9
S'exception'
p10
(dp11
S'__hash__'
p12
S"<method-wrapper '__hash__' of exceptions.AttributeError object at 0x28bf238>"
p13
sS'__setattr__'
p14
S"<method-wrapper '__setattr__' of exceptions.AttributeError object at 0x28bf238>"
p15
sS'__reduce_ex__'
p16
S'<built-in method __reduce_ex__ of exceptions.AttributeError object at 0x28bf238>'
p17
sS'__getslice__'
p18
S"<method-wrapper '__getslice__' of exceptions.AttributeError object at 0x28bf238>"
p19
sS'__getitem__'
p20
S"<method-wrapper '__getitem__' of exceptions.AttributeError object at 0x28bf238>"
p21
sS'__setstate__'
p22
S'<built-in method __setstate__ of exceptions.AttributeError object at 0x28bf238>'
p23
sS'__reduce__'
p24
S'<built-in method __reduce__ of exceptions.AttributeError object at 0x28bf238>'
p25
sS'__str__'
p26
S"<method-wrapper '__str__' of exceptions.AttributeError object at 0x28bf238>"
p27
sS'args'
p28
S'("\'NoneType\' object has no attribute \'name\'",)'
p29
sS'__getattribute__'
p30
S"<method-wrapper '__getattribute__' of exceptions.AttributeError object at 0x28bf238>"
p31
sS'__class__'
p32
S"<type 'exceptions.AttributeError'>"
p33
sS'__delattr__'
p34
S"<method-wrapper '__delattr__' of exceptions.AttributeError object at 0x28bf238>"
p35
sS'__repr__'
p36
S"<method-wrapper '__repr__' of exceptions.AttributeError object at 0x28bf238>"
p37
sS'__dict__'
p38
S'{}'
p39
sS'__doc__'
p40
S"'Attribute not found.'"
p41
sS'__init__'
p42
S"<method-wrapper '__init__' of exceptions.AttributeError object at 0x28bf238>"
p43
sS'__new__'
p44
S'<built-in method __new__ of type object at 0xdc140>'
p45
ssS'evalue'
p46
S"'NoneType' object has no attribute 'name'"
p47
sS'request'
p48
ccopy_reg
_reconstructor
p49
(cgluon.html
BEAUTIFY
p50
c__builtin__
object
p51
NtRp52
(dp53
S'attributes'
p54
(dp55
sS'components'
p56
(lp57
g49
(cgluon.html
TABLE
p58
g51
NtRp59
(dp60
g54
(dp61
S'level'
p62
I5
ssS'parent'
p63
Nsg56
(lp64
g49
(cgluon.html
TR
p65
g51
NtRp66
(dp67
g54
(dp68
sg63
g59
sg56
(lp69
g49
(cgluon.html
TD
p70
g51
NtRp71
(dp72
g54
(dp73
S'_style'
p74
S'font-weight:bold;vertical-align:top'
p75
ssg63
g66
sg56
(lp76
S'ajax'
p77
asbag49
(g70
g51
NtRp78
(dp79
g54
(dp80
S'_valign'
p81
S'top'
p82
ssg63
g66
sg56
(lp83
S':'
asbag49
(g70
g51
NtRp84
(dp85
g54
(dp86
sg63
g66
sg56
(lp87
g49
(g50
g51
NtRp88
(dp89
g54
(dp90
g62
I5
ssg63
g84
sg56
(lp91
S'False'
p92
asbasbasbag49
(g65
g51
NtRp93
(dp94
g54
(dp95
sg63
g59
sg56
(lp96
g49
(g70
g51
NtRp97
(dp98
g54
(dp99
g74
g75
ssg63
g93
sg56
(lp100
S'application'
p101
asbag49
(g70
g51
NtRp102
(dp103
g54
(dp104
g81
g82
ssg63
g93
sg56
(lp105
S':'
asbag49
(g70
g51
NtRp106
(dp107
g54
(dp108
sg63
g93
sg56
(lp109
g49
(g50
g51
NtRp110
(dp111
g54
(dp112
g62
I5
ssg63
g106
sg56
(lp113
S'inplace'
p114
asbasbasbag49
(g65
g51
NtRp115
(dp116
g54
(dp117
sg63
g59
sg56
(lp118
g49
(g70
g51
NtRp119
(dp120
g54
(dp121
g74
g75
ssg63
g115
sg56
(lp122
g28
asbag49
(g70
g51
NtRp123
(dp124
g54
(dp125
g81
g82
ssg63
g115
sg56
(lp126
S':'
asbag49
(g70
g51
NtRp127
(dp128
g54
(dp129
sg63
g115
sg56
(lp130
g49
(g50
g51
NtRp131
(dp132
g54
(dp133
g62
I5
ssg63
g127
sg56
(lp134
g49
(g58
g51
NtRp135
(dp136
g54
(dp137
g62
I4
ssg63
Nsg56
(lp138
g49
(g65
g51
NtRp139
(dp140
g54
(dp141
sg63
g135
sg56
(lp142
g49
(g70
g51
NtRp143
(dp144
g54
(dp145
sg63
g139
sg56
(lp146
g49
(g50
g51
NtRp147
(dp148
g54
(dp149
g62
I4
ssg63
g143
sg56
(lp150
S'0'
asbasbasbasbasbasbasbag49
(g65
g51
NtRp151
(dp152
g54
(dp153
sg63
g59
sg56
(lp154
g49
(g70
g51
NtRp155
(dp156
g54
(dp157
g74
g75
ssg63
g151
sg56
(lp158
S'body'
p159
asbag49
(g70
g51
NtRp160
(dp161
g54
(dp162
g81
g82
ssg63
g151
sg56
(lp163
S':'
asbag49
(g70
g51
NtRp164
(dp165
g54
(dp166
sg63
g151
sg56
(lp167
g49
(g50
g51
NtRp168
(dp169
g54
(dp170
g62
I5
ssg63
g164
sg56
(lp171
S'<cStringIO.StringO object at 0x1d00720>'
p172
asbasbasbag49
(g65
g51
NtRp173
(dp174
g54
(dp175
sg63
g59
sg56
(lp176
g49
(g70
g51
NtRp177
(dp178
g54
(dp179
g74
g75
ssg63
g173
sg56
(lp180
S'client'
p181
asbag49
(g70
g51
NtRp182
(dp183
g54
(dp184
g81
g82
ssg63
g173
sg56
(lp185
S':'
asbag49
(g70
g51
NtRp186
(dp187
g54
(dp188
sg63
g173
sg56
(lp189
g49
(g50
g51
NtRp190
(dp191
g54
(dp192
g62
I5
ssg63
g186
sg56
(lp193
S'127.0.0.1'
p194
asbasbasbag49
(g65
g51
NtRp195
(dp196
g54
(dp197
sg63
g59
sg56
(lp198
g49
(g70
g51
NtRp199
(dp200
g54
(dp201
g74
g75
ssg63
g195
sg56
(lp202
S'controller'
p203
asbag49
(g70
g51
NtRp204
(dp205
g54
(dp206
g81
g82
ssg63
g195
sg56
(lp207
S':'
asbag49
(g70
g51
NtRp208
(dp209
g54
(dp210
sg63
g195
sg56
(lp211
g49
(g50
g51
NtRp212
(dp213
g54
(dp214
g62
I5
ssg63
g208
sg56
(lp215
S'default'
p216
asbasbasbag49
(g65
g51
NtRp217
(dp218
g54
(dp219
sg63
g59
sg56
(lp220
g49
(g70
g51
NtRp221
(dp222
g54
(dp223
g74
g75
ssg63
g217
sg56
(lp224
S'cookies'
p225
asbag49
(g70
g51
NtRp226
(dp227
g54
(dp228
g81
g82
ssg63
g217
sg56
(lp229
S':'
asbag49
(g70
g51
NtRp230
(dp231
g54
(dp232
sg63
g217
sg56
(lp233
g49
(g50
g51
NtRp234
(dp235
g54
(dp236
g62
I5
ssg63
g230
sg56
(lp237
g49
(g58
g51
NtRp238
(dp239
g54
(dp240
g62
I4
ssg63
Nsg56
(lp241
g49
(g65
g51
NtRp242
(dp243
g54
(dp244
sg63
g238
sg56
(lp245
g49
(g70
g51
NtRp246
(dp247
g54
(dp248
g74
g75
ssg63
g242
sg56
(lp249
S'el-finder-last-finder'
p250
asbag49
(g70
g51
NtRp251
(dp252
g54
(dp253
g81
g82
ssg63
g242
sg56
(lp254
S':'
asbag49
(g70
g51
NtRp255
(dp256
g54
(dp257
sg63
g242
sg56
(lp258
g49
(g50
g51
NtRp259
(dp260
g54
(dp261
g62
I4
ssg63
g255
sg56
(lp262
g49
(g58
g51
NtRp263
(dp264
g54
(dp265
g62
I3
ssg63
Nsg56
(lp266
g49
(g65
g51
NtRp267
(dp268
g54
(dp269
sg63
g263
sg56
(lp270
g49
(g70
g51
NtRp271
(dp272
g54
(dp273
g74
g75
ssg63
g267
sg56
(lp274
S'comment'
p275
asbag49
(g70
g51
NtRp276
(dp277
g54
(dp278
g81
g82
ssg63
g267
sg56
(lp279
S':'
asbag49
(g70
g51
NtRp280
(dp281
g54
(dp282
sg63
g267
sg56
(lp283
g49
(g50
g51
NtRp284
(dp285
g54
(dp286
g62
I3
ssg63
g280
sg56
(lp287
S''
asbasbasbag49
(g65
g51
NtRp288
(dp289
g54
(dp290
sg63
g263
sg56
(lp291
g49
(g70
g51
NtRp292
(dp293
g54
(dp294
g74
g75
ssg63
g288
sg56
(lp295
S'domain'
p296
asbag49
(g70
g51
NtRp297
(dp298
g54
(dp299
g81
g82
ssg63
g288
sg56
(lp300
S':'
asbag49
(g70
g51
NtRp301
(dp302
g54
(dp303
sg63
g288
sg56
(lp304
g49
(g50
g51
NtRp305
(dp306
g54
(dp307
g62
I3
ssg63
g301
sg56
(lp308
S''
asbasbasbag49
(g65
g51
NtRp309
(dp310
g54
(dp311
sg63
g263
sg56
(lp312
g49
(g70
g51
NtRp313
(dp314
g54
(dp315
g74
g75
ssg63
g309
sg56
(lp316
S'expires'
p317
asbag49
(g70
g51
NtRp318
(dp319
g54
(dp320
g81
g82
ssg63
g309
sg56
(lp321
S':'
asbag49
(g70
g51
NtRp322
(dp323
g54
(dp324
sg63
g309
sg56
(lp325
g49
(g50
g51
NtRp326
(dp327
g54
(dp328
g62
I3
ssg63
g322
sg56
(lp329
S''
asbasbasbag49
(g65
g51
NtRp330
(dp331
g54
(dp332
sg63
g263
sg56
(lp333
g49
(g70
g51
NtRp334
(dp335
g54
(dp336
g74
g75
ssg63
g330
sg56
(lp337
S'max-age'
p338
asbag49
(g70
g51
NtRp339
(dp340
g54
(dp341
g81
g82
ssg63
g330
sg56
(lp342
S':'
asbag49
(g70
g51
NtRp343
(dp344
g54
(dp345
sg63
g330
sg56
(lp346
g49
(g50
g51
NtRp347
(dp348
g54
(dp349
g62
I3
ssg63
g343
sg56
(lp350
S''
asbasbasbag49
(g65
g51
NtRp351
(dp352
g54
(dp353
sg63
g263
sg56
(lp354
g49
(g70
g51
NtRp355
(dp356
g54
(dp357
g74
g75
ssg63
g351
sg56
(lp358
S'path'
p359
asbag49
(g70
g51
NtRp360
(dp361
g54
(dp362
g81
g82
ssg63
g351
sg56
(lp363
S':'
asbag49
(g70
g51
NtRp364
(dp365
g54
(dp366
sg63
g351
sg56
(lp367
g49
(g50
g51
NtRp368
(dp369
g54
(dp370
g62
I3
ssg63
g364
sg56
(lp371
S''
asbasbasbag49
(g65
g51
NtRp372
(dp373
g54
(dp374
sg63
g263
sg56
(lp375
g49
(g70
g51
NtRp376
(dp377
g54
(dp378
g74
g75
ssg63
g372
sg56
(lp379
S'secure'
p380
asbag49
(g70
g51
NtRp381
(dp382
g54
(dp383
g81
g82
ssg63
g372
sg56
(lp384
S':'
asbag49
(g70
g51
NtRp385
(dp386
g54
(dp387
sg63
g372
sg56
(lp388
g49
(g50
g51
NtRp389
(dp390
g54
(dp391
g62
I3
ssg63
g385
sg56
(lp392
S''
asbasbasbag49
(g65
g51
NtRp393
(dp394
g54
(dp395
sg63
g263
sg56
(lp396
g49
(g70
g51
NtRp397
(dp398
g54
(dp399
g74
g75
ssg63
g393
sg56
(lp400
S'version'
p401
asbag49
(g70
g51
NtRp402
(dp403
g54
(dp404
g81
g82
ssg63
g393
sg56
(lp405
S':'
asbag49
(g70
g51
NtRp406
(dp407
g54
(dp408
sg63
g393
sg56
(lp409
g49
(g50
g51
NtRp410
(dp411
g54
(dp412
g62
I3
ssg63
g406
sg56
(lp413
S''
asbasbasbasbasbasbasbag49
(g65
g51
NtRp414
(dp415
g54
(dp416
sg63
g238
sg56
(lp417
g49
(g70
g51
NtRp418
(dp419
g54
(dp420
g74
g75
ssg63
g414
sg56
(lp421
S'registered'
p422
asbag49
(g70
g51
NtRp423
(dp424
g54
(dp425
g81
g82
ssg63
g414
sg56
(lp426
S':'
asbag49
(g70
g51
NtRp427
(dp428
g54
(dp429
sg63
g414
sg56
(lp430
g49
(g50
g51
NtRp431
(dp432
g54
(dp433
g62
I4
ssg63
g427
sg56
(lp434
g49
(g58
g51
NtRp435
(dp436
g54
(dp437
g62
I3
ssg63
Nsg56
(lp438
g49
(g65
g51
NtRp439
(dp440
g54
(dp441
sg63
g435
sg56
(lp442
g49
(g70
g51
NtRp443
(dp444
g54
(dp445
g74
g75
ssg63
g439
sg56
(lp446
g275
asbag49
(g70
g51
NtRp447
(dp448
g54
(dp449
g81
g82
ssg63
g439
sg56
(lp450
S':'
asbag49
(g70
g51
NtRp451
(dp452
g54
(dp453
sg63
g439
sg56
(lp454
g49
(g50
g51
NtRp455
(dp456
g54
(dp457
g62
I3
ssg63
g451
sg56
(lp458
S''
asbasbasbag49
(g65
g51
NtRp459
(dp460
g54
(dp461
sg63
g435
sg56
(lp462
g49
(g70
g51
NtRp463
(dp464
g54
(dp465
g74
g75
ssg63
g459
sg56
(lp466
g296
asbag49
(g70
g51
NtRp467
(dp468
g54
(dp469
g81
g82
ssg63
g459
sg56
(lp470
S':'
asbag49
(g70
g51
NtRp471
(dp472
g54
(dp473
sg63
g459
sg56
(lp474
g49
(g50
g51
NtRp475
(dp476
g54
(dp477
g62
I3
ssg63
g471
sg56
(lp478
S''
asbasbasbag49
(g65
g51
NtRp479
(dp480
g54
(dp481
sg63
g435
sg56
(lp482
g49
(g70
g51
NtRp483
(dp484
g54
(dp485
g74
g75
ssg63
g479
sg56
(lp486
g317
asbag49
(g70
g51
NtRp487
(dp488
g54
(dp489
g81
g82
ssg63
g479
sg56
(lp490
S':'
asbag49
(g70
g51
NtRp491
(dp492
g54
(dp493
sg63
g479
sg56
(lp494
g49
(g50
g51
NtRp495
(dp496
g54
(dp497
g62
I3
ssg63
g491
sg56
(lp498
S''
asbasbasbag49
(g65
g51
NtRp499
(dp500
g54
(dp501
sg63
g435
sg56
(lp502
g49
(g70
g51
NtRp503
(dp504
g54
(dp505
g74
g75
ssg63
g499
sg56
(lp506
g338
asbag49
(g70
g51
NtRp507
(dp508
g54
(dp509
g81
g82
ssg63
g499
sg56
(lp510
S':'
asbag49
(g70
g51
NtRp511
(dp512
g54
(dp513
sg63
g499
sg56
(lp514
g49
(g50
g51
NtRp515
(dp516
g54
(dp517
g62
I3
ssg63
g511
sg56
(lp518
S''
asbasbasbag49
(g65
g51
NtRp519
(dp520
g54
(dp521
sg63
g435
sg56
(lp522
g49
(g70
g51
NtRp523
(dp524
g54
(dp525
g74
g75
ssg63
g519
sg56
(lp526
g359
asbag49
(g70
g51
NtRp527
(dp528
g54
(dp529
g81
g82
ssg63
g519
sg56
(lp530
S':'
asbag49
(g70
g51
NtRp531
(dp532
g54
(dp533
sg63
g519
sg56
(lp534
g49
(g50
g51
NtRp535
(dp536
g54
(dp537
g62
I3
ssg63
g531
sg56
(lp538
S''
asbasbasbag49
(g65
g51
NtRp539
(dp540
g54
(dp541
sg63
g435
sg56
(lp542
g49
(g70
g51
NtRp543
(dp544
g54
(dp545
g74
g75
ssg63
g539
sg56
(lp546
g380
asbag49
(g70
g51
NtRp547
(dp548
g54
(dp549
g81
g82
ssg63
g539
sg56
(lp550
S':'
asbag49
(g70
g51
NtRp551
(dp552
g54
(dp553
sg63
g539
sg56
(lp554
g49
(g50
g51
NtRp555
(dp556
g54
(dp557
g62
I3
ssg63
g551
sg56
(lp558
S''
asbasbasbag49
(g65
g51
NtRp559
(dp560
g54
(dp561
sg63
g435
sg56
(lp562
g49
(g70
g51
NtRp563
(dp564
g54
(dp565
g74
g75
ssg63
g559
sg56
(lp566
g401
asbag49
(g70
g51
NtRp567
(dp568
g54
(dp569
g81
g82
ssg63
g559
sg56
(lp570
S':'
asbag49
(g70
g51
NtRp571
(dp572
g54
(dp573
sg63
g559
sg56
(lp574
g49
(g50
g51
NtRp575
(dp576
g54
(dp577
g62
I3
ssg63
g571
sg56
(lp578
S''
asbasbasbasbasbasbasbag49
(g65
g51
NtRp579
(dp580
g54
(dp581
sg63
g238
sg56
(lp582
g49
(g70
g51
NtRp583
(dp584
g54
(dp585
g74
g75
ssg63
g579
sg56
(lp586
S's_nr'
p587
asbag49
(g70
g51
NtRp588
(dp589
g54
(dp590
g81
g82
ssg63
g579
sg56
(lp591
S':'
asbag49
(g70
g51
NtRp592
(dp593
g54
(dp594
sg63
g579
sg56
(lp595
g49
(g50
g51
NtRp596
(dp597
g54
(dp598
g62
I4
ssg63
g592
sg56
(lp599
g49
(g58
g51
NtRp600
(dp601
g54
(dp602
g62
I3
ssg63
Nsg56
(lp603
g49
(g65
g51
NtRp604
(dp605
g54
(dp606
sg63
g600
sg56
(lp607
g49
(g70
g51
NtRp608
(dp609
g54
(dp610
g74
g75
ssg63
g604
sg56
(lp611
g275
asbag49
(g70
g51
NtRp612
(dp613
g54
(dp614
g81
g82
ssg63
g604
sg56
(lp615
S':'
asbag49
(g70
g51
NtRp616
(dp617
g54
(dp618
sg63
g604
sg56
(lp619
g49
(g50
g51
NtRp620
(dp621
g54
(dp622
g62
I3
ssg63
g616
sg56
(lp623
S''
asbasbasbag49
(g65
g51
NtRp624
(dp625
g54
(dp626
sg63
g600
sg56
(lp627
g49
(g70
g51
NtRp628
(dp629
g54
(dp630
g74
g75
ssg63
g624
sg56
(lp631
g296
asbag49
(g70
g51
NtRp632
(dp633
g54
(dp634
g81
g82
ssg63
g624
sg56
(lp635
S':'
asbag49
(g70
g51
NtRp636
(dp637
g54
(dp638
sg63
g624
sg56
(lp639
g49
(g50
g51
NtRp640
(dp641
g54
(dp642
g62
I3
ssg63
g636
sg56
(lp643
S''
asbasbasbag49
(g65
g51
NtRp644
(dp645
g54
(dp646
sg63
g600
sg56
(lp647
g49
(g70
g51
NtRp648
(dp649
g54
(dp650
g74
g75
ssg63
g644
sg56
(lp651
g317
asbag49
(g70
g51
NtRp652
(dp653
g54
(dp654
g81
g82
ssg63
g644
sg56
(lp655
S':'
asbag49
(g70
g51
NtRp656
(dp657
g54
(dp658
sg63
g644
sg56
(lp659
g49
(g50
g51
NtRp660
(dp661
g54
(dp662
g62
I3
ssg63
g656
sg56
(lp663
S''
asbasbasbag49
(g65
g51
NtRp664
(dp665
g54
(dp666
sg63
g600
sg56
(lp667
g49
(g70
g51
NtRp668
(dp669
g54
(dp670
g74
g75
ssg63
g664
sg56
(lp671
g338
asbag49
(g70
g51
NtRp672
(dp673
g54
(dp674
g81
g82
ssg63
g664
sg56
(lp675
S':'
asbag49
(g70
g51
NtRp676
(dp677
g54
(dp678
sg63
g664
sg56
(lp679
g49
(g50
g51
NtRp680
(dp681
g54
(dp682
g62
I3
ssg63
g676
sg56
(lp683
S''
asbasbasbag49
(g65
g51
NtRp684
(dp685
g54
(dp686
sg63
g600
sg56
(lp687
g49
(g70
g51
NtRp688
(dp689
g54
(dp690
g74
g75
ssg63
g684
sg56
(lp691
g359
asbag49
(g70
g51
NtRp692
(dp693
g54
(dp694
g81
g82
ssg63
g684
sg56
(lp695
S':'
asbag49
(g70
g51
NtRp696
(dp697
g54
(dp698
sg63
g684
sg56
(lp699
g49
(g50
g51
NtRp700
(dp701
g54
(dp702
g62
I3
ssg63
g696
sg56
(lp703
S''
asbasbasbag49
(g65
g51
NtRp704
(dp705
g54
(dp706
sg63
g600
sg56
(lp707
g49
(g70
g51
NtRp708
(dp709
g54
(dp710
g74
g75
ssg63
g704
sg56
(lp711
g380
asbag49
(g70
g51
NtRp712
(dp713
g54
(dp714
g81
g82
ssg63
g704
sg56
(lp715
S':'
asbag49
(g70
g51
NtRp716
(dp717
g54
(dp718
sg63
g704
sg56
(lp719
g49
(g50
g51
NtRp720
(dp721
g54
(dp722
g62
I3
ssg63
g716
sg56
(lp723
S''
asbasbasbag49
(g65
g51
NtRp724
(dp725
g54
(dp726
sg63
g600
sg56
(lp727
g49
(g70
g51
NtRp728
(dp729
g54
(dp730
g74
g75
ssg63
g724
sg56
(lp731
g401
asbag49
(g70
g51
NtRp732
(dp733
g54
(dp734
g81
g82
ssg63
g724
sg56
(lp735
S':'
asbag49
(g70
g51
NtRp736
(dp737
g54
(dp738
sg63
g724
sg56
(lp739
g49
(g50
g51
NtRp740
(dp741
g54
(dp742
g62
I3
ssg63
g736
sg56
(lp743
S''
asbasbasbasbasbasbasbag49
(g65
g51
NtRp744
(dp745
g54
(dp746
sg63
g238
sg56
(lp747
g49
(g70
g51
NtRp748
(dp749
g54
(dp750
g74
g75
ssg63
g744
sg56
(lp751
S'session_id_admin'
p752
asbag49
(g70
g51
NtRp753
(dp754
g54
(dp755
g81
g82
ssg63
g744
sg56
(lp756
S':'
asbag49
(g70
g51
NtRp757
(dp758
g54
(dp759
sg63
g744
sg56
(lp760
g49
(g50
g51
NtRp761
(dp762
g54
(dp763
g62
I4
ssg63
g757
sg56
(lp764
g49
(g58
g51
NtRp765
(dp766
g54
(dp767
g62
I3
ssg63
Nsg56
(lp768
g49
(g65
g51
NtRp769
(dp770
g54
(dp771
sg63
g765
sg56
(lp772
g49
(g70
g51
NtRp773
(dp774
g54
(dp775
g74
g75
ssg63
g769
sg56
(lp776
g275
asbag49
(g70
g51
NtRp777
(dp778
g54
(dp779
g81
g82
ssg63
g769
sg56
(lp780
S':'
asbag49
(g70
g51
NtRp781
(dp782
g54
(dp783
sg63
g769
sg56
(lp784
g49
(g50
g51
NtRp785
(dp786
g54
(dp787
g62
I3
ssg63
g781
sg56
(lp788
S''
asbasbasbag49
(g65
g51
NtRp789
(dp790
g54
(dp791
sg63
g765
sg56
(lp792
g49
(g70
g51
NtRp793
(dp794
g54
(dp795
g74
g75
ssg63
g789
sg56
(lp796
g296
asbag49
(g70
g51
NtRp797
(dp798
g54
(dp799
g81
g82
ssg63
g789
sg56
(lp800
S':'
asbag49
(g70
g51
NtRp801
(dp802
g54
(dp803
sg63
g789
sg56
(lp804
g49
(g50
g51
NtRp805
(dp806
g54
(dp807
g62
I3
ssg63
g801
sg56
(lp808
S''
asbasbasbag49
(g65
g51
NtRp809
(dp810
g54
(dp811
sg63
g765
sg56
(lp812
g49
(g70
g51
NtRp813
(dp814
g54
(dp815
g74
g75
ssg63
g809
sg56
(lp816
g317
asbag49
(g70
g51
NtRp817
(dp818
g54
(dp819
g81
g82
ssg63
g809
sg56
(lp820
S':'
asbag49
(g70
g51
NtRp821
(dp822
g54
(dp823
sg63
g809
sg56
(lp824
g49
(g50
g51
NtRp825
(dp826
g54
(dp827
g62
I3
ssg63
g821
sg56
(lp828
S''
asbasbasbag49
(g65
g51
NtRp829
(dp830
g54
(dp831
sg63
g765
sg56
(lp832
g49
(g70
g51
NtRp833
(dp834
g54
(dp835
g74
g75
ssg63
g829
sg56
(lp836
g338
asbag49
(g70
g51
NtRp837
(dp838
g54
(dp839
g81
g82
ssg63
g829
sg56
(lp840
S':'
asbag49
(g70
g51
NtRp841
(dp842
g54
(dp843
sg63
g829
sg56
(lp844
g49
(g50
g51
NtRp845
(dp846
g54
(dp847
g62
I3
ssg63
g841
sg56
(lp848
S''
asbasbasbag49
(g65
g51
NtRp849
(dp850
g54
(dp851
sg63
g765
sg56
(lp852
g49
(g70
g51
NtRp853
(dp854
g54
(dp855
g74
g75
ssg63
g849
sg56
(lp856
g359
asbag49
(g70
g51
NtRp857
(dp858
g54
(dp859
g81
g82
ssg63
g849
sg56
(lp860
S':'
asbag49
(g70
g51
NtRp861
(dp862
g54
(dp863
sg63
g849
sg56
(lp864
g49
(g50
g51
NtRp865
(dp866
g54
(dp867
g62
I3
ssg63
g861
sg56
(lp868
S''
asbasbasbag49
(g65
g51
NtRp869
(dp870
g54
(dp871
sg63
g765
sg56
(lp872
g49
(g70
g51
NtRp873
(dp874
g54
(dp875
g74
g75
ssg63
g869
sg56
(lp876
g380
asbag49
(g70
g51
NtRp877
(dp878
g54
(dp879
g81
g82
ssg63
g869
sg56
(lp880
S':'
asbag49
(g70
g51
NtRp881
(dp882
g54
(dp883
sg63
g869
sg56
(lp884
g49
(g50
g51
NtRp885
(dp886
g54
(dp887
g62
I3
ssg63
g881
sg56
(lp888
S''
asbasbasbag49
(g65
g51
NtRp889
(dp890
g54
(dp891
sg63
g765
sg56
(lp892
g49
(g70
g51
NtRp893
(dp894
g54
(dp895
g74
g75
ssg63
g889
sg56
(lp896
g401
asbag49
(g70
g51
NtRp897
(dp898
g54
(dp899
g81
g82
ssg63
g889
sg56
(lp900
S':'
asbag49
(g70
g51
NtRp901
(dp902
g54
(dp903
sg63
g889
sg56
(lp904
g49
(g50
g51
NtRp905
(dp906
g54
(dp907
g62
I3
ssg63
g901
sg56
(lp908
S''
asbasbasbasbasbasbasbag49
(g65
g51
NtRp909
(dp910
g54
(dp911
sg63
g238
sg56
(lp912
g49
(g70
g51
NtRp913
(dp914
g54
(dp915
g74
g75
ssg63
g909
sg56
(lp916
S'session_id_cms'
p917
asbag49
(g70
g51
NtRp918
(dp919
g54
(dp920
g81
g82
ssg63
g909
sg56
(lp921
S':'
asbag49
(g70
g51
NtRp922
(dp923
g54
(dp924
sg63
g909
sg56
(lp925
g49
(g50
g51
NtRp926
(dp927
g54
(dp928
g62
I4
ssg63
g922
sg56
(lp929
g49
(g58
g51
NtRp930
(dp931
g54
(dp932
g62
I3
ssg63
Nsg56
(lp933
g49
(g65
g51
NtRp934
(dp935
g54
(dp936
sg63
g930
sg56
(lp937
g49
(g70
g51
NtRp938
(dp939
g54
(dp940
g74
g75
ssg63
g934
sg56
(lp941
g275
asbag49
(g70
g51
NtRp942
(dp943
g54
(dp944
g81
g82
ssg63
g934
sg56
(lp945
S':'
asbag49
(g70
g51
NtRp946
(dp947
g54
(dp948
sg63
g934
sg56
(lp949
g49
(g50
g51
NtRp950
(dp951
g54
(dp952
g62
I3
ssg63
g946
sg56
(lp953
S''
asbasbasbag49
(g65
g51
NtRp954
(dp955
g54
(dp956
sg63
g930
sg56
(lp957
g49
(g70
g51
NtRp958
(dp959
g54
(dp960
g74
g75
ssg63
g954
sg56
(lp961
g296
asbag49
(g70
g51
NtRp962
(dp963
g54
(dp964
g81
g82
ssg63
g954
sg56
(lp965
S':'
asbag49
(g70
g51
NtRp966
(dp967
g54
(dp968
sg63
g954
sg56
(lp969
g49
(g50
g51
NtRp970
(dp971
g54
(dp972
g62
I3
ssg63
g966
sg56
(lp973
S''
asbasbasbag49
(g65
g51
NtRp974
(dp975
g54
(dp976
sg63
g930
sg56
(lp977
g49
(g70
g51
NtRp978
(dp979
g54
(dp980
g74
g75
ssg63
g974
sg56
(lp981
g317
asbag49
(g70
g51
NtRp982
(dp983
g54
(dp984
g81
g82
ssg63
g974
sg56
(lp985
S':'
asbag49
(g70
g51
NtRp986
(dp987
g54
(dp988
sg63
g974
sg56
(lp989
g49
(g50
g51
NtRp990
(dp991
g54
(dp992
g62
I3
ssg63
g986
sg56
(lp993
S''
asbasbasbag49
(g65
g51
NtRp994
(dp995
g54
(dp996
sg63
g930
sg56
(lp997
g49
(g70
g51
NtRp998
(dp999
g54
(dp1000
g74
g75
ssg63
g994
sg56
(lp1001
g338
asbag49
(g70
g51
NtRp1002
(dp1003
g54
(dp1004
g81
g82
ssg63
g994
sg56
(lp1005
S':'
asbag49
(g70
g51
NtRp1006
(dp1007
g54
(dp1008
sg63
g994
sg56
(lp1009
g49
(g50
g51
NtRp1010
(dp1011
g54
(dp1012
g62
I3
ssg63
g1006
sg56
(lp1013
S''
asbasbasbag49
(g65
g51
NtRp1014
(dp1015
g54
(dp1016
sg63
g930
sg56
(lp1017
g49
(g70
g51
NtRp1018
(dp1019
g54
(dp1020
g74
g75
ssg63
g1014
sg56
(lp1021
g359
asbag49
(g70
g51
NtRp1022
(dp1023
g54
(dp1024
g81
g82
ssg63
g1014
sg56
(lp1025
S':'
asbag49
(g70
g51
NtRp1026
(dp1027
g54
(dp1028
sg63
g1014
sg56
(lp1029
g49
(g50
g51
NtRp1030
(dp1031
g54
(dp1032
g62
I3
ssg63
g1026
sg56
(lp1033
S''
asbasbasbag49
(g65
g51
NtRp1034
(dp1035
g54
(dp1036
sg63
g930
sg56
(lp1037
g49
(g70
g51
NtRp1038
(dp1039
g54
(dp1040
g74
g75
ssg63
g1034
sg56
(lp1041
g380
asbag49
(g70
g51
NtRp1042
(dp1043
g54
(dp1044
g81
g82
ssg63
g1034
sg56
(lp1045
S':'
asbag49
(g70
g51
NtRp1046
(dp1047
g54
(dp1048
sg63
g1034
sg56
(lp1049
g49
(g50
g51
NtRp1050
(dp1051
g54
(dp1052
g62
I3
ssg63
g1046
sg56
(lp1053
S''
asbasbasbag49
(g65
g51
NtRp1054
(dp1055
g54
(dp1056
sg63
g930
sg56
(lp1057
g49
(g70
g51
NtRp1058
(dp1059
g54
(dp1060
g74
g75
ssg63
g1054
sg56
(lp1061
g401
asbag49
(g70
g51
NtRp1062
(dp1063
g54
(dp1064
g81
g82
ssg63
g1054
sg56
(lp1065
S':'
asbag49
(g70
g51
NtRp1066
(dp1067
g54
(dp1068
sg63
g1054
sg56
(lp1069
g49
(g50
g51
NtRp1070
(dp1071
g54
(dp1072
g62
I3
ssg63
g1066
sg56
(lp1073
S''
asbasbasbasbasbasbasbag49
(g65
g51
NtRp1074
(dp1075
g54
(dp1076
sg63
g238
sg56
(lp1077
g49
(g70
g51
NtRp1078
(dp1079
g54
(dp1080
g74
g75
ssg63
g1074
sg56
(lp1081
S'session_id_inplace'
p1082
asbag49
(g70
g51
NtRp1083
(dp1084
g54
(dp1085
g81
g82
ssg63
g1074
sg56
(lp1086
S':'
asbag49
(g70
g51
NtRp1087
(dp1088
g54
(dp1089
sg63
g1074
sg56
(lp1090
g49
(g50
g51
NtRp1091
(dp1092
g54
(dp1093
g62
I4
ssg63
g1087
sg56
(lp1094
g49
(g58
g51
NtRp1095
(dp1096
g54
(dp1097
g62
I3
ssg63
Nsg56
(lp1098
g49
(g65
g51
NtRp1099
(dp1100
g54
(dp1101
sg63
g1095
sg56
(lp1102
g49
(g70
g51
NtRp1103
(dp1104
g54
(dp1105
g74
g75
ssg63
g1099
sg56
(lp1106
g275
asbag49
(g70
g51
NtRp1107
(dp1108
g54
(dp1109
g81
g82
ssg63
g1099
sg56
(lp1110
S':'
asbag49
(g70
g51
NtRp1111
(dp1112
g54
(dp1113
sg63
g1099
sg56
(lp1114
g49
(g50
g51
NtRp1115
(dp1116
g54
(dp1117
g62
I3
ssg63
g1111
sg56
(lp1118
S''
asbasbasbag49
(g65
g51
NtRp1119
(dp1120
g54
(dp1121
sg63
g1095
sg56
(lp1122
g49
(g70
g51
NtRp1123
(dp1124
g54
(dp1125
g74
g75
ssg63
g1119
sg56
(lp1126
g296
asbag49
(g70
g51
NtRp1127
(dp1128
g54
(dp1129
g81
g82
ssg63
g1119
sg56
(lp1130
S':'
asbag49
(g70
g51
NtRp1131
(dp1132
g54
(dp1133
sg63
g1119
sg56
(lp1134
g49
(g50
g51
NtRp1135
(dp1136
g54
(dp1137
g62
I3
ssg63
g1131
sg56
(lp1138
S''
asbasbasbag49
(g65
g51
NtRp1139
(dp1140
g54
(dp1141
sg63
g1095
sg56
(lp1142
g49
(g70
g51
NtRp1143
(dp1144
g54
(dp1145
g74
g75
ssg63
g1139
sg56
(lp1146
g317
asbag49
(g70
g51
NtRp1147
(dp1148
g54
(dp1149
g81
g82
ssg63
g1139
sg56
(lp1150
S':'
asbag49
(g70
g51
NtRp1151
(dp1152
g54
(dp1153
sg63
g1139
sg56
(lp1154
g49
(g50
g51
NtRp1155
(dp1156
g54
(dp1157
g62
I3
ssg63
g1151
sg56
(lp1158
S''
asbasbasbag49
(g65
g51
NtRp1159
(dp1160
g54
(dp1161
sg63
g1095
sg56
(lp1162
g49
(g70
g51
NtRp1163
(dp1164
g54
(dp1165
g74
g75
ssg63
g1159
sg56
(lp1166
g338
asbag49
(g70
g51
NtRp1167
(dp1168
g54
(dp1169
g81
g82
ssg63
g1159
sg56
(lp1170
S':'
asbag49
(g70
g51
NtRp1171
(dp1172
g54
(dp1173
sg63
g1159
sg56
(lp1174
g49
(g50
g51
NtRp1175
(dp1176
g54
(dp1177
g62
I3
ssg63
g1171
sg56
(lp1178
S''
asbasbasbag49
(g65
g51
NtRp1179
(dp1180
g54
(dp1181
sg63
g1095
sg56
(lp1182
g49
(g70
g51
NtRp1183
(dp1184
g54
(dp1185
g74
g75
ssg63
g1179
sg56
(lp1186
g359
asbag49
(g70
g51
NtRp1187
(dp1188
g54
(dp1189
g81
g82
ssg63
g1179
sg56
(lp1190
S':'
asbag49
(g70
g51
NtRp1191
(dp1192
g54
(dp1193
sg63
g1179
sg56
(lp1194
g49
(g50
g51
NtRp1195
(dp1196
g54
(dp1197
g62
I3
ssg63
g1191
sg56
(lp1198
S''
asbasbasbag49
(g65
g51
NtRp1199
(dp1200
g54
(dp1201
sg63
g1095
sg56
(lp1202
g49
(g70
g51
NtRp1203
(dp1204
g54
(dp1205
g74
g75
ssg63
g1199
sg56
(lp1206
g380
asbag49
(g70
g51
NtRp1207
(dp1208
g54
(dp1209
g81
g82
ssg63
g1199
sg56
(lp1210
S':'
asbag49
(g70
g51
NtRp1211
(dp1212
g54
(dp1213
sg63
g1199
sg56
(lp1214
g49
(g50
g51
NtRp1215
(dp1216
g54
(dp1217
g62
I3
ssg63
g1211
sg56
(lp1218
S''
asbasbasbag49
(g65
g51
NtRp1219
(dp1220
g54
(dp1221
sg63
g1095
sg56
(lp1222
g49
(g70
g51
NtRp1223
(dp1224
g54
(dp1225
g74
g75
ssg63
g1219
sg56
(lp1226
g401
asbag49
(g70
g51
NtRp1227
(dp1228
g54
(dp1229
g81
g82
ssg63
g1219
sg56
(lp1230
S':'
asbag49
(g70
g51
NtRp1231
(dp1232
g54
(dp1233
sg63
g1219
sg56
(lp1234
g49
(g50
g51
NtRp1235
(dp1236
g54
(dp1237
g62
I3
ssg63
g1231
sg56
(lp1238
S''
asbasbasbasbasbasbasbasbasbasbasbag49
(g65
g51
NtRp1239
(dp1240
g54
(dp1241
sg63
g59
sg56
(lp1242
g49
(g70
g51
NtRp1243
(dp1244
g54
(dp1245
g74
g75
ssg63
g1239
sg56
(lp1246
S'env'
p1247
asbag49
(g70
g51
NtRp1248
(dp1249
g54
(dp1250
g81
g82
ssg63
g1239
sg56
(lp1251
S':'
asbag49
(g70
g51
NtRp1252
(dp1253
g54
(dp1254
sg63
g1239
sg56
(lp1255
g49
(g50
g51
NtRp1256
(dp1257
g54
(dp1258
g62
I5
ssg63
g1252
sg56
(lp1259
g49
(g58
g51
NtRp1260
(dp1261
g54
(dp1262
g62
I4
ssg63
Nsg56
(lp1263
g49
(g65
g51
NtRp1264
(dp1265
g54
(dp1266
sg63
g1260
sg56
(lp1267
g49
(g70
g51
NtRp1268
(dp1269
g54
(dp1270
g74
g75
ssg63
g1264
sg56
(lp1271
S'app_folders'
p1272
asbag49
(g70
g51
NtRp1273
(dp1274
g54
(dp1275
g81
g82
ssg63
g1264
sg56
(lp1276
S':'
asbag49
(g70
g51
NtRp1277
(dp1278
g54
(dp1279
sg63
g1264
sg56
(lp1280
g49
(g50
g51
NtRp1281
(dp1282
g54
(dp1283
g62
I4
ssg63
g1277
sg56
(lp1284
S"set(['/Users/mdipierro/Dropbox/web2py/applications/inplace/', '/Users/mdipierro/Dropbox/web2py/applications/cms/', '/Users/mdipierro/Dropbox/web2py/applications/admin/'])"
p1285
asbasbasbag49
(g65
g51
NtRp1286
(dp1287
g54
(dp1288
sg63
g1260
sg56
(lp1289
g49
(g70
g51
NtRp1290
(dp1291
g54
(dp1292
g74
g75
ssg63
g1286
sg56
(lp1293
S'applications_parent'
p1294
asbag49
(g70
g51
NtRp1295
(dp1296
g54
(dp1297
g81
g82
ssg63
g1286
sg56
(lp1298
S':'
asbag49
(g70
g51
NtRp1299
(dp1300
g54
(dp1301
sg63
g1286
sg56
(lp1302
g49
(g50
g51
NtRp1303
(dp1304
g54
(dp1305
g62
I4
ssg63
g1299
sg56
(lp1306
S'/Users/mdipierro/Dropbox/web2py'
p1307
asbasbasbag49
(g65
g51
NtRp1308
(dp1309
g54
(dp1310
sg63
g1260
sg56
(lp1311
g49
(g70
g51
NtRp1312
(dp1313
g54
(dp1314
g74
g75
ssg63
g1308
sg56
(lp1315
S'cmd_args'
p1316
asbag49
(g70
g51
NtRp1317
(dp1318
g54
(dp1319
g81
g82
ssg63
g1308
sg56
(lp1320
S':'
asbag49
(g70
g51
NtRp1321
(dp1322
g54
(dp1323
sg63
g1308
sg56
(lp1324
g49
(g50
g51
NtRp1325
(dp1326
g54
(dp1327
g62
I4
ssg63
g1321
sg56
(lp1328
g49
(g58
g51
NtRp1329
(dp1330
g54
(dp1331
g62
I3
ssg63
Nsg56
(lp1332
sbasbasbasbag49
(g65
g51
NtRp1333
(dp1334
g54
(dp1335
sg63
g1260
sg56
(lp1336
g49
(g70
g51
NtRp1337
(dp1338
g54
(dp1339
g74
g75
ssg63
g1333
sg56
(lp1340
S'cmd_options'
p1341
asbag49
(g70
g51
NtRp1342
(dp1343
g54
(dp1344
g81
g82
ssg63
g1333
sg56
(lp1345
S':'
asbag49
(g70
g51
NtRp1346
(dp1347
g54
(dp1348
sg63
g1333
sg56
(lp1349
g49
(g50
g51
NtRp1350
(dp1351
g54
(dp1352
g62
I4
ssg63
g1346
sg56
(lp1353
S"<Values at 0x153a378: {'verbose': False, 'ip': '127.0.0.1', 'shutdown_timeout': 5, 'taskbar': False, 'nocron': False, 'pid_filename': 'httpserver.pid', 'maxthreads': None, 'softcron': False, 'server_name': 'massimo-di-pierros-macbook-2.local', 'bpython': False, 'nogui': False, 'port': 8000, 'extcron': False, 'debuglevel': 30, 'test': None, 'folder': '/Users/mdipierro/Dropbox/web2py', 'config': '', 'import_models': False, 'winservice': '', 'shell': None, 'run': '', 'log_filename': 'httpserver.log', 'args': [''], 'socket_timeout': 1, 'ssl_ca_certificate': None, 'scheduler': None, 'profiler_filename': None, 'ssl_private_key': '', 'password': 'hello', 'request_queue_size': 5, 'ssl_certificate': '', 'cronjob': False, 'numthreads': None, 'quiet': False, 'interfaces': None, 'minthreads': None, 'timeout': 10, 'plain': False, 'nobanner': False}>"
p1354
asbasbasbag49
(g65
g51
NtRp1355
(dp1356
g54
(dp1357
sg63
g1260
sg56
(lp1358
g49
(g70
g51
NtRp1359
(dp1360
g54
(dp1361
g74
g75
ssg63
g1355
sg56
(lp1362
S'db_sessions'
p1363
asbag49
(g70
g51
NtRp1364
(dp1365
g54
(dp1366
g81
g82
ssg63
g1355
sg56
(lp1367
S':'
asbag49
(g70
g51
NtRp1368
(dp1369
g54
(dp1370
sg63
g1355
sg56
(lp1371
g49
(g50
g51
NtRp1372
(dp1373
g54
(dp1374
g62
I4
ssg63
g1368
sg56
(lp1375
S'set([])'
p1376
asbasbasbag49
(g65
g51
NtRp1377
(dp1378
g54
(dp1379
sg63
g1260
sg56
(lp1380
g49
(g70
g51
NtRp1381
(dp1382
g54
(dp1383
g74
g75
ssg63
g1377
sg56
(lp1384
S'debugging'
p1385
asbag49
(g70
g51
NtRp1386
(dp1387
g54
(dp1388
g81
g82
ssg63
g1377
sg56
(lp1389
S':'
asbag49
(g70
g51
NtRp1390
(dp1391
g54
(dp1392
sg63
g1377
sg56
(lp1393
g49
(g50
g51
NtRp1394
(dp1395
g54
(dp1396
g62
I4
ssg63
g1390
sg56
(lp1397
g92
asbasbasbag49
(g65
g51
NtRp1398
(dp1399
g54
(dp1400
sg63
g1260
sg56
(lp1401
g49
(g70
g51
NtRp1402
(dp1403
g54
(dp1404
g74
g75
ssg63
g1398
sg56
(lp1405
S'gluon_parent'
p1406
asbag49
(g70
g51
NtRp1407
(dp1408
g54
(dp1409
g81
g82
ssg63
g1398
sg56
(lp1410
S':'
asbag49
(g70
g51
NtRp1411
(dp1412
g54
(dp1413
sg63
g1398
sg56
(lp1414
g49
(g50
g51
NtRp1415
(dp1416
g54
(dp1417
g62
I4
ssg63
g1411
sg56
(lp1418
S'/Users/mdipierro/Dropbox/web2py'
p1419
asbasbasbag49
(g65
g51
NtRp1420
(dp1421
g54
(dp1422
sg63
g1260
sg56
(lp1423
g49
(g70
g51
NtRp1424
(dp1425
g54
(dp1426
g74
g75
ssg63
g1420
sg56
(lp1427
S'http_accept'
p1428
asbag49
(g70
g51
NtRp1429
(dp1430
g54
(dp1431
g81
g82
ssg63
g1420
sg56
(lp1432
S':'
asbag49
(g70
g51
NtRp1433
(dp1434
g54
(dp1435
sg63
g1420
sg56
(lp1436
g49
(g50
g51
NtRp1437
(dp1438
g54
(dp1439
g62
I4
ssg63
g1433
sg56
(lp1440
S'text/html,application/xhtml+xml,application/xml;q=0.9,*/*;q=0.8'
p1441
asbasbasbag49
(g65
g51
NtRp1442
(dp1443
g54
(dp1444
sg63
g1260
sg56
(lp1445
g49
(g70
g51
NtRp1446
(dp1447
g54
(dp1448
g74
g75
ssg63
g1442
sg56
(lp1449
S'http_accept_charset'
p1450
asbag49
(g70
g51
NtRp1451
(dp1452
g54
(dp1453
g81
g82
ssg63
g1442
sg56
(lp1454
S':'
asbag49
(g70
g51
NtRp1455
(dp1456
g54
(dp1457
sg63
g1442
sg56
(lp1458
g49
(g50
g51
NtRp1459
(dp1460
g54
(dp1461
g62
I4
ssg63
g1455
sg56
(lp1462
S'ISO-8859-1,utf-8;q=0.7,*;q=0.3'
p1463
asbasbasbag49
(g65
g51
NtRp1464
(dp1465
g54
(dp1466
sg63
g1260
sg56
(lp1467
g49
(g70
g51
NtRp1468
(dp1469
g54
(dp1470
g74
g75
ssg63
g1464
sg56
(lp1471
S'http_accept_encoding'
p1472
asbag49
(g70
g51
NtRp1473
(dp1474
g54
(dp1475
g81
g82
ssg63
g1464
sg56
(lp1476
S':'
asbag49
(g70
g51
NtRp1477
(dp1478
g54
(dp1479
sg63
g1464
sg56
(lp1480
g49
(g50
g51
NtRp1481
(dp1482
g54
(dp1483
g62
I4
ssg63
g1477
sg56
(lp1484
S'gzip,deflate,sdch'
p1485
asbasbasbag49
(g65
g51
NtRp1486
(dp1487
g54
(dp1488
sg63
g1260
sg56
(lp1489
g49
(g70
g51
NtRp1490
(dp1491
g54
(dp1492
g74
g75
ssg63
g1486
sg56
(lp1493
S'http_accept_language'
p1494
asbag49
(g70
g51
NtRp1495
(dp1496
g54
(dp1497
g81
g82
ssg63
g1486
sg56
(lp1498
S':'
asbag49
(g70
g51
NtRp1499
(dp1500
g54
(dp1501
sg63
g1486
sg56
(lp1502
g49
(g50
g51
NtRp1503
(dp1504
g54
(dp1505
g62
I4
ssg63
g1499
sg56
(lp1506
S'en,en-US;q=0.8,de-DE;q=0.6,de;q=0.4,it-IT;q=0.2,it;q=0.2,ja;q=0.2'
p1507
asbasbasbag49
(g65
g51
NtRp1508
(dp1509
g54
(dp1510
sg63
g1260
sg56
(lp1511
g49
(g70
g51
NtRp1512
(dp1513
g54
(dp1514
g74
g75
ssg63
g1508
sg56
(lp1515
S'http_connection'
p1516
asbag49
(g70
g51
NtRp1517
(dp1518
g54
(dp1519
g81
g82
ssg63
g1508
sg56
(lp1520
S':'
asbag49
(g70
g51
NtRp1521
(dp1522
g54
(dp1523
sg63
g1508
sg56
(lp1524
g49
(g50
g51
NtRp1525
(dp1526
g54
(dp1527
g62
I4
ssg63
g1521
sg56
(lp1528
S'keep-alive'
p1529
asbasbasbag49
(g65
g51
NtRp1530
(dp1531
g54
(dp1532
sg63
g1260
sg56
(lp1533
g49
(g70
g51
NtRp1534
(dp1535
g54
(dp1536
g74
g75
ssg63
g1530
sg56
(lp1537
S'http_cookie'
p1538
asbag49
(g70
g51
NtRp1539
(dp1540
g54
(dp1541
g81
g82
ssg63
g1530
sg56
(lp1542
S':'
asbag49
(g70
g51
NtRp1543
(dp1544
g54
(dp1545
sg63
g1530
sg56
(lp1546
g49
(g50
g51
NtRp1547
(dp1548
g54
(dp1549
g62
I4
ssg63
g1543
sg56
(lp1550
S'registered=yes; __utma_a2a=1369166446.1335515545.1303958619.1316700181.1318215879.74; el-finder-last-finder=4f5a448a961f1931173928a6b6d9d4d2; s_nr=1323495907438-New; __qca=P0-1359637726-1323501662225; _chartbeat2=ha3n2egp47d2hmo0.1323501662417; __utma=96992031.1452952453.1313221394.1323533094.1323638999.6; __utmc=96992031; __utmz=96992031.1313221394.1.1.utmcsr=(direct)|utmccn=(direct)|utmcmd=(none); session_id_cms=127.0.0.1-f4c1e56e-4f4d-4936-aaf7-92fdd3a97f53; session_id_inplace=127.0.0.1-b67af904-b8cf-469d-95b3-18285a004db1; session_id_admin=127.0.0.1-6d70af03-6639-4a47-9ec3-7df3afc84ddd'
p1551
asbasbasbag49
(g65
g51
NtRp1552
(dp1553
g54
(dp1554
sg63
g1260
sg56
(lp1555
g49
(g70
g51
NtRp1556
(dp1557
g54
(dp1558
g74
g75
ssg63
g1552
sg56
(lp1559
S'http_host'
p1560
asbag49
(g70
g51
NtRp1561
(dp1562
g54
(dp1563
g81
g82
ssg63
g1552
sg56
(lp1564
S':'
asbag49
(g70
g51
NtRp1565
(dp1566
g54
(dp1567
sg63
g1552
sg56
(lp1568
g49
(g50
g51
NtRp1569
(dp1570
g54
(dp1571
g62
I4
ssg63
g1565
sg56
(lp1572
S'127.0.0.1:8000'
p1573
asbasbasbag49
(g65
g51
NtRp1574
(dp1575
g54
(dp1576
sg63
g1260
sg56
(lp1577
g49
(g70
g51
NtRp1578
(dp1579
g54
(dp1580
g74
g75
ssg63
g1574
sg56
(lp1581
S'http_user_agent'
p1582
asbag49
(g70
g51
NtRp1583
(dp1584
g54
(dp1585
g81
g82
ssg63
g1574
sg56
(lp1586
S':'
asbag49
(g70
g51
NtRp1587
(dp1588
g54
(dp1589
sg63
g1574
sg56
(lp1590
g49
(g50
g51
NtRp1591
(dp1592
g54
(dp1593
g62
I4
ssg63
g1587
sg56
(lp1594
S'Mozilla/5.0 (Macintosh; Intel Mac OS X 10_6_8) AppleWebKit/535.7 (KHTML, like Gecko) Chrome/16.0.912.63 Safari/535.7'
p1595
asbasbasbag49
(g65
g51
NtRp1596
(dp1597
g54
(dp1598
sg63
g1260
sg56
(lp1599
g49
(g70
g51
NtRp1600
(dp1601
g54
(dp1602
g74
g75
ssg63
g1596
sg56
(lp1603
S'is_jython'
p1604
asbag49
(g70
g51
NtRp1605
(dp1606
g54
(dp1607
g81
g82
ssg63
g1596
sg56
(lp1608
S':'
asbag49
(g70
g51
NtRp1609
(dp1610
g54
(dp1611
sg63
g1596
sg56
(lp1612
g49
(g50
g51
NtRp1613
(dp1614
g54
(dp1615
g62
I4
ssg63
g1609
sg56
(lp1616
g92
asbasbasbag49
(g65
g51
NtRp1617
(dp1618
g54
(dp1619
sg63
g1260
sg56
(lp1620
g49
(g70
g51
NtRp1621
(dp1622
g54
(dp1623
g74
g75
ssg63
g1617
sg56
(lp1624
S'is_pypy'
p1625
asbag49
(g70
g51
NtRp1626
(dp1627
g54
(dp1628
g81
g82
ssg63
g1617
sg56
(lp1629
S':'
asbag49
(g70
g51
NtRp1630
(dp1631
g54
(dp1632
sg63
g1617
sg56
(lp1633
g49
(g50
g51
NtRp1634
(dp1635
g54
(dp1636
g62
I4
ssg63
g1630
sg56
(lp1637
g92
asbasbasbag49
(g65
g51
NtRp1638
(dp1639
g54
(dp1640
sg63
g1260
sg56
(lp1641
g49
(g70
g51
NtRp1642
(dp1643
g54
(dp1644
g74
g75
ssg63
g1638
sg56
(lp1645
S'path_info'
p1646
asbag49
(g70
g51
NtRp1647
(dp1648
g54
(dp1649
g81
g82
ssg63
g1638
sg56
(lp1650
S':'
asbag49
(g70
g51
NtRp1651
(dp1652
g54
(dp1653
sg63
g1638
sg56
(lp1654
g49
(g50
g51
NtRp1655
(dp1656
g54
(dp1657
g62
I4
ssg63
g1651
sg56
(lp1658
S'/inplace/default/folder/0'
p1659
asbasbasbag49
(g65
g51
NtRp1660
(dp1661
g54
(dp1662
sg63
g1260
sg56
(lp1663
g49
(g70
g51
NtRp1664
(dp1665
g54
(dp1666
g74
g75
ssg63
g1660
sg56
(lp1667
S'query_string'
p1668
asbag49
(g70
g51
NtRp1669
(dp1670
g54
(dp1671
g81
g82
ssg63
g1660
sg56
(lp1672
S':'
asbag49
(g70
g51
NtRp1673
(dp1674
g54
(dp1675
sg63
g1660
sg56
(lp1676
g49
(g50
g51
NtRp1677
(dp1678
g54
(dp1679
g62
I4
ssg63
g1673
sg56
(lp1680
S''
asbasbasbag49
(g65
g51
NtRp1681
(dp1682
g54
(dp1683
sg63
g1260
sg56
(lp1684
g49
(g70
g51
NtRp1685
(dp1686
g54
(dp1687
g74
g75
ssg63
g1681
sg56
(lp1688
S'remote_addr'
p1689
asbag49
(g70
g51
NtRp1690
(dp1691
g54
(dp1692
g81
g82
ssg63
g1681
sg56
(lp1693
S':'
asbag49
(g70
g51
NtRp1694
(dp1695
g54
(dp1696
sg63
g1681
sg56
(lp1697
g49
(g50
g51
NtRp1698
(dp1699
g54
(dp1700
g62
I4
ssg63
g1694
sg56
(lp1701
g194
asbasbasbag49
(g65
g51
NtRp1702
(dp1703
g54
(dp1704
sg63
g1260
sg56
(lp1705
g49
(g70
g51
NtRp1706
(dp1707
g54
(dp1708
g74
g75
ssg63
g1702
sg56
(lp1709
S'remote_port'
p1710
asbag49
(g70
g51
NtRp1711
(dp1712
g54
(dp1713
g81
g82
ssg63
g1702
sg56
(lp1714
S':'
asbag49
(g70
g51
NtRp1715
(dp1716
g54
(dp1717
sg63
g1702
sg56
(lp1718
g49
(g50
g51
NtRp1719
(dp1720
g54
(dp1721
g62
I4
ssg63
g1715
sg56
(lp1722
S'55278'
p1723
asbasbasbag49
(g65
g51
NtRp1724
(dp1725
g54
(dp1726
sg63
g1260
sg56
(lp1727
g49
(g70
g51
NtRp1728
(dp1729
g54
(dp1730
g74
g75
ssg63
g1724
sg56
(lp1731
S'request_method'
p1732
asbag49
(g70
g51
NtRp1733
(dp1734
g54
(dp1735
g81
g82
ssg63
g1724
sg56
(lp1736
S':'
asbag49
(g70
g51
NtRp1737
(dp1738
g54
(dp1739
sg63
g1724
sg56
(lp1740
g49
(g50
g51
NtRp1741
(dp1742
g54
(dp1743
g62
I4
ssg63
g1737
sg56
(lp1744
S'GET'
p1745
asbasbasbag49
(g65
g51
NtRp1746
(dp1747
g54
(dp1748
sg63
g1260
sg56
(lp1749
g49
(g70
g51
NtRp1750
(dp1751
g54
(dp1752
g74
g75
ssg63
g1746
sg56
(lp1753
S'script_name'
p1754
asbag49
(g70
g51
NtRp1755
(dp1756
g54
(dp1757
g81
g82
ssg63
g1746
sg56
(lp1758
S':'
asbag49
(g70
g51
NtRp1759
(dp1760
g54
(dp1761
sg63
g1746
sg56
(lp1762
g49
(g50
g51
NtRp1763
(dp1764
g54
(dp1765
g62
I4
ssg63
g1759
sg56
(lp1766
S''
asbasbasbag49
(g65
g51
NtRp1767
(dp1768
g54
(dp1769
sg63
g1260
sg56
(lp1770
g49
(g70
g51
NtRp1771
(dp1772
g54
(dp1773
g74
g75
ssg63
g1767
sg56
(lp1774
S'server_name'
p1775
asbag49
(g70
g51
NtRp1776
(dp1777
g54
(dp1778
g81
g82
ssg63
g1767
sg56
(lp1779
S':'
asbag49
(g70
g51
NtRp1780
(dp1781
g54
(dp1782
sg63
g1767
sg56
(lp1783
g49
(g50
g51
NtRp1784
(dp1785
g54
(dp1786
g62
I4
ssg63
g1780
sg56
(lp1787
S'massimo-di-pierros-macbook-2.local'
p1788
asbasbasbag49
(g65
g51
NtRp1789
(dp1790
g54
(dp1791
sg63
g1260
sg56
(lp1792
g49
(g70
g51
NtRp1793
(dp1794
g54
(dp1795
g74
g75
ssg63
g1789
sg56
(lp1796
S'server_port'
p1797
asbag49
(g70
g51
NtRp1798
(dp1799
g54
(dp1800
g81
g82
ssg63
g1789
sg56
(lp1801
S':'
asbag49
(g70
g51
NtRp1802
(dp1803
g54
(dp1804
sg63
g1789
sg56
(lp1805
g49
(g50
g51
NtRp1806
(dp1807
g54
(dp1808
g62
I4
ssg63
g1802
sg56
(lp1809
S'8000'
p1810
asbasbasbag49
(g65
g51
NtRp1811
(dp1812
g54
(dp1813
sg63
g1260
sg56
(lp1814
g49
(g70
g51
NtRp1815
(dp1816
g54
(dp1817
g74
g75
ssg63
g1811
sg56
(lp1818
S'server_protocol'
p1819
asbag49
(g70
g51
NtRp1820
(dp1821
g54
(dp1822
g81
g82
ssg63
g1811
sg56
(lp1823
S':'
asbag49
(g70
g51
NtRp1824
(dp1825
g54
(dp1826
sg63
g1811
sg56
(lp1827
g49
(g50
g51
NtRp1828
(dp1829
g54
(dp1830
g62
I4
ssg63
g1824
sg56
(lp1831
S'HTTP/1.1'
p1832
asbasbasbag49
(g65
g51
NtRp1833
(dp1834
g54
(dp1835
sg63
g1260
sg56
(lp1836
g49
(g70
g51
NtRp1837
(dp1838
g54
(dp1839
g74
g75
ssg63
g1833
sg56
(lp1840
S'server_software'
p1841
asbag49
(g70
g51
NtRp1842
(dp1843
g54
(dp1844
g81
g82
ssg63
g1833
sg56
(lp1845
S':'
asbag49
(g70
g51
NtRp1846
(dp1847
g54
(dp1848
sg63
g1833
sg56
(lp1849
g49
(g50
g51
NtRp1850
(dp1851
g54
(dp1852
g62
I4
ssg63
g1846
sg56
(lp1853
S'Rocket 1.2.4'
p1854
asbasbasbag49
(g65
g51
NtRp1855
(dp1856
g54
(dp1857
sg63
g1260
sg56
(lp1858
g49
(g70
g51
NtRp1859
(dp1860
g54
(dp1861
g74
g75
ssg63
g1855
sg56
(lp1862
S'web2py_crontype'
p1863
asbag49
(g70
g51
NtRp1864
(dp1865
g54
(dp1866
g81
g82
ssg63
g1855
sg56
(lp1867
S':'
asbag49
(g70
g51
NtRp1868
(dp1869
g54
(dp1870
sg63
g1855
sg56
(lp1871
g49
(g50
g51
NtRp1872
(dp1873
g54
(dp1874
g62
I4
ssg63
g1868
sg56
(lp1875
S'hard'
p1876
asbasbasbag49
(g65
g51
NtRp1877
(dp1878
g54
(dp1879
sg63
g1260
sg56
(lp1880
g49
(g70
g51
NtRp1881
(dp1882
g54
(dp1883
g74
g75
ssg63
g1877
sg56
(lp1884
S'web2py_path'
p1885
asbag49
(g70
g51
NtRp1886
(dp1887
g54
(dp1888
g81
g82
ssg63
g1877
sg56
(lp1889
S':'
asbag49
(g70
g51
NtRp1890
(dp1891
g54
(dp1892
sg63
g1877
sg56
(lp1893
g49
(g50
g51
NtRp1894
(dp1895
g54
(dp1896
g62
I4
ssg63
g1890
sg56
(lp1897
g1307
asbasbasbag49
(g65
g51
NtRp1898
(dp1899
g54
(dp1900
sg63
g1260
sg56
(lp1901
g49
(g70
g51
NtRp1902
(dp1903
g54
(dp1904
g74
g75
ssg63
g1898
sg56
(lp1905
S'web2py_version'
p1906
asbag49
(g70
g51
NtRp1907
(dp1908
g54
(dp1909
g81
g82
ssg63
g1898
sg56
(lp1910
S':'
asbag49
(g70
g51
NtRp1911
(dp1912
g54
(dp1913
sg63
g1898
sg56
(lp1914
g49
(g50
g51
NtRp1915
(dp1916
g54
(dp1917
g62
I4
ssg63
g1911
sg56
(lp1918
g49
(g58
g51
NtRp1919
(dp1920
g54
(dp1921
g62
I3
ssg63
Nsg56
(lp1922
g49
(g65
g51
NtRp1923
(dp1924
g54
(dp1925
sg63
g1919
sg56
(lp1926
g49
(g70
g51
NtRp1927
(dp1928
g54
(dp1929
sg63
g1923
sg56
(lp1930
g49
(g50
g51
NtRp1931
(dp1932
g54
(dp1933
g62
I3
ssg63
g1927
sg56
(lp1934
S'1'
asbasbasbag49
(g65
g51
NtRp1935
(dp1936
g54
(dp1937
sg63
g1919
sg56
(lp1938
g49
(g70
g51
NtRp1939
(dp1940
g54
(dp1941
sg63
g1935
sg56
(lp1942
g49
(g50
g51
NtRp1943
(dp1944
g54
(dp1945
g62
I3
ssg63
g1939
sg56
(lp1946
S'99'
p1947
asbasbasbag49
(g65
g51
NtRp1948
(dp1949
g54
(dp1950
sg63
g1919
sg56
(lp1951
g49
(g70
g51
NtRp1952
(dp1953
g54
(dp1954
sg63
g1948
sg56
(lp1955
g49
(g50
g51
NtRp1956
(dp1957
g54
(dp1958
g62
I3
ssg63
g1952
sg56
(lp1959
S'3'
asbasbasbag49
(g65
g51
NtRp1960
(dp1961
g54
(dp1962
sg63
g1919
sg56
(lp1963
g49
(g70
g51
NtRp1964
(dp1965
g54
(dp1966
sg63
g1960
sg56
(lp1967
g49
(g50
g51
NtRp1968
(dp1969
g54
(dp1970
g62
I3
ssg63
g1964
sg56
(lp1971
S'datetime.datetime(2011, 12, 9, 21, 5, 4)'
p1972
asbasbasbag49
(g65
g51
NtRp1973
(dp1974
g54
(dp1975
sg63
g1919
sg56
(lp1976
g49
(g70
g51
NtRp1977
(dp1978
g54
(dp1979
sg63
g1973
sg56
(lp1980
g49
(g50
g51
NtRp1981
(dp1982
g54
(dp1983
g62
I3
ssg63
g1977
sg56
(lp1984
S'stable'
p1985
asbasbasbasbasbasbasbag49
(g65
g51
NtRp1986
(dp1987
g54
(dp1988
sg63
g1260
sg56
(lp1989
g49
(g70
g51
NtRp1990
(dp1991
g54
(dp1992
g74
g75
ssg63
g1986
sg56
(lp1993
S'wsgi_errors'
p1994
asbag49
(g70
g51
NtRp1995
(dp1996
g54
(dp1997
g81
g82
ssg63
g1986
sg56
(lp1998
S':'
asbag49
(g70
g51
NtRp1999
(dp2000
g54
(dp2001
sg63
g1986
sg56
(lp2002
g49
(g50
g51
NtRp2003
(dp2004
g54
(dp2005
g62
I4
ssg63
g1999
sg56
(lp2006
S"<open file '<stderr>', mode 'w' at 0x1620b0>"
p2007
asbasbasbag49
(g65
g51
NtRp2008
(dp2009
g54
(dp2010
sg63
g1260
sg56
(lp2011
g49
(g70
g51
NtRp2012
(dp2013
g54
(dp2014
g74
g75
ssg63
g2008
sg56
(lp2015
S'wsgi_file_wrapper'
p2016
asbag49
(g70
g51
NtRp2017
(dp2018
g54
(dp2019
g81
g82
ssg63
g2008
sg56
(lp2020
S':'
asbag49
(g70
g51
NtRp2021
(dp2022
g54
(dp2023
sg63
g2008
sg56
(lp2024
g49
(g50
g51
NtRp2025
(dp2026
g54
(dp2027
g62
I4
ssg63
g2021
sg56
(lp2028
S'<class wsgiref.util.FileWrapper at 0x7c2840>'
p2029
asbasbasbag49
(g65
g51
NtRp2030
(dp2031
g54
(dp2032
sg63
g1260
sg56
(lp2033
g49
(g70
g51
NtRp2034
(dp2035
g54
(dp2036
g74
g75
ssg63
g2030
sg56
(lp2037
S'wsgi_input'
p2038
asbag49
(g70
g51
NtRp2039
(dp2040
g54
(dp2041
g81
g82
ssg63
g2030
sg56
(lp2042
S':'
asbag49
(g70
g51
NtRp2043
(dp2044
g54
(dp2045
sg63
g2030
sg56
(lp2046
g49
(g50
g51
NtRp2047
(dp2048
g54
(dp2049
g62
I4
ssg63
g2043
sg56
(lp2050
S'<socket._fileobject object at 0x290eb70>'
p2051
asbasbasbag49
(g65
g51
NtRp2052
(dp2053
g54
(dp2054
sg63
g1260
sg56
(lp2055
g49
(g70
g51
NtRp2056
(dp2057
g54
(dp2058
g74
g75
ssg63
g2052
sg56
(lp2059
S'wsgi_multiprocess'
p2060
asbag49
(g70
g51
NtRp2061
(dp2062
g54
(dp2063
g81
g82
ssg63
g2052
sg56
(lp2064
S':'
asbag49
(g70
g51
NtRp2065
(dp2066
g54
(dp2067
sg63
g2052
sg56
(lp2068
g49
(g50
g51
NtRp2069
(dp2070
g54
(dp2071
g62
I4
ssg63
g2065
sg56
(lp2072
g92
asbasbasbag49
(g65
g51
NtRp2073
(dp2074
g54
(dp2075
sg63
g1260
sg56
(lp2076
g49
(g70
g51
NtRp2077
(dp2078
g54
(dp2079
g74
g75
ssg63
g2073
sg56
(lp2080
S'wsgi_multithread'
p2081
asbag49
(g70
g51
NtRp2082
(dp2083
g54
(dp2084
g81
g82
ssg63
g2073
sg56
(lp2085
S':'
asbag49
(g70
g51
NtRp2086
(dp2087
g54
(dp2088
sg63
g2073
sg56
(lp2089
g49
(g50
g51
NtRp2090
(dp2091
g54
(dp2092
g62
I4
ssg63
g2086
sg56
(lp2093
S'True'
p2094
asbasbasbag49
(g65
g51
NtRp2095
(dp2096
g54
(dp2097
sg63
g1260
sg56
(lp2098
g49
(g70
g51
NtRp2099
(dp2100
g54
(dp2101
g74
g75
ssg63
g2095
sg56
(lp2102
S'wsgi_run_once'
p2103
asbag49
(g70
g51
NtRp2104
(dp2105
g54
(dp2106
g81
g82
ssg63
g2095
sg56
(lp2107
S':'
asbag49
(g70
g51
NtRp2108
(dp2109
g54
(dp2110
sg63
g2095
sg56
(lp2111
g49
(g50
g51
NtRp2112
(dp2113
g54
(dp2114
g62
I4
ssg63
g2108
sg56
(lp2115
g92
asbasbasbag49
(g65
g51
NtRp2116
(dp2117
g54
(dp2118
sg63
g1260
sg56
(lp2119
g49
(g70
g51
NtRp2120
(dp2121
g54
(dp2122
g74
g75
ssg63
g2116
sg56
(lp2123
S'wsgi_url_scheme'
p2124
asbag49
(g70
g51
NtRp2125
(dp2126
g54
(dp2127
g81
g82
ssg63
g2116
sg56
(lp2128
S':'
asbag49
(g70
g51
NtRp2129
(dp2130
g54
(dp2131
sg63
g2116
sg56
(lp2132
g49
(g50
g51
NtRp2133
(dp2134
g54
(dp2135
g62
I4
ssg63
g2129
sg56
(lp2136
S'http'
p2137
asbasbasbag49
(g65
g51
NtRp2138
(dp2139
g54
(dp2140
sg63
g1260
sg56
(lp2141
g49
(g70
g51
NtRp2142
(dp2143
g54
(dp2144
g74
g75
ssg63
g2138
sg56
(lp2145
S'wsgi_version'
p2146
asbag49
(g70
g51
NtRp2147
(dp2148
g54
(dp2149
g81
g82
ssg63
g2138
sg56
(lp2150
S':'
asbag49
(g70
g51
NtRp2151
(dp2152
g54
(dp2153
sg63
g2138
sg56
(lp2154
g49
(g50
g51
NtRp2155
(dp2156
g54
(dp2157
g62
I4
ssg63
g2151
sg56
(lp2158
g49
(g58
g51
NtRp2159
(dp2160
g54
(dp2161
g62
I3
ssg63
Nsg56
(lp2162
g49
(g65
g51
NtRp2163
(dp2164
g54
(dp2165
sg63
g2159
sg56
(lp2166
g49
(g70
g51
NtRp2167
(dp2168
g54
(dp2169
sg63
g2163
sg56
(lp2170
g49
(g50
g51
NtRp2171
(dp2172
g54
(dp2173
g62
I3
ssg63
g2167
sg56
(lp2174
S'1'
asbasbasbag49
(g65
g51
NtRp2175
(dp2176
g54
(dp2177
sg63
g2159
sg56
(lp2178
g49
(g70
g51
NtRp2179
(dp2180
g54
(dp2181
sg63
g2175
sg56
(lp2182
g49
(g50
g51
NtRp2183
(dp2184
g54
(dp2185
g62
I3
ssg63
g2179
sg56
(lp2186
S'0'
asbasbasbasbasbasbasbasbasbasbasbag49
(g65
g51
NtRp2187
(dp2188
g54
(dp2189
sg63
g59
sg56
(lp2190
g49
(g70
g51
NtRp2191
(dp2192
g54
(dp2193
g74
g75
ssg63
g2187
sg56
(lp2194
S'extension'
p2195
asbag49
(g70
g51
NtRp2196
(dp2197
g54
(dp2198
g81
g82
ssg63
g2187
sg56
(lp2199
S':'
asbag49
(g70
g51
NtRp2200
(dp2201
g54
(dp2202
sg63
g2187
sg56
(lp2203
g49
(g50
g51
NtRp2204
(dp2205
g54
(dp2206
g62
I5
ssg63
g2200
sg56
(lp2207
S'html'
p2208
asbasbasbag49
(g65
g51
NtRp2209
(dp2210
g54
(dp2211
sg63
g59
sg56
(lp2212
g49
(g70
g51
NtRp2213
(dp2214
g54
(dp2215
g74
g75
ssg63
g2209
sg56
(lp2216
S'folder'
p2217
asbag49
(g70
g51
NtRp2218
(dp2219
g54
(dp2220
g81
g82
ssg63
g2209
sg56
(lp2221
S':'
asbag49
(g70
g51
NtRp2222
(dp2223
g54
(dp2224
sg63
g2209
sg56
(lp2225
g49
(g50
g51
NtRp2226
(dp2227
g54
(dp2228
g62
I5
ssg63
g2222
sg56
(lp2229
S'/Users/mdipierro/Dropbox/web2py/applications/inplace/'
p2230
asbasbasbag49
(g65
g51
NtRp2231
(dp2232
g54
(dp2233
sg63
g59
sg56
(lp2234
g49
(g70
g51
NtRp2235
(dp2236
g54
(dp2237
g74
g75
ssg63
g2231
sg56
(lp2238
S'function'
p2239
asbag49
(g70
g51
NtRp2240
(dp2241
g54
(dp2242
g81
g82
ssg63
g2231
sg56
(lp2243
S':'
asbag49
(g70
g51
NtRp2244
(dp2245
g54
(dp2246
sg63
g2231
sg56
(lp2247
g49
(g50
g51
NtRp2248
(dp2249
g54
(dp2250
g62
I5
ssg63
g2244
sg56
(lp2251
S'folder'
p2252
asbasbasbag49
(g65
g51
NtRp2253
(dp2254
g54
(dp2255
sg63
g59
sg56
(lp2256
g49
(g70
g51
NtRp2257
(dp2258
g54
(dp2259
g74
g75
ssg63
g2253
sg56
(lp2260
S'get_vars'
p2261
asbag49
(g70
g51
NtRp2262
(dp2263
g54
(dp2264
g81
g82
ssg63
g2253
sg56
(lp2265
S':'
asbag49
(g70
g51
NtRp2266
(dp2267
g54
(dp2268
sg63
g2253
sg56
(lp2269
g49
(g50
g51
NtRp2270
(dp2271
g54
(dp2272
g62
I5
ssg63
g2266
sg56
(lp2273
g49
(g58
g51
NtRp2274
(dp2275
g54
(dp2276
g62
I4
ssg63
Nsg56
(lp2277
sbasbasbasbag49
(g65
g51
NtRp2278
(dp2279
g54
(dp2280
sg63
g59
sg56
(lp2281
g49
(g70
g51
NtRp2282
(dp2283
g54
(dp2284
g74
g75
ssg63
g2278
sg56
(lp2285
S'global_settings'
p2286
asbag49
(g70
g51
NtRp2287
(dp2288
g54
(dp2289
g81
g82
ssg63
g2278
sg56
(lp2290
S':'
asbag49
(g70
g51
NtRp2291
(dp2292
g54
(dp2293
sg63
g2278
sg56
(lp2294
g49
(g50
g51
NtRp2295
(dp2296
g54
(dp2297
g62
I5
ssg63
g2291
sg56
(lp2298
g49
(g58
g51
NtRp2299
(dp2300
g54
(dp2301
g62
I4
ssg63
Nsg56
(lp2302
g49
(g65
g51
NtRp2303
(dp2304
g54
(dp2305
sg63
g2299
sg56
(lp2306
g49
(g70
g51
NtRp2307
(dp2308
g54
(dp2309
g74
g75
ssg63
g2303
sg56
(lp2310
g1272
asbag49
(g70
g51
NtRp2311
(dp2312
g54
(dp2313
g81
g82
ssg63
g2303
sg56
(lp2314
S':'
asbag49
(g70
g51
NtRp2315
(dp2316
g54
(dp2317
sg63
g2303
sg56
(lp2318
g49
(g50
g51
NtRp2319
(dp2320
g54
(dp2321
g62
I4
ssg63
g2315
sg56
(lp2322
S"set(['/Users/mdipierro/Dropbox/web2py/applications/inplace/', '/Users/mdipierro/Dropbox/web2py/applications/cms/', '/Users/mdipierro/Dropbox/web2py/applications/admin/'])"
p2323
asbasbasbag49
(g65
g51
NtRp2324
(dp2325
g54
(dp2326
sg63
g2299
sg56
(lp2327
g49
(g70
g51
NtRp2328
(dp2329
g54
(dp2330
g74
g75
ssg63
g2324
sg56
(lp2331
g1294
asbag49
(g70
g51
NtRp2332
(dp2333
g54
(dp2334
g81
g82
ssg63
g2324
sg56
(lp2335
S':'
asbag49
(g70
g51
NtRp2336
(dp2337
g54
(dp2338
sg63
g2324
sg56
(lp2339
g49
(g50
g51
NtRp2340
(dp2341
g54
(dp2342
g62
I4
ssg63
g2336
sg56
(lp2343
g1307
asbasbasbag49
(g65
g51
NtRp2344
(dp2345
g54
(dp2346
sg63
g2299
sg56
(lp2347
g49
(g70
g51
NtRp2348
(dp2349
g54
(dp2350
g74
g75
ssg63
g2344
sg56
(lp2351
g1316
asbag49
(g70
g51
NtRp2352
(dp2353
g54
(dp2354
g81
g82
ssg63
g2344
sg56
(lp2355
S':'
asbag49
(g70
g51
NtRp2356
(dp2357
g54
(dp2358
sg63
g2344
sg56
(lp2359
g49
(g50
g51
NtRp2360
(dp2361
g54
(dp2362
g62
I4
ssg63
g2356
sg56
(lp2363
g49
(g58
g51
NtRp2364
(dp2365
g54
(dp2366
g62
I3
ssg63
Nsg56
(lp2367
sbasbasbasbag49
(g65
g51
NtRp2368
(dp2369
g54
(dp2370
sg63
g2299
sg56
(lp2371
g49
(g70
g51
NtRp2372
(dp2373
g54
(dp2374
g74
g75
ssg63
g2368
sg56
(lp2375
g1341
asbag49
(g70
g51
NtRp2376
(dp2377
g54
(dp2378
g81
g82
ssg63
g2368
sg56
(lp2379
S':'
asbag49
(g70
g51
NtRp2380
(dp2381
g54
(dp2382
sg63
g2368
sg56
(lp2383
g49
(g50
g51
NtRp2384
(dp2385
g54
(dp2386
g62
I4
ssg63
g2380
sg56
(lp2387
S"<Values at 0x153a378: {'verbose': False, 'ip': '127.0.0.1', 'shutdown_timeout': 5, 'taskbar': False, 'nocron': False, 'pid_filename': 'httpserver.pid', 'maxthreads': None, 'softcron': False, 'server_name': 'massimo-di-pierros-macbook-2.local', 'bpython': False, 'nogui': False, 'port': 8000, 'extcron': False, 'debuglevel': 30, 'test': None, 'folder': '/Users/mdipierro/Dropbox/web2py', 'config': '', 'import_models': False, 'winservice': '', 'shell': None, 'run': '', 'log_filename': 'httpserver.log', 'args': [''], 'socket_timeout': 1, 'ssl_ca_certificate': None, 'scheduler': None, 'profiler_filename': None, 'ssl_private_key': '', 'password': 'hello', 'request_queue_size': 5, 'ssl_certificate': '', 'cronjob': False, 'numthreads': None, 'quiet': False, 'interfaces': None, 'minthreads': None, 'timeout': 10, 'plain': False, 'nobanner': False}>"
p2388
asbasbasbag49
(g65
g51
NtRp2389
(dp2390
g54
(dp2391
sg63
g2299
sg56
(lp2392
g49
(g70
g51
NtRp2393
(dp2394
g54
(dp2395
g74
g75
ssg63
g2389
sg56
(lp2396
g1363
asbag49
(g70
g51
NtRp2397
(dp2398
g54
(dp2399
g81
g82
ssg63
g2389
sg56
(lp2400
S':'
asbag49
(g70
g51
NtRp2401
(dp2402
g54
(dp2403
sg63
g2389
sg56
(lp2404
g49
(g50
g51
NtRp2405
(dp2406
g54
(dp2407
g62
I4
ssg63
g2401
sg56
(lp2408
S'set([])'
p2409
asbasbasbag49
(g65
g51
NtRp2410
(dp2411
g54
(dp2412
sg63
g2299
sg56
(lp2413
g49
(g70
g51
NtRp2414
(dp2415
g54
(dp2416
g74
g75
ssg63
g2410
sg56
(lp2417
g1385
asbag49
(g70
g51
NtRp2418
(dp2419
g54
(dp2420
g81
g82
ssg63
g2410
sg56
(lp2421
S':'
asbag49
(g70
g51
NtRp2422
(dp2423
g54
(dp2424
sg63
g2410
sg56
(lp2425
g49
(g50
g51
NtRp2426
(dp2427
g54
(dp2428
g62
I4
ssg63
g2422
sg56
(lp2429
g92
asbasbasbag49
(g65
g51
NtRp2430
(dp2431
g54
(dp2432
sg63
g2299
sg56
(lp2433
g49
(g70
g51
NtRp2434
(dp2435
g54
(dp2436
g74
g75
ssg63
g2430
sg56
(lp2437
g1406
asbag49
(g70
g51
NtRp2438
(dp2439
g54
(dp2440
g81
g82
ssg63
g2430
sg56
(lp2441
S':'
asbag49
(g70
g51
NtRp2442
(dp2443
g54
(dp2444
sg63
g2430
sg56
(lp2445
g49
(g50
g51
NtRp2446
(dp2447
g54
(dp2448
g62
I4
ssg63
g2442
sg56
(lp2449
g1419
asbasbasbag49
(g65
g51
NtRp2450
(dp2451
g54
(dp2452
sg63
g2299
sg56
(lp2453
g49
(g70
g51
NtRp2454
(dp2455
g54
(dp2456
g74
g75
ssg63
g2450
sg56
(lp2457
g1604
asbag49
(g70
g51
NtRp2458
(dp2459
g54
(dp2460
g81
g82
ssg63
g2450
sg56
(lp2461
S':'
asbag49
(g70
g51
NtRp2462
(dp2463
g54
(dp2464
sg63
g2450
sg56
(lp2465
g49
(g50
g51
NtRp2466
(dp2467
g54
(dp2468
g62
I4
ssg63
g2462
sg56
(lp2469
g92
asbasbasbag49
(g65
g51
NtRp2470
(dp2471
g54
(dp2472
sg63
g2299
sg56
(lp2473
g49
(g70
g51
NtRp2474
(dp2475
g54
(dp2476
g74
g75
ssg63
g2470
sg56
(lp2477
g1625
asbag49
(g70
g51
NtRp2478
(dp2479
g54
(dp2480
g81
g82
ssg63
g2470
sg56
(lp2481
S':'
asbag49
(g70
g51
NtRp2482
(dp2483
g54
(dp2484
sg63
g2470
sg56
(lp2485
g49
(g50
g51
NtRp2486
(dp2487
g54
(dp2488
g62
I4
ssg63
g2482
sg56
(lp2489
g92
asbasbasbag49
(g65
g51
NtRp2490
(dp2491
g54
(dp2492
sg63
g2299
sg56
(lp2493
g49
(g70
g51
NtRp2494
(dp2495
g54
(dp2496
g74
g75
ssg63
g2490
sg56
(lp2497
g1863
asbag49
(g70
g51
NtRp2498
(dp2499
g54
(dp2500
g81
g82
ssg63
g2490
sg56
(lp2501
S':'
asbag49
(g70
g51
NtRp2502
(dp2503
g54
(dp2504
sg63
g2490
sg56
(lp2505
g49
(g50
g51
NtRp2506
(dp2507
g54
(dp2508
g62
I4
ssg63
g2502
sg56
(lp2509
g1876
asbasbasbag49
(g65
g51
NtRp2510
(dp2511
g54
(dp2512
sg63
g2299
sg56
(lp2513
g49
(g70
g51
NtRp2514
(dp2515
g54
(dp2516
g74
g75
ssg63
g2510
sg56
(lp2517
g1906
asbag49
(g70
g51
NtRp2518
(dp2519
g54
(dp2520
g81
g82
ssg63
g2510
sg56
(lp2521
S':'
asbag49
(g70
g51
NtRp2522
(dp2523
g54
(dp2524
sg63
g2510
sg56
(lp2525
g49
(g50
g51
NtRp2526
(dp2527
g54
(dp2528
g62
I4
ssg63
g2522
sg56
(lp2529
g49
(g58
g51
NtRp2530
(dp2531
g54
(dp2532
g62
I3
ssg63
Nsg56
(lp2533
g49
(g65
g51
NtRp2534
(dp2535
g54
(dp2536
sg63
g2530
sg56
(lp2537
g49
(g70
g51
NtRp2538
(dp2539
g54
(dp2540
sg63
g2534
sg56
(lp2541
g49
(g50
g51
NtRp2542
(dp2543
g54
(dp2544
g62
I3
ssg63
g2538
sg56
(lp2545
S'1'
asbasbasbag49
(g65
g51
NtRp2546
(dp2547
g54
(dp2548
sg63
g2530
sg56
(lp2549
g49
(g70
g51
NtRp2550
(dp2551
g54
(dp2552
sg63
g2546
sg56
(lp2553
g49
(g50
g51
NtRp2554
(dp2555
g54
(dp2556
g62
I3
ssg63
g2550
sg56
(lp2557
S'99'
p2558
asbasbasbag49
(g65
g51
NtRp2559
(dp2560
g54
(dp2561
sg63
g2530
sg56
(lp2562
g49
(g70
g51
NtRp2563
(dp2564
g54
(dp2565
sg63
g2559
sg56
(lp2566
g49
(g50
g51
NtRp2567
(dp2568
g54
(dp2569
g62
I3
ssg63
g2563
sg56
(lp2570
S'3'
asbasbasbag49
(g65
g51
NtRp2571
(dp2572
g54
(dp2573
sg63
g2530
sg56
(lp2574
g49
(g70
g51
NtRp2575
(dp2576
g54
(dp2577
sg63
g2571
sg56
(lp2578
g49
(g50
g51
NtRp2579
(dp2580
g54
(dp2581
g62
I3
ssg63
g2575
sg56
(lp2582
S'datetime.datetime(2011, 12, 9, 21, 5, 4)'
p2583
asbasbasbag49
(g65
g51
NtRp2584
(dp2585
g54
(dp2586
sg63
g2530
sg56
(lp2587
g49
(g70
g51
NtRp2588
(dp2589
g54
(dp2590
sg63
g2584
sg56
(lp2591
g49
(g50
g51
NtRp2592
(dp2593
g54
(dp2594
g62
I3
ssg63
g2588
sg56
(lp2595
g1985
asbasbasbasbasbasbasbasbasbasbasbag49
(g65
g51
NtRp2596
(dp2597
g54
(dp2598
sg63
g59
sg56
(lp2599
g49
(g70
g51
NtRp2600
(dp2601
g54
(dp2602
g74
g75
ssg63
g2596
sg56
(lp2603
S'is_https'
p2604
asbag49
(g70
g51
NtRp2605
(dp2606
g54
(dp2607
g81
g82
ssg63
g2596
sg56
(lp2608
S':'
asbag49
(g70
g51
NtRp2609
(dp2610
g54
(dp2611
sg63
g2596
sg56
(lp2612
g49
(g50
g51
NtRp2613
(dp2614
g54
(dp2615
g62
I5
ssg63
g2609
sg56
(lp2616
g92
asbasbasbag49
(g65
g51
NtRp2617
(dp2618
g54
(dp2619
sg63
g59
sg56
(lp2620
g49
(g70
g51
NtRp2621
(dp2622
g54
(dp2623
g74
g75
ssg63
g2617
sg56
(lp2624
S'is_local'
p2625
asbag49
(g70
g51
NtRp2626
(dp2627
g54
(dp2628
g81
g82
ssg63
g2617
sg56
(lp2629
S':'
asbag49
(g70
g51
NtRp2630
(dp2631
g54
(dp2632
sg63
g2617
sg56
(lp2633
g49
(g50
g51
NtRp2634
(dp2635
g54
(dp2636
g62
I5
ssg63
g2630
sg56
(lp2637
g2094
asbasbasbag49
(g65
g51
NtRp2638
(dp2639
g54
(dp2640
sg63
g59
sg56
(lp2641
g49
(g70
g51
NtRp2642
(dp2643
g54
(dp2644
g74
g75
ssg63
g2638
sg56
(lp2645
S'is_restful'
p2646
asbag49
(g70
g51
NtRp2647
(dp2648
g54
(dp2649
g81
g82
ssg63
g2638
sg56
(lp2650
S':'
asbag49
(g70
g51
NtRp2651
(dp2652
g54
(dp2653
sg63
g2638
sg56
(lp2654
g49
(g50
g51
NtRp2655
(dp2656
g54
(dp2657
g62
I5
ssg63
g2651
sg56
(lp2658
g92
asbasbasbag49
(g65
g51
NtRp2659
(dp2660
g54
(dp2661
sg63
g59
sg56
(lp2662
g49
(g70
g51
NtRp2663
(dp2664
g54
(dp2665
g74
g75
ssg63
g2659
sg56
(lp2666
S'now'
p2667
asbag49
(g70
g51
NtRp2668
(dp2669
g54
(dp2670
g81
g82
ssg63
g2659
sg56
(lp2671
S':'
asbag49
(g70
g51
NtRp2672
(dp2673
g54
(dp2674
sg63
g2659
sg56
(lp2675
g49
(g50
g51
NtRp2676
(dp2677
g54
(dp2678
g62
I5
ssg63
g2672
sg56
(lp2679
S'datetime.datetime(2011, 12, 11, 16, 21, 57, 332884)'
p2680
asbasbasbag49
(g65
g51
NtRp2681
(dp2682
g54
(dp2683
sg63
g59
sg56
(lp2684
g49
(g70
g51
NtRp2685
(dp2686
g54
(dp2687
g74
g75
ssg63
g2681
sg56
(lp2688
S'post_vars'
p2689
asbag49
(g70
g51
NtRp2690
(dp2691
g54
(dp2692
g81
g82
ssg63
g2681
sg56
(lp2693
S':'
asbag49
(g70
g51
NtRp2694
(dp2695
g54
(dp2696
sg63
g2681
sg56
(lp2697
g49
(g50
g51
NtRp2698
(dp2699
g54
(dp2700
g62
I5
ssg63
g2694
sg56
(lp2701
g49
(g58
g51
NtRp2702
(dp2703
g54
(dp2704
g62
I4
ssg63
Nsg56
(lp2705
sbasbasbasbag49
(g65
g51
NtRp2706
(dp2707
g54
(dp2708
sg63
g59
sg56
(lp2709
g49
(g70
g51
NtRp2710
(dp2711
g54
(dp2712
g74
g75
ssg63
g2706
sg56
(lp2713
S'raw_args'
p2714
asbag49
(g70
g51
NtRp2715
(dp2716
g54
(dp2717
g81
g82
ssg63
g2706
sg56
(lp2718
S':'
asbag49
(g70
g51
NtRp2719
(dp2720
g54
(dp2721
sg63
g2706
sg56
(lp2722
g49
(g50
g51
NtRp2723
(dp2724
g54
(dp2725
g62
I5
ssg63
g2719
sg56
(lp2726
S'0'
asbasbasbag49
(g65
g51
NtRp2727
(dp2728
g54
(dp2729
sg63
g59
sg56
(lp2730
g49
(g70
g51
NtRp2731
(dp2732
g54
(dp2733
g74
g75
ssg63
g2727
sg56
(lp2734
S'url'
p2735
asbag49
(g70
g51
NtRp2736
(dp2737
g54
(dp2738
g81
g82
ssg63
g2727
sg56
(lp2739
S':'
asbag49
(g70
g51
NtRp2740
(dp2741
g54
(dp2742
sg63
g2727
sg56
(lp2743
g49
(g50
g51
NtRp2744
(dp2745
g54
(dp2746
g62
I5
ssg63
g2740
sg56
(lp2747
S'/inplace/default/folder/0'
p2748
asbasbasbag49
(g65
g51
NtRp2749
(dp2750
g54
(dp2751
sg63
g59
sg56
(lp2752
g49
(g70
g51
NtRp2753
(dp2754
g54
(dp2755
g74
g75
ssg63
g2749
sg56
(lp2756
S'utcnow'
p2757
asbag49
(g70
g51
NtRp2758
(dp2759
g54
(dp2760
g81
g82
ssg63
g2749
sg56
(lp2761
S':'
asbag49
(g70
g51
NtRp2762
(dp2763
g54
(dp2764
sg63
g2749
sg56
(lp2765
g49
(g50
g51
NtRp2766
(dp2767
g54
(dp2768
g62
I5
ssg63
g2762
sg56
(lp2769
S'datetime.datetime(2011, 12, 11, 22, 21, 57, 332894)'
p2770
asbasbasbag49
(g65
g51
NtRp2771
(dp2772
g54
(dp2773
sg63
g59
sg56
(lp2774
g49
(g70
g51
NtRp2775
(dp2776
g54
(dp2777
g74
g75
ssg63
g2771
sg56
(lp2778
S'uuid'
p2779
asbag49
(g70
g51
NtRp2780
(dp2781
g54
(dp2782
g81
g82
ssg63
g2771
sg56
(lp2783
S':'
asbag49
(g70
g51
NtRp2784
(dp2785
g54
(dp2786
sg63
g2771
sg56
(lp2787
g49
(g50
g51
NtRp2788
(dp2789
g54
(dp2790
g62
I5
ssg63
g2784
sg56
(lp2791
S'inplace/127.0.0.1.2011-12-11.16-21-57.703b433d-07ef-4f44-af23-6a59cbf8b518'
p2792
asbasbasbag49
(g65
g51
NtRp2793
(dp2794
g54
(dp2795
sg63
g59
sg56
(lp2796
g49
(g70
g51
NtRp2797
(dp2798
g54
(dp2799
g74
g75
ssg63
g2793
sg56
(lp2800
S'vars'
p2801
asbag49
(g70
g51
NtRp2802
(dp2803
g54
(dp2804
g81
g82
ssg63
g2793
sg56
(lp2805
S':'
asbag49
(g70
g51
NtRp2806
(dp2807
g54
(dp2808
sg63
g2793
sg56
(lp2809
g49
(g50
g51
NtRp2810
(dp2811
g54
(dp2812
g62
I5
ssg63
g2806
sg56
(lp2813
g49
(g58
g51
NtRp2814
(dp2815
g54
(dp2816
g62
I4
ssg63
Nsg56
(lp2817
sbasbasbasbag49
(g65
g51
NtRp2818
(dp2819
g54
(dp2820
sg63
g59
sg56
(lp2821
g49
(g70
g51
NtRp2822
(dp2823
g54
(dp2824
g74
g75
ssg63
g2818
sg56
(lp2825
S'wsgi'
p2826
asbag49
(g70
g51
NtRp2827
(dp2828
g54
(dp2829
g81
g82
ssg63
g2818
sg56
(lp2830
S':'
asbag49
(g70
g51
NtRp2831
(dp2832
g54
(dp2833
sg63
g2818
sg56
(lp2834
g49
(g50
g51
NtRp2835
(dp2836
g54
(dp2837
g62
I5
ssg63
g2831
sg56
(lp2838
g49
(g58
g51
NtRp2839
(dp2840
g54
(dp2841
g62
I4
ssg63
Nsg56
(lp2842
g49
(g65
g51
NtRp2843
(dp2844
g54
(dp2845
sg63
g2839
sg56
(lp2846
g49
(g70
g51
NtRp2847
(dp2848
g54
(dp2849
g74
g75
ssg63
g2843
sg56
(lp2850
S'environ'
p2851
asbag49
(g70
g51
NtRp2852
(dp2853
g54
(dp2854
g81
g82
ssg63
g2843
sg56
(lp2855
S':'
asbag49
(g70
g51
NtRp2856
(dp2857
g54
(dp2858
sg63
g2843
sg56
(lp2859
g49
(g50
g51
NtRp2860
(dp2861
g54
(dp2862
g62
I4
ssg63
g2856
sg56
(lp2863
g49
(g58
g51
NtRp2864
(dp2865
g54
(dp2866
g62
I3
ssg63
Nsg56
(lp2867
g49
(g65
g51
NtRp2868
(dp2869
g54
(dp2870
sg63
g2864
sg56
(lp2871
g49
(g70
g51
NtRp2872
(dp2873
g54
(dp2874
g74
g75
ssg63
g2868
sg56
(lp2875
S'HTTP_ACCEPT'
p2876
asbag49
(g70
g51
NtRp2877
(dp2878
g54
(dp2879
g81
g82
ssg63
g2868
sg56
(lp2880
S':'
asbag49
(g70
g51
NtRp2881
(dp2882
g54
(dp2883
sg63
g2868
sg56
(lp2884
g49
(g50
g51
NtRp2885
(dp2886
g54
(dp2887
g62
I3
ssg63
g2881
sg56
(lp2888
g1441
asbasbasbag49
(g65
g51
NtRp2889
(dp2890
g54
(dp2891
sg63
g2864
sg56
(lp2892
g49
(g70
g51
NtRp2893
(dp2894
g54
(dp2895
g74
g75
ssg63
g2889
sg56
(lp2896
S'HTTP_ACCEPT_CHARSET'
p2897
asbag49
(g70
g51
NtRp2898
(dp2899
g54
(dp2900
g81
g82
ssg63
g2889
sg56
(lp2901
S':'
asbag49
(g70
g51
NtRp2902
(dp2903
g54
(dp2904
sg63
g2889
sg56
(lp2905
g49
(g50
g51
NtRp2906
(dp2907
g54
(dp2908
g62
I3
ssg63
g2902
sg56
(lp2909
g1463
asbasbasbag49
(g65
g51
NtRp2910
(dp2911
g54
(dp2912
sg63
g2864
sg56
(lp2913
g49
(g70
g51
NtRp2914
(dp2915
g54
(dp2916
g74
g75
ssg63
g2910
sg56
(lp2917
S'HTTP_ACCEPT_ENCODING'
p2918
asbag49
(g70
g51
NtRp2919
(dp2920
g54
(dp2921
g81
g82
ssg63
g2910
sg56
(lp2922
S':'
asbag49
(g70
g51
NtRp2923
(dp2924
g54
(dp2925
sg63
g2910
sg56
(lp2926
g49
(g50
g51
NtRp2927
(dp2928
g54
(dp2929
g62
I3
ssg63
g2923
sg56
(lp2930
g1485
asbasbasbag49
(g65
g51
NtRp2931
(dp2932
g54
(dp2933
sg63
g2864
sg56
(lp2934
g49
(g70
g51
NtRp2935
(dp2936
g54
(dp2937
g74
g75
ssg63
g2931
sg56
(lp2938
S'HTTP_ACCEPT_LANGUAGE'
p2939
asbag49
(g70
g51
NtRp2940
(dp2941
g54
(dp2942
g81
g82
ssg63
g2931
sg56
(lp2943
S':'
asbag49
(g70
g51
NtRp2944
(dp2945
g54
(dp2946
sg63
g2931
sg56
(lp2947
g49
(g50
g51
NtRp2948
(dp2949
g54
(dp2950
g62
I3
ssg63
g2944
sg56
(lp2951
g1507
asbasbasbag49
(g65
g51
NtRp2952
(dp2953
g54
(dp2954
sg63
g2864
sg56
(lp2955
g49
(g70
g51
NtRp2956
(dp2957
g54
(dp2958
g74
g75
ssg63
g2952
sg56
(lp2959
S'HTTP_CONNECTION'
p2960
asbag49
(g70
g51
NtRp2961
(dp2962
g54
(dp2963
g81
g82
ssg63
g2952
sg56
(lp2964
S':'
asbag49
(g70
g51
NtRp2965
(dp2966
g54
(dp2967
sg63
g2952
sg56
(lp2968
g49
(g50
g51
NtRp2969
(dp2970
g54
(dp2971
g62
I3
ssg63
g2965
sg56
(lp2972
g1529
asbasbasbag49
(g65
g51
NtRp2973
(dp2974
g54
(dp2975
sg63
g2864
sg56
(lp2976
g49
(g70
g51
NtRp2977
(dp2978
g54
(dp2979
g74
g75
ssg63
g2973
sg56
(lp2980
S'HTTP_COOKIE'
p2981
asbag49
(g70
g51
NtRp2982
(dp2983
g54
(dp2984
g81
g82
ssg63
g2973
sg56
(lp2985
S':'
asbag49
(g70
g51
NtRp2986
(dp2987
g54
(dp2988
sg63
g2973
sg56
(lp2989
g49
(g50
g51
NtRp2990
(dp2991
g54
(dp2992
g62
I3
ssg63
g2986
sg56
(lp2993
g1551
asbasbasbag49
(g65
g51
NtRp2994
(dp2995
g54
(dp2996
sg63
g2864
sg56
(lp2997
g49
(g70
g51
NtRp2998
(dp2999
g54
(dp3000
g74
g75
ssg63
g2994
sg56
(lp3001
S'HTTP_HOST'
p3002
asbag49
(g70
g51
NtRp3003
(dp3004
g54
(dp3005
g81
g82
ssg63
g2994
sg56
(lp3006
S':'
asbag49
(g70
g51
NtRp3007
(dp3008
g54
(dp3009
sg63
g2994
sg56
(lp3010
g49
(g50
g51
NtRp3011
(dp3012
g54
(dp3013
g62
I3
ssg63
g3007
sg56
(lp3014
g1573
asbasbasbag49
(g65
g51
NtRp3015
(dp3016
g54
(dp3017
sg63
g2864
sg56
(lp3018
g49
(g70
g51
NtRp3019
(dp3020
g54
(dp3021
g74
g75
ssg63
g3015
sg56
(lp3022
S'HTTP_USER_AGENT'
p3023
asbag49
(g70
g51
NtRp3024
(dp3025
g54
(dp3026
g81
g82
ssg63
g3015
sg56
(lp3027
S':'
asbag49
(g70
g51
NtRp3028
(dp3029
g54
(dp3030
sg63
g3015
sg56
(lp3031
g49
(g50
g51
NtRp3032
(dp3033
g54
(dp3034
g62
I3
ssg63
g3028
sg56
(lp3035
g1595
asbasbasbag49
(g65
g51
NtRp3036
(dp3037
g54
(dp3038
sg63
g2864
sg56
(lp3039
g49
(g70
g51
NtRp3040
(dp3041
g54
(dp3042
g74
g75
ssg63
g3036
sg56
(lp3043
S'PATH_INFO'
p3044
asbag49
(g70
g51
NtRp3045
(dp3046
g54
(dp3047
g81
g82
ssg63
g3036
sg56
(lp3048
S':'
asbag49
(g70
g51
NtRp3049
(dp3050
g54
(dp3051
sg63
g3036
sg56
(lp3052
g49
(g50
g51
NtRp3053
(dp3054
g54
(dp3055
g62
I3
ssg63
g3049
sg56
(lp3056
g1659
asbasbasbag49
(g65
g51
NtRp3057
(dp3058
g54
(dp3059
sg63
g2864
sg56
(lp3060
g49
(g70
g51
NtRp3061
(dp3062
g54
(dp3063
g74
g75
ssg63
g3057
sg56
(lp3064
S'QUERY_STRING'
p3065
asbag49
(g70
g51
NtRp3066
(dp3067
g54
(dp3068
g81
g82
ssg63
g3057
sg56
(lp3069
S':'
asbag49
(g70
g51
NtRp3070
(dp3071
g54
(dp3072
sg63
g3057
sg56
(lp3073
g49
(g50
g51
NtRp3074
(dp3075
g54
(dp3076
g62
I3
ssg63
g3070
sg56
(lp3077
S''
asbasbasbag49
(g65
g51
NtRp3078
(dp3079
g54
(dp3080
sg63
g2864
sg56
(lp3081
g49
(g70
g51
NtRp3082
(dp3083
g54
(dp3084
g74
g75
ssg63
g3078
sg56
(lp3085
S'REMOTE_ADDR'
p3086
asbag49
(g70
g51
NtRp3087
(dp3088
g54
(dp3089
g81
g82
ssg63
g3078
sg56
(lp3090
S':'
asbag49
(g70
g51
NtRp3091
(dp3092
g54
(dp3093
sg63
g3078
sg56
(lp3094
g49
(g50
g51
NtRp3095
(dp3096
g54
(dp3097
g62
I3
ssg63
g3091
sg56
(lp3098
g194
asbasbasbag49
(g65
g51
NtRp3099
(dp3100
g54
(dp3101
sg63
g2864
sg56
(lp3102
g49
(g70
g51
NtRp3103
(dp3104
g54
(dp3105
g74
g75
ssg63
g3099
sg56
(lp3106
S'REMOTE_PORT'
p3107
asbag49
(g70
g51
NtRp3108
(dp3109
g54
(dp3110
g81
g82
ssg63
g3099
sg56
(lp3111
S':'
asbag49
(g70
g51
NtRp3112
(dp3113
g54
(dp3114
sg63
g3099
sg56
(lp3115
g49
(g50
g51
NtRp3116
(dp3117
g54
(dp3118
g62
I3
ssg63
g3112
sg56
(lp3119
g1723
asbasbasbag49
(g65
g51
NtRp3120
(dp3121
g54
(dp3122
sg63
g2864
sg56
(lp3123
g49
(g70
g51
NtRp3124
(dp3125
g54
(dp3126
g74
g75
ssg63
g3120
sg56
(lp3127
S'REQUEST_METHOD'
p3128
asbag49
(g70
g51
NtRp3129
(dp3130
g54
(dp3131
g81
g82
ssg63
g3120
sg56
(lp3132
S':'
asbag49
(g70
g51
NtRp3133
(dp3134
g54
(dp3135
sg63
g3120
sg56
(lp3136
g49
(g50
g51
NtRp3137
(dp3138
g54
(dp3139
g62
I3
ssg63
g3133
sg56
(lp3140
g1745
asbasbasbag49
(g65
g51
NtRp3141
(dp3142
g54
(dp3143
sg63
g2864
sg56
(lp3144
g49
(g70
g51
NtRp3145
(dp3146
g54
(dp3147
g74
g75
ssg63
g3141
sg56
(lp3148
S'SCRIPT_NAME'
p3149
asbag49
(g70
g51
NtRp3150
(dp3151
g54
(dp3152
g81
g82
ssg63
g3141
sg56
(lp3153
S':'
asbag49
(g70
g51
NtRp3154
(dp3155
g54
(dp3156
sg63
g3141
sg56
(lp3157
g49
(g50
g51
NtRp3158
(dp3159
g54
(dp3160
g62
I3
ssg63
g3154
sg56
(lp3161
S''
asbasbasbag49
(g65
g51
NtRp3162
(dp3163
g54
(dp3164
sg63
g2864
sg56
(lp3165
g49
(g70
g51
NtRp3166
(dp3167
g54
(dp3168
g74
g75
ssg63
g3162
sg56
(lp3169
S'SERVER_NAME'
p3170
asbag49
(g70
g51
NtRp3171
(dp3172
g54
(dp3173
g81
g82
ssg63
g3162
sg56
(lp3174
S':'
asbag49
(g70
g51
NtRp3175
(dp3176
g54
(dp3177
sg63
g3162
sg56
(lp3178
g49
(g50
g51
NtRp3179
(dp3180
g54
(dp3181
g62
I3
ssg63
g3175
sg56
(lp3182
g1788
asbasbasbag49
(g65
g51
NtRp3183
(dp3184
g54
(dp3185
sg63
g2864
sg56
(lp3186
g49
(g70
g51
NtRp3187
(dp3188
g54
(dp3189
g74
g75
ssg63
g3183
sg56
(lp3190
S'SERVER_PORT'
p3191
asbag49
(g70
g51
NtRp3192
(dp3193
g54
(dp3194
g81
g82
ssg63
g3183
sg56
(lp3195
S':'
asbag49
(g70
g51
NtRp3196
(dp3197
g54
(dp3198
sg63
g3183
sg56
(lp3199
g49
(g50
g51
NtRp3200
(dp3201
g54
(dp3202
g62
I3
ssg63
g3196
sg56
(lp3203
g1810
asbasbasbag49
(g65
g51
NtRp3204
(dp3205
g54
(dp3206
sg63
g2864
sg56
(lp3207
g49
(g70
g51
NtRp3208
(dp3209
g54
(dp3210
g74
g75
ssg63
g3204
sg56
(lp3211
S'SERVER_PROTOCOL'
p3212
asbag49
(g70
g51
NtRp3213
(dp3214
g54
(dp3215
g81
g82
ssg63
g3204
sg56
(lp3216
S':'
asbag49
(g70
g51
NtRp3217
(dp3218
g54
(dp3219
sg63
g3204
sg56
(lp3220
g49
(g50
g51
NtRp3221
(dp3222
g54
(dp3223
g62
I3
ssg63
g3217
sg56
(lp3224
g1832
asbasbasbag49
(g65
g51
NtRp3225
(dp3226
g54
(dp3227
sg63
g2864
sg56
(lp3228
g49
(g70
g51
NtRp3229
(dp3230
g54
(dp3231
g74
g75
ssg63
g3225
sg56
(lp3232
S'SERVER_SOFTWARE'
p3233
asbag49
(g70
g51
NtRp3234
(dp3235
g54
(dp3236
g81
g82
ssg63
g3225
sg56
(lp3237
S':'
asbag49
(g70
g51
NtRp3238
(dp3239
g54
(dp3240
sg63
g3225
sg56
(lp3241
g49
(g50
g51
NtRp3242
(dp3243
g54
(dp3244
g62
I3
ssg63
g3238
sg56
(lp3245
g1854
asbasbasbag49
(g65
g51
NtRp3246
(dp3247
g54
(dp3248
sg63
g2864
sg56
(lp3249
g49
(g70
g51
NtRp3250
(dp3251
g54
(dp3252
g74
g75
ssg63
g3246
sg56
(lp3253
S'wsgi.errors'
p3254
asbag49
(g70
g51
NtRp3255
(dp3256
g54
(dp3257
g81
g82
ssg63
g3246
sg56
(lp3258
S':'
asbag49
(g70
g51
NtRp3259
(dp3260
g54
(dp3261
sg63
g3246
sg56
(lp3262
g49
(g50
g51
NtRp3263
(dp3264
g54
(dp3265
g62
I3
ssg63
g3259
sg56
(lp3266
S"<open file '<stderr>', mode 'w' at 0x1620b0>"
p3267
asbasbasbag49
(g65
g51
NtRp3268
(dp3269
g54
(dp3270
sg63
g2864
sg56
(lp3271
g49
(g70
g51
NtRp3272
(dp3273
g54
(dp3274
g74
g75
ssg63
g3268
sg56
(lp3275
S'wsgi.file_wrapper'
p3276
asbag49
(g70
g51
NtRp3277
(dp3278
g54
(dp3279
g81
g82
ssg63
g3268
sg56
(lp3280
S':'
asbag49
(g70
g51
NtRp3281
(dp3282
g54
(dp3283
sg63
g3268
sg56
(lp3284
g49
(g50
g51
NtRp3285
(dp3286
g54
(dp3287
g62
I3
ssg63
g3281
sg56
(lp3288
S'<class wsgiref.util.FileWrapper at 0x7c2840>'
p3289
asbasbasbag49
(g65
g51
NtRp3290
(dp3291
g54
(dp3292
sg63
g2864
sg56
(lp3293
g49
(g70
g51
NtRp3294
(dp3295
g54
(dp3296
g74
g75
ssg63
g3290
sg56
(lp3297
S'wsgi.input'
p3298
asbag49
(g70
g51
NtRp3299
(dp3300
g54
(dp3301
g81
g82
ssg63
g3290
sg56
(lp3302
S':'
asbag49
(g70
g51
NtRp3303
(dp3304
g54
(dp3305
sg63
g3290
sg56
(lp3306
g49
(g50
g51
NtRp3307
(dp3308
g54
(dp3309
g62
I3
ssg63
g3303
sg56
(lp3310
S'<cStringIO.StringO object at 0x1d00720>'
p3311
asbasbasbag49
(g65
g51
NtRp3312
(dp3313
g54
(dp3314
sg63
g2864
sg56
(lp3315
g49
(g70
g51
NtRp3316
(dp3317
g54
(dp3318
g74
g75
ssg63
g3312
sg56
(lp3319
S'wsgi.multiprocess'
p3320
asbag49
(g70
g51
NtRp3321
(dp3322
g54
(dp3323
g81
g82
ssg63
g3312
sg56
(lp3324
S':'
asbag49
(g70
g51
NtRp3325
(dp3326
g54
(dp3327
sg63
g3312
sg56
(lp3328
g49
(g50
g51
NtRp3329
(dp3330
g54
(dp3331
g62
I3
ssg63
g3325
sg56
(lp3332
g92
asbasbasbag49
(g65
g51
NtRp3333
(dp3334
g54
(dp3335
sg63
g2864
sg56
(lp3336
g49
(g70
g51
NtRp3337
(dp3338
g54
(dp3339
g74
g75
ssg63
g3333
sg56
(lp3340
S'wsgi.multithread'
p3341
asbag49
(g70
g51
NtRp3342
(dp3343
g54
(dp3344
g81
g82
ssg63
g3333
sg56
(lp3345
S':'
asbag49
(g70
g51
NtRp3346
(dp3347
g54
(dp3348
sg63
g3333
sg56
(lp3349
g49
(g50
g51
NtRp3350
(dp3351
g54
(dp3352
g62
I3
ssg63
g3346
sg56
(lp3353
g2094
asbasbasbag49
(g65
g51
NtRp3354
(dp3355
g54
(dp3356
sg63
g2864
sg56
(lp3357
g49
(g70
g51
NtRp3358
(dp3359
g54
(dp3360
g74
g75
ssg63
g3354
sg56
(lp3361
S'wsgi.run_once'
p3362
asbag49
(g70
g51
NtRp3363
(dp3364
g54
(dp3365
g81
g82
ssg63
g3354
sg56
(lp3366
S':'
asbag49
(g70
g51
NtRp3367
(dp3368
g54
(dp3369
sg63
g3354
sg56
(lp3370
g49
(g50
g51
NtRp3371
(dp3372
g54
(dp3373
g62
I3
ssg63
g3367
sg56
(lp3374
g92
asbasbasbag49
(g65
g51
NtRp3375
(dp3376
g54
(dp3377
sg63
g2864
sg56
(lp3378
g49
(g70
g51
NtRp3379
(dp3380
g54
(dp3381
g74
g75
ssg63
g3375
sg56
(lp3382
S'wsgi.url_scheme'
p3383
asbag49
(g70
g51
NtRp3384
(dp3385
g54
(dp3386
g81
g82
ssg63
g3375
sg56
(lp3387
S':'
asbag49
(g70
g51
NtRp3388
(dp3389
g54
(dp3390
sg63
g3375
sg56
(lp3391
g49
(g50
g51
NtRp3392
(dp3393
g54
(dp3394
g62
I3
ssg63
g3388
sg56
(lp3395
g2137
asbasbasbag49
(g65
g51
NtRp3396
(dp3397
g54
(dp3398
sg63
g2864
sg56
(lp3399
g49
(g70
g51
NtRp3400
(dp3401
g54
(dp3402
g74
g75
ssg63
g3396
sg56
(lp3403
S'wsgi.version'
p3404
asbag49
(g70
g51
NtRp3405
(dp3406
g54
(dp3407
g81
g82
ssg63
g3396
sg56
(lp3408
S':'
asbag49
(g70
g51
NtRp3409
(dp3410
g54
(dp3411
sg63
g3396
sg56
(lp3412
g49
(g50
g51
NtRp3413
(dp3414
g54
(dp3415
g62
I3
ssg63
g3409
sg56
(lp3416
S'1'
asbasbasbasbasbasbasbasbasbasbasbasbasbsS'frames'
p3417
(lp3418
(dp3419
S'file'
p3420
S'/Users/mdipierro/Dropbox/web2py/gluon/restricted.py'
p3421
sS'dump'
p3422
(dp3423
S'environment'
p3424
S"{'A': <class 'gluon.html.A'>, 'Auth': <class 'gluon.tools.Auth'>, 'B': <class 'gluon.html.B'>, 'BEAUTIFY': <class 'gluon.html.BEAUTIFY'>, 'BODY': <class 'gluon.html.BODY'>, 'BR': <class 'gluon.html.BR'>, 'BUTTON': <class 'gluon.html.BUTTON'>, 'CAT': <class 'gluon.html.CAT'>, 'CENTER': <class 'gluon.html.CENTER'>, 'CLEANUP': <class 'gluon.validators.CLEANUP'>, ...}"
p3425
sS'ccode'
p3426
S'<code object <module> at 0x1eccc80, file "/Users...ications/inplace/controllers/default.py", line 4>'
p3427
ssS'lnum'
p3428
I204
sS'lines'
p3429
(dp3430
I199
S'    try:'
p3431
sI200
S'        if type(code) == types.CodeType:'
p3432
sI201
S'            ccode = code'
p3433
sI202
S'        else:'
p3434
sI203
S'            ccode = compile2(code,layer)'
p3435
sI204
S'        exec ccode in environment'
p3436
sI205
S'    except HTTP:'
p3437
sI206
S'        raise'
p3438
sI207
S'    except RestrictedError:'
p3439
sI208
S'        # do not encapsulate (obfuscate) the original RestrictedError'
p3440
ssS'call'
p3441
S"(code='# -*- coding: utf-8 -*-\\n# developed by Massimo D...cals()\\n\\n\\nresponse._vars=response._caller(folder)\\n', environment={'A': <class 'gluon.html.A'>, 'Auth': <class 'gluon.tools.Auth'>, 'B': <class 'gluon.html.B'>, 'BEAUTIFY': <class 'gluon.html.BEAUTIFY'>, 'BODY': <class 'gluon.html.BODY'>, 'BR': <class 'gluon.html.BR'>, 'BUTTON': <class 'gluon.html.BUTTON'>, 'CAT': <class 'gluon.html.CAT'>, 'CENTER': <class 'gluon.html.CENTER'>, 'CLEANUP': <class 'gluon.validators.CLEANUP'>, ...}, layer='/Users/mdipierro/Dropbox/web2py/applications/inplace/controllers/default.py')"
p3442
sS'func'
p3443
S'restricted'
p3444
sa(dp3445
g3420
S'/Users/mdipierro/Dropbox/web2py/applications/inplace/controllers/default.py'
p3446
sg3422
(dp3447
sg3428
I90
sg3429
(dp3448
I79
S''
sI80
S'def edit_folder():'
p3449
sI81
S'    folder = db.cms_folder(request.args(0))'
p3450
sI82
S'    db.cms_folder.parent_folder.default=folder.id'
p3451
sI83
S'    db.cms_folder.name.requires=IS_NOT_IN_DB('
p3452
sI84
S"        db(db.cms_folder.parent_folder==folder.id),'cms_folder.name')"
p3453
sI85
S'    form = SQLFORM(db.cms_folder,request.args(1),deletable=True)\\'
p3454
sI86
S"        .process(next=URL('folder',args=folder.id))"
p3455
sI87
S'    return locals()'
p3456
sI88
S''
ssg3441
S'()'
p3457
sg3443
S'<module>'
p3458
sa(dp3459
g3420
S'/Users/mdipierro/Dropbox/web2py/gluon/globals.py'
p3460
sg3422
(dp3461
S'self'
p3462
S'undefined'
p3463
sS'f'
S'<function folder at 0x1ee0e30>'
p3464
ssg3428
I172
sg3429
(dp3465
I167
S'        self.meta = Storage()      # used by web2py_ajax.html'
p3466
sI168
S'        self.menu = []             # used by the default view layout'
p3467
sI169
S'        self.files = []            # used by web2py_ajax.html'
p3468
sI170
S'        self.generic_patterns = [] # patterns to allow generic views'
p3469
sI171
S'        self._vars = None'
p3470
sI172
S'        self._caller = lambda f: f()'
p3471
sI173
S'        self._view_environment = None'
p3472
sI174
S'        self._custom_commit = None'
p3473
sI175
S'        self._custom_rollback = None'
p3474
sI176
S''
ssg3441
S'(f=<function folder at 0x1ee0e30>)'
p3475
sg3443
S'<lambda>'
p3476
sa(dp3477
g3420
S'/Users/mdipierro/Dropbox/web2py/applications/inplace/controllers/default.py'
p3478
sg3422
(dp3479
S'folder.name'
p3480
g3463
sS'folder'
p3481
S'None'
p3482
sS'folder.path'
p3483
g3463
sS'folder.parent_folder'
p3484
g3463
sS'f'
g3463
ssg3428
I65
sg3429
(dp3485
I64
S'    folder = db.cms_folder(request.args(0))'
p3486
sI65
S'    folder.path, f = [folder.name], folder.parent_folder'
p3487
sI66
S"    while f: folder.path, f = [A(f.name,_href=URL('folder',args=f))]+folder.path, f.parent_folder"
p3488
sI67
S'    files = db(db.cms_file.folder==folder.id).select(orderby=db.cms_file.name)'
p3489
sI68
S'    folders = db(db.cms_folder.parent_folder==folder.id).select(orderby=db.cms_folder.name)'
p3490
sI69
S'    return locals()'
p3491
sI60
S'def user():'
p3492
sI61
S'    return dict(form=auth())'
p3493
sI62
S''
sI63
S'def folder():'
p3494
ssg3441
S'()'
p3495
sg3443
g2217
sasS'pyver'
p3496
S'Python 2.5.4: /usr/bin/python2.5'
p3497
sS'session'
p3498
g49
(g50
g51
NtRp3499
(dp3500
g54
(dp3501
sg56
(lp3502
g49
(g58
g51
NtRp3503
(dp3504
g54
(dp3505
g62
I5
ssg63
Nsg56
(lp3506
g49
(g65
g51
NtRp3507
(dp3508
g54
(dp3509
sg63
g3503
sg56
(lp3510
g49
(g70
g51
NtRp3511
(dp3512
g54
(dp3513
g74
g75
ssg63
g3507
sg56
(lp3514
S'auth'
p3515
asbag49
(g70
g51
NtRp3516
(dp3517
g54
(dp3518
g81
g82
ssg63
g3507
sg56
(lp3519
S':'
asbag49
(g70
g51
NtRp3520
(dp3521
g54
(dp3522
sg63
g3507
sg56
(lp3523
g49
(g50
g51
NtRp3524
(dp3525
g54
(dp3526
g62
I5
ssg63
g3520
sg56
(lp3527
g49
(g58
g51
NtRp3528
(dp3529
g54
(dp3530
g62
I4
ssg63
Nsg56
(lp3531
g49
(g65
g51
NtRp3532
(dp3533
g54
(dp3534
sg63
g3528
sg56
(lp3535
g49
(g70
g51
NtRp3536
(dp3537
g54
(dp3538
g74
g75
ssg63
g3532
sg56
(lp3539
S'expiration'
p3540
asbag49
(g70
g51
NtRp3541
(dp3542
g54
(dp3543
g81
g82
ssg63
g3532
sg56
(lp3544
S':'
asbag49
(g70
g51
NtRp3545
(dp3546
g54
(dp3547
sg63
g3532
sg56
(lp3548
g49
(g50
g51
NtRp3549
(dp3550
g54
(dp3551
g62
I4
ssg63
g3545
sg56
(lp3552
S'3600'
p3553
asbasbasbag49
(g65
g51
NtRp3554
(dp3555
g54
(dp3556
sg63
g3528
sg56
(lp3557
g49
(g70
g51
NtRp3558
(dp3559
g54
(dp3560
g74
g75
ssg63
g3554
sg56
(lp3561
S'hmac_key'
p3562
asbag49
(g70
g51
NtRp3563
(dp3564
g54
(dp3565
g81
g82
ssg63
g3554
sg56
(lp3566
S':'
asbag49
(g70
g51
NtRp3567
(dp3568
g54
(dp3569
sg63
g3554
sg56
(lp3570
g49
(g50
g51
NtRp3571
(dp3572
g54
(dp3573
g62
I4
ssg63
g3567
sg56
(lp3574
S'0b48d067-c8d0-4f2e-9c3d-d54e1884cecf'
p3575
asbasbasbag49
(g65
g51
NtRp3576
(dp3577
g54
(dp3578
sg63
g3528
sg56
(lp3579
g49
(g70
g51
NtRp3580
(dp3581
g54
(dp3582
g74
g75
ssg63
g3576
sg56
(lp3583
S'last_visit'
p3584
asbag49
(g70
g51
NtRp3585
(dp3586
g54
(dp3587
g81
g82
ssg63
g3576
sg56
(lp3588
S':'
asbag49
(g70
g51
NtRp3589
(dp3590
g54
(dp3591
sg63
g3576
sg56
(lp3592
g49
(g50
g51
NtRp3593
(dp3594
g54
(dp3595
g62
I4
ssg63
g3589
sg56
(lp3596
S'datetime.datetime(2011, 12, 11, 16, 21, 57, 332884)'
p3597
asbasbasbag49
(g65
g51
NtRp3598
(dp3599
g54
(dp3600
sg63
g3528
sg56
(lp3601
g49
(g70
g51
NtRp3602
(dp3603
g54
(dp3604
g74
g75
ssg63
g3598
sg56
(lp3605
S'user'
p3606
asbag49
(g70
g51
NtRp3607
(dp3608
g54
(dp3609
g81
g82
ssg63
g3598
sg56
(lp3610
S':'
asbag49
(g70
g51
NtRp3611
(dp3612
g54
(dp3613
sg63
g3598
sg56
(lp3614
g49
(g50
g51
NtRp3615
(dp3616
g54
(dp3617
g62
I4
ssg63
g3611
sg56
(lp3618
g49
(g58
g51
NtRp3619
(dp3620
g54
(dp3621
g62
I3
ssg63
Nsg56
(lp3622
g49
(g65
g51
NtRp3623
(dp3624
g54
(dp3625
sg63
g3619
sg56
(lp3626
g49
(g70
g51
NtRp3627
(dp3628
g54
(dp3629
g74
g75
ssg63
g3623
sg56
(lp3630
S'email'
p3631
asbag49
(g70
g51
NtRp3632
(dp3633
g54
(dp3634
g81
g82
ssg63
g3623
sg56
(lp3635
S':'
asbag49
(g70
g51
NtRp3636
(dp3637
g54
(dp3638
sg63
g3623
sg56
(lp3639
g49
(g50
g51
NtRp3640
(dp3641
g54
(dp3642
g62
I3
ssg63
g3636
sg56
(lp3643
S'mdipierro@cs.depaul.edu'
p3644
asbasbasbag49
(g65
g51
NtRp3645
(dp3646
g54
(dp3647
sg63
g3619
sg56
(lp3648
g49
(g70
g51
NtRp3649
(dp3650
g54
(dp3651
g74
g75
ssg63
g3645
sg56
(lp3652
S'first_name'
p3653
asbag49
(g70
g51
NtRp3654
(dp3655
g54
(dp3656
g81
g82
ssg63
g3645
sg56
(lp3657
S':'
asbag49
(g70
g51
NtRp3658
(dp3659
g54
(dp3660
sg63
g3645
sg56
(lp3661
g49
(g50
g51
NtRp3662
(dp3663
g54
(dp3664
g62
I3
ssg63
g3658
sg56
(lp3665
S'Massimo'
p3666
asbasbasbag49
(g65
g51
NtRp3667
(dp3668
g54
(dp3669
sg63
g3619
sg56
(lp3670
g49
(g70
g51
NtRp3671
(dp3672
g54
(dp3673
g74
g75
ssg63
g3667
sg56
(lp3674
S'id'
p3675
asbag49
(g70
g51
NtRp3676
(dp3677
g54
(dp3678
g81
g82
ssg63
g3667
sg56
(lp3679
S':'
asbag49
(g70
g51
NtRp3680
(dp3681
g54
(dp3682
sg63
g3667
sg56
(lp3683
g49
(g50
g51
NtRp3684
(dp3685
g54
(dp3686
g62
I3
ssg63
g3680
sg56
(lp3687
S'1'
asbasbasbag49
(g65
g51
NtRp3688
(dp3689
g54
(dp3690
sg63
g3619
sg56
(lp3691
g49
(g70
g51
NtRp3692
(dp3693
g54
(dp3694
g74
g75
ssg63
g3688
sg56
(lp3695
S'last_name'
p3696
asbag49
(g70
g51
NtRp3697
(dp3698
g54
(dp3699
g81
g82
ssg63
g3688
sg56
(lp3700
S':'
asbag49
(g70
g51
NtRp3701
(dp3702
g54
(dp3703
sg63
g3688
sg56
(lp3704
g49
(g50
g51
NtRp3705
(dp3706
g54
(dp3707
g62
I3
ssg63
g3701
sg56
(lp3708
S'Di Pierro'
p3709
asbasbasbag49
(g65
g51
NtRp3710
(dp3711
g54
(dp3712
sg63
g3619
sg56
(lp3713
g49
(g70
g51
NtRp3714
(dp3715
g54
(dp3716
g74
g75
ssg63
g3710
sg56
(lp3717
S'password'
p3718
asbag49
(g70
g51
NtRp3719
(dp3720
g54
(dp3721
g81
g82
ssg63
g3710
sg56
(lp3722
S':'
asbag49
(g70
g51
NtRp3723
(dp3724
g54
(dp3725
sg63
g3710
sg56
(lp3726
g49
(g50
g51
NtRp3727
(dp3728
g54
(dp3729
g62
I3
ssg63
g3723
sg56
(lp3730
S'12923092f4d9e86e56018b9cdd790947'
p3731
asbasbasbag49
(g65
g51
NtRp3732
(dp3733
g54
(dp3734
sg63
g3619
sg56
(lp3735
g49
(g70
g51
NtRp3736
(dp3737
g54
(dp3738
g74
g75
ssg63
g3732
sg56
(lp3739
S'registration_id'
p3740
asbag49
(g70
g51
NtRp3741
(dp3742
g54
(dp3743
g81
g82
ssg63
g3732
sg56
(lp3744
S':'
asbag49
(g70
g51
NtRp3745
(dp3746
g54
(dp3747
sg63
g3732
sg56
(lp3748
g49
(g50
g51
NtRp3749
(dp3750
g54
(dp3751
g62
I3
ssg63
g3745
sg56
(lp3752
S''
asbasbasbag49
(g65
g51
NtRp3753
(dp3754
g54
(dp3755
sg63
g3619
sg56
(lp3756
g49
(g70
g51
NtRp3757
(dp3758
g54
(dp3759
g74
g75
ssg63
g3753
sg56
(lp3760
S'registration_key'
p3761
asbag49
(g70
g51
NtRp3762
(dp3763
g54
(dp3764
g81
g82
ssg63
g3753
sg56
(lp3765
S':'
asbag49
(g70
g51
NtRp3766
(dp3767
g54
(dp3768
sg63
g3753
sg56
(lp3769
g49
(g50
g51
NtRp3770
(dp3771
g54
(dp3772
g62
I3
ssg63
g3766
sg56
(lp3773
S''
asbasbasbag49
(g65
g51
NtRp3774
(dp3775
g54
(dp3776
sg63
g3619
sg56
(lp3777
g49
(g70
g51
NtRp3778
(dp3779
g54
(dp3780
g74
g75
ssg63
g3774
sg56
(lp3781
S'reset_password_key'
p3782
asbag49
(g70
g51
NtRp3783
(dp3784
g54
(dp3785
g81
g82
ssg63
g3774
sg56
(lp3786
S':'
asbag49
(g70
g51
NtRp3787
(dp3788
g54
(dp3789
sg63
g3774
sg56
(lp3790
g49
(g50
g51
NtRp3791
(dp3792
g54
(dp3793
g62
I3
ssg63
g3787
sg56
(lp3794
S''
asbasbasbasbasbasbasbasbasbasbasbag49
(g65
g51
NtRp3795
(dp3796
g54
(dp3797
sg63
g3503
sg56
(lp3798
g49
(g70
g51
NtRp3799
(dp3800
g54
(dp3801
g74
g75
ssg63
g3795
sg56
(lp3802
S'html'
p3803
asbag49
(g70
g51
NtRp3804
(dp3805
g54
(dp3806
g81
g82
ssg63
g3795
sg56
(lp3807
S':'
asbag49
(g70
g51
NtRp3808
(dp3809
g54
(dp3810
sg63
g3795
sg56
(lp3811
g49
(g50
g51
NtRp3812
(dp3813
g54
(dp3814
g62
I5
ssg63
g3808
sg56
(lp3815
S'\n<!DOCTYPE html>\n<!-- paulirish.com/2008/conditional-stylesheets-vs-css-hacks-answer-neither/ -->\n<!--[if lt IE 7]><html class="ie ie6 ie-lte9 ie-lte8 ie-lte7 no-js" lang="en"> <![endif]-->\n<!--[if IE 7]><html class="ie ie7 ie-lte9 ie-lte8 ie-lte7 no-js" lang="en"> <![endif]-->\n<!--[if IE 8]><html class="ie ie8 ie-lte9 ie-lte8 no-js" lang="en"> <![endif]-->\n<!--[if IE 9]><html class="ie9 ie-lte9 no-js" lang="en"> <![endif]-->\n<!--[if (gt IE 9)|!(IE)]><!--> <html class="no-js" lang="en"> <!--<![endif]-->\n<head>\n  <meta charset="utf-8" />\n  <!-- www.phpied.com/conditional-comments-block-downloads/ -->\n  <!-- Always force latest IE rendering engine\n\t   (even in intranet) & Chrome Frame\n\t   Remove this if you use the .htaccess -->\n  <!--[if IE]>\n    <meta http-equiv="X-UA-Compatible" content="IE=edge">\n  <![endif]-->\n  \n  <title>web2py Web Framework</title>\n  \n  <!-- http://dev.w3.org/html5/markup/meta.name.html -->\n  <meta name="application-name" content="examples" />\n  \n  <!-- Speaking of Google, don\'t forget to set your site up:\n\t   http://google.com/webmasters -->\n  <meta name="google-site-verification" content="" />\n\n  <!--  Mobile Viewport Fix\n\t  j.mp/mobileviewport & davidbcalhoun.com/2010/viewport-metatag\n\t  device-width: Occupy full width of the screen in its current orientation\n\t  initial-scale = 1.0 retains dimensions instead of zooming out if page height > device height\n\t  user-scalable = yes allows the user to zoom in -->\n  <meta name="viewport" content="width=device-width, initial-scale=1.0, user-scalable=yes">\n  \n  <!-- Place favicon.ico and apple-touch-icon.png in the root of your domain and delete these references -->\n  <link rel="shortcut icon" href="/examples/static/favicon.ico" type="image/x-icon">\n  <link rel="apple-touch-icon" href="/examples/static/favicon.png">\n\n  <!-- All JavaScript at the bottom, except for Modernizr which enables \n\t   HTML5 elements & feature detects -->\n  <script src="/examples/static/js/modernizr.custom.js"></script>  \n\n  <!-- include stylesheets -->\n  \n\n  <script type="text/javascript"><!--\n    // These variables are used by the web2py_ajax_init function in web2py_ajax.js (which is loaded below).\n    var w2p_ajax_confirm_message = "Are you sure you want to delete this object?";\n    var w2p_ajax_date_format = "%Y-%m-%d";\n    var w2p_ajax_datetime_format = "%Y-%m-%d %H:%M:%S";\n    //--></script>\n<script src="/examples/static/js/jquery.js" type="text/javascript"></script><link href="/examples/static/css/calendar.css" rel="stylesheet" type="text/css" /><script src="/examples/static/js/calendar.js" type="text/javascript"></script><script src="/examples/static/js/web2py.js" type="text/javascript"></script><link href="/examples/static/css/skeleton.css" rel="stylesheet" type="text/css" /><link href="/examples/static/css/web2py.css" rel="stylesheet" type="text/css" /><link href="/examples/static/css/examples.css" rel="stylesheet" type="text/css" /><link href="/examples/static/css/superfish.css" rel="stylesheet" type="text/css" /><script src="/examples/static/js/superfish.js" type="text/javascript"></script>\n\n\n  <script type="text/javascript">\n    jQuery(function(){jQuery(\'.sf-menu\').superfish();});\n  </script>\n\n  \n\n  <!-- uncomment here to load jquery-ui\n  <link rel="stylesheet" href="http://ajax.googleapis.com/ajax/libs/jqueryui/1.8.16/themes/base/jquery-ui.css" type="text/css" media="all" />\n  <script src="http://ajax.googleapis.com/ajax/libs/jqueryui/1.8.16/jquery-ui.min.js" type="text/javascript"></script>\n  uncomment to load jquery-ui //-->\n  </style>\n</head>\n<body>\n  <div class="wrapper"><!-- for sticky footer -->    \n    <div class="flash"></div>    \n    <div class="header">\n      <div class="container">\n        <div class="sixteen columns">\n\t  <img src="/examples/static/images/web2py_logo.png" />\n          <h5></h5>\n        </div>\n        \n        <div class="sixteen columns statusbar">\n\t  \n\t  \n          <div id="menu"><ul class="sf-menu"><li><a href="/examples/default/index">Home</a></li><li><a href="/examples/default/what">About</a></li><li><a href="/examples/default/download">Download</a></li><li><a href="/examples/default/documentation">Docs &amp; Resources</a></li><li><a href="/examples/default/support">Support</a></li><li><a href="/examples/default/who">Contributors</a></li></ul>\n\t    \n            <!-- AddToAny BEGIN -->\n            <div style="float:right;padding-top:6px;" class="a2a_kit a2a_default_style">\n            <a class="a2a_dd" href="http://www.addtoany.com/share_save">Share</a></div>\n            <script type="text/javascript" src="http://static.addtoany.com/menu/page.js"></script>\n            <!-- AddToAny END -->\n          </div>\n\t  \n\t  <div class="sixteen columns announce">\n\t    <a href="http://www.infoworld.com/d/open-source-software/bossie-awards-2011-the-best-open-source-application-development-software-171759-0&current=10&last=1#slideshowTop">2011 BOSSIE AWARD FOR OPEN SOURCE DEVELOPMENT SOFTWARE</a>\n          </div>\n\t</div>\n      </div>\n    </div>\n    <div class="main">\n      <div class="container mainbody">\t\n        <div class="sixteen columns">\n          <div class="ten columns center">\n            \n            \n\n<center>\n  <img src="/examples/static/images/tag-cloud-color-small.png"/>\n</center>\n\n<h3>WEB2PY<sup>TM</sup> WEB FRAMEWORK</h3>\n<p>Free open source full-stack framework for rapid development of fast, scalable, <a href="http://www.web2py.com/book/default/chapter/01#security" target="_blank">secure</a> and portable database-driven web-based applications. Written and programmable in <a href="http://www.python.org" target="_blank">Python</a>. <a href="http://www.gnu.org/licenses/lgpl.html">LGPLv3 License</a>.\nCurrent version: 1.99.3 (2011-12-09 16:18:03) stable</p>\n\n\n\n\n\n\n            \n          </div>\n          \n          \n          <div class="five columns">\n            \n<div style="text-align:center">\n  <a href="http://web2py.com/book"><img src="/examples/static/images/tablet.png" alt="Tablet" /></a><br/>\n  <a href="http://www.lulu.com/product/paperback/web2py-book-(4th-edition)/18738286"><img src="http://static.lulu.com/images/services/buy_now_buttons/us/book.gif?20111206124946" border="0" alt="Support independent publishing: Buy this book on Lulu."></a><br/>\n  <a class="button" href="/examples/default/download" style="width:90%">DOWNLOAD NOW</a><br/>\n  <a class="button" href="http://web2py.com/demo_admin" style="width:90%">ONLINE DEMO</a><br/>\n  <a class="button" href="http://web2py.com/poweredby" style="width:90%">SITES POWERED</a>\n</div>\n\n          </div>    \n          \n        </div>\n      </div><!-- container -->\n      \n<div class="container">\n  <div class="sixteen columns">\n    <div class="five columns">\n      <h3><a href="/examples/default/about">BATTERIES INCLUDED</a></h3>\n      <p>Everything you need in one package including fast multi-threaded web server, SQL database and web-based interface. No third party dependencies but works with <a href=/examples/default/what>third party tools</a>.</p>\n    </div>\n    <div class="five columns">\n      <h3><a href="http://web2py.com/demo_admin">WEB-BASED IDE</a></h3>\n      <p>Create, modify, deploy and manage application from anywhere using your browser. One web2py instance can run multiple web sites using different databases. Try the <a href="http://web2py.com/demo_admin">interactive demo</a>.</p>\n    </div>\n    <div class="five columns">\n      <h3><a href="/examples/default/documentation">EXTENSIVE DOCS</a></h3>\n      <p>Start with some <a href="/examples/default/examples">quick examples</a>, then read the <a href="http://web2py.com/book">reference manual</a>, watch <a href="http://vimeo.com/album/178500">videos</a>, and join a <a href="/examples/default/usergroups">user group</a> for discussion. Take advantage of the <a href="http://web2py.com/layouts">layouts</a>, <a href="http://dev.s-cubism.com/web2py_plugins">plugins</a>, and <a href="http://web2pyslices.com">recipes</a>.</p>\n    </div>\n  </div>\n</div>\n<div class="container">\n  <div class="sixteen columns">\n    <img src="/examples/static/images/shadow-bottom.png" width="100%"/>\n    \n    <div class="five columns">\n      <em>\n\t<p>Please use www.web2py.com when using MVC , no PHP/SQL stuff please...its 2011 not 1999</p>\n      </em>\n      <span class="right">\n\t<a href="http://twitter.com/#!/rabblesoft/status/79189028431343616"><em>rabblesoft</em></a>\n      </span>\n    </div>\n    \n    <div class="five columns">\n      <em>\n\t<p>web2py was the life saver today for me, my blog post: Standalone Usage of web2py&#x27;s</p>\n      </em>\n      <span class="right">\n\t<a href="http://twitter.com/#!/caglartoklu/status/84292131707031553"><em>caglartoklu</em></a>\n      </span>\n    </div>\n    \n    <div class="five columns">\n      <em>\n\t<p>web2py it is. Compatible with everything under the sun and great interfaces to googleappengine</p>\n      </em>\n      <span class="right">\n\t<a href="http://twitter.com/#!/comamitc/status/51744719071477760"><em>comamitc</em></a>\n      </span>\n    </div>\n    \n  </div>\n</div>\n      \n      \n    </div><!-- main -->\n    \n    <div class="push"></div>\n  </div><!-- wrapper -->\n\n  <div class="footer">\n    <div class="container header">    \n      <div class="sixteen columns">\n         <!-- this is default footer -->\n        <div class="footer-content" >\n          Copyright &#169; 2011\n\t  - User communities in <a href="https://groups.google.com/forum/?fromgroups#!forum/web2py" target="_blank">English<a>, <a href="https://groups.google.com/forum/?fromgroups#!forum/web2py-fr" target="_blank">French</a>, <a href="https://groups.google.com/forum/?fromgroups#!forum/web2py-japan" target="_blank">Japanese</a>, <a href="https://groups.google.com/forum/?fromgroups#!forum/web2py-users-brazil" target="_blank">Portuguese</a>, and <a href="https://groups.google.com/forum/?fromgroups#!forum/web2py-usuarios" target="_blank">Spanish</a>.\n          <div style="float: right;">\n            <a href="http://www.web2py.com/" style="float: left; padding-right: 6px;">\n            <img style="padding-bottom: 0;" src="/examples/static/images/poweredby.png"/>\n            </a>\n          </div>\n        </div>\n        \t\n      </div>\n    </div><!-- container -->\n  </div><!-- footer -->\n  \n  <!--[if lt IE 7 ]>\n\t<script src="/examples/static/js/dd_belatedpng.js"></script>\n\t<script> DD_belatedPNG.fix(\'img, .png_bg\'); //fix any <img> or .png_bg background-images </script>\n\t<![endif]-->\n  \n</body>\n</html>\n'
p3816
asbasbasbag49
(g65
g51
NtRp3817
(dp3818
g54
(dp3819
sg63
g3503
sg56
(lp3820
g49
(g70
g51
NtRp3821
(dp3822
g54
(dp3823
g74
g75
ssg63
g3817
sg56
(lp3824
S'new_html'
p3825
asbag49
(g70
g51
NtRp3826
(dp3827
g54
(dp3828
g81
g82
ssg63
g3817
sg56
(lp3829
S':'
asbag49
(g70
g51
NtRp3830
(dp3831
g54
(dp3832
sg63
g3817
sg56
(lp3833
g49
(g50
g51
NtRp3834
(dp3835
g54
(dp3836
g62
I5
ssg63
g3830
sg56
(lp3837
S'\n<!DOCTYPE html>\n<!-- paulirish.com/2008/conditional-stylesheets-vs-css-hacks-answer-neither/ -->\n<!--[if lt IE 7]><html class="ie ie6 ie-lte9 ie-lte8 ie-lte7 no-js" lang="en"> <![endif]-->\n<!--[if IE 7]><html class="ie ie7 ie-lte9 ie-lte8 ie-lte7 no-js" lang="en"> <![endif]-->\n<!--[if IE 8]><html class="ie ie8 ie-lte9 ie-lte8 no-js" lang="en"> <![endif]-->\n<!--[if IE 9]><html class="ie9 ie-lte9 no-js" lang="en"> <![endif]-->\n<!--[if (gt IE 9)|!(IE)]><!--> <html class="no-js" lang="en"> <!--<![endif]-->\n<head>\n  <meta charset="utf-8" />\n  <!-- www.phpied.com/conditional-comments-block-downloads/ -->\n  <!-- Always force latest IE rendering engine\n\t   (even in intranet) & Chrome Frame\n\t   Remove this if you use the .htaccess -->\n  <!--[if IE]>\n    <meta http-equiv="X-UA-Compatible" content="IE=edge">\n  <![endif]-->\n  \n  <title>web2py Web Framework</title>\n  \n  <!-- http://dev.w3.org/html5/markup/meta.name.html -->\n  <meta name="application-name" content="examples" />\n  \n  <!-- Speaking of Google, don\'t forget to set your site up:\n\t   http://google.com/webmasters -->\n  <meta name="google-site-verification" content="" />\n\n  <!--  Mobile Viewport Fix\n\t  j.mp/mobileviewport & davidbcalhoun.com/2010/viewport-metatag\n\t  device-width: Occupy full width of the screen in its current orientation\n\t  initial-scale = 1.0 retains dimensions instead of zooming out if page height > device height\n\t  user-scalable = yes allows the user to zoom in -->\n  <meta name="viewport" content="width=device-width, initial-scale=1.0, user-scalable=yes">\n  \n  <!-- Place favicon.ico and apple-touch-icon.png in the root of your domain and delete these references -->\n  <link rel="shortcut icon" href="/examples/static/favicon.ico" type="image/x-icon">\n  <link rel="apple-touch-icon" href="/examples/static/favicon.png">\n\n  <!-- All JavaScript at the bottom, except for Modernizr which enables \n\t   HTML5 elements & feature detects -->\n  <script src="/examples/static/js/modernizr.custom.js"></script>  \n\n  <!-- include stylesheets -->\n  \n\n  <script type="text/javascript"><!--\n    // These variables are used by the web2py_ajax_init function in web2py_ajax.js (which is loaded below).\n    var w2p_ajax_confirm_message = "Are you sure you want to delete this object?";\n    var w2p_ajax_date_format = "%Y-%m-%d";\n    var w2p_ajax_datetime_format = "%Y-%m-%d %H:%M:%S";\n    //--></script>\n<script src="/examples/static/js/jquery.js" type="text/javascript"></script><link href="/examples/static/css/calendar.css" rel="stylesheet" type="text/css" /><script src="/examples/static/js/calendar.js" type="text/javascript"></script><script src="/examples/static/js/web2py.js" type="text/javascript"></script><link href="/examples/static/css/skeleton.css" rel="stylesheet" type="text/css" /><link href="/examples/static/css/web2py.css" rel="stylesheet" type="text/css" /><link href="/examples/static/css/examples.css" rel="stylesheet" type="text/css" /><link href="/examples/static/css/superfish.css" rel="stylesheet" type="text/css" /><script src="/examples/static/js/superfish.js" type="text/javascript"></script>\n\n\n  <script type="text/javascript">\n    jQuery(function(){jQuery(\'.sf-menu\').superfish();});\n  </script>\n\n  \n\n  <!-- uncomment here to load jquery-ui\n  <link rel="stylesheet" href="http://ajax.googleapis.com/ajax/libs/jqueryui/1.8.16/themes/base/jquery-ui.css" type="text/css" media="all" />\n  <script src="http://ajax.googleapis.com/ajax/libs/jqueryui/1.8.16/jquery-ui.min.js" type="text/javascript"></script>\n  uncomment to load jquery-ui //-->\n  </style>\n</head>\n<body><div style="top:0;padding: 5px 20px 5px 20px; font-size: 1.5em; text-align:right;background:black;color:white;height:30px;">Attention: this is a modified copy of the original page!!! [ <a style="color:white" href="javascript:history.go(-1)">back</a> | <a style="color:white" href="clone">next</a> ]</div><iframe id="a2apage_sm_ifr" height="1" width="1" style="border-top-width: 0px; border-right-width: 0px; border-bottom-width: 0px; border-left-width: 0px; border-style: initial; border-color: initial; border-image: initial; left: 0px; top: 0px; position: absolute; z-index: 100000; display: none; " transparency="true" allowtransparency="true" frameborder="0" src="http://static.addtoany.com/menu/sm7.html#type=page&amp;event=load&amp;url=http%3A%2F%2F127.0.0.1%3A8000%2Finplace%2Fdefault%2Fedit%3Furl%3Dhttp%253A%252F%252F127.0.0.1%253A8000%252Finplace%252Fdefault%252Fpage%252F1&amp;referrer=http%3A%2F%2F127.0.0.1%3A8000%2Finplace%2Fdefault%2Findex"></iframe><div style="position: static; "><div id="a2apage_dropdown" class="a2a_menu" onmouseover="a2a.onMouseOver_stay()" onmouseout="a2a.onMouseOut_delay()"><div class="a2a_menu_inside"><div id="a2apage_title_container" class="a2a_menu_title_container" style="display: none; "><input id="a2apage_title" class="a2a_menu_title"></div><div class="a2apage_wide a2a_wide"><div class="a2a_tabs a2a_tabs_default"><div id="a2apage_DEFAULT" class="a2a_tab_selected" style="margin-right: 1px; " onclick="return a2a.tabs.open(\'DEFAULT\')"><span class="a2a_i_share">Share</span></div></div><div class="a2a_tabs"><div title="Share via email" id="a2apage_EMAIL" style="margin-right: 1px; " onclick="return a2a.tabs.open(\'EMAIL\')"><span class="a2a_i_email"></span></div></div><div class="a2a_tabs"><div onclick="a2a.bmBrowser()" title="Bookmark in your browser" id="a2apage_BROWSER" style="margin-left: 1px; "><span class="a2a_i_bookmark"></span></div></div></div><div class="a2a_clear"></div><div id="a2apage_find_container" class="a2a_menu_find_container" style=""><input id="a2apage_find" class="a2a_menu_find" type="text" onclick="a2a.focus_find()" onkeyup="a2a.do_find()" autocomplete="off" onfocus="a2a[\'page\'].find_focused=true;a2a.onMouseOver_stay()" title="Instantly find any service"><span id="a2apage_find_icon" class="a2a_i_find" onclick="a2a.focus_find()"></span></div><div id="a2apage_cols_container" class="a2a_cols_container"><div class="a2a_col1" id="a2apage_col1" style=""><a id="a2apage_live" rel="nofollow" class="a2a_i a2a_sss" href="/" target="_blank"><span class="a2a_i_live">Messenger</span></a><a id="a2apage_facebook" rel="nofollow" class="a2a_i" href="/" target="_blank"><span class="a2a_i_facebook">Facebook</span></a><a id="a2apage_twitter" rel="nofollow" class="a2a_i" href="/" target="_blank"><span class="a2a_i_twitter">Twitter</span></a><a id="a2apage_google_plus" rel="nofollow" class="a2a_i" href="/" target="_blank"><span class="a2a_i_google">Google </span></a><a id="a2apage_delicious" rel="nofollow" class="a2a_i" href="/" target="_blank"><span class="a2a_i_delicious">Delicious</span></a><a id="a2apage_digg" rel="nofollow" class="a2a_i" href="/" target="_blank"><span class="a2a_i_digg">Digg</span></a><a id="a2apage_google_bookmarks" rel="nofollow" class="a2a_i" href="/" target="_blank"><span class="a2a_i_google">Google Bookmarks</span></a><a id="a2apage_myspace" rel="nofollow" class="a2a_i" href="/" target="_blank"><span class="a2a_i_myspace">MySpace</span></a><a id="a2apage_stumbleupon" rel="nofollow" class="a2a_i" href="/" target="_blank"><span class="a2a_i_stumbleupon">StumbleUpon</span></a><a id="a2apage_reddit" rel="nofollow" class="a2a_i" href="/" target="_blank"><span class="a2a_i_reddit">Reddit</span></a><a id="a2apage_vodpod" rel="nofollow" class="a2a_i" href="/" target="_blank" style="display: none; "><span class="a2a_i_vodpod">Vodpod</span></a><a id="a2apage_yahoo_bookmarks" rel="nofollow" class="a2a_i" href="/" target="_blank" style="display: none; "><span class="a2a_i_yahoo">Yahoo Bookmarks</span></a><a id="a2apage_bebo" rel="nofollow" class="a2a_i" href="/" target="_blank" style="display: none; "><span class="a2a_i_bebo">Bebo</span></a><a id="a2apage_mister_wong" rel="nofollow" class="a2a_i" href="/" target="_blank" style="display: none; "><span class="a2a_i_mister-wong">Mister-Wong</span></a><a id="a2apage_wordpress" rel="nofollow" class="a2a_i" href="/" target="_blank" style="display: none; "><span class="a2a_i_wordpress">WordPress</span></a><a id="a2apage_google_reader" rel="nofollow" class="a2a_i" href="/" target="_blank" style="display: none; "><span class="a2a_i_reader">Google Reader</span></a><a id="a2apage_orkut" rel="nofollow" class="a2a_i" href="/" target="_blank" style="display: none; "><span class="a2a_i_orkut">Orkut</span></a><a id="a2apage_xing" rel="nofollow" class="a2a_i" href="/" target="_blank" style="display: none; "><span class="a2a_i_xing">XING</span></a><a id="a2apage_evernote" rel="nofollow" class="a2a_i" href="/" target="_blank" style="display: none; "><span class="a2a_i_evernote">Evernote</span></a><a id="a2apage_netvibes_share" rel="nofollow" class="a2a_i" href="/" target="_blank" style="display: none; "><span class="a2a_i_netvibes">Netvibes Share</span></a><a id="a2apage_strands" rel="nofollow" class="a2a_i" href="/" target="_blank" style="display: none; "><span class="a2a_i_strands">Strands</span></a><a id="a2apage_posterous" rel="nofollow" class="a2a_i" href="/" target="_blank" style="display: none; "><span class="a2a_i_posterous">Posterous</span></a><a id="a2apage_business_exchange" rel="nofollow" class="a2a_i" href="/" target="_blank" style="display: none; "><span class="a2a_i_business_exchange">Business Exchange</span></a><a id="a2apage_arto" rel="nofollow" class="a2a_i" href="/" target="_blank" style="display: none; "><span class="a2a_i_arto">Arto</span></a><a id="a2apage_tipd" rel="nofollow" class="a2a_i" href="/" target="_blank" style="display: none; "><span class="a2a_i_tipd">Tipd</span></a><a id="a2apage_smaknews" rel="nofollow" class="a2a_i" href="/" target="_blank" style="display: none; "><span class="a2a_i_smaknews">SmakNews</span></a><a id="a2apage_plurk" rel="nofollow" class="a2a_i" href="/" target="_blank" style="display: none; "><span class="a2a_i_plurk">Plurk</span></a><a id="a2apage_aim" rel="nofollow" class="a2a_i" href="/" target="_blank" style="display: none; "><span class="a2a_i_aim">AIM</span></a><a id="a2apage_yahoo_messenger" rel="nofollow" class="a2a_i" href="/" target="_blank" style="display: none; "><span class="a2a_i_yim">Yahoo Messenger</span></a><a id="a2apage_identi_ca" rel="nofollow" class="a2a_i" href="/" target="_blank" style="display: none; "><span class="a2a_i_identica">Identi.ca</span></a><a id="a2apage_mozillaca" rel="nofollow" class="a2a_i" href="/" target="_blank" style="display: none; "><span class="a2a_i_mozillaca">Mozillaca</span></a><a id="a2apage_blogger_post" rel="nofollow" class="a2a_i" href="/" target="_blank" style="display: none; "><span class="a2a_i_blogger">Blogger Post</span></a><a id="a2apage_typepad_post" rel="nofollow" class="a2a_i" href="/" target="_blank" style="display: none; "><span class="a2a_i_typepad">TypePad Post</span></a><a id="a2apage_box_net" rel="nofollow" class="a2a_i" href="/" target="_blank" style="display: none; "><span class="a2a_i_box">Box.net</span></a><a id="a2apage_netlog" rel="nofollow" class="a2a_i" href="/" target="_blank" style="display: none; "><span class="a2a_i_netlog">Netlog</span></a><a id="a2apage_technorati_favorites" rel="nofollow" class="a2a_i" href="/" target="_blank" style="display: none; "><span class="a2a_i_technorati">Technorati Favorites</span></a><a id="a2apage_citeulike" rel="nofollow" class="a2a_i" href="/" target="_blank" style="display: none; "><span class="a2a_i_citeulike">CiteULike</span></a><a id="a2apage_jumptags" rel="nofollow" class="a2a_i" href="/" target="_blank" style="display: none; "><span class="a2a_i_jumptags">Jumptags</span></a><a id="a2apage_hemidemi" rel="nofollow" class="a2a_i" href="/" target="_blank" style="display: none; "><span class="a2a_i_hemidemi">Hemidemi</span></a><a id="a2apage_funp" rel="nofollow" class="a2a_i" href="/" target="_blank" style="display: none; "><span class="a2a_i_funp">FunP</span></a><a id="a2apage_instapaper" rel="nofollow" class="a2a_i" href="/" target="_blank" style="display: none; "><span class="a2a_i_instapaper">Instapaper</span></a><a id="a2apage_phonefavs" rel="nofollow" class="a2a_i" href="/" target="_blank" style="display: none; "><span class="a2a_i_phonefavs">PhoneFavs</span></a><a id="a2apage_xerpi" rel="nofollow" class="a2a_i" href="/" target="_blank" style="display: none; "><span class="a2a_i_xerpi">Xerpi</span></a><a id="a2apage_netvouz" rel="nofollow" class="a2a_i" href="/" target="_blank" style="display: none; "><span class="a2a_i_netvouz">Netvouz</span></a><a id="a2apage_wink" rel="nofollow" class="a2a_i" href="/" target="_blank" style="display: none; "><span class="a2a_i_wink">Wink</span></a><a id="a2apage_diigo" rel="nofollow" class="a2a_i" href="/" target="_blank" style="display: none; "><span class="a2a_i_diigo">Diigo</span></a><a id="a2apage_bibsonomy" rel="nofollow" class="a2a_i" href="/" target="_blank" style="display: none; "><span class="a2a_i_bibsonomy">BibSonomy</span></a><a id="a2apage_blogmarks" rel="nofollow" class="a2a_i" href="/" target="_blank" style="display: none; "><span class="a2a_i_blogmarks">BlogMarks</span></a><a id="a2apage_tailrank" rel="nofollow" class="a2a_i" href="/" target="_blank" style="display: none; "><span class="a2a_i_tailrank">Tailrank</span></a><a id="a2apage_startaid" rel="nofollow" class="a2a_i" href="/" target="_blank" style="display: none; "><span class="a2a_i_startaid">StartAid</span></a><a id="a2apage_kledy" rel="nofollow" class="a2a_i" href="/" target="_blank" style="display: none; "><span class="a2a_i_kledy">Kledy</span></a><a id="a2apage_khabbr" rel="nofollow" class="a2a_i" href="/" target="_blank" style="display: none; "><span class="a2a_i_khabbr">Khabbr</span></a><a id="a2apage_meneame" rel="nofollow" class="a2a_i" href="/" target="_blank" style="display: none; "><span class="a2a_i_meneame">Meneame</span></a><a id="a2apage_yoolink" rel="nofollow" class="a2a_i" href="/" target="_blank" style="display: none; "><span class="a2a_i_yoolink">Yoolink</span></a><a id="a2apage_bookmarks_fr" rel="nofollow" class="a2a_i" href="/" target="_blank" style="display: none; "><span class="a2a_i_bookmarks_fr">Bookmarks.fr</span></a><a id="a2apage_technotizie" rel="nofollow" class="a2a_i" href="/" target="_blank" style="display: none; "><span class="a2a_i_technotizie">Technotizie</span></a><a id="a2apage_newsvine" rel="nofollow" class="a2a_i" href="/" target="_blank" style="display: none; "><span class="a2a_i_newsvine">NewsVine</span></a><a id="a2apage_multiply" rel="nofollow" class="a2a_i" href="/" target="_blank" style="display: none; "><span class="a2a_i_multiply">Multiply</span></a><a id="a2apage_friendfeed" rel="nofollow" class="a2a_i" href="/" target="_blank" style="display: none; "><span class="a2a_i_friendfeed">FriendFeed</span></a><a id="a2apage_plaxo_pulse" rel="nofollow" class="a2a_i" href="/" target="_blank" style="display: none; "><span class="a2a_i_plaxo">Plaxo Pulse</span></a><a id="a2apage_ping" rel="nofollow" class="a2a_i" href="/" target="_blank" style="display: none; "><span class="a2a_i_ping">Ping</span></a><a id="a2apage_squidoo" rel="nofollow" class="a2a_i" href="/" target="_blank" style="display: none; "><span class="a2a_i_squidoo">Squidoo</span></a><a id="a2apage_protopage_bookmarks" rel="nofollow" class="a2a_i" href="/" target="_blank" style="display: none; "><span class="a2a_i_protopage">Protopage Bookmarks</span></a><a id="a2apage_blinklist" rel="nofollow" class="a2a_i" href="/" target="_blank" style="display: none; "><span class="a2a_i_blinklist">Blinklist</span></a><a id="a2apage_faves" rel="nofollow" class="a2a_i" href="/" target="_blank" style="display: none; "><span class="a2a_i_faves">Faves</span></a><a id="a2apage_yigg" rel="nofollow" class="a2a_i" href="/" target="_blank" style="display: none; "><span class="a2a_i_yigg">YiGG</span></a><a id="a2apage_webnews" rel="nofollow" class="a2a_i" href="/" target="_blank" style="display: none; "><span class="a2a_i_webnews">Webnews</span></a><a id="a2apage_segnalo" rel="nofollow" class="a2a_i" href="/" target="_blank" style="display: none; "><span class="a2a_i_segnalo">Segnalo</span></a><a id="a2apage_pusha" rel="nofollow" class="a2a_i" href="/" target="_blank" style="display: none; "><span class="a2a_i_pusha">Pusha</span></a><a id="a2apage_youmob" rel="nofollow" class="a2a_i" href="/" target="_blank" style="display: none; "><span class="a2a_i_youmob">YouMob</span></a><a id="a2apage_slashdot" rel="nofollow" class="a2a_i" href="/" target="_blank" style="display: none; "><span class="a2a_i_slashdot">Slashdot</span></a><a id="a2apage_fark" rel="nofollow" class="a2a_i" href="/" target="_blank" style="display: none; "><span class="a2a_i_fark">Fark</span></a><a id="a2apage_allvoices" rel="nofollow" class="a2a_i" href="/" target="_blank" style="display: none; "><span class="a2a_i_allvoices">Allvoices</span></a><a id="a2apage_jamespot" rel="nofollow" class="a2a_i" href="/" target="_blank" style="display: none; "><span class="a2a_i_jamespot">Jamespot</span></a><a id="a2apage_imera_brazil" rel="nofollow" class="a2a_i" href="/" target="_blank" style="display: none; "><span class="a2a_i_imera">Imera Brazil</span></a><a id="a2apage_twiddla" rel="nofollow" class="a2a_i" href="/" target="_blank" style="display: none; "><span class="a2a_i_twiddla">Twiddla</span></a><a id="a2apage_linkagogo" rel="nofollow" class="a2a_i" href="/" target="_blank" style="display: none; "><span class="a2a_i_linkagogo">LinkaGoGo</span></a><a id="a2apage_unalog" rel="nofollow" class="a2a_i" href="/" target="_blank" style="display: none; "><span class="a2a_i_unalog">unalog</span></a><a id="a2apage_hugg" rel="nofollow" class="a2a_i" href="/" target="_blank" style="display: none; "><span class="a2a_i_hugg">Hugg</span></a><a id="a2apage_diglog" rel="nofollow" class="a2a_i" href="/" target="_blank" style="display: none; "><span class="a2a_i_diglog">Diglog</span></a><a id="a2apage_nowpublic" rel="nofollow" class="a2a_i" href="/" target="_blank" style="display: none; "><span class="a2a_i_nowpublic">NowPublic</span></a><a id="a2apage_tumblr" rel="nofollow" class="a2a_i" href="/" target="_blank" style="display: none; "><span class="a2a_i_tumblr">Tumblr</span></a><a id="a2apage_livejournal" rel="nofollow" class="a2a_i" href="/" target="_blank" style="display: none; "><span class="a2a_i_livejournal">LiveJournal</span></a><a id="a2apage_current" rel="nofollow" class="a2a_i" href="/" target="_blank" style="display: none; "><span class="a2a_i_current">Current</span></a><a id="a2apage_hellotxt" rel="nofollow" class="a2a_i" href="/" target="_blank" style="display: none; "><span class="a2a_i_hellotxt">HelloTxt</span></a><a id="a2apage_spurl" rel="nofollow" class="a2a_i" href="/" target="_blank" style="display: none; "><span class="a2a_i_spurl">Spurl</span></a><a id="a2apage_yample" rel="nofollow" class="a2a_i" href="/" target="_blank" style="display: none; "><span class="a2a_i_yample">Yample</span></a><a id="a2apage_oneview" rel="nofollow" class="a2a_i" href="/" target="_blank" style="display: none; "><span class="a2a_i_oneview">Oneview</span></a><a id="a2apage_linkatopia" rel="nofollow" class="a2a_i" href="/" target="_blank" style="display: none; "><span class="a2a_i_linkatopia">Linkatopia</span></a><a id="a2apage_simpy" rel="nofollow" class="a2a_i" href="/" target="_blank" style="display: none; "><span class="a2a_i_simpy">Simpy</span></a><a id="a2apage_linkedin" rel="nofollow" class="a2a_i" href="/" target="_blank" style="display: none; "><span class="a2a_i_linkedin">LinkedIn</span></a><a id="a2apage_buddymarks" rel="nofollow" class="a2a_i" href="/" target="_blank" style="display: none; "><span class="a2a_i_buddymarks">BuddyMarks</span></a><a id="a2apage_ask_com_mystuff" rel="nofollow" class="a2a_i" href="/" target="_blank" style="display: none; "><span class="a2a_i_ask">Ask.com MyStuff</span></a><a id="a2apage_viadeo" rel="nofollow" class="a2a_i" href="/" target="_blank" style="display: none; "><span class="a2a_i_viadeo">Viadeo</span></a><a id="a2apage_maple" rel="nofollow" class="a2a_i" href="/" target="_blank" style="display: none; "><span class="a2a_i_maple">Maple</span></a><a id="a2apage_wists" rel="nofollow" class="a2a_i" href="/" target="_blank" style="display: none; "><span class="a2a_i_wists">Wists</span></a><a id="a2apage_connotea" rel="nofollow" class="a2a_i" href="/" target="_blank" style="display: none; "><span class="a2a_i_connotea">Connotea</span></a><a id="a2apage_backflip" rel="nofollow" class="a2a_i" href="/" target="_blank" style="display: none; "><span class="a2a_i_backflip">Backflip</span></a><a id="a2apage_mylinkvault" rel="nofollow" class="a2a_i" href="/" target="_blank" style="display: none; "><span class="a2a_i_mylinkvault">MyLinkVault</span></a><a id="a2apage_sitejot" rel="nofollow" class="a2a_i" href="/" target="_blank" style="display: none; "><span class="a2a_i_sitejot">SiteJot</span></a><a id="a2apage_sphinn" rel="nofollow" class="a2a_i" href="/" target="_blank" style="display: none; "><span class="a2a_i_sphinn">Sphinn</span></a><a id="a2apage_dzone" rel="nofollow" class="a2a_i" href="/" target="_blank" style="display: none; "><span class="a2a_i_dzone">DZone</span></a><a id="a2apage_care2_news" rel="nofollow" class="a2a_i" href="/" target="_blank" style="display: none; "><span class="a2a_i_care2">Care2 News</span></a><a id="a2apage_hyves" rel="nofollow" class="a2a_i" href="/" target="_blank" style="display: none; "><span class="a2a_i_hyves">Hyves</span></a><a id="a2apage_sphere" rel="nofollow" class="a2a_i" href="/" target="_blank" style="display: none; "><span class="a2a_i_sphere">Sphere</span></a><a id="a2apage_bitty_browser" rel="nofollow" class="a2a_i" href="/" target="_blank" style="display: none; "><span class="a2a_i_bitty">Bitty Browser</span></a><a id="a2apage_gabbr" rel="nofollow" class="a2a_i" href="/" target="_blank" style="display: none; "><span class="a2a_i_gabbr">Gabbr</span></a><a id="a2apage_symbaloo_feeds" rel="nofollow" class="a2a_i" href="/" target="_blank" style="display: none; "><span class="a2a_i_symbaloo">Symbaloo Feeds</span></a><a id="a2apage_tagza" rel="nofollow" class="a2a_i" href="/" target="_blank" style="display: none; "><span class="a2a_i_tagza">Tagza</span></a><a id="a2apage_folkd" rel="nofollow" class="a2a_i" href="/" target="_blank" style="display: none; "><span class="a2a_i_folkd">Folkd</span></a><a id="a2apage_newstrust" rel="nofollow" class="a2a_i" href="/" target="_blank" style="display: none; "><span class="a2a_i_newstrust">NewsTrust</span></a><a id="a2apage_amazon_wish_list" rel="nofollow" class="a2a_i" href="/" target="_blank" style="display: none; "><span class="a2a_i_amazon">Amazon Wish List</span></a><a id="a2apage_printfriendly" rel="nofollow" class="a2a_i" href="/" target="_blank" style="display: none; "><span class="a2a_i_printfriendly">PrintFriendly</span></a><a id="a2apage_read_it_later" rel="nofollow" class="a2a_i" href="/" target="_blank" style="display: none; "><span class="a2a_i_read_it_later">Read It Later</span></a><a id="a2apage_tuenti" rel="nofollow" class="a2a_i" href="/" target="_blank" style="display: none; "><span class="a2a_i_tuenti">Tuenti</span></a><a id="a2apage_email" rel="nofollow" class="a2a_i" href="/" target="_blank" style="display: none; "><span class="a2a_i_email">Email</span></a><a id="a2apage_rediff" rel="nofollow" class="a2a_i" href="/" target="_blank" style="display: none; "><span class="a2a_i_rediff">Rediff MyPage</span></a></div><div id="a2apage_2_col1" style="display: none; "><a id="a2apage_google_gmail" rel="nofollow" class="a2a_i" href="/" target="_blank"><span class="a2a_i_gmail">Google Gmail</span></a><a id="a2apage_yahoo_mail" rel="nofollow" class="a2a_i" href="/" target="_blank"><span class="a2a_i_yahoo">Yahoo Mail</span></a><a id="a2apage_hotmail" rel="nofollow" class="a2a_i" href="/" target="_blank"><span class="a2a_i_live">Hotmail</span></a><a id="a2apage_aol_mail" rel="nofollow" class="a2a_i" href="/" target="_blank"><span class="a2a_i_aol">AOL Mail</span></a><a id="a2apage_any_email" rel="nofollow" class="a2a_i a2a_emailer" href="/" target="_blank"><span class="a2a_i_email">Any email</span></a><a id="a2apage_email_client" rel="nofollow" class="a2a_i a2a_emailer a2a_email_client" href="/" target=""><span class="a2a_i_outlook">&nbsp;</span><span class="a2a_i_windows_mail">&nbsp;</span><span class="a2a_i_apple_mail">&nbsp;</span><span class="a2a_i_thunderbird">&nbsp;</span></a></div><div class="a2a_clear"></div></div><div id="a2apage_note_BROWSER" class="a2a_note" style="display:none"></div><div class="a2apage_wide a2a_wide" style=""><a href="javascript:void(0)" id="a2apage_show_more_less" class="a2a_menu_show_more_less" onclick="return a2a.show_more_less(0)" onmouseover="img=this.firstChild;if(a2a.c.color_arrow_hover==\'fff\'){if(img.className.indexOf(\'_wt\')==-1)img.className =\'_wt\'}else img.className=img.className.replace(/_wt/,\'\')" onmouseout="img=this.firstChild;if(a2a.c.color_arrow==\'fff\'){if(img.className.indexOf(\'_wt\')==-1)img.className =\'_wt\'}else img.className=img.className.replace(/_wt/,\'\')" title="Show all"><span class="a2a_i_darr"></span></a></div><div class="a2a_menu_powered_by" id="a2apage_powered_by" onmouseover="if(this.innerHTML!=this.orig&amp;&amp;!window.opera)this.innerHTML=this.orig;this.style.textAlign=\'center\'" style="">By <a href="http://share.lockerz.com/" target="_blank" title="Share Buttons">Lockerz</a></div></div></div></div>\n  <div class="wrapper"><!-- for sticky footer -->\n    <div class="flash" style="display: none; "></div>\n    <div class="header">\n      <div class="container">\n        <div class="sixteen columns">\n\t  <img src="http://127.0.0.1:8000/examples/static/images/web2py_logo.png">\n          <h5></h5>\n        </div>\n        <div class="sixteen columns statusbar">\n          <div id="menu"><ul class="sf-menu"><li><a href="http://127.0.0.1:8000/examples/default/index">Home</a></li><li><a href="http://127.0.0.1:8000/examples/default/what">About</a></li><li><a href="http://127.0.0.1:8000/examples/default/download">Download</a></li><li><a href="http://127.0.0.1:8000/examples/default/documentation">Docs &amp; Resources</a></li><li><a href="http://127.0.0.1:8000/examples/default/support">Support</a></li><li><a href="http://127.0.0.1:8000/examples/default/who">Contributors</a></li></ul>\n            <!-- AddToAny BEGIN -->\n            <div style="float:right;padding-top:6px;" class="a2a_kit a2a_default_style">\n            <a class="a2a_dd" href="http://www.addtoany.com/share_save#url=http%3A%2F%2F127.0.0.1%3A8000%2Finplace%2Fdefault%2Fedit%3Furl%3Dhttp%253A%252F%252F127.0.0.1%253A8000%252Finplace%252Fdefault%252Fpage%252F1&amp;title=web2py%20Web%20Framework&amp;description="><span class="a2a_img a2a_img_text a2a_i_a2a"></span>Share</a><div style="clear: both; "></div></div>\n            <script type="text/javascript" src="http://static.addtoany.com/menu/page.js"></script>\n            <!-- AddToAny END -->\n          </div>\n\t  <div class="sixteen columns announce">\n\t    <a href="http://www.infoworld.com/d/open-source-software/bossie-awards-2011-the-best-open-source-application-development-software-171759-0&amp;current=10&amp;last=1#slideshowTop">2011 BOSSIE AWARD FOR OPEN SOURCE DEVELOPMENT SOFTWARE</a>\n          </div>\n\t</div>\n      </div>\n    </div>\n    <div class="main">\n      <div class="container mainbody">\n        <div class="sixteen columns">\n          <div class="ten columns center">\n<center>\n  <img src="http://127.0.0.1:8000/examples/static/images/tag-cloud-color-small.png">\n</center>\n<h3><br></h3>\n<p><br></p>\n          </div>\n          <div class="five columns">\n<div style="text-align:center">\n  <a href="http://web2py.com/book"><img src="http://127.0.0.1:8000/examples/static/images/tablet.png" alt="Tablet"></a><br>\n  <a href="http://www.lulu.com/product/paperback/web2py-book-(4th-edition)/18738286"><img src="http://static.lulu.com/images/services/buy_now_buttons/us/book.gif?20111206124946" border="0" alt="Support independent publishing: Buy this book on Lulu."></a><br>\n  <a class="button" href="http://127.0.0.1:8000/examples/default/download" style="width:90%">DOWNLOAD NOW</a><br>\n  <a class="button" href="http://web2py.com/demo_admin" style="width:90%">ONLINE DEMO</a><br>\n  <a class="button" href="http://web2py.com/poweredby" style="width:90%">SITES POWERED</a>\n</div>\n          </div>\n        </div>\n      </div><!-- container -->\n<div class="container">\n  <div class="sixteen columns">\n    <div class="five columns">\n      <h3><a href="http://127.0.0.1:8000/examples/default/about">BATTERIES INCLUDED</a></h3>\n      <p>Everything you need in one package including fast multi-threaded web server, SQL database and web-based interface. No third party dependencies but works with <a href="/examples/default/what">third party tools</a>.</p>\n    </div>\n    <div class="five columns">\n      <h3><a href="http://web2py.com/demo_admin">WEB-BASED IDE</a></h3>\n      <p>Create, modify, deploy and manage application from anywhere using your browser. One web2py instance can run multiple web sites using different databases. Try the <a href="http://web2py.com/demo_admin">interactive demo</a>.</p>\n    </div>\n    <div class="five columns">\n      <h3><a href="http://127.0.0.1:8000/examples/default/documentation">EXTENSIVE DOCS</a></h3>\n      <p>Start with some <a href="http://127.0.0.1:8000/examples/default/examples">quick examples</a>, then read the <a href="http://web2py.com/book">reference manual</a>, watch <a href="http://vimeo.com/album/178500">videos</a>, and join a <a href="http://127.0.0.1:8000/examples/default/usergroups">user group</a> for discussion. Take advantage of the <a href="http://web2py.com/layouts">layouts</a>, <a href="http://dev.s-cubism.com/web2py_plugins">plugins</a>, and <a href="http://web2pyslices.com">recipes</a>.</p>\n    </div>\n  </div>\n</div>\n<div class="container">\n  <div class="sixteen columns">\n    <img src="http://127.0.0.1:8000/examples/static/images/shadow-bottom.png" width="100%">\n    <div class="five columns">\n      <em>\n\t<p>Please use www.web2py.com when using MVC , no PHP/SQL stuff please...its 2011 not 1999</p>\n      </em>\n      <span class="right">\n\t<a href="http://twitter.com/#!/rabblesoft/status/79189028431343616"><em>rabblesoft</em></a>\n      </span>\n    </div>\n    <div class="five columns">\n      <em>\n\t<p>web2py was the life saver today for me, my blog post: Standalone Usage of web2py\'s</p>\n      </em>\n      <span class="right">\n\t<a href="http://twitter.com/#!/caglartoklu/status/84292131707031553"><em>caglartoklu</em></a>\n      </span>\n    </div>\n    <div class="five columns">\n      <em>\n\t<p>web2py it is. Compatible with everything under the sun and great interfaces to googleappengine</p>\n      </em>\n      <span class="right">\n\t<a href="http://twitter.com/#!/comamitc/status/51744719071477760"><em>comamitc</em></a>\n      </span>\n    </div>\n  </div>\n</div>\n    </div><!-- main -->\n    <div class="push"></div>\n  </div><!-- wrapper -->\n  <div class="footer">\n    <div class="container header">\n      <div class="sixteen columns">\n         <!-- this is default footer -->\n        <div class="footer-content">\n          Copyright \xa9 2011\n\t  - User communities in <a href="https://groups.google.com/forum/?fromgroups#!forum/web2py" target="_blank">English</a><a>, </a><a href="https://groups.google.com/forum/?fromgroups#!forum/web2py-fr" target="_blank">French</a>, <a href="https://groups.google.com/forum/?fromgroups#!forum/web2py-japan" target="_blank">Japanese</a>, <a href="https://groups.google.com/forum/?fromgroups#!forum/web2py-users-brazil" target="_blank">Portuguese</a>, and <a href="https://groups.google.com/forum/?fromgroups#!forum/web2py-usuarios" target="_blank">Spanish</a>.\n          <div style="float: right;">\n            <a href="http://www.web2py.com/" style="float: left; padding-right: 6px;">\n            <img style="padding-bottom: 0;" src="http://127.0.0.1:8000/examples/static/images/poweredby.png">\n            </a>\n          </div>\n        </div>\n      </div>\n    </div><!-- container -->\n  </div><!-- footer -->\n  <!--[if lt IE 7 ]>\n\t<script src="http://127.0.0.1:8000/examples/static/js/dd_belatedpng.js"></script>\n\t<script> DD_belatedPNG.fix(\'img, .png_bg\'); //fix any <img> or .png_bg background-images </script>\n\t<![endif]-->\n\n\n</body></html>'
p3838
asbasbasbag49
(g65
g51
NtRp3839
(dp3840
g54
(dp3841
sg63
g3503
sg56
(lp3842
g49
(g70
g51
NtRp3843
(dp3844
g54
(dp3845
g74
g75
ssg63
g3839
sg56
(lp3846
S'url'
p3847
asbag49
(g70
g51
NtRp3848
(dp3849
g54
(dp3850
g81
g82
ssg63
g3839
sg56
(lp3851
S':'
asbag49
(g70
g51
NtRp3852
(dp3853
g54
(dp3854
sg63
g3839
sg56
(lp3855
g49
(g50
g51
NtRp3856
(dp3857
g54
(dp3858
g62
I5
ssg63
g3852
sg56
(lp3859
S'http://127.0.0.1:8000/inplace/default/page/1'
p3860
asbasbasbasbasbsS'etype'
p3861
S"<type 'exceptions.AttributeError'>"
p3862
sS'date'
p3863
S'Sun Dec 11 16:21:57 2011'
p3864
sS'response'
p3865
g49
(g50
g51
NtRp3866
(dp3867
g54
(dp3868
sg56
(lp3869
g49
(g58
g51
NtRp3870
(dp3871
g54
(dp3872
g62
I5
ssg63
Nsg56
(lp3873
g49
(g65
g51
NtRp3874
(dp3875
g54
(dp3876
sg63
g3870
sg56
(lp3877
g49
(g70
g51
NtRp3878
(dp3879
g54
(dp3880
g74
g75
ssg63
g3874
sg56
(lp3881
g159
asbag49
(g70
g51
NtRp3882
(dp3883
g54
(dp3884
g81
g82
ssg63
g3874
sg56
(lp3885
S':'
asbag49
(g70
g51
NtRp3886
(dp3887
g54
(dp3888
sg63
g3874
sg56
(lp3889
g49
(g50
g51
NtRp3890
(dp3891
g54
(dp3892
g62
I5
ssg63
g3886
sg56
(lp3893
S'<cStringIO.StringO object at 0x1d00fe0>'
p3894
asbasbasbag49
(g65
g51
NtRp3895
(dp3896
g54
(dp3897
sg63
g3870
sg56
(lp3898
g49
(g70
g51
NtRp3899
(dp3900
g54
(dp3901
g74
g75
ssg63
g3895
sg56
(lp3902
g225
asbag49
(g70
g51
NtRp3903
(dp3904
g54
(dp3905
g81
g82
ssg63
g3895
sg56
(lp3906
S':'
asbag49
(g70
g51
NtRp3907
(dp3908
g54
(dp3909
sg63
g3895
sg56
(lp3910
g49
(g50
g51
NtRp3911
(dp3912
g54
(dp3913
g62
I5
ssg63
g3907
sg56
(lp3914
g49
(g58
g51
NtRp3915
(dp3916
g54
(dp3917
g62
I4
ssg63
Nsg56
(lp3918
g49
(g65
g51
NtRp3919
(dp3920
g54
(dp3921
sg63
g3915
sg56
(lp3922
g49
(g70
g51
NtRp3923
(dp3924
g54
(dp3925
g74
g75
ssg63
g3919
sg56
(lp3926
S'session_id_inplace'
p3927
asbag49
(g70
g51
NtRp3928
(dp3929
g54
(dp3930
g81
g82
ssg63
g3919
sg56
(lp3931
S':'
asbag49
(g70
g51
NtRp3932
(dp3933
g54
(dp3934
sg63
g3919
sg56
(lp3935
g49
(g50
g51
NtRp3936
(dp3937
g54
(dp3938
g62
I4
ssg63
g3932
sg56
(lp3939
g49
(g58
g51
NtRp3940
(dp3941
g54
(dp3942
g62
I3
ssg63
Nsg56
(lp3943
g49
(g65
g51
NtRp3944
(dp3945
g54
(dp3946
sg63
g3940
sg56
(lp3947
g49
(g70
g51
NtRp3948
(dp3949
g54
(dp3950
g74
g75
ssg63
g3944
sg56
(lp3951
g275
asbag49
(g70
g51
NtRp3952
(dp3953
g54
(dp3954
g81
g82
ssg63
g3944
sg56
(lp3955
S':'
asbag49
(g70
g51
NtRp3956
(dp3957
g54
(dp3958
sg63
g3944
sg56
(lp3959
g49
(g50
g51
NtRp3960
(dp3961
g54
(dp3962
g62
I3
ssg63
g3956
sg56
(lp3963
S''
asbasbasbag49
(g65
g51
NtRp3964
(dp3965
g54
(dp3966
sg63
g3940
sg56
(lp3967
g49
(g70
g51
NtRp3968
(dp3969
g54
(dp3970
g74
g75
ssg63
g3964
sg56
(lp3971
g296
asbag49
(g70
g51
NtRp3972
(dp3973
g54
(dp3974
g81
g82
ssg63
g3964
sg56
(lp3975
S':'
asbag49
(g70
g51
NtRp3976
(dp3977
g54
(dp3978
sg63
g3964
sg56
(lp3979
g49
(g50
g51
NtRp3980
(dp3981
g54
(dp3982
g62
I3
ssg63
g3976
sg56
(lp3983
S''
asbasbasbag49
(g65
g51
NtRp3984
(dp3985
g54
(dp3986
sg63
g3940
sg56
(lp3987
g49
(g70
g51
NtRp3988
(dp3989
g54
(dp3990
g74
g75
ssg63
g3984
sg56
(lp3991
g317
asbag49
(g70
g51
NtRp3992
(dp3993
g54
(dp3994
g81
g82
ssg63
g3984
sg56
(lp3995
S':'
asbag49
(g70
g51
NtRp3996
(dp3997
g54
(dp3998
sg63
g3984
sg56
(lp3999
g49
(g50
g51
NtRp4000
(dp4001
g54
(dp4002
g62
I3
ssg63
g3996
sg56
(lp4003
S''
asbasbasbag49
(g65
g51
NtRp4004
(dp4005
g54
(dp4006
sg63
g3940
sg56
(lp4007
g49
(g70
g51
NtRp4008
(dp4009
g54
(dp4010
g74
g75
ssg63
g4004
sg56
(lp4011
g338
asbag49
(g70
g51
NtRp4012
(dp4013
g54
(dp4014
g81
g82
ssg63
g4004
sg56
(lp4015
S':'
asbag49
(g70
g51
NtRp4016
(dp4017
g54
(dp4018
sg63
g4004
sg56
(lp4019
g49
(g50
g51
NtRp4020
(dp4021
g54
(dp4022
g62
I3
ssg63
g4016
sg56
(lp4023
S''
asbasbasbag49
(g65
g51
NtRp4024
(dp4025
g54
(dp4026
sg63
g3940
sg56
(lp4027
g49
(g70
g51
NtRp4028
(dp4029
g54
(dp4030
g74
g75
ssg63
g4024
sg56
(lp4031
g359
asbag49
(g70
g51
NtRp4032
(dp4033
g54
(dp4034
g81
g82
ssg63
g4024
sg56
(lp4035
S':'
asbag49
(g70
g51
NtRp4036
(dp4037
g54
(dp4038
sg63
g4024
sg56
(lp4039
g49
(g50
g51
NtRp4040
(dp4041
g54
(dp4042
g62
I3
ssg63
g4036
sg56
(lp4043
S'/'
asbasbasbag49
(g65
g51
NtRp4044
(dp4045
g54
(dp4046
sg63
g3940
sg56
(lp4047
g49
(g70
g51
NtRp4048
(dp4049
g54
(dp4050
g74
g75
ssg63
g4044
sg56
(lp4051
g380
asbag49
(g70
g51
NtRp4052
(dp4053
g54
(dp4054
g81
g82
ssg63
g4044
sg56
(lp4055
S':'
asbag49
(g70
g51
NtRp4056
(dp4057
g54
(dp4058
sg63
g4044
sg56
(lp4059
g49
(g50
g51
NtRp4060
(dp4061
g54
(dp4062
g62
I3
ssg63
g4056
sg56
(lp4063
S''
asbasbasbag49
(g65
g51
NtRp4064
(dp4065
g54
(dp4066
sg63
g3940
sg56
(lp4067
g49
(g70
g51
NtRp4068
(dp4069
g54
(dp4070
g74
g75
ssg63
g4064
sg56
(lp4071
g401
asbag49
(g70
g51
NtRp4072
(dp4073
g54
(dp4074
g81
g82
ssg63
g4064
sg56
(lp4075
S':'
asbag49
(g70
g51
NtRp4076
(dp4077
g54
(dp4078
sg63
g4064
sg56
(lp4079
g49
(g50
g51
NtRp4080
(dp4081
g54
(dp4082
g62
I3
ssg63
g4076
sg56
(lp4083
S''
asbasbasbasbasbasbasbasbasbasbasbag49
(g65
g51
NtRp4084
(dp4085
g54
(dp4086
sg63
g3870
sg56
(lp4087
g49
(g70
g51
NtRp4088
(dp4089
g54
(dp4090
g74
g75
ssg63
g4084
sg56
(lp4091
S'files'
p4092
asbag49
(g70
g51
NtRp4093
(dp4094
g54
(dp4095
g81
g82
ssg63
g4084
sg56
(lp4096
S':'
asbag49
(g70
g51
NtRp4097
(dp4098
g54
(dp4099
sg63
g4084
sg56
(lp4100
g49
(g50
g51
NtRp4101
(dp4102
g54
(dp4103
g62
I5
ssg63
g4097
sg56
(lp4104
g49
(g58
g51
NtRp4105
(dp4106
g54
(dp4107
g62
I4
ssg63
Nsg56
(lp4108
sbasbasbasbag49
(g65
g51
NtRp4109
(dp4110
g54
(dp4111
sg63
g3870
sg56
(lp4112
g49
(g70
g51
NtRp4113
(dp4114
g54
(dp4115
g74
g75
ssg63
g4109
sg56
(lp4116
S'flash'
p4117
asbag49
(g70
g51
NtRp4118
(dp4119
g54
(dp4120
g81
g82
ssg63
g4109
sg56
(lp4121
S':'
asbag49
(g70
g51
NtRp4122
(dp4123
g54
(dp4124
sg63
g4109
sg56
(lp4125
g49
(g50
g51
NtRp4126
(dp4127
g54
(dp4128
g62
I5
ssg63
g4122
sg56
(lp4129
S''
asbasbasbag49
(g65
g51
NtRp4130
(dp4131
g54
(dp4132
sg63
g3870
sg56
(lp4133
g49
(g70
g51
NtRp4134
(dp4135
g54
(dp4136
g74
g75
ssg63
g4130
sg56
(lp4137
S'generic_patterns'
p4138
asbag49
(g70
g51
NtRp4139
(dp4140
g54
(dp4141
g81
g82
ssg63
g4130
sg56
(lp4142
S':'
asbag49
(g70
g51
NtRp4143
(dp4144
g54
(dp4145
sg63
g4130
sg56
(lp4146
g49
(g50
g51
NtRp4147
(dp4148
g54
(dp4149
g62
I5
ssg63
g4143
sg56
(lp4150
g49
(g58
g51
NtRp4151
(dp4152
g54
(dp4153
g62
I4
ssg63
Nsg56
(lp4154
g49
(g65
g51
NtRp4155
(dp4156
g54
(dp4157
sg63
g4151
sg56
(lp4158
g49
(g70
g51
NtRp4159
(dp4160
g54
(dp4161
sg63
g4155
sg56
(lp4162
g49
(g50
g51
NtRp4163
(dp4164
g54
(dp4165
g62
I4
ssg63
g4159
sg56
(lp4166
S'*'
asbasbasbasbasbasbasbag49
(g65
g51
NtRp4167
(dp4168
g54
(dp4169
sg63
g3870
sg56
(lp4170
g49
(g70
g51
NtRp4171
(dp4172
g54
(dp4173
g74
g75
ssg63
g4167
sg56
(lp4174
S'headers'
p4175
asbag49
(g70
g51
NtRp4176
(dp4177
g54
(dp4178
g81
g82
ssg63
g4167
sg56
(lp4179
S':'
asbag49
(g70
g51
NtRp4180
(dp4181
g54
(dp4182
sg63
g4167
sg56
(lp4183
g49
(g50
g51
NtRp4184
(dp4185
g54
(dp4186
g62
I5
ssg63
g4180
sg56
(lp4187
g49
(g58
g51
NtRp4188
(dp4189
g54
(dp4190
g62
I4
ssg63
Nsg56
(lp4191
g49
(g65
g51
NtRp4192
(dp4193
g54
(dp4194
sg63
g4188
sg56
(lp4195
g49
(g70
g51
NtRp4196
(dp4197
g54
(dp4198
g74
g75
ssg63
g4192
sg56
(lp4199
S'Cache-Control'
p4200
asbag49
(g70
g51
NtRp4201
(dp4202
g54
(dp4203
g81
g82
ssg63
g4192
sg56
(lp4204
S':'
asbag49
(g70
g51
NtRp4205
(dp4206
g54
(dp4207
sg63
g4192
sg56
(lp4208
g49
(g50
g51
NtRp4209
(dp4210
g54
(dp4211
g62
I4
ssg63
g4205
sg56
(lp4212
S'no-store, no-cache, must-revalidate, post-check=0, pre-check=0'
p4213
asbasbasbag49
(g65
g51
NtRp4214
(dp4215
g54
(dp4216
sg63
g4188
sg56
(lp4217
g49
(g70
g51
NtRp4218
(dp4219
g54
(dp4220
g74
g75
ssg63
g4214
sg56
(lp4221
S'Content-Type'
p4222
asbag49
(g70
g51
NtRp4223
(dp4224
g54
(dp4225
g81
g82
ssg63
g4214
sg56
(lp4226
S':'
asbag49
(g70
g51
NtRp4227
(dp4228
g54
(dp4229
sg63
g4214
sg56
(lp4230
g49
(g50
g51
NtRp4231
(dp4232
g54
(dp4233
g62
I4
ssg63
g4227
sg56
(lp4234
S'text/html; charset=utf-8'
p4235
asbasbasbag49
(g65
g51
NtRp4236
(dp4237
g54
(dp4238
sg63
g4188
sg56
(lp4239
g49
(g70
g51
NtRp4240
(dp4241
g54
(dp4242
g74
g75
ssg63
g4236
sg56
(lp4243
S'Expires'
p4244
asbag49
(g70
g51
NtRp4245
(dp4246
g54
(dp4247
g81
g82
ssg63
g4236
sg56
(lp4248
S':'
asbag49
(g70
g51
NtRp4249
(dp4250
g54
(dp4251
sg63
g4236
sg56
(lp4252
g49
(g50
g51
NtRp4253
(dp4254
g54
(dp4255
g62
I4
ssg63
g4249
sg56
(lp4256
S'Sun, 11 Dec 2011 22:21:57 GMT'
p4257
asbasbasbag49
(g65
g51
NtRp4258
(dp4259
g54
(dp4260
sg63
g4188
sg56
(lp4261
g49
(g70
g51
NtRp4262
(dp4263
g54
(dp4264
g74
g75
ssg63
g4258
sg56
(lp4265
S'Pragma'
p4266
asbag49
(g70
g51
NtRp4267
(dp4268
g54
(dp4269
g81
g82
ssg63
g4258
sg56
(lp4270
S':'
asbag49
(g70
g51
NtRp4271
(dp4272
g54
(dp4273
sg63
g4258
sg56
(lp4274
g49
(g50
g51
NtRp4275
(dp4276
g54
(dp4277
g62
I4
ssg63
g4271
sg56
(lp4278
S'no-cache'
p4279
asbasbasbag49
(g65
g51
NtRp4280
(dp4281
g54
(dp4282
sg63
g4188
sg56
(lp4283
g49
(g70
g51
NtRp4284
(dp4285
g54
(dp4286
g74
g75
ssg63
g4280
sg56
(lp4287
S'X-Powered-By'
p4288
asbag49
(g70
g51
NtRp4289
(dp4290
g54
(dp4291
g81
g82
ssg63
g4280
sg56
(lp4292
S':'
asbag49
(g70
g51
NtRp4293
(dp4294
g54
(dp4295
sg63
g4280
sg56
(lp4296
g49
(g50
g51
NtRp4297
(dp4298
g54
(dp4299
g62
I4
ssg63
g4293
sg56
(lp4300
S'web2py'
p4301
asbasbasbasbasbasbasbag49
(g65
g51
NtRp4302
(dp4303
g54
(dp4304
sg63
g3870
sg56
(lp4305
g49
(g70
g51
NtRp4306
(dp4307
g54
(dp4308
g74
g75
ssg63
g4302
sg56
(lp4309
S'menu'
p4310
asbag49
(g70
g51
NtRp4311
(dp4312
g54
(dp4313
g81
g82
ssg63
g4302
sg56
(lp4314
S':'
asbag49
(g70
g51
NtRp4315
(dp4316
g54
(dp4317
sg63
g4302
sg56
(lp4318
g49
(g50
g51
NtRp4319
(dp4320
g54
(dp4321
g62
I5
ssg63
g4315
sg56
(lp4322
g49
(g58
g51
NtRp4323
(dp4324
g54
(dp4325
g62
I4
ssg63
Nsg56
(lp4326
sbasbasbasbag49
(g65
g51
NtRp4327
(dp4328
g54
(dp4329
sg63
g3870
sg56
(lp4330
g49
(g70
g51
NtRp4331
(dp4332
g54
(dp4333
g74
g75
ssg63
g4327
sg56
(lp4334
S'meta'
p4335
asbag49
(g70
g51
NtRp4336
(dp4337
g54
(dp4338
g81
g82
ssg63
g4327
sg56
(lp4339
S':'
asbag49
(g70
g51
NtRp4340
(dp4341
g54
(dp4342
sg63
g4327
sg56
(lp4343
g49
(g50
g51
NtRp4344
(dp4345
g54
(dp4346
g62
I5
ssg63
g4340
sg56
(lp4347
g49
(g58
g51
NtRp4348
(dp4349
g54
(dp4350
g62
I4
ssg63
Nsg56
(lp4351
sbasbasbasbag49
(g65
g51
NtRp4352
(dp4353
g54
(dp4354
sg63
g3870
sg56
(lp4355
g49
(g70
g51
NtRp4356
(dp4357
g54
(dp4358
g74
g75
ssg63
g4352
sg56
(lp4359
S'postprocessing'
p4360
asbag49
(g70
g51
NtRp4361
(dp4362
g54
(dp4363
g81
g82
ssg63
g4352
sg56
(lp4364
S':'
asbag49
(g70
g51
NtRp4365
(dp4366
g54
(dp4367
sg63
g4352
sg56
(lp4368
g49
(g50
g51
NtRp4369
(dp4370
g54
(dp4371
g62
I5
ssg63
g4365
sg56
(lp4372
g49
(g58
g51
NtRp4373
(dp4374
g54
(dp4375
g62
I4
ssg63
Nsg56
(lp4376
sbasbasbasbag49
(g65
g51
NtRp4377
(dp4378
g54
(dp4379
sg63
g3870
sg56
(lp4380
g49
(g70
g51
NtRp4381
(dp4382
g54
(dp4383
g74
g75
ssg63
g4377
sg56
(lp4384
S'session_file'
p4385
asbag49
(g70
g51
NtRp4386
(dp4387
g54
(dp4388
g81
g82
ssg63
g4377
sg56
(lp4389
S':'
asbag49
(g70
g51
NtRp4390
(dp4391
g54
(dp4392
sg63
g4377
sg56
(lp4393
g49
(g50
g51
NtRp4394
(dp4395
g54
(dp4396
g62
I5
ssg63
g4390
sg56
(lp4397
S"<open file '/Users/mdipierro/Dropbox/web2py/applications/inplace/sessions/127.0.0.1-b67af904-b8cf-469d-95b3-18285a004db1', mode 'rb+' at 0x29d7218>"
p4398
asbasbasbag49
(g65
g51
NtRp4399
(dp4400
g54
(dp4401
sg63
g3870
sg56
(lp4402
g49
(g70
g51
NtRp4403
(dp4404
g54
(dp4405
g74
g75
ssg63
g4399
sg56
(lp4406
S'session_filename'
p4407
asbag49
(g70
g51
NtRp4408
(dp4409
g54
(dp4410
g81
g82
ssg63
g4399
sg56
(lp4411
S':'
asbag49
(g70
g51
NtRp4412
(dp4413
g54
(dp4414
sg63
g4399
sg56
(lp4415
g49
(g50
g51
NtRp4416
(dp4417
g54
(dp4418
g62
I5
ssg63
g4412
sg56
(lp4419
S'/Users/mdipierro/Dropbox/web2py/applications/inplace/sessions/127.0.0.1-b67af904-b8cf-469d-95b3-18285a004db1'
p4420
asbasbasbag49
(g65
g51
NtRp4421
(dp4422
g54
(dp4423
sg63
g3870
sg56
(lp4424
g49
(g70
g51
NtRp4425
(dp4426
g54
(dp4427
g74
g75
ssg63
g4421
sg56
(lp4428
S'session_id'
p4429
asbag49
(g70
g51
NtRp4430
(dp4431
g54
(dp4432
g81
g82
ssg63
g4421
sg56
(lp4433
S':'
asbag49
(g70
g51
NtRp4434
(dp4435
g54
(dp4436
sg63
g4421
sg56
(lp4437
g49
(g50
g51
NtRp4438
(dp4439
g54
(dp4440
g62
I5
ssg63
g4434
sg56
(lp4441
S'127.0.0.1-b67af904-b8cf-469d-95b3-18285a004db1'
p4442
asbasbasbag49
(g65
g51
NtRp4443
(dp4444
g54
(dp4445
sg63
g3870
sg56
(lp4446
g49
(g70
g51
NtRp4447
(dp4448
g54
(dp4449
g74
g75
ssg63
g4443
sg56
(lp4450
S'session_id_name'
p4451
asbag49
(g70
g51
NtRp4452
(dp4453
g54
(dp4454
g81
g82
ssg63
g4443
sg56
(lp4455
S':'
asbag49
(g70
g51
NtRp4456
(dp4457
g54
(dp4458
sg63
g4443
sg56
(lp4459
g49
(g50
g51
NtRp4460
(dp4461
g54
(dp4462
g62
I5
ssg63
g4456
sg56
(lp4463
g3927
asbasbasbag49
(g65
g51
NtRp4464
(dp4465
g54
(dp4466
sg63
g3870
sg56
(lp4467
g49
(g70
g51
NtRp4468
(dp4469
g54
(dp4470
g74
g75
ssg63
g4464
sg56
(lp4471
S'session_locked'
p4472
asbag49
(g70
g51
NtRp4473
(dp4474
g54
(dp4475
g81
g82
ssg63
g4464
sg56
(lp4476
S':'
asbag49
(g70
g51
NtRp4477
(dp4478
g54
(dp4479
sg63
g4464
sg56
(lp4480
g49
(g50
g51
NtRp4481
(dp4482
g54
(dp4483
g62
I5
ssg63
g4477
sg56
(lp4484
g2094
asbasbasbag49
(g65
g51
NtRp4485
(dp4486
g54
(dp4487
sg63
g3870
sg56
(lp4488
g49
(g70
g51
NtRp4489
(dp4490
g54
(dp4491
g74
g75
ssg63
g4485
sg56
(lp4492
S'session_new'
p4493
asbag49
(g70
g51
NtRp4494
(dp4495
g54
(dp4496
g81
g82
ssg63
g4485
sg56
(lp4497
S':'
asbag49
(g70
g51
NtRp4498
(dp4499
g54
(dp4500
sg63
g4485
sg56
(lp4501
g49
(g50
g51
NtRp4502
(dp4503
g54
(dp4504
g62
I5
ssg63
g4498
sg56
(lp4505
g92
asbasbasbag49
(g65
g51
NtRp4506
(dp4507
g54
(dp4508
sg63
g3870
sg56
(lp4509
g49
(g70
g51
NtRp4510
(dp4511
g54
(dp4512
g74
g75
ssg63
g4506
sg56
(lp4513
S'status'
p4514
asbag49
(g70
g51
NtRp4515
(dp4516
g54
(dp4517
g81
g82
ssg63
g4506
sg56
(lp4518
S':'
asbag49
(g70
g51
NtRp4519
(dp4520
g54
(dp4521
sg63
g4506
sg56
(lp4522
g49
(g50
g51
NtRp4523
(dp4524
g54
(dp4525
g62
I5
ssg63
g4519
sg56
(lp4526
S'200'
p4527
asbasbasbag49
(g65
g51
NtRp4528
(dp4529
g54
(dp4530
sg63
g3870
sg56
(lp4531
g49
(g70
g51
NtRp4532
(dp4533
g54
(dp4534
g74
g75
ssg63
g4528
sg56
(lp4535
S'subtitle'
p4536
asbag49
(g70
g51
NtRp4537
(dp4538
g54
(dp4539
g81
g82
ssg63
g4528
sg56
(lp4540
S':'
asbag49
(g70
g51
NtRp4541
(dp4542
g54
(dp4543
sg63
g4528
sg56
(lp4544
g49
(g50
g51
NtRp4545
(dp4546
g54
(dp4547
g62
I5
ssg63
g4541
sg56
(lp4548
S'The revolutionary CMS'
p4549
asbasbasbag49
(g65
g51
NtRp4550
(dp4551
g54
(dp4552
sg63
g3870
sg56
(lp4553
g49
(g70
g51
NtRp4554
(dp4555
g54
(dp4556
g74
g75
ssg63
g4550
sg56
(lp4557
S'title'
p4558
asbag49
(g70
g51
NtRp4559
(dp4560
g54
(dp4561
g81
g82
ssg63
g4550
sg56
(lp4562
S':'
asbag49
(g70
g51
NtRp4563
(dp4564
g54
(dp4565
sg63
g4550
sg56
(lp4566
g49
(g50
g51
NtRp4567
(dp4568
g54
(dp4569
g62
I5
ssg63
g4563
sg56
(lp4570
S'InPlace'
p4571
asbasbasbag49
(g65
g51
NtRp4572
(dp4573
g54
(dp4574
sg63
g3870
sg56
(lp4575
g49
(g70
g51
NtRp4576
(dp4577
g54
(dp4578
g74
g75
ssg63
g4572
sg56
(lp4579
g2779
asbag49
(g70
g51
NtRp4580
(dp4581
g54
(dp4582
g81
g82
ssg63
g4572
sg56
(lp4583
S':'
asbag49
(g70
g51
NtRp4584
(dp4585
g54
(dp4586
sg63
g4572
sg56
(lp4587
g49
(g50
g51
NtRp4588
(dp4589
g54
(dp4590
g62
I5
ssg63
g4584
sg56
(lp4591
g2792
asbasbasbag49
(g65
g51
NtRp4592
(dp4593
g54
(dp4594
sg63
g3870
sg56
(lp4595
g49
(g70
g51
NtRp4596
(dp4597
g54
(dp4598
g74
g75
ssg63
g4592
sg56
(lp4599
S'view'
p4600
asbag49
(g70
g51
NtRp4601
(dp4602
g54
(dp4603
g81
g82
ssg63
g4592
sg56
(lp4604
S':'
asbag49
(g70
g51
NtRp4605
(dp4606
g54
(dp4607
sg63
g4592
sg56
(lp4608
g49
(g50
g51
NtRp4609
(dp4610
g54
(dp4611
g62
I5
ssg63
g4605
sg56
(lp4612
S'default/folder.html'
p4613
asbasbasbasbasbsS'locals'
p4614
(dp4615
g2217
S'None'
p4616
sssS'traceback'
p4617
S'Traceback (most recent call last):\n  File "/Users/mdipierro/Dropbox/web2py/gluon/restricted.py", line 204, in restricted\n    exec ccode in environment\n  File "/Users/mdipierro/Dropbox/web2py/applications/inplace/controllers/default.py", line 90, in <module>\n  File "/Users/mdipierro/Dropbox/web2py/gluon/globals.py", line 172, in <lambda>\n    self._caller = lambda f: f()\n  File "/Users/mdipierro/Dropbox/web2py/applications/inplace/controllers/default.py", line 65, in folder\n    folder.path, f = [folder.name], folder.parent_folder\nAttributeError: \'NoneType\' object has no attribute \'name\'\n'
p4618
s.